
bbl:     file format elf64-littleriscv


Disassembly of section .text:

0000000000000000 <_ftext>:
       0:	2000006f          	j	200 <do_reset>

0000000000000004 <trap_vector>:
       4:	34011173          	csrrw	sp,mscratch,sp
       8:	1a010c63          	beqz	sp,1c0 <restore_regs+0x80>
       c:	04a13823          	sd	a0,80(sp)
      10:	04b13c23          	sd	a1,88(sp)
      14:	342025f3          	csrr	a1,mcause
      18:	0805d263          	bgez	a1,9c <trap_vector+0x98>
      1c:	00159593          	slli	a1,a1,0x1
      20:	00e00513          	li	a0,14
      24:	02b51263          	bne	a0,a1,48 <trap_vector+0x44>
      28:	08000513          	li	a0,128
      2c:	30453073          	csrc	mie,a0
      30:	02000513          	li	a0,32
      34:	34452073          	csrs	mip,a0
      38:	05013503          	ld	a0,80(sp)
      3c:	05813583          	ld	a1,88(sp)
      40:	34011173          	csrrw	sp,mscratch,sp
      44:	30200073          	mret
      48:	00600513          	li	a0,6
      4c:	18b51663          	bne	a0,a1,1d8 <restore_regs+0x98>
      50:	20013503          	ld	a0,512(sp)
      54:	00052023          	sw	zero,0(a0)
      58:	0ff0000f          	fence
      5c:	20812503          	lw	a0,520(sp)
      60:	20012423          	sw	zero,520(sp)
      64:	00157593          	andi	a1,a0,1
      68:	00058463          	beqz	a1,70 <trap_vector+0x6c>
      6c:	34416073          	csrsi	mip,2
      70:	00257593          	andi	a1,a0,2
      74:	00058463          	beqz	a1,7c <trap_vector+0x78>
      78:	0000100f          	fence.i
      7c:	00457593          	andi	a1,a0,4
      80:	00058463          	beqz	a1,88 <trap_vector+0x84>
      84:	12000073          	sfence.vma
      88:	00857593          	andi	a1,a0,8
      8c:	00058663          	beqz	a1,98 <trap_vector+0x94>
      90:	10500073          	wfi
      94:	ff5ff06f          	j	88 <trap_vector+0x84>
      98:	fa1ff06f          	j	38 <trap_vector+0x34>
      9c:	00113423          	sd	ra,8(sp)
      a0:	00313c23          	sd	gp,24(sp)
      a4:	02413023          	sd	tp,32(sp)
      a8:	02513423          	sd	t0,40(sp)
      ac:	0000b297          	auipc	t0,0xb
      b0:	02613823          	sd	t1,48(sp)
      b4:	00259313          	slli	t1,a1,0x2
      b8:	02713c23          	sd	t2,56(sp)
      bc:	00628333          	add	t1,t0,t1
      c0:	04813023          	sd	s0,64(sp)
      c4:	f5436303          	lwu	t1,-172(t1)
      c8:	04913423          	sd	s1,72(sp)
      cc:	00010513          	mv	a0,sp
      d0:	06c13023          	sd	a2,96(sp)
      d4:	34102673          	csrr	a2,mepc
      d8:	06d13423          	sd	a3,104(sp)
      dc:	340012f3          	csrrw	t0,mscratch,zero
      e0:	06e13823          	sd	a4,112(sp)
      e4:	06f13c23          	sd	a5,120(sp)
      e8:	09013023          	sd	a6,128(sp)
      ec:	09113423          	sd	a7,136(sp)
      f0:	09213823          	sd	s2,144(sp)
      f4:	09313c23          	sd	s3,152(sp)
      f8:	0b413023          	sd	s4,160(sp)
      fc:	0b513423          	sd	s5,168(sp)
     100:	0b613823          	sd	s6,176(sp)
     104:	0b713c23          	sd	s7,184(sp)
     108:	0d813023          	sd	s8,192(sp)
     10c:	0d913423          	sd	s9,200(sp)
     110:	0da13823          	sd	s10,208(sp)
     114:	0db13c23          	sd	s11,216(sp)
     118:	0fc13023          	sd	t3,224(sp)
     11c:	0fd13423          	sd	t4,232(sp)
     120:	0fe13823          	sd	t5,240(sp)
     124:	0ff13c23          	sd	t6,248(sp)
     128:	00513823          	sd	t0,16(sp)
     12c:	00012203          	lw	tp,0(sp)
     130:	00013023          	sd	zero,0(sp)
     134:	000300e7          	jalr	t1
     138:	00412023          	sw	tp,0(sp)

000000000000013c <restore_mscratch>:
     13c:	34011073          	csrw	mscratch,sp

0000000000000140 <restore_regs>:
     140:	00813083          	ld	ra,8(sp)
     144:	01813183          	ld	gp,24(sp)
     148:	02013203          	ld	tp,32(sp)
     14c:	02813283          	ld	t0,40(sp)
     150:	03013303          	ld	t1,48(sp)
     154:	03813383          	ld	t2,56(sp)
     158:	04013403          	ld	s0,64(sp)
     15c:	04813483          	ld	s1,72(sp)
     160:	05013503          	ld	a0,80(sp)
     164:	05813583          	ld	a1,88(sp)
     168:	06013603          	ld	a2,96(sp)
     16c:	06813683          	ld	a3,104(sp)
     170:	07013703          	ld	a4,112(sp)
     174:	07813783          	ld	a5,120(sp)
     178:	08013803          	ld	a6,128(sp)
     17c:	08813883          	ld	a7,136(sp)
     180:	09013903          	ld	s2,144(sp)
     184:	09813983          	ld	s3,152(sp)
     188:	0a013a03          	ld	s4,160(sp)
     18c:	0a813a83          	ld	s5,168(sp)
     190:	0b013b03          	ld	s6,176(sp)
     194:	0b813b83          	ld	s7,184(sp)
     198:	0c013c03          	ld	s8,192(sp)
     19c:	0c813c83          	ld	s9,200(sp)
     1a0:	0d013d03          	ld	s10,208(sp)
     1a4:	0d813d83          	ld	s11,216(sp)
     1a8:	0e013e03          	ld	t3,224(sp)
     1ac:	0e813e83          	ld	t4,232(sp)
     1b0:	0f013f03          	ld	t5,240(sp)
     1b4:	0f813f83          	ld	t6,248(sp)
     1b8:	01013103          	ld	sp,16(sp)
     1bc:	30200073          	mret
     1c0:	34002173          	csrr	sp,mscratch
     1c4:	f0010113          	addi	sp,sp,-256
     1c8:	04a13823          	sd	a0,80(sp)
     1cc:	04b13c23          	sd	a1,88(sp)
     1d0:	00d00593          	li	a1,13
     1d4:	ec9ff06f          	j	9c <trap_vector+0x98>
     1d8:	00000593          	li	a1,0
     1dc:	ec1ff06f          	j	9c <trap_vector+0x98>

00000000000001e0 <__redirect_trap>:
     1e0:	000012b7          	lui	t0,0x1
     1e4:	00510133          	add	sp,sp,t0
     1e8:	405002b3          	neg	t0,t0
     1ec:	00517133          	and	sp,sp,t0
     1f0:	dc010113          	addi	sp,sp,-576
     1f4:	f49ff06f          	j	13c <restore_mscratch>

00000000000001f8 <__trap_from_machine_mode>:
     1f8:	44d020ef          	jal	ra,2e44 <trap_from_machine_mode>
     1fc:	f45ff06f          	j	140 <restore_regs>

0000000000000200 <do_reset>:
     200:	00000093          	li	ra,0
     204:	00000113          	li	sp,0
     208:	00000193          	li	gp,0
     20c:	00000213          	li	tp,0
     210:	00000293          	li	t0,0
     214:	00000313          	li	t1,0
     218:	00000393          	li	t2,0
     21c:	00000413          	li	s0,0
     220:	00000493          	li	s1,0
     224:	00000613          	li	a2,0
     228:	00000693          	li	a3,0
     22c:	00000713          	li	a4,0
     230:	00000793          	li	a5,0
     234:	00000813          	li	a6,0
     238:	00000893          	li	a7,0
     23c:	00000913          	li	s2,0
     240:	00000993          	li	s3,0
     244:	00000a13          	li	s4,0
     248:	00000a93          	li	s5,0
     24c:	00000b13          	li	s6,0
     250:	00000b93          	li	s7,0
     254:	00000c13          	li	s8,0
     258:	00000c93          	li	s9,0
     25c:	00000d13          	li	s10,0
     260:	00000d93          	li	s11,0
     264:	00000e13          	li	t3,0
     268:	00000e93          	li	t4,0
     26c:	00000f13          	li	t5,0
     270:	00000f93          	li	t6,0
     274:	34001073          	csrw	mscratch,zero
     278:	00000297          	auipc	t0,0x0
     27c:	d8c28293          	addi	t0,t0,-628 # 4 <trap_vector>
     280:	30529073          	csrw	mtvec,t0
     284:	30502373          	csrr	t1,mtvec
     288:	00629063          	bne	t0,t1,288 <do_reset+0x88>
     28c:	0000d117          	auipc	sp,0xd
     290:	b3410113          	addi	sp,sp,-1228 # cdc0 <stacks+0xdc0>
     294:	f14026f3          	csrr	a3,mhartid
     298:	00c69613          	slli	a2,a3,0xc
     29c:	00c10133          	add	sp,sp,a2
     2a0:	00069463          	bnez	a3,2a8 <do_reset+0xa8>
     2a4:	5650206f          	j	3008 <init_first_hart>
     2a8:	00800613          	li	a2,8
     2ac:	30461073          	csrw	mie,a2
     2b0:	10500073          	wfi
     2b4:	ffdff06f          	j	2b0 <do_reset+0xb0>

00000000000002b8 <_dtb>:
     2b8:	0dd0                	addi	a2,sp,724
     2ba:	edfe                	sd	t6,216(sp)
     2bc:	0000                	unimp
     2be:	f702                	sd	zero,424(sp)
     2c0:	0000                	unimp
     2c2:	3800                	fld	fs0,48(s0)
     2c4:	0000                	unimp
     2c6:	5802                	lw	a6,32(sp)
     2c8:	0000                	unimp
     2ca:	2800                	fld	fs0,16(s0)
     2cc:	0000                	unimp
     2ce:	1100                	addi	s0,sp,160
     2d0:	0000                	unimp
     2d2:	1000                	addi	s0,sp,32
     2d4:	0000                	unimp
     2d6:	0000                	unimp
     2d8:	0000                	unimp
     2da:	9f00                	0x9f00
     2dc:	0000                	unimp
     2de:	2002                	fld	ft0,0(sp)
	...
     2f0:	0000                	unimp
     2f2:	0100                	addi	s0,sp,128
     2f4:	0000                	unimp
     2f6:	0000                	unimp
     2f8:	0000                	unimp
     2fa:	0300                	addi	s0,sp,384
     2fc:	0000                	unimp
     2fe:	0400                	addi	s0,sp,512
     300:	0000                	unimp
     302:	0000                	unimp
     304:	0000                	unimp
     306:	0100                	addi	s0,sp,128
     308:	0000                	unimp
     30a:	0300                	addi	s0,sp,384
     30c:	0000                	unimp
     30e:	0400                	addi	s0,sp,512
     310:	0000                	unimp
     312:	0f00                	addi	s0,sp,912
     314:	0000                	unimp
     316:	0100                	addi	s0,sp,128
     318:	0000                	unimp
     31a:	0300                	addi	s0,sp,384
     31c:	0000                	unimp
     31e:	1600                	addi	s0,sp,800
     320:	0000                	unimp
     322:	1b00                	addi	s0,sp,432
     324:	6b616873          	csrrsi	a6,0x6b6,2
     328:	6974                	ld	a3,208(a0)
     32a:	732c                	ld	a1,96(a4)
     32c:	6970                	ld	a2,208(a0)
     32e:	622d656b          	0x622d656b
     332:	7261                	lui	tp,0xffff8
     334:	2d65                	addiw	s10,s10,25
     336:	6564                	ld	s1,200(a0)
     338:	0076                	0x76
     33a:	0000                	unimp
     33c:	0000                	unimp
     33e:	0300                	addi	s0,sp,384
     340:	0000                	unimp
     342:	1200                	addi	s0,sp,288
     344:	0000                	unimp
     346:	2600                	fld	fs0,8(a2)
     348:	6b616873          	csrrsi	a6,0x6b6,2
     34c:	6974                	ld	a3,208(a0)
     34e:	732c                	ld	a1,96(a4)
     350:	6970                	ld	a2,208(a0)
     352:	622d656b          	0x622d656b
     356:	7261                	lui	tp,0xffff8
     358:	0065                	c.addi	zero,25
     35a:	0000                	unimp
     35c:	0000                	unimp
     35e:	0100                	addi	s0,sp,128
     360:	73757063          	bleu	s7,a0,a80 <plic_done+0x4>
     364:	0000                	unimp
     366:	0000                	unimp
     368:	0000                	unimp
     36a:	0300                	addi	s0,sp,384
     36c:	0000                	unimp
     36e:	0400                	addi	s0,sp,512
     370:	0000                	unimp
     372:	0000                	unimp
     374:	0000                	unimp
     376:	0100                	addi	s0,sp,128
     378:	0000                	unimp
     37a:	0300                	addi	s0,sp,384
     37c:	0000                	unimp
     37e:	0400                	addi	s0,sp,512
     380:	0000                	unimp
     382:	0f00                	addi	s0,sp,912
     384:	0000                	unimp
     386:	0000                	unimp
     388:	0000                	unimp
     38a:	0300                	addi	s0,sp,384
     38c:	0000                	unimp
     38e:	0400                	addi	s0,sp,512
     390:	0000                	unimp
     392:	2c00                	fld	fs0,24(s0)
     394:	9800                	0x9800
     396:	8096                	mv	ra,t0
     398:	0000                	unimp
     39a:	0100                	addi	s0,sp,128
     39c:	40757063          	bleu	t2,a0,79c <hart_close+0x14>
     3a0:	0030                	addi	a2,sp,8
     3a2:	0000                	unimp
     3a4:	0000                	unimp
     3a6:	0300                	addi	s0,sp,384
     3a8:	0000                	unimp
     3aa:	0400                	addi	s0,sp,512
     3ac:	0000                	unimp
     3ae:	3f00                	fld	fs0,56(a4)
     3b0:	00757063          	bleu	t2,a0,3b0 <_dtb+0xf8>
     3b4:	0000                	unimp
     3b6:	0300                	addi	s0,sp,384
     3b8:	0000                	unimp
     3ba:	0400                	addi	s0,sp,512
     3bc:	0000                	unimp
     3be:	4b00                	lw	s0,16(a4)
     3c0:	0000                	unimp
     3c2:	0000                	unimp
     3c4:	0000                	unimp
     3c6:	0300                	addi	s0,sp,384
     3c8:	0000                	unimp
     3ca:	0500                	addi	s0,sp,640
     3cc:	0000                	unimp
     3ce:	4f00                	lw	s0,24(a4)
     3d0:	79616b6f          	jal	s6,16b66 <finisher+0x9ae6>
     3d4:	0000                	unimp
     3d6:	0000                	unimp
     3d8:	0000                	unimp
     3da:	0300                	addi	s0,sp,384
     3dc:	0000                	unimp
     3de:	0600                	addi	s0,sp,768
     3e0:	0000                	unimp
     3e2:	1b00                	addi	s0,sp,432
     3e4:	6972                	ld	s2,280(sp)
     3e6:	00766373          	csrrsi	t1,0x7,12
     3ea:	0000                	unimp
     3ec:	0000                	unimp
     3ee:	0300                	addi	s0,sp,384
     3f0:	0000                	unimp
     3f2:	0a00                	addi	s0,sp,272
     3f4:	0000                	unimp
     3f6:	5600                	lw	s0,40(a2)
     3f8:	7672                	ld	a2,312(sp)
     3fa:	3436                	fld	fs0,360(sp)
     3fc:	6d69                	lui	s10,0x1a
     3fe:	6661                	lui	a2,0x18
     400:	0064                	addi	s1,sp,12
     402:	0000                	unimp
     404:	0000                	unimp
     406:	0300                	addi	s0,sp,384
     408:	0000                	unimp
     40a:	0b00                	addi	s0,sp,400
     40c:	0000                	unimp
     40e:	6000                	ld	s0,0(s0)
     410:	6972                	ld	s2,280(sp)
     412:	2c766373          	csrrsi	t1,0x2c7,12
     416:	39337673          	csrrci	a2,0x393,6
     41a:	0000                	unimp
     41c:	0000                	unimp
     41e:	0300                	addi	s0,sp,384
     420:	0000                	unimp
     422:	0400                	addi	s0,sp,512
     424:	0000                	unimp
     426:	6900                	ld	s0,16(a0)
     428:	00ca9a3b          	sllw	s4,s5,a2
     42c:	0000                	unimp
     42e:	0100                	addi	s0,sp,128
     430:	6e69                	lui	t3,0x1a
     432:	6574                	ld	a3,200(a0)
     434:	7272                	ld	tp,312(sp)
     436:	7075                	0x7075
     438:	2d74                	fld	fa3,216(a0)
     43a:	746e6f63          	bltu	t3,t1,b98 <plic_done+0x11c>
     43e:	6f72                	ld	t5,280(sp)
     440:	6c6c                	ld	a1,216(s0)
     442:	7265                	lui	tp,0xffff9
     444:	0000                	unimp
     446:	0000                	unimp
     448:	0000                	unimp
     44a:	0300                	addi	s0,sp,384
     44c:	0000                	unimp
     44e:	0400                	addi	s0,sp,512
     450:	0000                	unimp
     452:	7900                	ld	s0,48(a0)
     454:	0000                	unimp
     456:	0100                	addi	s0,sp,128
     458:	0000                	unimp
     45a:	0300                	addi	s0,sp,384
     45c:	0000                	unimp
     45e:	0000                	unimp
     460:	0000                	unimp
     462:	8a00                	0x8a00
     464:	0000                	unimp
     466:	0300                	addi	s0,sp,384
     468:	0000                	unimp
     46a:	0f00                	addi	s0,sp,912
     46c:	0000                	unimp
     46e:	1b00                	addi	s0,sp,432
     470:	6972                	ld	s2,280(sp)
     472:	2c766373          	csrrsi	t1,0x2c7,12
     476:	2d757063          	bleu	s7,a0,736 <boot_loader+0x102>
     47a:	6e69                	lui	t3,0x1a
     47c:	6374                	ld	a3,192(a4)
     47e:	0000                	unimp
     480:	0000                	unimp
     482:	0200                	addi	s0,sp,256
     484:	0000                	unimp
     486:	0200                	addi	s0,sp,256
     488:	0000                	unimp
     48a:	0200                	addi	s0,sp,256
     48c:	0000                	unimp
     48e:	0100                	addi	s0,sp,128
     490:	656d                	lui	a0,0x1b
     492:	6f6d                	lui	t5,0x1b
     494:	7972                	ld	s2,312(sp)
     496:	3040                	fld	fs0,160(s0)
     498:	0000                	unimp
     49a:	0000                	unimp
     49c:	0000                	unimp
     49e:	0300                	addi	s0,sp,384
     4a0:	0000                	unimp
     4a2:	0700                	addi	s0,sp,896
     4a4:	0000                	unimp
     4a6:	3f00                	fld	fs0,56(a4)
     4a8:	656d                	lui	a0,0x1b
     4aa:	6f6d                	lui	t5,0x1b
     4ac:	7972                	ld	s2,312(sp)
     4ae:	0000                	unimp
     4b0:	0000                	unimp
     4b2:	0300                	addi	s0,sp,384
     4b4:	0000                	unimp
     4b6:	0800                	addi	s0,sp,16
     4b8:	0000                	unimp
     4ba:	4b00                	lw	s0,16(a4)
     4bc:	0000                	unimp
     4be:	0000                	unimp
     4c0:	0080                	addi	s0,sp,64
     4c2:	0000                	unimp
     4c4:	0000                	unimp
     4c6:	0200                	addi	s0,sp,256
     4c8:	0000                	unimp
     4ca:	0100                	addi	s0,sp,128
     4cc:	6175                	addi	sp,sp,368
     4ce:	7472                	ld	s0,312(sp)
     4d0:	0000                	unimp
     4d2:	0000                	unimp
     4d4:	0000                	unimp
     4d6:	0300                	addi	s0,sp,384
     4d8:	0000                	unimp
     4da:	0d00                	addi	s0,sp,656
     4dc:	0000                	unimp
     4de:	1b00                	addi	s0,sp,432
     4e0:	6b616873          	csrrsi	a6,0x6b6,2
     4e4:	6974                	ld	a3,208(a0)
     4e6:	752c                	ld	a1,104(a0)
     4e8:	7261                	lui	tp,0xffff8
     4ea:	3074                	fld	fa3,224(s0)
     4ec:	0000                	unimp
     4ee:	0000                	unimp
     4f0:	0000                	unimp
     4f2:	0300                	addi	s0,sp,384
     4f4:	0000                	unimp
     4f6:	0800                	addi	s0,sp,16
     4f8:	0000                	unimp
     4fa:	4b00                	lw	s0,16(a4)
     4fc:	0000                	unimp
     4fe:	0000                	unimp
     500:	0100                	addi	s0,sp,128
     502:	0012                	0x12
     504:	0000                	unimp
     506:	0200                	addi	s0,sp,256
     508:	0000                	unimp
     50a:	0200                	addi	s0,sp,256
     50c:	0000                	unimp
     50e:	0900                	addi	s0,sp,144
     510:	64646123          	0x64646123
     514:	6572                	ld	a0,280(sp)
     516:	632d7373          	csrrci	t1,0x632,26
     51a:	6c65                	lui	s8,0x19
     51c:	736c                	ld	a1,224(a4)
     51e:	2300                	fld	fs0,0(a4)
     520:	657a6973          	csrrsi	s2,0x657,20
     524:	632d                	lui	t1,0xb
     526:	6c65                	lui	s8,0x19
     528:	736c                	ld	a1,224(a4)
     52a:	6300                	ld	s0,0(a4)
     52c:	61706d6f          	jal	s10,7342 <softfloat_mulAddF64+0x316>
     530:	6974                	ld	a3,208(a0)
     532:	6c62                	ld	s8,24(sp)
     534:	0065                	c.addi	zero,25
     536:	6f6d                	lui	t5,0x1b
     538:	6564                	ld	s1,200(a0)
     53a:	006c                	addi	a1,sp,12
     53c:	6974                	ld	a3,208(a0)
     53e:	656d                	lui	a0,0x1b
     540:	6162                	ld	sp,24(sp)
     542:	662d6573          	csrrsi	a0,0x662,26
     546:	6572                	ld	a0,280(sp)
     548:	7571                	lui	a0,0xffffc
     54a:	6e65                	lui	t3,0x19
     54c:	64007963          	bleu	zero,zero,b9e <plic_done+0x122>
     550:	7665                	lui	a2,0xffff9
     552:	6369                	lui	t1,0x1a
     554:	5f65                	li	t5,-7
     556:	7974                	ld	a3,240(a0)
     558:	6570                	ld	a2,200(a0)
     55a:	7200                	ld	s0,32(a2)
     55c:	6765                	lui	a4,0x19
     55e:	7300                	ld	s0,32(a4)
     560:	6174                	ld	a3,192(a0)
     562:	7574                	ld	a3,232(a0)
     564:	69720073          	0x69720073
     568:	2c766373          	csrrsi	t1,0x2c7,12
     56c:	7369                	lui	t1,0xffffa
     56e:	0061                	c.addi	zero,24
     570:	6d6d                	lui	s10,0x1b
     572:	2d75                	addiw	s10,s10,29
     574:	7974                	ld	a3,240(a0)
     576:	6570                	ld	a2,200(a0)
     578:	6300                	ld	s0,0(a4)
     57a:	6f6c                	ld	a1,216(a4)
     57c:	662d6b63          	bltu	s10,sp,bf2 <plic_done+0x176>
     580:	6572                	ld	a0,280(sp)
     582:	7571                	lui	a0,0xffffc
     584:	6e65                	lui	t3,0x19
     586:	23007963          	bleu	a6,zero,7b8 <clint_open+0xc>
     58a:	6e69                	lui	t3,0x1a
     58c:	6574                	ld	a3,200(a0)
     58e:	7272                	ld	tp,312(sp)
     590:	7075                	0x7075
     592:	2d74                	fld	fa3,216(a0)
     594:	6c6c6563          	bltu	s8,t1,c5e <plic_done+0x1e2>
     598:	6e690073          	0x6e690073
     59c:	6574                	ld	a3,200(a0)
     59e:	7272                	ld	tp,312(sp)
     5a0:	7075                	0x7075
     5a2:	2d74                	fld	fa3,216(a0)
     5a4:	746e6f63          	bltu	t3,t1,d02 <plic_done+0x286>
     5a8:	6f72                	ld	t5,280(sp)
     5aa:	6c6c                	ld	a1,216(s0)
     5ac:	7265                	lui	tp,0xffff9
	...

00000000000005b0 <boot_other_hart>:
     5b0:	0000d797          	auipc	a5,0xd
     5b4:	a5078793          	addi	a5,a5,-1456 # d000 <entry_point>
     5b8:	0007b503          	ld	a0,0(a5)
     5bc:	0ff0000f          	fence
     5c0:	fe050ce3          	beqz	a0,5b8 <boot_other_hart+0x8>
     5c4:	f14025f3          	csrr	a1,mhartid
     5c8:	0000d797          	auipc	a5,0xd
     5cc:	a5078793          	addi	a5,a5,-1456 # d018 <disabled_hart_mask>
     5d0:	0007b703          	ld	a4,0(a5)
     5d4:	00100793          	li	a5,1
     5d8:	00b797bb          	sllw	a5,a5,a1
     5dc:	00e7f7b3          	and	a5,a5,a4
     5e0:	04079063          	bnez	a5,620 <boot_other_hart+0x70>
     5e4:	0000d797          	auipc	a5,0xd
     5e8:	a5c78793          	addi	a5,a5,-1444 # d040 <kernel_end>
     5ec:	0007b703          	ld	a4,0(a5)
     5f0:	ff010113          	addi	sp,sp,-16
     5f4:	00113423          	sd	ra,8(sp)
     5f8:	00200797          	auipc	a5,0x200
     5fc:	0a878793          	addi	a5,a5,168 # 2006a0 <_end>
     600:	00070463          	beqz	a4,608 <boot_other_hart+0x58>
     604:	00070793          	mv	a5,a4
     608:	00200737          	lui	a4,0x200
     60c:	fff70713          	addi	a4,a4,-1 # 1fffff <finisher+0x1f2f7f>
     610:	00e787b3          	add	a5,a5,a4
     614:	ffe00637          	lui	a2,0xffe00
     618:	00c7f633          	and	a2,a5,a2
     61c:	3b5020ef          	jal	ra,31d0 <enter_machine_mode>
     620:	10500073          	wfi
     624:	02004033          	div	zero,zero,zero
     628:	10500073          	wfi
     62c:	02004033          	div	zero,zero,zero
     630:	ff1ff06f          	j	620 <boot_other_hart+0x70>

0000000000000634 <boot_loader>:
     634:	fe010113          	addi	sp,sp,-32
     638:	00913423          	sd	s1,8(sp)
     63c:	0000d497          	auipc	s1,0xd
     640:	a0448493          	addi	s1,s1,-1532 # d040 <kernel_end>
     644:	0004b783          	ld	a5,0(s1)
     648:	00813823          	sd	s0,16(sp)
     64c:	01213023          	sd	s2,0(sp)
     650:	00113c23          	sd	ra,24(sp)
     654:	00050913          	mv	s2,a0
     658:	00078413          	mv	s0,a5
     65c:	00079663          	bnez	a5,668 <boot_loader+0x34>
     660:	00200417          	auipc	s0,0x200
     664:	04040413          	addi	s0,s0,64 # 2006a0 <_end>
     668:	002007b7          	lui	a5,0x200
     66c:	fff78793          	addi	a5,a5,-1 # 1fffff <finisher+0x1f2f7f>
     670:	00f40433          	add	s0,s0,a5
     674:	00090513          	mv	a0,s2
     678:	ffe007b7          	lui	a5,0xffe00
     67c:	00f47433          	and	s0,s0,a5
     680:	620010ef          	jal	ra,1ca0 <fdt_size>
     684:	02051613          	slli	a2,a0,0x20
     688:	02065613          	srli	a2,a2,0x20
     68c:	00090593          	mv	a1,s2
     690:	00040513          	mv	a0,s0
     694:	1f8080ef          	jal	ra,888c <memcpy>
     698:	0000d597          	auipc	a1,0xd
     69c:	98058593          	addi	a1,a1,-1664 # d018 <disabled_hart_mask>
     6a0:	00040513          	mv	a0,s0
     6a4:	6fd010ef          	jal	ra,25a0 <filter_harts>
     6a8:	00040513          	mv	a0,s0
     6ac:	5dd010ef          	jal	ra,2488 <filter_plic>
     6b0:	00008597          	auipc	a1,0x8
     6b4:	7f858593          	addi	a1,a1,2040 # 8ea8 <softfloat_countLeadingZeros8+0x158>
     6b8:	00040513          	mv	a0,s0
     6bc:	61d010ef          	jal	ra,24d8 <filter_compat>
     6c0:	00008597          	auipc	a1,0x8
     6c4:	7f858593          	addi	a1,a1,2040 # 8eb8 <softfloat_countLeadingZeros8+0x168>
     6c8:	00040513          	mv	a0,s0
     6cc:	60d010ef          	jal	ra,24d8 <filter_compat>
     6d0:	00008517          	auipc	a0,0x8
     6d4:	7f850513          	addi	a0,a0,2040 # 8ec8 <softfloat_countLeadingZeros8+0x178>
     6d8:	398020ef          	jal	ra,2a70 <printm>
     6dc:	0004b783          	ld	a5,0(s1)
     6e0:	00200517          	auipc	a0,0x200
     6e4:	fc050513          	addi	a0,a0,-64 # 2006a0 <_end>
     6e8:	00078463          	beqz	a5,6f0 <boot_loader+0xbc>
     6ec:	00078513          	mv	a0,a5
     6f0:	002007b7          	lui	a5,0x200
     6f4:	fff78793          	addi	a5,a5,-1 # 1fffff <finisher+0x1f2f7f>
     6f8:	00f50533          	add	a0,a0,a5
     6fc:	ffe007b7          	lui	a5,0xffe00
     700:	00f57533          	and	a0,a0,a5
     704:	260020ef          	jal	ra,2964 <fdt_print>
     708:	00008517          	auipc	a0,0x8
     70c:	7c850513          	addi	a0,a0,1992 # 8ed0 <softfloat_countLeadingZeros8+0x180>
     710:	360020ef          	jal	ra,2a70 <printm>
     714:	0ff0000f          	fence
     718:	00008517          	auipc	a0,0x8
     71c:	7c050513          	addi	a0,a0,1984 # 8ed8 <softfloat_countLeadingZeros8+0x188>
     720:	350020ef          	jal	ra,2a70 <printm>
     724:	0000d797          	auipc	a5,0xd
     728:	93478793          	addi	a5,a5,-1740 # d058 <kernel_start>
     72c:	0007b783          	ld	a5,0(a5)
     730:	02078263          	beqz	a5,754 <boot_loader+0x120>
     734:	00008517          	auipc	a0,0x8
     738:	7ac50513          	addi	a0,a0,1964 # 8ee0 <softfloat_countLeadingZeros8+0x190>
     73c:	00078593          	mv	a1,a5
     740:	0000d717          	auipc	a4,0xd
     744:	8cf73023          	sd	a5,-1856(a4) # d000 <entry_point>
     748:	328020ef          	jal	ra,2a70 <printm>
     74c:	00000513          	li	a0,0
     750:	e61ff0ef          	jal	ra,5b0 <boot_other_hart>
     754:	00200797          	auipc	a5,0x200
     758:	8ac78793          	addi	a5,a5,-1876 # 200000 <_payload_start>
     75c:	fd9ff06f          	j	734 <boot_loader+0x100>

0000000000000760 <hart_open>:
     760:	0005b783          	ld	a5,0(a1)
     764:	00078c63          	beqz	a5,77c <hart_open+0x1c>
     768:	0105b783          	ld	a5,16(a1)
     76c:	00078463          	beqz	a5,774 <hart_open+0x14>
     770:	00008067          	ret
     774:	0005bc23          	sd	zero,24(a1)
     778:	00008067          	ret
     77c:	fff00793          	li	a5,-1
     780:	00f5a423          	sw	a5,8(a1)
     784:	fe5ff06f          	j	768 <hart_open+0x8>

0000000000000788 <hart_close>:
     788:	0005b783          	ld	a5,0(a1)
     78c:	00a78c63          	beq	a5,a0,7a4 <hart_close+0x1c>
     790:	0105b783          	ld	a5,16(a1)
     794:	00a79463          	bne	a5,a0,79c <hart_close+0x14>
     798:	0005b823          	sd	zero,16(a1)
     79c:	00000513          	li	a0,0
     7a0:	00008067          	ret
     7a4:	0005b023          	sd	zero,0(a1)
     7a8:	fe9ff06f          	j	790 <hart_close+0x8>

00000000000007ac <clint_open>:
     7ac:	0005a023          	sw	zero,0(a1)
     7b0:	0005b423          	sd	zero,8(a1)
     7b4:	0005b823          	sd	zero,16(a1)
     7b8:	00008067          	ret

00000000000007bc <plic_open>:
     7bc:	0005a023          	sw	zero,0(a1)
     7c0:	0005b423          	sd	zero,8(a1)
     7c4:	0005b823          	sd	zero,16(a1)
     7c8:	00008067          	ret

00000000000007cc <plic_redact>:
     7cc:	0005a783          	lw	a5,0(a1)
     7d0:	08078263          	beqz	a5,854 <plic_redact+0x88>
     7d4:	0185a703          	lw	a4,24(a1)
     7d8:	0105b683          	ld	a3,16(a1)
     7dc:	41f7579b          	sraiw	a5,a4,0x1f
     7e0:	01e7d79b          	srliw	a5,a5,0x1e
     7e4:	00e787bb          	addw	a5,a5,a4
     7e8:	4027d79b          	sraiw	a5,a5,0x2
     7ec:	00100713          	li	a4,1
     7f0:	00279793          	slli	a5,a5,0x2
     7f4:	00e5ae23          	sw	a4,28(a1)
     7f8:	00f68533          	add	a0,a3,a5
     7fc:	04f05c63          	blez	a5,854 <plic_redact+0x88>
     800:	ff0105b7          	lui	a1,0xff010
     804:	00ff0637          	lui	a2,0xff0
     808:	f0058593          	addi	a1,a1,-256 # ffffffffff00ff00 <_end+0xfffffffffee0f860>
     80c:	0ff60613          	addi	a2,a2,255 # ff00ff <_end+0xdefa5f>
     810:	00b00813          	li	a6,11
     814:	fff00893          	li	a7,-1
     818:	0046a703          	lw	a4,4(a3)
     81c:	0087179b          	slliw	a5,a4,0x8
     820:	0087571b          	srliw	a4,a4,0x8
     824:	00c77733          	and	a4,a4,a2
     828:	00b7f7b3          	and	a5,a5,a1
     82c:	00e7e7b3          	or	a5,a5,a4
     830:	0107971b          	slliw	a4,a5,0x10
     834:	0107d79b          	srliw	a5,a5,0x10
     838:	00f767b3          	or	a5,a4,a5
     83c:	0007879b          	sext.w	a5,a5
     840:	01079463          	bne	a5,a6,848 <plic_redact+0x7c>
     844:	0116a223          	sw	a7,4(a3)
     848:	00868693          	addi	a3,a3,8
     84c:	40d507b3          	sub	a5,a0,a3
     850:	fcf044e3          	bgtz	a5,818 <plic_redact+0x4c>
     854:	00008067          	ret

0000000000000858 <compat_open>:
     858:	0085a783          	lw	a5,8(a1)
     85c:	0017879b          	addiw	a5,a5,1
     860:	00f5a423          	sw	a5,8(a1)
     864:	00008067          	ret

0000000000000868 <compat_close>:
     868:	0085a783          	lw	a5,8(a1)
     86c:	00c5a703          	lw	a4,12(a1)
     870:	00000513          	li	a0,0
     874:	fff7869b          	addiw	a3,a5,-1
     878:	00d5a423          	sw	a3,8(a1)
     87c:	00f70463          	beq	a4,a5,884 <compat_close+0x1c>
     880:	00008067          	ret
     884:	3e700793          	li	a5,999
     888:	00f5a623          	sw	a5,12(a1)
     88c:	fff00513          	li	a0,-1
     890:	00008067          	ret

0000000000000894 <chosen_close>:
     894:	0005b783          	ld	a5,0(a1)
     898:	00078463          	beqz	a5,8a0 <chosen_close+0xc>
     89c:	00a78663          	beq	a5,a0,8a8 <chosen_close+0x14>
     8a0:	00000513          	li	a0,0
     8a4:	00008067          	ret
     8a8:	0005b023          	sd	zero,0(a1)
     8ac:	00000513          	li	a0,0
     8b0:	00008067          	ret

00000000000008b4 <hart_filter_open>:
     8b4:	fff00793          	li	a5,-1
     8b8:	02079793          	slli	a5,a5,0x20
     8bc:	00f5b023          	sd	a5,0(a1)
     8c0:	0005b423          	sd	zero,8(a1)
     8c4:	0005b823          	sd	zero,16(a1)
     8c8:	00008067          	ret

00000000000008cc <fdt_print_done>:
     8cc:	00008067          	ret

00000000000008d0 <fdt_print_close>:
     8d0:	00000513          	li	a0,0
     8d4:	00008067          	ret

00000000000008d8 <clint_done>:
     8d8:	0005a783          	lw	a5,0(a1)
     8dc:	10078c63          	beqz	a5,9f4 <clint_done+0x11c>
     8e0:	0085b503          	ld	a0,8(a1)
     8e4:	ff010113          	addi	sp,sp,-16
     8e8:	00113423          	sd	ra,8(sp)
     8ec:	12050c63          	beqz	a0,a24 <clint_done+0x14c>
     8f0:	0105b683          	ld	a3,16(a1)
     8f4:	10068263          	beqz	a3,9f8 <clint_done+0x120>
     8f8:	0185a703          	lw	a4,24(a1)
     8fc:	00f77793          	andi	a5,a4,15
     900:	0e079c63          	bnez	a5,9f8 <clint_done+0x120>
     904:	01c5a603          	lw	a2,28(a1)
     908:	14061463          	bnez	a2,a50 <clint_done+0x178>
     90c:	41f7579b          	sraiw	a5,a4,0x1f
     910:	01e7d79b          	srliw	a5,a5,0x1e
     914:	00e787bb          	addw	a5,a5,a4
     918:	0000c737          	lui	a4,0xc
     91c:	ff870713          	addi	a4,a4,-8 # bff8 <_bss_start+0xf94>
     920:	4027d79b          	sraiw	a5,a5,0x2
     924:	00e50733          	add	a4,a0,a4
     928:	00100813          	li	a6,1
     92c:	00279793          	slli	a5,a5,0x2
     930:	0105ae23          	sw	a6,28(a1)
     934:	0000c597          	auipc	a1,0xc
     938:	70e5ba23          	sd	a4,1812(a1) # d048 <mtime>
     93c:	00f68333          	add	t1,a3,a5
     940:	08f05463          	blez	a5,9c8 <clint_done+0xf0>
     944:	0000c717          	auipc	a4,0xc
     948:	6c470713          	addi	a4,a4,1732 # d008 <hart_phandles>
     94c:	f14027f3          	csrr	a5,mhartid
     950:	000015b7          	lui	a1,0x1
     954:	40f007b3          	neg	a5,a5
     958:	00b105b3          	add	a1,sp,a1
     95c:	00c79793          	slli	a5,a5,0xc
     960:	00072e03          	lw	t3,0(a4)
     964:	fffff737          	lui	a4,0xfffff
     968:	00e5f5b3          	and	a1,a1,a4
     96c:	fc078793          	addi	a5,a5,-64
     970:	ff0108b7          	lui	a7,0xff010
     974:	00ff0837          	lui	a6,0xff0
     978:	00004eb7          	lui	t4,0x4
     97c:	f0088893          	addi	a7,a7,-256 # ffffffffff00ff00 <_end+0xfffffffffee0f860>
     980:	0ff80813          	addi	a6,a6,255 # ff00ff <_end+0xdefa5f>
     984:	00f585b3          	add	a1,a1,a5
     988:	01d50eb3          	add	t4,a0,t4
     98c:	0006a703          	lw	a4,0(a3)
     990:	0087179b          	slliw	a5,a4,0x8
     994:	0087571b          	srliw	a4,a4,0x8
     998:	01077733          	and	a4,a4,a6
     99c:	0117f7b3          	and	a5,a5,a7
     9a0:	00e7e7b3          	or	a5,a5,a4
     9a4:	0107971b          	slliw	a4,a5,0x10
     9a8:	0107d79b          	srliw	a5,a5,0x10
     9ac:	00f767b3          	or	a5,a4,a5
     9b0:	0007879b          	sext.w	a5,a5
     9b4:	03c78063          	beq	a5,t3,9d4 <clint_done+0xfc>
     9b8:	01068693          	addi	a3,a3,16
     9bc:	40d307b3          	sub	a5,t1,a3
     9c0:	0016061b          	addiw	a2,a2,1
     9c4:	fcf044e3          	bgtz	a5,98c <clint_done+0xb4>
     9c8:	00813083          	ld	ra,8(sp)
     9cc:	01010113          	addi	sp,sp,16
     9d0:	00008067          	ret
     9d4:	0006079b          	sext.w	a5,a2
     9d8:	0027971b          	slliw	a4,a5,0x2
     9dc:	0037979b          	slliw	a5,a5,0x3
     9e0:	00a70733          	add	a4,a4,a0
     9e4:	01d787b3          	add	a5,a5,t4
     9e8:	00e5b023          	sd	a4,0(a1) # 1000 <hart_prop+0x50>
     9ec:	00f5b823          	sd	a5,16(a1)
     9f0:	fc9ff06f          	j	9b8 <clint_done+0xe0>
     9f4:	00008067          	ret
     9f8:	00008517          	auipc	a0,0x8
     9fc:	52050513          	addi	a0,a0,1312 # 8f18 <softfloat_countLeadingZeros8+0x1c8>
     a00:	00008697          	auipc	a3,0x8
     a04:	53868693          	addi	a3,a3,1336 # 8f38 <softfloat_countLeadingZeros8+0x1e8>
     a08:	15400613          	li	a2,340
     a0c:	00008597          	auipc	a1,0x8
     a10:	4f458593          	addi	a1,a1,1268 # 8f00 <softfloat_countLeadingZeros8+0x1b0>
     a14:	05c020ef          	jal	ra,2a70 <printm>
     a18:	00010537          	lui	a0,0x10
     a1c:	fff50513          	addi	a0,a0,-1 # ffff <finisher+0x2f7f>
     a20:	490020ef          	jal	ra,2eb0 <poweroff>
     a24:	00008517          	auipc	a0,0x8
     a28:	4f450513          	addi	a0,a0,1268 # 8f18 <softfloat_countLeadingZeros8+0x1c8>
     a2c:	00008697          	auipc	a3,0x8
     a30:	4c468693          	addi	a3,a3,1220 # 8ef0 <softfloat_countLeadingZeros8+0x1a0>
     a34:	15300613          	li	a2,339
     a38:	00008597          	auipc	a1,0x8
     a3c:	4c858593          	addi	a1,a1,1224 # 8f00 <softfloat_countLeadingZeros8+0x1b0>
     a40:	030020ef          	jal	ra,2a70 <printm>
     a44:	00010537          	lui	a0,0x10
     a48:	fff50513          	addi	a0,a0,-1 # ffff <finisher+0x2f7f>
     a4c:	464020ef          	jal	ra,2eb0 <poweroff>
     a50:	00008517          	auipc	a0,0x8
     a54:	4c850513          	addi	a0,a0,1224 # 8f18 <softfloat_countLeadingZeros8+0x1c8>
     a58:	00008697          	auipc	a3,0x8
     a5c:	51068693          	addi	a3,a3,1296 # 8f68 <softfloat_countLeadingZeros8+0x218>
     a60:	15500613          	li	a2,341
     a64:	00008597          	auipc	a1,0x8
     a68:	49c58593          	addi	a1,a1,1180 # 8f00 <softfloat_countLeadingZeros8+0x1b0>
     a6c:	004020ef          	jal	ra,2a70 <printm>
     a70:	00010537          	lui	a0,0x10
     a74:	fff50513          	addi	a0,a0,-1 # ffff <finisher+0x2f7f>
     a78:	438020ef          	jal	ra,2eb0 <poweroff>

0000000000000a7c <plic_done>:
     a7c:	0005a783          	lw	a5,0(a1)
     a80:	1a078463          	beqz	a5,c28 <plic_done+0x1ac>
     a84:	0085b683          	ld	a3,8(a1)
     a88:	fb010113          	addi	sp,sp,-80
     a8c:	03213823          	sd	s2,48(sp)
     a90:	04113423          	sd	ra,72(sp)
     a94:	04813023          	sd	s0,64(sp)
     a98:	02913c23          	sd	s1,56(sp)
     a9c:	03313423          	sd	s3,40(sp)
     aa0:	03413023          	sd	s4,32(sp)
     aa4:	01513c23          	sd	s5,24(sp)
     aa8:	01613823          	sd	s6,16(sp)
     aac:	01713423          	sd	s7,8(sp)
     ab0:	00058913          	mv	s2,a1
     ab4:	24068263          	beqz	a3,cf8 <plic_done+0x27c>
     ab8:	0105b403          	ld	s0,16(a1)
     abc:	1a040c63          	beqz	s0,c74 <plic_done+0x1f8>
     ac0:	0185a703          	lw	a4,24(a1)
     ac4:	00777793          	andi	a5,a4,7
     ac8:	1a079663          	bnez	a5,c74 <plic_done+0x1f8>
     acc:	0205a603          	lw	a2,32(a1)
     ad0:	3ff00793          	li	a5,1023
     ad4:	1cc7e663          	bltu	a5,a2,ca0 <plic_done+0x224>
     ad8:	01c5a483          	lw	s1,28(a1)
     adc:	1e049863          	bnez	s1,ccc <plic_done+0x250>
     ae0:	41f7579b          	sraiw	a5,a4,0x1f
     ae4:	01e7d79b          	srliw	a5,a5,0x1e
     ae8:	00e787bb          	addw	a5,a5,a4
     aec:	4027d79b          	sraiw	a5,a5,0x2
     af0:	00100713          	li	a4,1
     af4:	00e5ae23          	sw	a4,28(a1)
     af8:	00279793          	slli	a5,a5,0x2
     afc:	0000c717          	auipc	a4,0xc
     b00:	52d73a23          	sd	a3,1332(a4) # d030 <plic_priorities>
     b04:	0000c717          	auipc	a4,0xc
     b08:	52c73223          	sd	a2,1316(a4) # d028 <plic_ndevs>
     b0c:	00f40b33          	add	s6,s0,a5
     b10:	08f05063          	blez	a5,b90 <plic_done+0x114>
     b14:	f14027f3          	csrr	a5,mhartid
     b18:	00001ab7          	lui	s5,0x1
     b1c:	40f007b3          	neg	a5,a5
     b20:	01510ab3          	add	s5,sp,s5
     b24:	00c79793          	slli	a5,a5,0xc
     b28:	fffff737          	lui	a4,0xfffff
     b2c:	00eafab3          	and	s5,s5,a4
     b30:	fc078793          	addi	a5,a5,-64
     b34:	ff010a37          	lui	s4,0xff010
     b38:	00ff09b7          	lui	s3,0xff0
     b3c:	0000cb97          	auipc	s7,0xc
     b40:	4ccb8b93          	addi	s7,s7,1228 # d008 <hart_phandles>
     b44:	f00a0a13          	addi	s4,s4,-256 # ffffffffff00ff00 <_end+0xfffffffffee0f860>
     b48:	0ff98993          	addi	s3,s3,255 # ff00ff <_end+0xdefa5f>
     b4c:	00fa8ab3          	add	s5,s5,a5
     b50:	00042703          	lw	a4,0(s0)
     b54:	000ba683          	lw	a3,0(s7)
     b58:	0087179b          	slliw	a5,a4,0x8
     b5c:	0087571b          	srliw	a4,a4,0x8
     b60:	01377733          	and	a4,a4,s3
     b64:	0147f7b3          	and	a5,a5,s4
     b68:	00e7e7b3          	or	a5,a5,a4
     b6c:	0107971b          	slliw	a4,a5,0x10
     b70:	0107d79b          	srliw	a5,a5,0x10
     b74:	00f767b3          	or	a5,a4,a5
     b78:	0007879b          	sext.w	a5,a5
     b7c:	04f68063          	beq	a3,a5,bbc <plic_done+0x140>
     b80:	00840413          	addi	s0,s0,8
     b84:	408b07b3          	sub	a5,s6,s0
     b88:	0014849b          	addiw	s1,s1,1
     b8c:	fcf042e3          	bgtz	a5,b50 <plic_done+0xd4>
     b90:	04813083          	ld	ra,72(sp)
     b94:	04013403          	ld	s0,64(sp)
     b98:	03813483          	ld	s1,56(sp)
     b9c:	03013903          	ld	s2,48(sp)
     ba0:	02813983          	ld	s3,40(sp)
     ba4:	02013a03          	ld	s4,32(sp)
     ba8:	01813a83          	ld	s5,24(sp)
     bac:	01013b03          	ld	s6,16(sp)
     bb0:	00813b83          	ld	s7,8(sp)
     bb4:	05010113          	addi	sp,sp,80
     bb8:	00008067          	ret
     bbc:	00442703          	lw	a4,4(s0)
     bc0:	00b00693          	li	a3,11
     bc4:	0087179b          	slliw	a5,a4,0x8
     bc8:	0087571b          	srliw	a4,a4,0x8
     bcc:	0147f7b3          	and	a5,a5,s4
     bd0:	01377733          	and	a4,a4,s3
     bd4:	00e7e7b3          	or	a5,a5,a4
     bd8:	0107961b          	slliw	a2,a5,0x10
     bdc:	0107d79b          	srliw	a5,a5,0x10
     be0:	00f667b3          	or	a5,a2,a5
     be4:	0007861b          	sext.w	a2,a5
     be8:	04d60263          	beq	a2,a3,c2c <plic_done+0x1b0>
     bec:	00900793          	li	a5,9
     bf0:	06f61863          	bne	a2,a5,c60 <plic_done+0x1e4>
     bf4:	00893683          	ld	a3,8(s2)
     bf8:	0004879b          	sext.w	a5,s1
     bfc:	00002637          	lui	a2,0x2
     c00:	002005b7          	lui	a1,0x200
     c04:	0077971b          	slliw	a4,a5,0x7
     c08:	00c68633          	add	a2,a3,a2
     c0c:	00c7979b          	slliw	a5,a5,0xc
     c10:	00b686b3          	add	a3,a3,a1
     c14:	00c70733          	add	a4,a4,a2
     c18:	00d787b3          	add	a5,a5,a3
     c1c:	02eab823          	sd	a4,48(s5) # 1030 <hart_prop+0x80>
     c20:	02fab423          	sd	a5,40(s5)
     c24:	f5dff06f          	j	b80 <plic_done+0x104>
     c28:	00008067          	ret
     c2c:	00893683          	ld	a3,8(s2)
     c30:	0004879b          	sext.w	a5,s1
     c34:	00002637          	lui	a2,0x2
     c38:	002005b7          	lui	a1,0x200
     c3c:	0077971b          	slliw	a4,a5,0x7
     c40:	00c68633          	add	a2,a3,a2
     c44:	00c7979b          	slliw	a5,a5,0xc
     c48:	00b686b3          	add	a3,a3,a1
     c4c:	00c70733          	add	a4,a4,a2
     c50:	00d787b3          	add	a5,a5,a3
     c54:	02eab023          	sd	a4,32(s5)
     c58:	00fabc23          	sd	a5,24(s5)
     c5c:	f25ff06f          	j	b80 <plic_done+0x104>
     c60:	00000593          	li	a1,0
     c64:	00008517          	auipc	a0,0x8
     c68:	36c50513          	addi	a0,a0,876 # 8fd0 <softfloat_countLeadingZeros8+0x280>
     c6c:	605010ef          	jal	ra,2a70 <printm>
     c70:	f11ff06f          	j	b80 <plic_done+0x104>
     c74:	00008517          	auipc	a0,0x8
     c78:	2a450513          	addi	a0,a0,676 # 8f18 <softfloat_countLeadingZeros8+0x1c8>
     c7c:	00008697          	auipc	a3,0x8
     c80:	2fc68693          	addi	a3,a3,764 # 8f78 <softfloat_countLeadingZeros8+0x228>
     c84:	1a900613          	li	a2,425
     c88:	00008597          	auipc	a1,0x8
     c8c:	27858593          	addi	a1,a1,632 # 8f00 <softfloat_countLeadingZeros8+0x1b0>
     c90:	5e1010ef          	jal	ra,2a70 <printm>
     c94:	00010537          	lui	a0,0x10
     c98:	fff50513          	addi	a0,a0,-1 # ffff <finisher+0x2f7f>
     c9c:	214020ef          	jal	ra,2eb0 <poweroff>
     ca0:	00008517          	auipc	a0,0x8
     ca4:	27850513          	addi	a0,a0,632 # 8f18 <softfloat_countLeadingZeros8+0x1c8>
     ca8:	00008697          	auipc	a3,0x8
     cac:	30068693          	addi	a3,a3,768 # 8fa8 <softfloat_countLeadingZeros8+0x258>
     cb0:	1aa00613          	li	a2,426
     cb4:	00008597          	auipc	a1,0x8
     cb8:	24c58593          	addi	a1,a1,588 # 8f00 <softfloat_countLeadingZeros8+0x1b0>
     cbc:	5b5010ef          	jal	ra,2a70 <printm>
     cc0:	00010537          	lui	a0,0x10
     cc4:	fff50513          	addi	a0,a0,-1 # ffff <finisher+0x2f7f>
     cc8:	1e8020ef          	jal	ra,2eb0 <poweroff>
     ccc:	00008517          	auipc	a0,0x8
     cd0:	24c50513          	addi	a0,a0,588 # 8f18 <softfloat_countLeadingZeros8+0x1c8>
     cd4:	00008697          	auipc	a3,0x8
     cd8:	29468693          	addi	a3,a3,660 # 8f68 <softfloat_countLeadingZeros8+0x218>
     cdc:	1ab00613          	li	a2,427
     ce0:	00008597          	auipc	a1,0x8
     ce4:	22058593          	addi	a1,a1,544 # 8f00 <softfloat_countLeadingZeros8+0x1b0>
     ce8:	589010ef          	jal	ra,2a70 <printm>
     cec:	00010537          	lui	a0,0x10
     cf0:	fff50513          	addi	a0,a0,-1 # ffff <finisher+0x2f7f>
     cf4:	1bc020ef          	jal	ra,2eb0 <poweroff>
     cf8:	00008517          	auipc	a0,0x8
     cfc:	22050513          	addi	a0,a0,544 # 8f18 <softfloat_countLeadingZeros8+0x1c8>
     d00:	00008697          	auipc	a3,0x8
     d04:	1f068693          	addi	a3,a3,496 # 8ef0 <softfloat_countLeadingZeros8+0x1a0>
     d08:	1a800613          	li	a2,424
     d0c:	00008597          	auipc	a1,0x8
     d10:	1f458593          	addi	a1,a1,500 # 8f00 <softfloat_countLeadingZeros8+0x1b0>
     d14:	55d010ef          	jal	ra,2a70 <printm>
     d18:	00010537          	lui	a0,0x10
     d1c:	fff50513          	addi	a0,a0,-1 # ffff <finisher+0x2f7f>
     d20:	190020ef          	jal	ra,2eb0 <poweroff>

0000000000000d24 <mem_done>:
     d24:	0105a783          	lw	a5,16(a1)
     d28:	fd010113          	addi	sp,sp,-48
     d2c:	00913c23          	sd	s1,24(sp)
     d30:	41f7d49b          	sraiw	s1,a5,0x1f
     d34:	02813023          	sd	s0,32(sp)
     d38:	01e4d49b          	srliw	s1,s1,0x1e
     d3c:	0085b403          	ld	s0,8(a1)
     d40:	00f484bb          	addw	s1,s1,a5
     d44:	4024d49b          	sraiw	s1,s1,0x2
     d48:	01213823          	sd	s2,16(sp)
     d4c:	01313423          	sd	s3,8(sp)
     d50:	00050913          	mv	s2,a0
     d54:	00058993          	mv	s3,a1
     d58:	00008517          	auipc	a0,0x8
     d5c:	2a850513          	addi	a0,a0,680 # 9000 <softfloat_countLeadingZeros8+0x2b0>
     d60:	00040593          	mv	a1,s0
     d64:	00249493          	slli	s1,s1,0x2
     d68:	02113423          	sd	ra,40(sp)
     d6c:	009404b3          	add	s1,s0,s1
     d70:	501010ef          	jal	ra,2a70 <printm>
     d74:	00048593          	mv	a1,s1
     d78:	00008517          	auipc	a0,0x8
     d7c:	2a050513          	addi	a0,a0,672 # 9018 <softfloat_countLeadingZeros8+0x2c8>
     d80:	4f1010ef          	jal	ra,2a70 <printm>
     d84:	0009a783          	lw	a5,0(s3)
     d88:	14078c63          	beqz	a5,ee0 <mem_done+0x1bc>
     d8c:	0089b783          	ld	a5,8(s3)
     d90:	18078c63          	beqz	a5,f28 <mem_done+0x204>
     d94:	0109a783          	lw	a5,16(s3)
     d98:	0037f793          	andi	a5,a5,3
     d9c:	18079663          	bnez	a5,f28 <mem_done+0x204>
     da0:	0000c797          	auipc	a5,0xc
     da4:	29878793          	addi	a5,a5,664 # d038 <mem_size>
     da8:	0007b803          	ld	a6,0(a5)
     dac:	ff010637          	lui	a2,0xff010
     db0:	00ff06b7          	lui	a3,0xff0
     db4:	00000597          	auipc	a1,0x0
     db8:	f7058593          	addi	a1,a1,-144 # d24 <mem_done>
     dbc:	00000513          	li	a0,0
     dc0:	40848333          	sub	t1,s1,s0
     dc4:	f0060613          	addi	a2,a2,-256 # ffffffffff00ff00 <_end+0xfffffffffee0f860>
     dc8:	0ff68693          	addi	a3,a3,255 # ff00ff <_end+0xdefa5f>
     dcc:	10605663          	blez	t1,ed8 <mem_done+0x1b4>
     dd0:	00093e83          	ld	t4,0(s2)
     dd4:	010ea783          	lw	a5,16(t4) # 4010 <emulate_any_fadd+0x34>
     dd8:	12f05263          	blez	a5,efc <mem_done+0x1d8>
     ddc:	fff78f1b          	addiw	t5,a5,-1
     de0:	020f1e13          	slli	t3,t5,0x20
     de4:	020e5e13          	srli	t3,t3,0x20
     de8:	001e0e13          	addi	t3,t3,1 # 1a001 <finisher+0xcf81>
     dec:	002e1e13          	slli	t3,t3,0x2
     df0:	01c40e33          	add	t3,s0,t3
     df4:	00040313          	mv	t1,s0
     df8:	00000893          	li	a7,0
     dfc:	00430313          	addi	t1,t1,4 # ffffffffffffa004 <_end+0xffffffffffdf9964>
     e00:	ffc32703          	lw	a4,-4(t1)
     e04:	02089893          	slli	a7,a7,0x20
     e08:	0087179b          	slliw	a5,a4,0x8
     e0c:	0087571b          	srliw	a4,a4,0x8
     e10:	00d77733          	and	a4,a4,a3
     e14:	00c7f7b3          	and	a5,a5,a2
     e18:	00e7e7b3          	or	a5,a5,a4
     e1c:	0107971b          	slliw	a4,a5,0x10
     e20:	0107d79b          	srliw	a5,a5,0x10
     e24:	00f767b3          	or	a5,a4,a5
     e28:	02079793          	slli	a5,a5,0x20
     e2c:	0207d793          	srli	a5,a5,0x20
     e30:	011788b3          	add	a7,a5,a7
     e34:	fdc314e3          	bne	t1,t3,dfc <mem_done+0xd8>
     e38:	000f079b          	sext.w	a5,t5
     e3c:	014ea703          	lw	a4,20(t4)
     e40:	00178793          	addi	a5,a5,1
     e44:	00279793          	slli	a5,a5,0x2
     e48:	00f40433          	add	s0,s0,a5
     e4c:	0ce05263          	blez	a4,f10 <mem_done+0x1ec>
     e50:	fff70f1b          	addiw	t5,a4,-1
     e54:	020f1e93          	slli	t4,t5,0x20
     e58:	020ede93          	srli	t4,t4,0x20
     e5c:	001e8e93          	addi	t4,t4,1
     e60:	002e9e93          	slli	t4,t4,0x2
     e64:	01d40eb3          	add	t4,s0,t4
     e68:	00040e13          	mv	t3,s0
     e6c:	00000793          	li	a5,0
     e70:	004e0e13          	addi	t3,t3,4
     e74:	ffce2703          	lw	a4,-4(t3)
     e78:	02079313          	slli	t1,a5,0x20
     e7c:	0087179b          	slliw	a5,a4,0x8
     e80:	0087571b          	srliw	a4,a4,0x8
     e84:	00d77733          	and	a4,a4,a3
     e88:	00c7f7b3          	and	a5,a5,a2
     e8c:	00e7e7b3          	or	a5,a5,a4
     e90:	0107971b          	slliw	a4,a5,0x10
     e94:	0107d79b          	srliw	a5,a5,0x10
     e98:	00f767b3          	or	a5,a4,a5
     e9c:	02079793          	slli	a5,a5,0x20
     ea0:	0207d793          	srli	a5,a5,0x20
     ea4:	006787b3          	add	a5,a5,t1
     ea8:	fdde14e3          	bne	t3,t4,e70 <mem_done+0x14c>
     eac:	000f071b          	sext.w	a4,t5
     eb0:	00170713          	addi	a4,a4,1 # fffffffffffff001 <_end+0xffffffffffdfe961>
     eb4:	00271713          	slli	a4,a4,0x2
     eb8:	00e40433          	add	s0,s0,a4
     ebc:	40848333          	sub	t1,s1,s0
     ec0:	f115e6e3          	bltu	a1,a7,dcc <mem_done+0xa8>
     ec4:	011788b3          	add	a7,a5,a7
     ec8:	f0b8e2e3          	bltu	a7,a1,dcc <mem_done+0xa8>
     ecc:	00078813          	mv	a6,a5
     ed0:	00100513          	li	a0,1
     ed4:	ee604ee3          	bgtz	t1,dd0 <mem_done+0xac>
     ed8:	04051063          	bnez	a0,f18 <mem_done+0x1f4>
     edc:	06941c63          	bne	s0,s1,f54 <mem_done+0x230>
     ee0:	02813083          	ld	ra,40(sp)
     ee4:	02013403          	ld	s0,32(sp)
     ee8:	01813483          	ld	s1,24(sp)
     eec:	01013903          	ld	s2,16(sp)
     ef0:	00813983          	ld	s3,8(sp)
     ef4:	03010113          	addi	sp,sp,48
     ef8:	00008067          	ret
     efc:	014ea703          	lw	a4,20(t4)
     f00:	00000893          	li	a7,0
     f04:	00000793          	li	a5,0
     f08:	f4e044e3          	bgtz	a4,e50 <mem_done+0x12c>
     f0c:	fb9ff06f          	j	ec4 <mem_done+0x1a0>
     f10:	00000793          	li	a5,0
     f14:	fa9ff06f          	j	ebc <mem_done+0x198>
     f18:	0000c797          	auipc	a5,0xc
     f1c:	1307b023          	sd	a6,288(a5) # d038 <mem_size>
     f20:	fc9400e3          	beq	s0,s1,ee0 <mem_done+0x1bc>
     f24:	0300006f          	j	f54 <mem_done+0x230>
     f28:	00008517          	auipc	a0,0x8
     f2c:	ff050513          	addi	a0,a0,-16 # 8f18 <softfloat_countLeadingZeros8+0x1c8>
     f30:	00008697          	auipc	a3,0x8
     f34:	10068693          	addi	a3,a3,256 # 9030 <softfloat_countLeadingZeros8+0x2e0>
     f38:	0b300613          	li	a2,179
     f3c:	00008597          	auipc	a1,0x8
     f40:	fc458593          	addi	a1,a1,-60 # 8f00 <softfloat_countLeadingZeros8+0x1b0>
     f44:	32d010ef          	jal	ra,2a70 <printm>
     f48:	00010537          	lui	a0,0x10
     f4c:	fff50513          	addi	a0,a0,-1 # ffff <finisher+0x2f7f>
     f50:	761010ef          	jal	ra,2eb0 <poweroff>
     f54:	00008517          	auipc	a0,0x8
     f58:	fc450513          	addi	a0,a0,-60 # 8f18 <softfloat_countLeadingZeros8+0x1c8>
     f5c:	00008697          	auipc	a3,0x8
     f60:	10468693          	addi	a3,a3,260 # 9060 <softfloat_countLeadingZeros8+0x310>
     f64:	0bc00613          	li	a2,188
     f68:	fd5ff06f          	j	f3c <mem_done+0x218>

0000000000000f6c <chosen_open>:
     f6c:	fe010113          	addi	sp,sp,-32
     f70:	00813823          	sd	s0,16(sp)
     f74:	00050413          	mv	s0,a0
     f78:	00853503          	ld	a0,8(a0)
     f7c:	00913423          	sd	s1,8(sp)
     f80:	00058493          	mv	s1,a1
     f84:	00008597          	auipc	a1,0x8
     f88:	0ec58593          	addi	a1,a1,236 # 9070 <softfloat_countLeadingZeros8+0x320>
     f8c:	00113c23          	sd	ra,24(sp)
     f90:	209070ef          	jal	ra,8998 <strcmp>
     f94:	00051463          	bnez	a0,f9c <chosen_open+0x30>
     f98:	0084b023          	sd	s0,0(s1)
     f9c:	01813083          	ld	ra,24(sp)
     fa0:	01013403          	ld	s0,16(sp)
     fa4:	00813483          	ld	s1,8(sp)
     fa8:	02010113          	addi	sp,sp,32
     fac:	00008067          	ret

0000000000000fb0 <hart_prop>:
     fb0:	fe010113          	addi	sp,sp,-32
     fb4:	00913423          	sd	s1,8(sp)
     fb8:	00853483          	ld	s1,8(a0)
     fbc:	00813823          	sd	s0,16(sp)
     fc0:	01213023          	sd	s2,0(sp)
     fc4:	00050413          	mv	s0,a0
     fc8:	00058913          	mv	s2,a1
     fcc:	00048513          	mv	a0,s1
     fd0:	00008597          	auipc	a1,0x8
     fd4:	0a858593          	addi	a1,a1,168 # 9078 <softfloat_countLeadingZeros8+0x328>
     fd8:	00113c23          	sd	ra,24(sp)
     fdc:	1bd070ef          	jal	ra,8998 <strcmp>
     fe0:	04051063          	bnez	a0,1020 <hart_prop+0x70>
     fe4:	01043503          	ld	a0,16(s0)
     fe8:	00008597          	auipc	a1,0x8
     fec:	0a058593          	addi	a1,a1,160 # 9088 <softfloat_countLeadingZeros8+0x338>
     ff0:	1a9070ef          	jal	ra,8998 <strcmp>
     ff4:	02051663          	bnez	a0,1020 <hart_prop+0x70>
     ff8:	00093783          	ld	a5,0(s2)
     ffc:	1e079263          	bnez	a5,11e0 <hart_prop+0x230>
    1000:	00043783          	ld	a5,0(s0)
    1004:	01813083          	ld	ra,24(sp)
    1008:	01013403          	ld	s0,16(sp)
    100c:	00f93023          	sd	a5,0(s2)
    1010:	00813483          	ld	s1,8(sp)
    1014:	00013903          	ld	s2,0(sp)
    1018:	02010113          	addi	sp,sp,32
    101c:	00008067          	ret
    1020:	00008597          	auipc	a1,0x8
    1024:	08058593          	addi	a1,a1,128 # 90a0 <softfloat_countLeadingZeros8+0x350>
    1028:	00048513          	mv	a0,s1
    102c:	16d070ef          	jal	ra,8998 <strcmp>
    1030:	02051663          	bnez	a0,105c <hart_prop+0xac>
    1034:	01093783          	ld	a5,16(s2)
    1038:	16079e63          	bnez	a5,11b4 <hart_prop+0x204>
    103c:	00043783          	ld	a5,0(s0)
    1040:	00f93823          	sd	a5,16(s2)
    1044:	01813083          	ld	ra,24(sp)
    1048:	01013403          	ld	s0,16(sp)
    104c:	00813483          	ld	s1,8(sp)
    1050:	00013903          	ld	s2,0(sp)
    1054:	02010113          	addi	sp,sp,32
    1058:	00008067          	ret
    105c:	00008597          	auipc	a1,0x8
    1060:	07458593          	addi	a1,a1,116 # 90d0 <softfloat_countLeadingZeros8+0x380>
    1064:	00048513          	mv	a0,s1
    1068:	131070ef          	jal	ra,8998 <strcmp>
    106c:	0e050a63          	beqz	a0,1160 <hart_prop+0x1b0>
    1070:	00008597          	auipc	a1,0x8
    1074:	07858593          	addi	a1,a1,120 # 90e8 <softfloat_countLeadingZeros8+0x398>
    1078:	00048513          	mv	a0,s1
    107c:	11d070ef          	jal	ra,8998 <strcmp>
    1080:	0a050063          	beqz	a0,1120 <hart_prop+0x170>
    1084:	00008597          	auipc	a1,0x8
    1088:	06c58593          	addi	a1,a1,108 # 90f0 <softfloat_countLeadingZeros8+0x3a0>
    108c:	00048513          	mv	a0,s1
    1090:	109070ef          	jal	ra,8998 <strcmp>
    1094:	fa0518e3          	bnez	a0,1044 <hart_prop+0x94>
    1098:	00043783          	ld	a5,0(s0)
    109c:	01043603          	ld	a2,16(s0)
    10a0:	0007b783          	ld	a5,0(a5)
    10a4:	0107a783          	lw	a5,16(a5)
    10a8:	06f05863          	blez	a5,1118 <hart_prop+0x168>
    10ac:	fff7859b          	addiw	a1,a5,-1
    10b0:	02059593          	slli	a1,a1,0x20
    10b4:	0205d593          	srli	a1,a1,0x20
    10b8:	00158593          	addi	a1,a1,1
    10bc:	00259593          	slli	a1,a1,0x2
    10c0:	ff010837          	lui	a6,0xff010
    10c4:	00ff0537          	lui	a0,0xff0
    10c8:	00b605b3          	add	a1,a2,a1
    10cc:	00000793          	li	a5,0
    10d0:	f0080813          	addi	a6,a6,-256 # ffffffffff00ff00 <_end+0xfffffffffee0f860>
    10d4:	0ff50513          	addi	a0,a0,255 # ff00ff <_end+0xdefa5f>
    10d8:	00460613          	addi	a2,a2,4
    10dc:	ffc62703          	lw	a4,-4(a2)
    10e0:	02079693          	slli	a3,a5,0x20
    10e4:	0087179b          	slliw	a5,a4,0x8
    10e8:	0087571b          	srliw	a4,a4,0x8
    10ec:	00a77733          	and	a4,a4,a0
    10f0:	0107f7b3          	and	a5,a5,a6
    10f4:	00e7e7b3          	or	a5,a5,a4
    10f8:	0107971b          	slliw	a4,a5,0x10
    10fc:	0107d79b          	srliw	a5,a5,0x10
    1100:	00f767b3          	or	a5,a4,a5
    1104:	02079793          	slli	a5,a5,0x20
    1108:	0207d793          	srli	a5,a5,0x20
    110c:	00d787b3          	add	a5,a5,a3
    1110:	fcb614e3          	bne	a2,a1,10d8 <hart_prop+0x128>
    1114:	0007851b          	sext.w	a0,a5
    1118:	00a92423          	sw	a0,8(s2)
    111c:	f29ff06f          	j	1044 <hart_prop+0x94>
    1120:	01043783          	ld	a5,16(s0)
    1124:	ff0106b7          	lui	a3,0xff010
    1128:	f0068693          	addi	a3,a3,-256 # ffffffffff00ff00 <_end+0xfffffffffee0f860>
    112c:	0007a703          	lw	a4,0(a5)
    1130:	0087179b          	slliw	a5,a4,0x8
    1134:	00d7f7b3          	and	a5,a5,a3
    1138:	00ff06b7          	lui	a3,0xff0
    113c:	0087571b          	srliw	a4,a4,0x8
    1140:	0ff68693          	addi	a3,a3,255 # ff00ff <_end+0xdefa5f>
    1144:	00d77733          	and	a4,a4,a3
    1148:	00e7e7b3          	or	a5,a5,a4
    114c:	0107971b          	slliw	a4,a5,0x10
    1150:	0107d79b          	srliw	a5,a5,0x10
    1154:	00f767b3          	or	a5,a4,a5
    1158:	00f92e23          	sw	a5,28(s2)
    115c:	ee9ff06f          	j	1044 <hart_prop+0x94>
    1160:	01043783          	ld	a5,16(s0)
    1164:	ff0106b7          	lui	a3,0xff010
    1168:	f0068693          	addi	a3,a3,-256 # ffffffffff00ff00 <_end+0xfffffffffee0f860>
    116c:	0007a703          	lw	a4,0(a5)
    1170:	01813083          	ld	ra,24(sp)
    1174:	01013403          	ld	s0,16(sp)
    1178:	0087179b          	slliw	a5,a4,0x8
    117c:	00d7f7b3          	and	a5,a5,a3
    1180:	00ff06b7          	lui	a3,0xff0
    1184:	0087571b          	srliw	a4,a4,0x8
    1188:	0ff68693          	addi	a3,a3,255 # ff00ff <_end+0xdefa5f>
    118c:	00d77733          	and	a4,a4,a3
    1190:	00e7e7b3          	or	a5,a5,a4
    1194:	0107971b          	slliw	a4,a5,0x10
    1198:	0107d79b          	srliw	a5,a5,0x10
    119c:	00f767b3          	or	a5,a4,a5
    11a0:	00f92c23          	sw	a5,24(s2)
    11a4:	00813483          	ld	s1,8(sp)
    11a8:	00013903          	ld	s2,0(sp)
    11ac:	02010113          	addi	sp,sp,32
    11b0:	00008067          	ret
    11b4:	00008517          	auipc	a0,0x8
    11b8:	d6450513          	addi	a0,a0,-668 # 8f18 <softfloat_countLeadingZeros8+0x1c8>
    11bc:	00008697          	auipc	a3,0x8
    11c0:	efc68693          	addi	a3,a3,-260 # 90b8 <softfloat_countLeadingZeros8+0x368>
    11c4:	0f000613          	li	a2,240
    11c8:	00008597          	auipc	a1,0x8
    11cc:	d3858593          	addi	a1,a1,-712 # 8f00 <softfloat_countLeadingZeros8+0x1b0>
    11d0:	0a1010ef          	jal	ra,2a70 <printm>
    11d4:	00010537          	lui	a0,0x10
    11d8:	fff50513          	addi	a0,a0,-1 # ffff <finisher+0x2f7f>
    11dc:	4d5010ef          	jal	ra,2eb0 <poweroff>
    11e0:	00008517          	auipc	a0,0x8
    11e4:	d3850513          	addi	a0,a0,-712 # 8f18 <softfloat_countLeadingZeros8+0x1c8>
    11e8:	00008697          	auipc	a3,0x8
    11ec:	ea868693          	addi	a3,a3,-344 # 9090 <softfloat_countLeadingZeros8+0x340>
    11f0:	0ed00613          	li	a2,237
    11f4:	fd5ff06f          	j	11c8 <hart_prop+0x218>

00000000000011f8 <hart_filter_prop>:
    11f8:	fe010113          	addi	sp,sp,-32
    11fc:	01213023          	sd	s2,0(sp)
    1200:	00853903          	ld	s2,8(a0)
    1204:	00813823          	sd	s0,16(sp)
    1208:	00913423          	sd	s1,8(sp)
    120c:	00058413          	mv	s0,a1
    1210:	00050493          	mv	s1,a0
    1214:	00008597          	auipc	a1,0x8
    1218:	e6458593          	addi	a1,a1,-412 # 9078 <softfloat_countLeadingZeros8+0x328>
    121c:	00090513          	mv	a0,s2
    1220:	00113c23          	sd	ra,24(sp)
    1224:	774070ef          	jal	ra,8998 <strcmp>
    1228:	00051c63          	bnez	a0,1240 <hart_filter_prop+0x48>
    122c:	0104b503          	ld	a0,16(s1)
    1230:	00008597          	auipc	a1,0x8
    1234:	e5858593          	addi	a1,a1,-424 # 9088 <softfloat_countLeadingZeros8+0x338>
    1238:	760070ef          	jal	ra,8998 <strcmp>
    123c:	0e050e63          	beqz	a0,1338 <hart_filter_prop+0x140>
    1240:	00008597          	auipc	a1,0x8
    1244:	eb058593          	addi	a1,a1,-336 # 90f0 <softfloat_countLeadingZeros8+0x3a0>
    1248:	00090513          	mv	a0,s2
    124c:	74c070ef          	jal	ra,8998 <strcmp>
    1250:	0a051063          	bnez	a0,12f0 <hart_filter_prop+0xf8>
    1254:	0004b783          	ld	a5,0(s1)
    1258:	0104b683          	ld	a3,16(s1)
    125c:	0007b783          	ld	a5,0(a5)
    1260:	0107a783          	lw	a5,16(a5)
    1264:	06f05863          	blez	a5,12d4 <hart_filter_prop+0xdc>
    1268:	fff7861b          	addiw	a2,a5,-1
    126c:	02061613          	slli	a2,a2,0x20
    1270:	02065613          	srli	a2,a2,0x20
    1274:	00160613          	addi	a2,a2,1
    1278:	00261613          	slli	a2,a2,0x2
    127c:	ff010837          	lui	a6,0xff010
    1280:	00ff05b7          	lui	a1,0xff0
    1284:	00c68633          	add	a2,a3,a2
    1288:	00000793          	li	a5,0
    128c:	f0080813          	addi	a6,a6,-256 # ffffffffff00ff00 <_end+0xfffffffffee0f860>
    1290:	0ff58593          	addi	a1,a1,255 # ff00ff <_end+0xdefa5f>
    1294:	00468693          	addi	a3,a3,4
    1298:	ffc6a703          	lw	a4,-4(a3)
    129c:	02079513          	slli	a0,a5,0x20
    12a0:	0087179b          	slliw	a5,a4,0x8
    12a4:	0087571b          	srliw	a4,a4,0x8
    12a8:	00b77733          	and	a4,a4,a1
    12ac:	0107f7b3          	and	a5,a5,a6
    12b0:	00e7e7b3          	or	a5,a5,a4
    12b4:	0107971b          	slliw	a4,a5,0x10
    12b8:	0107d79b          	srliw	a5,a5,0x10
    12bc:	00f767b3          	or	a5,a4,a5
    12c0:	02079793          	slli	a5,a5,0x20
    12c4:	0207d793          	srli	a5,a5,0x20
    12c8:	00a787b3          	add	a5,a5,a0
    12cc:	fcc694e3          	bne	a3,a2,1294 <hart_filter_prop+0x9c>
    12d0:	0007851b          	sext.w	a0,a5
    12d4:	00a42223          	sw	a0,4(s0)
    12d8:	01813083          	ld	ra,24(sp)
    12dc:	01013403          	ld	s0,16(sp)
    12e0:	00813483          	ld	s1,8(sp)
    12e4:	00013903          	ld	s2,0(sp)
    12e8:	02010113          	addi	sp,sp,32
    12ec:	00008067          	ret
    12f0:	00008597          	auipc	a1,0x8
    12f4:	ea858593          	addi	a1,a1,-344 # 9198 <softfloat_countLeadingZeros8+0x448>
    12f8:	00090513          	mv	a0,s2
    12fc:	69c070ef          	jal	ra,8998 <strcmp>
    1300:	04050c63          	beqz	a0,1358 <hart_filter_prop+0x160>
    1304:	00008597          	auipc	a1,0x8
    1308:	df458593          	addi	a1,a1,-524 # 90f8 <softfloat_countLeadingZeros8+0x3a8>
    130c:	00090513          	mv	a0,s2
    1310:	688070ef          	jal	ra,8998 <strcmp>
    1314:	fc0512e3          	bnez	a0,12d8 <hart_filter_prop+0xe0>
    1318:	0104b783          	ld	a5,16(s1)
    131c:	01813083          	ld	ra,24(sp)
    1320:	00813483          	ld	s1,8(sp)
    1324:	00f43823          	sd	a5,16(s0)
    1328:	01013403          	ld	s0,16(sp)
    132c:	00013903          	ld	s2,0(sp)
    1330:	02010113          	addi	sp,sp,32
    1334:	00008067          	ret
    1338:	00100793          	li	a5,1
    133c:	00f42023          	sw	a5,0(s0)
    1340:	01813083          	ld	ra,24(sp)
    1344:	01013403          	ld	s0,16(sp)
    1348:	00813483          	ld	s1,8(sp)
    134c:	00013903          	ld	s2,0(sp)
    1350:	02010113          	addi	sp,sp,32
    1354:	00008067          	ret
    1358:	0104b783          	ld	a5,16(s1)
    135c:	01813083          	ld	ra,24(sp)
    1360:	00813483          	ld	s1,8(sp)
    1364:	00f43423          	sd	a5,8(s0)
    1368:	01013403          	ld	s0,16(sp)
    136c:	00013903          	ld	s2,0(sp)
    1370:	02010113          	addi	sp,sp,32
    1374:	00008067          	ret

0000000000001378 <fdt_scan_helper>:
    1378:	00100793          	li	a5,1
    137c:	f4010113          	addi	sp,sp,-192
    1380:	02079793          	slli	a5,a5,0x20
    1384:	0a813823          	sd	s0,176(sp)
    1388:	0a913423          	sd	s1,168(sp)
    138c:	00278793          	addi	a5,a5,2
    1390:	00ff04b7          	lui	s1,0xff0
    1394:	ff010437          	lui	s0,0xff010
    1398:	0b213023          	sd	s2,160(sp)
    139c:	09313c23          	sd	s3,152(sp)
    13a0:	09413823          	sd	s4,144(sp)
    13a4:	09513423          	sd	s5,136(sp)
    13a8:	09613023          	sd	s6,128(sp)
    13ac:	07713c23          	sd	s7,120(sp)
    13b0:	07813823          	sd	s8,112(sp)
    13b4:	07913423          	sd	s9,104(sp)
    13b8:	07a13023          	sd	s10,96(sp)
    13bc:	0a113c23          	sd	ra,184(sp)
    13c0:	05b13c23          	sd	s11,88(sp)
    13c4:	00060a13          	mv	s4,a2
    13c8:	00050c93          	mv	s9,a0
    13cc:	00058b13          	mv	s6,a1
    13d0:	00068913          	mv	s2,a3
    13d4:	00c13c23          	sd	a2,24(sp)
    13d8:	02f13423          	sd	a5,40(sp)
    13dc:	02c13823          	sd	a2,48(sp)
    13e0:	00000d13          	li	s10,0
    13e4:	0ff48493          	addi	s1,s1,255 # ff00ff <_end+0xdefa5f>
    13e8:	f0040413          	addi	s0,s0,-256 # ffffffffff00ff00 <_end+0xfffffffffee0f860>
    13ec:	00200993          	li	s3,2
    13f0:	00300a93          	li	s5,3
    13f4:	00008c17          	auipc	s8,0x8
    13f8:	d1cc0c13          	addi	s8,s8,-740 # 9110 <softfloat_countLeadingZeros8+0x3c0>
    13fc:	00008b97          	auipc	s7,0x8
    1400:	d24b8b93          	addi	s7,s7,-732 # 9120 <softfloat_countLeadingZeros8+0x3d0>
    1404:	000ca703          	lw	a4,0(s9)
    1408:	0087579b          	srliw	a5,a4,0x8
    140c:	0087171b          	slliw	a4,a4,0x8
    1410:	00877733          	and	a4,a4,s0
    1414:	0097f7b3          	and	a5,a5,s1
    1418:	00e7e7b3          	or	a5,a5,a4
    141c:	0107971b          	slliw	a4,a5,0x10
    1420:	0107d79b          	srliw	a5,a5,0x10
    1424:	00f767b3          	or	a5,a4,a5
    1428:	0007879b          	sext.w	a5,a5
    142c:	0b378663          	beq	a5,s3,14d8 <fdt_scan_helper+0x160>
    1430:	00f9fc63          	bleu	a5,s3,1448 <fdt_scan_helper+0xd0>
    1434:	13578263          	beq	a5,s5,1558 <fdt_scan_helper+0x1e0>
    1438:	00400713          	li	a4,4
    143c:	0ee79e63          	bne	a5,a4,1538 <fdt_scan_helper+0x1c0>
    1440:	004c8c93          	addi	s9,s9,4
    1444:	fc1ff06f          	j	1404 <fdt_scan_helper+0x8c>
    1448:	00100713          	li	a4,1
    144c:	0ee79663          	bne	a5,a4,1538 <fdt_scan_helper+0x1c0>
    1450:	000d1e63          	bnez	s10,146c <fdt_scan_helper+0xf4>
    1454:	000a0c63          	beqz	s4,146c <fdt_scan_helper+0xf4>
    1458:	01093783          	ld	a5,16(s2)
    145c:	00078863          	beqz	a5,146c <fdt_scan_helper+0xf4>
    1460:	02093583          	ld	a1,32(s2)
    1464:	000a0513          	mv	a0,s4
    1468:	000780e7          	jalr	a5
    146c:	00093783          	ld	a5,0(s2)
    1470:	004c8d13          	addi	s10,s9,4
    1474:	03a13023          	sd	s10,32(sp)
    1478:	22078663          	beqz	a5,16a4 <fdt_scan_helper+0x32c>
    147c:	02093583          	ld	a1,32(s2)
    1480:	01810513          	addi	a0,sp,24
    1484:	000780e7          	jalr	a5
    1488:	02013503          	ld	a0,32(sp)
    148c:	4e4070ef          	jal	ra,8970 <strlen>
    1490:	ffc57513          	andi	a0,a0,-4
    1494:	00850513          	addi	a0,a0,8
    1498:	00090693          	mv	a3,s2
    149c:	01810613          	addi	a2,sp,24
    14a0:	000b0593          	mv	a1,s6
    14a4:	00ac8533          	add	a0,s9,a0
    14a8:	ed1ff0ef          	jal	ra,1378 <fdt_scan_helper>
    14ac:	01893783          	ld	a5,24(s2)
    14b0:	00050d93          	mv	s11,a0
    14b4:	00078c63          	beqz	a5,14cc <fdt_scan_helper+0x154>
    14b8:	02093583          	ld	a1,32(s2)
    14bc:	01810513          	addi	a0,sp,24
    14c0:	000780e7          	jalr	a5
    14c4:	fff00793          	li	a5,-1
    14c8:	1af50663          	beq	a0,a5,1674 <fdt_scan_helper+0x2fc>
    14cc:	000d8c93          	mv	s9,s11
    14d0:	00100d13          	li	s10,1
    14d4:	f31ff06f          	j	1404 <fdt_scan_helper+0x8c>
    14d8:	000d1e63          	bnez	s10,14f4 <fdt_scan_helper+0x17c>
    14dc:	000a0c63          	beqz	s4,14f4 <fdt_scan_helper+0x17c>
    14e0:	01093783          	ld	a5,16(s2)
    14e4:	00078863          	beqz	a5,14f4 <fdt_scan_helper+0x17c>
    14e8:	02093583          	ld	a1,32(s2)
    14ec:	000a0513          	mv	a0,s4
    14f0:	000780e7          	jalr	a5
    14f4:	004c8c93          	addi	s9,s9,4
    14f8:	0b813083          	ld	ra,184(sp)
    14fc:	0b013403          	ld	s0,176(sp)
    1500:	000c8513          	mv	a0,s9
    1504:	0a813483          	ld	s1,168(sp)
    1508:	0a013903          	ld	s2,160(sp)
    150c:	09813983          	ld	s3,152(sp)
    1510:	09013a03          	ld	s4,144(sp)
    1514:	08813a83          	ld	s5,136(sp)
    1518:	08013b03          	ld	s6,128(sp)
    151c:	07813b83          	ld	s7,120(sp)
    1520:	07013c03          	ld	s8,112(sp)
    1524:	06813c83          	ld	s9,104(sp)
    1528:	06013d03          	ld	s10,96(sp)
    152c:	05813d83          	ld	s11,88(sp)
    1530:	0c010113          	addi	sp,sp,192
    1534:	00008067          	ret
    1538:	fc0d10e3          	bnez	s10,14f8 <fdt_scan_helper+0x180>
    153c:	fa0a0ee3          	beqz	s4,14f8 <fdt_scan_helper+0x180>
    1540:	01093783          	ld	a5,16(s2)
    1544:	fa078ae3          	beqz	a5,14f8 <fdt_scan_helper+0x180>
    1548:	02093583          	ld	a1,32(s2)
    154c:	000a0513          	mv	a0,s4
    1550:	000780e7          	jalr	a5
    1554:	fa5ff06f          	j	14f8 <fdt_scan_helper+0x180>
    1558:	140d1a63          	bnez	s10,16ac <fdt_scan_helper+0x334>
    155c:	008ca703          	lw	a4,8(s9)
    1560:	004ca603          	lw	a2,4(s9)
    1564:	00cc8593          	addi	a1,s9,12
    1568:	0087179b          	slliw	a5,a4,0x8
    156c:	0087571b          	srliw	a4,a4,0x8
    1570:	00977733          	and	a4,a4,s1
    1574:	0087f7b3          	and	a5,a5,s0
    1578:	0086169b          	slliw	a3,a2,0x8
    157c:	00e7e7b3          	or	a5,a5,a4
    1580:	0086561b          	srliw	a2,a2,0x8
    1584:	0107971b          	slliw	a4,a5,0x10
    1588:	0086f6b3          	and	a3,a3,s0
    158c:	00967633          	and	a2,a2,s1
    1590:	0107d79b          	srliw	a5,a5,0x10
    1594:	00c6e6b3          	or	a3,a3,a2
    1598:	00f76733          	or	a4,a4,a5
    159c:	01069d9b          	slliw	s11,a3,0x10
    15a0:	02071713          	slli	a4,a4,0x20
    15a4:	0106d69b          	srliw	a3,a3,0x10
    15a8:	02075713          	srli	a4,a4,0x20
    15ac:	00dde6b3          	or	a3,s11,a3
    15b0:	00eb0733          	add	a4,s6,a4
    15b4:	00068d9b          	sext.w	s11,a3
    15b8:	02e13c23          	sd	a4,56(sp)
    15bc:	05b12423          	sw	s11,72(sp)
    15c0:	04b13023          	sd	a1,64(sp)
    15c4:	060a0e63          	beqz	s4,1640 <fdt_scan_helper+0x2c8>
    15c8:	00070513          	mv	a0,a4
    15cc:	000c0593          	mv	a1,s8
    15d0:	00e13423          	sd	a4,8(sp)
    15d4:	3c4070ef          	jal	ra,8998 <strcmp>
    15d8:	00813703          	ld	a4,8(sp)
    15dc:	02051663          	bnez	a0,1608 <fdt_scan_helper+0x290>
    15e0:	00cca683          	lw	a3,12(s9)
    15e4:	0086979b          	slliw	a5,a3,0x8
    15e8:	0086d69b          	srliw	a3,a3,0x8
    15ec:	0096f6b3          	and	a3,a3,s1
    15f0:	0087f7b3          	and	a5,a5,s0
    15f4:	00d7e7b3          	or	a5,a5,a3
    15f8:	0107969b          	slliw	a3,a5,0x10
    15fc:	0107d79b          	srliw	a5,a5,0x10
    1600:	00f6e7b3          	or	a5,a3,a5
    1604:	00fa2823          	sw	a5,16(s4)
    1608:	000b8593          	mv	a1,s7
    160c:	00070513          	mv	a0,a4
    1610:	388070ef          	jal	ra,8998 <strcmp>
    1614:	02051663          	bnez	a0,1640 <fdt_scan_helper+0x2c8>
    1618:	00cca703          	lw	a4,12(s9)
    161c:	0087179b          	slliw	a5,a4,0x8
    1620:	0087571b          	srliw	a4,a4,0x8
    1624:	00977733          	and	a4,a4,s1
    1628:	0087f7b3          	and	a5,a5,s0
    162c:	00e7e7b3          	or	a5,a5,a4
    1630:	0107971b          	slliw	a4,a5,0x10
    1634:	0107d79b          	srliw	a5,a5,0x10
    1638:	00f767b3          	or	a5,a4,a5
    163c:	00fa2a23          	sw	a5,20(s4)
    1640:	003d8d9b          	addiw	s11,s11,3
    1644:	41fdd79b          	sraiw	a5,s11,0x1f
    1648:	01e7d79b          	srliw	a5,a5,0x1e
    164c:	01b787bb          	addw	a5,a5,s11
    1650:	4027d79b          	sraiw	a5,a5,0x2
    1654:	00893703          	ld	a4,8(s2)
    1658:	02093583          	ld	a1,32(s2)
    165c:	0037879b          	addiw	a5,a5,3
    1660:	00279793          	slli	a5,a5,0x2
    1664:	03010513          	addi	a0,sp,48
    1668:	00fc8cb3          	add	s9,s9,a5
    166c:	000700e7          	jalr	a4
    1670:	d95ff06f          	j	1404 <fdt_scan_helper+0x8c>
    1674:	07bc8263          	beq	s9,s11,16d8 <fdt_scan_helper+0x360>
    1678:	000c8793          	mv	a5,s9
    167c:	04000737          	lui	a4,0x4000
    1680:	00478793          	addi	a5,a5,4
    1684:	fee7ae23          	sw	a4,-4(a5)
    1688:	fefd9ce3          	bne	s11,a5,1680 <fdt_scan_helper+0x308>
    168c:	41ad87b3          	sub	a5,s11,s10
    1690:	ffc7f793          	andi	a5,a5,-4
    1694:	00478793          	addi	a5,a5,4
    1698:	00fc8cb3          	add	s9,s9,a5
    169c:	00100d13          	li	s10,1
    16a0:	d65ff06f          	j	1404 <fdt_scan_helper+0x8c>
    16a4:	000d0513          	mv	a0,s10
    16a8:	de5ff06f          	j	148c <fdt_scan_helper+0x114>
    16ac:	00008517          	auipc	a0,0x8
    16b0:	86c50513          	addi	a0,a0,-1940 # 8f18 <softfloat_countLeadingZeros8+0x1c8>
    16b4:	00008697          	auipc	a3,0x8
    16b8:	a5468693          	addi	a3,a3,-1452 # 9108 <softfloat_countLeadingZeros8+0x3b8>
    16bc:	03500613          	li	a2,53
    16c0:	00008597          	auipc	a1,0x8
    16c4:	84058593          	addi	a1,a1,-1984 # 8f00 <softfloat_countLeadingZeros8+0x1b0>
    16c8:	3a8010ef          	jal	ra,2a70 <printm>
    16cc:	00010537          	lui	a0,0x10
    16d0:	fff50513          	addi	a0,a0,-1 # ffff <finisher+0x2f7f>
    16d4:	7dc010ef          	jal	ra,2eb0 <poweroff>
    16d8:	00100d13          	li	s10,1
    16dc:	d29ff06f          	j	1404 <fdt_scan_helper+0x8c>

00000000000016e0 <mem_open>:
    16e0:	00058513          	mv	a0,a1
    16e4:	01800613          	li	a2,24
    16e8:	00000593          	li	a1,0
    16ec:	2240706f          	j	8910 <memset>

00000000000016f0 <mem_prop>:
    16f0:	fe010113          	addi	sp,sp,-32
    16f4:	00913423          	sd	s1,8(sp)
    16f8:	00853483          	ld	s1,8(a0)
    16fc:	00813823          	sd	s0,16(sp)
    1700:	01213023          	sd	s2,0(sp)
    1704:	00050413          	mv	s0,a0
    1708:	00058913          	mv	s2,a1
    170c:	00048513          	mv	a0,s1
    1710:	00008597          	auipc	a1,0x8
    1714:	96858593          	addi	a1,a1,-1688 # 9078 <softfloat_countLeadingZeros8+0x328>
    1718:	00113c23          	sd	ra,24(sp)
    171c:	27c070ef          	jal	ra,8998 <strcmp>
    1720:	00051c63          	bnez	a0,1738 <mem_prop+0x48>
    1724:	01043503          	ld	a0,16(s0)
    1728:	00008597          	auipc	a1,0x8
    172c:	a0858593          	addi	a1,a1,-1528 # 9130 <softfloat_countLeadingZeros8+0x3e0>
    1730:	268070ef          	jal	ra,8998 <strcmp>
    1734:	06050a63          	beqz	a0,17a8 <mem_prop+0xb8>
    1738:	00008597          	auipc	a1,0x8
    173c:	9b858593          	addi	a1,a1,-1608 # 90f0 <softfloat_countLeadingZeros8+0x3a0>
    1740:	00048513          	mv	a0,s1
    1744:	254070ef          	jal	ra,8998 <strcmp>
    1748:	00050e63          	beqz	a0,1764 <mem_prop+0x74>
    174c:	01813083          	ld	ra,24(sp)
    1750:	01013403          	ld	s0,16(sp)
    1754:	00813483          	ld	s1,8(sp)
    1758:	00013903          	ld	s2,0(sp)
    175c:	02010113          	addi	sp,sp,32
    1760:	00008067          	ret
    1764:	01043783          	ld	a5,16(s0)
    1768:	01842703          	lw	a4,24(s0)
    176c:	00008517          	auipc	a0,0x8
    1770:	9cc50513          	addi	a0,a0,-1588 # 9138 <softfloat_countLeadingZeros8+0x3e8>
    1774:	00078593          	mv	a1,a5
    1778:	00f93423          	sd	a5,8(s2)
    177c:	00e92823          	sw	a4,16(s2)
    1780:	2f0010ef          	jal	ra,2a70 <printm>
    1784:	01013403          	ld	s0,16(sp)
    1788:	01092583          	lw	a1,16(s2)
    178c:	01813083          	ld	ra,24(sp)
    1790:	00813483          	ld	s1,8(sp)
    1794:	00013903          	ld	s2,0(sp)
    1798:	00008517          	auipc	a0,0x8
    179c:	9a050513          	addi	a0,a0,-1632 # 9138 <softfloat_countLeadingZeros8+0x3e8>
    17a0:	02010113          	addi	sp,sp,32
    17a4:	2cc0106f          	j	2a70 <printm>
    17a8:	01813083          	ld	ra,24(sp)
    17ac:	01013403          	ld	s0,16(sp)
    17b0:	00100793          	li	a5,1
    17b4:	00f92023          	sw	a5,0(s2)
    17b8:	00813483          	ld	s1,8(sp)
    17bc:	00013903          	ld	s2,0(sp)
    17c0:	02010113          	addi	sp,sp,32
    17c4:	00008067          	ret

00000000000017c8 <hart_done>:
    17c8:	0005b783          	ld	a5,0(a1)
    17cc:	ff010113          	addi	sp,sp,-16
    17d0:	00113423          	sd	ra,8(sp)
    17d4:	06a78c63          	beq	a5,a0,184c <hart_done+0x84>
    17d8:	0105b703          	ld	a4,16(a1)
    17dc:	00a70863          	beq	a4,a0,17ec <hart_done+0x24>
    17e0:	00813083          	ld	ra,8(sp)
    17e4:	01010113          	addi	sp,sp,16
    17e8:	00008067          	ret
    17ec:	fe078ae3          	beqz	a5,17e0 <hart_done+0x18>
    17f0:	01c5a783          	lw	a5,28(a1)
    17f4:	08078663          	beqz	a5,1880 <hart_done+0xb8>
    17f8:	0185a683          	lw	a3,24(a1)
    17fc:	00100713          	li	a4,1
    1800:	08e69c63          	bne	a3,a4,1898 <hart_done+0xd0>
    1804:	0085a503          	lw	a0,8(a1)
    1808:	fca04ce3          	bgtz	a0,17e0 <hart_done+0x18>
    180c:	0000c717          	auipc	a4,0xc
    1810:	81470713          	addi	a4,a4,-2028 # d020 <hart_mask>
    1814:	00073603          	ld	a2,0(a4)
    1818:	00100713          	li	a4,1
    181c:	00251593          	slli	a1,a0,0x2
    1820:	00a7173b          	sllw	a4,a4,a0
    1824:	0000b697          	auipc	a3,0xb
    1828:	7e468693          	addi	a3,a3,2020 # d008 <hart_phandles>
    182c:	00813083          	ld	ra,8(sp)
    1830:	00b686b3          	add	a3,a3,a1
    1834:	00c76733          	or	a4,a4,a2
    1838:	00f6a023          	sw	a5,0(a3)
    183c:	0000b797          	auipc	a5,0xb
    1840:	7ee7b223          	sd	a4,2020(a5) # d020 <hart_mask>
    1844:	01010113          	addi	sp,sp,16
    1848:	77c0106f          	j	2fc4 <hls_init>
    184c:	0085a703          	lw	a4,8(a1)
    1850:	f80754e3          	bgez	a4,17d8 <hart_done+0x10>
    1854:	00007517          	auipc	a0,0x7
    1858:	6c450513          	addi	a0,a0,1732 # 8f18 <softfloat_countLeadingZeros8+0x1c8>
    185c:	00008697          	auipc	a3,0x8
    1860:	8f468693          	addi	a3,a3,-1804 # 9150 <softfloat_countLeadingZeros8+0x400>
    1864:	10200613          	li	a2,258
    1868:	00007597          	auipc	a1,0x7
    186c:	69858593          	addi	a1,a1,1688 # 8f00 <softfloat_countLeadingZeros8+0x1b0>
    1870:	200010ef          	jal	ra,2a70 <printm>
    1874:	00010537          	lui	a0,0x10
    1878:	fff50513          	addi	a0,a0,-1 # ffff <finisher+0x2f7f>
    187c:	634010ef          	jal	ra,2eb0 <poweroff>
    1880:	00007517          	auipc	a0,0x7
    1884:	69850513          	addi	a0,a0,1688 # 8f18 <softfloat_countLeadingZeros8+0x1c8>
    1888:	00008697          	auipc	a3,0x8
    188c:	8d868693          	addi	a3,a3,-1832 # 9160 <softfloat_countLeadingZeros8+0x410>
    1890:	10600613          	li	a2,262
    1894:	fd5ff06f          	j	1868 <hart_done+0xa0>
    1898:	00007517          	auipc	a0,0x7
    189c:	68050513          	addi	a0,a0,1664 # 8f18 <softfloat_countLeadingZeros8+0x1c8>
    18a0:	00008697          	auipc	a3,0x8
    18a4:	8d868693          	addi	a3,a3,-1832 # 9178 <softfloat_countLeadingZeros8+0x428>
    18a8:	10700613          	li	a2,263
    18ac:	fbdff06f          	j	1868 <hart_done+0xa0>

00000000000018b0 <hart_filter_done>:
    18b0:	0005a783          	lw	a5,0(a1)
    18b4:	08078463          	beqz	a5,193c <hart_filter_done+0x8c>
    18b8:	fe010113          	addi	sp,sp,-32
    18bc:	00913423          	sd	s1,8(sp)
    18c0:	0085b483          	ld	s1,8(a1)
    18c4:	00813823          	sd	s0,16(sp)
    18c8:	00113c23          	sd	ra,24(sp)
    18cc:	01213023          	sd	s2,0(sp)
    18d0:	00058413          	mv	s0,a1
    18d4:	12048263          	beqz	s1,19f8 <hart_filter_done+0x148>
    18d8:	0045a783          	lw	a5,4(a1)
    18dc:	0e07c863          	bltz	a5,19cc <hart_filter_done+0x11c>
    18e0:	0105b903          	ld	s2,16(a1)
    18e4:	06090a63          	beqz	s2,1958 <hart_filter_done+0xa8>
    18e8:	00008597          	auipc	a1,0x8
    18ec:	8d058593          	addi	a1,a1,-1840 # 91b8 <softfloat_countLeadingZeros8+0x468>
    18f0:	00048513          	mv	a0,s1
    18f4:	0a4070ef          	jal	ra,8998 <strcmp>
    18f8:	06051063          	bnez	a0,1958 <hart_filter_done+0xa8>
    18fc:	00008597          	auipc	a1,0x8
    1900:	8c458593          	addi	a1,a1,-1852 # 91c0 <softfloat_countLeadingZeros8+0x470>
    1904:	00090513          	mv	a0,s2
    1908:	090070ef          	jal	ra,8998 <strcmp>
    190c:	00050c63          	beqz	a0,1924 <hart_filter_done+0x74>
    1910:	00008597          	auipc	a1,0x8
    1914:	8c058593          	addi	a1,a1,-1856 # 91d0 <softfloat_countLeadingZeros8+0x480>
    1918:	00090513          	mv	a0,s2
    191c:	07c070ef          	jal	ra,8998 <strcmp>
    1920:	02051063          	bnez	a0,1940 <hart_filter_done+0x90>
    1924:	01813083          	ld	ra,24(sp)
    1928:	01013403          	ld	s0,16(sp)
    192c:	00813483          	ld	s1,8(sp)
    1930:	00013903          	ld	s2,0(sp)
    1934:	02010113          	addi	sp,sp,32
    1938:	00008067          	ret
    193c:	00008067          	ret
    1940:	00048593          	mv	a1,s1
    1944:	00090613          	mv	a2,s2
    1948:	00008517          	auipc	a0,0x8
    194c:	89850513          	addi	a0,a0,-1896 # 91e0 <softfloat_countLeadingZeros8+0x490>
    1950:	120010ef          	jal	ra,2a70 <printm>
    1954:	00843483          	ld	s1,8(s0)
    1958:	06d00793          	li	a5,109
    195c:	00f48023          	sb	a5,0(s1)
    1960:	06100793          	li	a5,97
    1964:	00f480a3          	sb	a5,1(s1)
    1968:	07300793          	li	a5,115
    196c:	00f48123          	sb	a5,2(s1)
    1970:	06b00793          	li	a5,107
    1974:	00f481a3          	sb	a5,3(s1)
    1978:	06500793          	li	a5,101
    197c:	00f48223          	sb	a5,4(s1)
    1980:	06400793          	li	a5,100
    1984:	00f482a3          	sb	a5,5(s1)
    1988:	00048323          	sb	zero,6(s1)
    198c:	00843783          	ld	a5,8(s0)
    1990:	01843683          	ld	a3,24(s0)
    1994:	07000737          	lui	a4,0x7000
    1998:	fee7ac23          	sw	a4,-8(a5)
    199c:	00442603          	lw	a2,4(s0)
    19a0:	0006b783          	ld	a5,0(a3)
    19a4:	00100713          	li	a4,1
    19a8:	01813083          	ld	ra,24(sp)
    19ac:	01013403          	ld	s0,16(sp)
    19b0:	00c7173b          	sllw	a4,a4,a2
    19b4:	00e7e7b3          	or	a5,a5,a4
    19b8:	00f6b023          	sd	a5,0(a3)
    19bc:	00813483          	ld	s1,8(sp)
    19c0:	00013903          	ld	s2,0(sp)
    19c4:	02010113          	addi	sp,sp,32
    19c8:	00008067          	ret
    19cc:	00007517          	auipc	a0,0x7
    19d0:	54c50513          	addi	a0,a0,1356 # 8f18 <softfloat_countLeadingZeros8+0x1c8>
    19d4:	00007697          	auipc	a3,0x7
    19d8:	7cc68693          	addi	a3,a3,1996 # 91a0 <softfloat_countLeadingZeros8+0x450>
    19dc:	29c00613          	li	a2,668
    19e0:	00007597          	auipc	a1,0x7
    19e4:	52058593          	addi	a1,a1,1312 # 8f00 <softfloat_countLeadingZeros8+0x1b0>
    19e8:	088010ef          	jal	ra,2a70 <printm>
    19ec:	00010537          	lui	a0,0x10
    19f0:	fff50513          	addi	a0,a0,-1 # ffff <finisher+0x2f7f>
    19f4:	4bc010ef          	jal	ra,2eb0 <poweroff>
    19f8:	00007517          	auipc	a0,0x7
    19fc:	52050513          	addi	a0,a0,1312 # 8f18 <softfloat_countLeadingZeros8+0x1c8>
    1a00:	00007697          	auipc	a3,0x7
    1a04:	79068693          	addi	a3,a3,1936 # 9190 <softfloat_countLeadingZeros8+0x440>
    1a08:	29b00613          	li	a2,667
    1a0c:	00007597          	auipc	a1,0x7
    1a10:	4f458593          	addi	a1,a1,1268 # 8f00 <softfloat_countLeadingZeros8+0x1b0>
    1a14:	05c010ef          	jal	ra,2a70 <printm>
    1a18:	00010537          	lui	a0,0x10
    1a1c:	fff50513          	addi	a0,a0,-1 # ffff <finisher+0x2f7f>
    1a20:	490010ef          	jal	ra,2eb0 <poweroff>

0000000000001a24 <chosen_prop>:
    1a24:	0005b783          	ld	a5,0(a1)
    1a28:	16078e63          	beqz	a5,1ba4 <chosen_prop+0x180>
    1a2c:	fe010113          	addi	sp,sp,-32
    1a30:	01213023          	sd	s2,0(sp)
    1a34:	00853903          	ld	s2,8(a0)
    1a38:	00813823          	sd	s0,16(sp)
    1a3c:	00913423          	sd	s1,8(sp)
    1a40:	00058413          	mv	s0,a1
    1a44:	00050493          	mv	s1,a0
    1a48:	00007597          	auipc	a1,0x7
    1a4c:	7e058593          	addi	a1,a1,2016 # 9228 <softfloat_countLeadingZeros8+0x4d8>
    1a50:	00090513          	mv	a0,s2
    1a54:	00113c23          	sd	ra,24(sp)
    1a58:	741060ef          	jal	ra,8998 <strcmp>
    1a5c:	08051e63          	bnez	a0,1af8 <chosen_prop+0xd4>
    1a60:	0004b783          	ld	a5,0(s1)
    1a64:	0104b603          	ld	a2,16(s1)
    1a68:	0007b783          	ld	a5,0(a5)
    1a6c:	0107a783          	lw	a5,16(a5)
    1a70:	12f05c63          	blez	a5,1ba8 <chosen_prop+0x184>
    1a74:	fff7859b          	addiw	a1,a5,-1
    1a78:	02059593          	slli	a1,a1,0x20
    1a7c:	0205d593          	srli	a1,a1,0x20
    1a80:	00158593          	addi	a1,a1,1
    1a84:	00259593          	slli	a1,a1,0x2
    1a88:	ff010837          	lui	a6,0xff010
    1a8c:	00ff0537          	lui	a0,0xff0
    1a90:	00b605b3          	add	a1,a2,a1
    1a94:	00000793          	li	a5,0
    1a98:	f0080813          	addi	a6,a6,-256 # ffffffffff00ff00 <_end+0xfffffffffee0f860>
    1a9c:	0ff50513          	addi	a0,a0,255 # ff00ff <_end+0xdefa5f>
    1aa0:	00460613          	addi	a2,a2,4
    1aa4:	ffc62703          	lw	a4,-4(a2)
    1aa8:	02079693          	slli	a3,a5,0x20
    1aac:	0087179b          	slliw	a5,a4,0x8
    1ab0:	0087571b          	srliw	a4,a4,0x8
    1ab4:	00a77733          	and	a4,a4,a0
    1ab8:	0107f7b3          	and	a5,a5,a6
    1abc:	00e7e7b3          	or	a5,a5,a4
    1ac0:	0107971b          	slliw	a4,a5,0x10
    1ac4:	0107d79b          	srliw	a5,a5,0x10
    1ac8:	00f767b3          	or	a5,a4,a5
    1acc:	02079793          	slli	a5,a5,0x20
    1ad0:	0207d793          	srli	a5,a5,0x20
    1ad4:	00d787b3          	add	a5,a5,a3
    1ad8:	fcb614e3          	bne	a2,a1,1aa0 <chosen_prop+0x7c>
    1adc:	00f43423          	sd	a5,8(s0)
    1ae0:	01813083          	ld	ra,24(sp)
    1ae4:	01013403          	ld	s0,16(sp)
    1ae8:	00813483          	ld	s1,8(sp)
    1aec:	00013903          	ld	s2,0(sp)
    1af0:	02010113          	addi	sp,sp,32
    1af4:	00008067          	ret
    1af8:	00007597          	auipc	a1,0x7
    1afc:	74858593          	addi	a1,a1,1864 # 9240 <softfloat_countLeadingZeros8+0x4f0>
    1b00:	00090513          	mv	a0,s2
    1b04:	695060ef          	jal	ra,8998 <strcmp>
    1b08:	fc051ce3          	bnez	a0,1ae0 <chosen_prop+0xbc>
    1b0c:	0004b783          	ld	a5,0(s1)
    1b10:	0104b603          	ld	a2,16(s1)
    1b14:	0007b783          	ld	a5,0(a5)
    1b18:	0107a783          	lw	a5,16(a5)
    1b1c:	08f05a63          	blez	a5,1bb0 <chosen_prop+0x18c>
    1b20:	fff7859b          	addiw	a1,a5,-1
    1b24:	02059593          	slli	a1,a1,0x20
    1b28:	0205d593          	srli	a1,a1,0x20
    1b2c:	00158593          	addi	a1,a1,1
    1b30:	00259593          	slli	a1,a1,0x2
    1b34:	ff010837          	lui	a6,0xff010
    1b38:	00ff0537          	lui	a0,0xff0
    1b3c:	00b605b3          	add	a1,a2,a1
    1b40:	00000793          	li	a5,0
    1b44:	f0080813          	addi	a6,a6,-256 # ffffffffff00ff00 <_end+0xfffffffffee0f860>
    1b48:	0ff50513          	addi	a0,a0,255 # ff00ff <_end+0xdefa5f>
    1b4c:	00460613          	addi	a2,a2,4
    1b50:	ffc62703          	lw	a4,-4(a2)
    1b54:	02079693          	slli	a3,a5,0x20
    1b58:	0087179b          	slliw	a5,a4,0x8
    1b5c:	0087571b          	srliw	a4,a4,0x8
    1b60:	00a77733          	and	a4,a4,a0
    1b64:	0107f7b3          	and	a5,a5,a6
    1b68:	00e7e7b3          	or	a5,a5,a4
    1b6c:	0107971b          	slliw	a4,a5,0x10
    1b70:	0107d79b          	srliw	a5,a5,0x10
    1b74:	00f767b3          	or	a5,a4,a5
    1b78:	02079793          	slli	a5,a5,0x20
    1b7c:	0207d793          	srli	a5,a5,0x20
    1b80:	00d787b3          	add	a5,a5,a3
    1b84:	fcb614e3          	bne	a2,a1,1b4c <chosen_prop+0x128>
    1b88:	00f43823          	sd	a5,16(s0)
    1b8c:	01813083          	ld	ra,24(sp)
    1b90:	01013403          	ld	s0,16(sp)
    1b94:	00813483          	ld	s1,8(sp)
    1b98:	00013903          	ld	s2,0(sp)
    1b9c:	02010113          	addi	sp,sp,32
    1ba0:	00008067          	ret
    1ba4:	00008067          	ret
    1ba8:	00000793          	li	a5,0
    1bac:	f31ff06f          	j	1adc <chosen_prop+0xb8>
    1bb0:	00000793          	li	a5,0
    1bb4:	00f43823          	sd	a5,16(s0)
    1bb8:	fd5ff06f          	j	1b8c <chosen_prop+0x168>

0000000000001bbc <fdt_scan>:
    1bbc:	00052703          	lw	a4,0(a0)
    1bc0:	00ff0637          	lui	a2,0xff0
    1bc4:	ff010837          	lui	a6,0xff010
    1bc8:	0087579b          	srliw	a5,a4,0x8
    1bcc:	0ff60613          	addi	a2,a2,255 # ff00ff <_end+0xdefa5f>
    1bd0:	0087171b          	slliw	a4,a4,0x8
    1bd4:	f0080813          	addi	a6,a6,-256 # ffffffffff00ff00 <_end+0xfffffffffee0f860>
    1bd8:	01077733          	and	a4,a4,a6
    1bdc:	00c7f7b3          	and	a5,a5,a2
    1be0:	00e7e7b3          	or	a5,a5,a4
    1be4:	0107971b          	slliw	a4,a5,0x10
    1be8:	0107d79b          	srliw	a5,a5,0x10
    1bec:	00f767b3          	or	a5,a4,a5
    1bf0:	d00e0737          	lui	a4,0xd00e0
    1bf4:	0007879b          	sext.w	a5,a5
    1bf8:	eed70713          	addi	a4,a4,-275 # ffffffffd00dfeed <_end+0xffffffffcfedf84d>
    1bfc:	00e78463          	beq	a5,a4,1c04 <fdt_scan+0x48>
    1c00:	00008067          	ret
    1c04:	01852703          	lw	a4,24(a0)
    1c08:	01100693          	li	a3,17
    1c0c:	0087179b          	slliw	a5,a4,0x8
    1c10:	0087571b          	srliw	a4,a4,0x8
    1c14:	00c77733          	and	a4,a4,a2
    1c18:	0107f7b3          	and	a5,a5,a6
    1c1c:	00e7e7b3          	or	a5,a5,a4
    1c20:	0107971b          	slliw	a4,a5,0x10
    1c24:	0107d79b          	srliw	a5,a5,0x10
    1c28:	00f767b3          	or	a5,a4,a5
    1c2c:	0007879b          	sext.w	a5,a5
    1c30:	fcf6e8e3          	bltu	a3,a5,1c00 <fdt_scan+0x44>
    1c34:	00c52783          	lw	a5,12(a0)
    1c38:	00852883          	lw	a7,8(a0)
    1c3c:	00058693          	mv	a3,a1
    1c40:	0087971b          	slliw	a4,a5,0x8
    1c44:	0087d59b          	srliw	a1,a5,0x8
    1c48:	0088979b          	slliw	a5,a7,0x8
    1c4c:	0088d89b          	srliw	a7,a7,0x8
    1c50:	01077733          	and	a4,a4,a6
    1c54:	00c5f5b3          	and	a1,a1,a2
    1c58:	0107f833          	and	a6,a5,a6
    1c5c:	00c8f633          	and	a2,a7,a2
    1c60:	00b767b3          	or	a5,a4,a1
    1c64:	00c86633          	or	a2,a6,a2
    1c68:	0107959b          	slliw	a1,a5,0x10
    1c6c:	0106171b          	slliw	a4,a2,0x10
    1c70:	0107d79b          	srliw	a5,a5,0x10
    1c74:	0106561b          	srliw	a2,a2,0x10
    1c78:	00c76633          	or	a2,a4,a2
    1c7c:	00f5e7b3          	or	a5,a1,a5
    1c80:	02061713          	slli	a4,a2,0x20
    1c84:	02079593          	slli	a1,a5,0x20
    1c88:	0205d593          	srli	a1,a1,0x20
    1c8c:	02075713          	srli	a4,a4,0x20
    1c90:	00a585b3          	add	a1,a1,a0
    1c94:	00000613          	li	a2,0
    1c98:	00a70533          	add	a0,a4,a0
    1c9c:	edcff06f          	j	1378 <fdt_scan_helper>

0000000000001ca0 <fdt_size>:
    1ca0:	00052703          	lw	a4,0(a0)
    1ca4:	ff0105b7          	lui	a1,0xff010
    1ca8:	00ff06b7          	lui	a3,0xff0
    1cac:	0087179b          	slliw	a5,a4,0x8
    1cb0:	f0058593          	addi	a1,a1,-256 # ffffffffff00ff00 <_end+0xfffffffffee0f860>
    1cb4:	0087571b          	srliw	a4,a4,0x8
    1cb8:	0ff68693          	addi	a3,a3,255 # ff00ff <_end+0xdefa5f>
    1cbc:	00d77733          	and	a4,a4,a3
    1cc0:	00b7f7b3          	and	a5,a5,a1
    1cc4:	00e7e7b3          	or	a5,a5,a4
    1cc8:	0107971b          	slliw	a4,a5,0x10
    1ccc:	0107d79b          	srliw	a5,a5,0x10
    1cd0:	00f767b3          	or	a5,a4,a5
    1cd4:	d00e0737          	lui	a4,0xd00e0
    1cd8:	0007879b          	sext.w	a5,a5
    1cdc:	eed70713          	addi	a4,a4,-275 # ffffffffd00dfeed <_end+0xffffffffcfedf84d>
    1ce0:	00e78863          	beq	a5,a4,1cf0 <fdt_size+0x50>
    1ce4:	00000713          	li	a4,0
    1ce8:	00070513          	mv	a0,a4
    1cec:	00008067          	ret
    1cf0:	01852603          	lw	a2,24(a0)
    1cf4:	01100813          	li	a6,17
    1cf8:	00000713          	li	a4,0
    1cfc:	0086179b          	slliw	a5,a2,0x8
    1d00:	0086561b          	srliw	a2,a2,0x8
    1d04:	00d67633          	and	a2,a2,a3
    1d08:	00b7f7b3          	and	a5,a5,a1
    1d0c:	00c7e7b3          	or	a5,a5,a2
    1d10:	0107961b          	slliw	a2,a5,0x10
    1d14:	0107d79b          	srliw	a5,a5,0x10
    1d18:	00f667b3          	or	a5,a2,a5
    1d1c:	0007879b          	sext.w	a5,a5
    1d20:	fcf864e3          	bltu	a6,a5,1ce8 <fdt_size+0x48>
    1d24:	00452783          	lw	a5,4(a0)
    1d28:	0087971b          	slliw	a4,a5,0x8
    1d2c:	0087d79b          	srliw	a5,a5,0x8
    1d30:	00b775b3          	and	a1,a4,a1
    1d34:	00d7f6b3          	and	a3,a5,a3
    1d38:	00d5e6b3          	or	a3,a1,a3
    1d3c:	0106971b          	slliw	a4,a3,0x10
    1d40:	0106d69b          	srliw	a3,a3,0x10
    1d44:	00d76733          	or	a4,a4,a3
    1d48:	0007071b          	sext.w	a4,a4
    1d4c:	00070513          	mv	a0,a4
    1d50:	00008067          	ret

0000000000001d54 <fdt_get_address>:
    1d54:	01052783          	lw	a5,16(a0)
    1d58:	00063023          	sd	zero,0(a2)
    1d5c:	08f05263          	blez	a5,1de0 <fdt_get_address+0x8c>
    1d60:	fff7831b          	addiw	t1,a5,-1
    1d64:	02031893          	slli	a7,t1,0x20
    1d68:	0208d893          	srli	a7,a7,0x20
    1d6c:	00188893          	addi	a7,a7,1
    1d70:	00289893          	slli	a7,a7,0x2
    1d74:	ff010eb7          	lui	t4,0xff010
    1d78:	00ff0e37          	lui	t3,0xff0
    1d7c:	011588b3          	add	a7,a1,a7
    1d80:	00058813          	mv	a6,a1
    1d84:	00000793          	li	a5,0
    1d88:	f00e8e93          	addi	t4,t4,-256 # ffffffffff00ff00 <_end+0xfffffffffee0f860>
    1d8c:	0ffe0e13          	addi	t3,t3,255 # ff00ff <_end+0xdefa5f>
    1d90:	00480813          	addi	a6,a6,4
    1d94:	ffc82703          	lw	a4,-4(a6)
    1d98:	02079693          	slli	a3,a5,0x20
    1d9c:	0087179b          	slliw	a5,a4,0x8
    1da0:	0087571b          	srliw	a4,a4,0x8
    1da4:	01c77733          	and	a4,a4,t3
    1da8:	01d7f7b3          	and	a5,a5,t4
    1dac:	00e7e7b3          	or	a5,a5,a4
    1db0:	0107971b          	slliw	a4,a5,0x10
    1db4:	0107d79b          	srliw	a5,a5,0x10
    1db8:	00f767b3          	or	a5,a4,a5
    1dbc:	02079793          	slli	a5,a5,0x20
    1dc0:	0207d793          	srli	a5,a5,0x20
    1dc4:	00d787b3          	add	a5,a5,a3
    1dc8:	fd1814e3          	bne	a6,a7,1d90 <fdt_get_address+0x3c>
    1dcc:	00130313          	addi	t1,t1,1
    1dd0:	00231313          	slli	t1,t1,0x2
    1dd4:	00658533          	add	a0,a1,t1
    1dd8:	00f63023          	sd	a5,0(a2)
    1ddc:	00008067          	ret
    1de0:	00058513          	mv	a0,a1
    1de4:	00008067          	ret

0000000000001de8 <fdt_get_size>:
    1de8:	01452783          	lw	a5,20(a0)
    1dec:	00063023          	sd	zero,0(a2)
    1df0:	08f05263          	blez	a5,1e74 <fdt_get_size+0x8c>
    1df4:	fff7831b          	addiw	t1,a5,-1
    1df8:	02031893          	slli	a7,t1,0x20
    1dfc:	0208d893          	srli	a7,a7,0x20
    1e00:	00188893          	addi	a7,a7,1
    1e04:	00289893          	slli	a7,a7,0x2
    1e08:	ff010eb7          	lui	t4,0xff010
    1e0c:	00ff0e37          	lui	t3,0xff0
    1e10:	011588b3          	add	a7,a1,a7
    1e14:	00058813          	mv	a6,a1
    1e18:	00000793          	li	a5,0
    1e1c:	f00e8e93          	addi	t4,t4,-256 # ffffffffff00ff00 <_end+0xfffffffffee0f860>
    1e20:	0ffe0e13          	addi	t3,t3,255 # ff00ff <_end+0xdefa5f>
    1e24:	00480813          	addi	a6,a6,4
    1e28:	ffc82703          	lw	a4,-4(a6)
    1e2c:	02079693          	slli	a3,a5,0x20
    1e30:	0087179b          	slliw	a5,a4,0x8
    1e34:	0087571b          	srliw	a4,a4,0x8
    1e38:	01c77733          	and	a4,a4,t3
    1e3c:	01d7f7b3          	and	a5,a5,t4
    1e40:	00e7e7b3          	or	a5,a5,a4
    1e44:	0107971b          	slliw	a4,a5,0x10
    1e48:	0107d79b          	srliw	a5,a5,0x10
    1e4c:	00f767b3          	or	a5,a4,a5
    1e50:	02079793          	slli	a5,a5,0x20
    1e54:	0207d793          	srli	a5,a5,0x20
    1e58:	00d787b3          	add	a5,a5,a3
    1e5c:	fd1814e3          	bne	a6,a7,1e24 <fdt_get_size+0x3c>
    1e60:	00130313          	addi	t1,t1,1
    1e64:	00231313          	slli	t1,t1,0x2
    1e68:	00658533          	add	a0,a1,t1
    1e6c:	00f63023          	sd	a5,0(a2)
    1e70:	00008067          	ret
    1e74:	00058513          	mv	a0,a1
    1e78:	00008067          	ret

0000000000001e7c <fdt_string_list_index>:
    1e7c:	fd010113          	addi	sp,sp,-48
    1e80:	02813023          	sd	s0,32(sp)
    1e84:	01852783          	lw	a5,24(a0)
    1e88:	01053403          	ld	s0,16(a0)
    1e8c:	01313423          	sd	s3,8(sp)
    1e90:	02113423          	sd	ra,40(sp)
    1e94:	00913c23          	sd	s1,24(sp)
    1e98:	01213823          	sd	s2,16(sp)
    1e9c:	00f409b3          	add	s3,s0,a5
    1ea0:	04f05e63          	blez	a5,1efc <fdt_string_list_index+0x80>
    1ea4:	00058913          	mv	s2,a1
    1ea8:	00000493          	li	s1,0
    1eac:	0200006f          	j	1ecc <fdt_string_list_index+0x50>
    1eb0:	00040513          	mv	a0,s0
    1eb4:	2bd060ef          	jal	ra,8970 <strlen>
    1eb8:	00150513          	addi	a0,a0,1
    1ebc:	00a40433          	add	s0,s0,a0
    1ec0:	408987b3          	sub	a5,s3,s0
    1ec4:	0014849b          	addiw	s1,s1,1
    1ec8:	02f05a63          	blez	a5,1efc <fdt_string_list_index+0x80>
    1ecc:	00090593          	mv	a1,s2
    1ed0:	00040513          	mv	a0,s0
    1ed4:	2c5060ef          	jal	ra,8998 <strcmp>
    1ed8:	fc051ce3          	bnez	a0,1eb0 <fdt_string_list_index+0x34>
    1edc:	02813083          	ld	ra,40(sp)
    1ee0:	02013403          	ld	s0,32(sp)
    1ee4:	00048513          	mv	a0,s1
    1ee8:	01013903          	ld	s2,16(sp)
    1eec:	01813483          	ld	s1,24(sp)
    1ef0:	00813983          	ld	s3,8(sp)
    1ef4:	03010113          	addi	sp,sp,48
    1ef8:	00008067          	ret
    1efc:	02813083          	ld	ra,40(sp)
    1f00:	02013403          	ld	s0,32(sp)
    1f04:	fff00493          	li	s1,-1
    1f08:	00048513          	mv	a0,s1
    1f0c:	01013903          	ld	s2,16(sp)
    1f10:	01813483          	ld	s1,24(sp)
    1f14:	00813983          	ld	s3,8(sp)
    1f18:	03010113          	addi	sp,sp,48
    1f1c:	00008067          	ret

0000000000001f20 <clint_prop>:
    1f20:	fe010113          	addi	sp,sp,-32
    1f24:	01213023          	sd	s2,0(sp)
    1f28:	00853903          	ld	s2,8(a0)
    1f2c:	00813823          	sd	s0,16(sp)
    1f30:	00913423          	sd	s1,8(sp)
    1f34:	00058413          	mv	s0,a1
    1f38:	00050493          	mv	s1,a0
    1f3c:	00007597          	auipc	a1,0x7
    1f40:	31c58593          	addi	a1,a1,796 # 9258 <softfloat_countLeadingZeros8+0x508>
    1f44:	00090513          	mv	a0,s2
    1f48:	00113c23          	sd	ra,24(sp)
    1f4c:	24d060ef          	jal	ra,8998 <strcmp>
    1f50:	02051c63          	bnez	a0,1f88 <clint_prop+0x68>
    1f54:	00007597          	auipc	a1,0x7
    1f58:	f5458593          	addi	a1,a1,-172 # 8ea8 <softfloat_countLeadingZeros8+0x158>
    1f5c:	00048513          	mv	a0,s1
    1f60:	f1dff0ef          	jal	ra,1e7c <fdt_string_list_index>
    1f64:	02054263          	bltz	a0,1f88 <clint_prop+0x68>
    1f68:	00100793          	li	a5,1
    1f6c:	00f42023          	sw	a5,0(s0)
    1f70:	01813083          	ld	ra,24(sp)
    1f74:	01013403          	ld	s0,16(sp)
    1f78:	00813483          	ld	s1,8(sp)
    1f7c:	00013903          	ld	s2,0(sp)
    1f80:	02010113          	addi	sp,sp,32
    1f84:	00008067          	ret
    1f88:	00007597          	auipc	a1,0x7
    1f8c:	16858593          	addi	a1,a1,360 # 90f0 <softfloat_countLeadingZeros8+0x3a0>
    1f90:	00090513          	mv	a0,s2
    1f94:	205060ef          	jal	ra,8998 <strcmp>
    1f98:	08051663          	bnez	a0,2024 <clint_prop+0x104>
    1f9c:	0004b783          	ld	a5,0(s1)
    1fa0:	0104b683          	ld	a3,16(s1)
    1fa4:	0007b783          	ld	a5,0(a5)
    1fa8:	00043423          	sd	zero,8(s0)
    1fac:	0107a783          	lw	a5,16(a5)
    1fb0:	fcf050e3          	blez	a5,1f70 <clint_prop+0x50>
    1fb4:	fff7859b          	addiw	a1,a5,-1
    1fb8:	02059593          	slli	a1,a1,0x20
    1fbc:	0205d593          	srli	a1,a1,0x20
    1fc0:	00158593          	addi	a1,a1,1
    1fc4:	00259593          	slli	a1,a1,0x2
    1fc8:	ff010837          	lui	a6,0xff010
    1fcc:	00ff0537          	lui	a0,0xff0
    1fd0:	00b685b3          	add	a1,a3,a1
    1fd4:	00000793          	li	a5,0
    1fd8:	f0080813          	addi	a6,a6,-256 # ffffffffff00ff00 <_end+0xfffffffffee0f860>
    1fdc:	0ff50513          	addi	a0,a0,255 # ff00ff <_end+0xdefa5f>
    1fe0:	00468693          	addi	a3,a3,4
    1fe4:	ffc6a703          	lw	a4,-4(a3)
    1fe8:	02079613          	slli	a2,a5,0x20
    1fec:	0087179b          	slliw	a5,a4,0x8
    1ff0:	0087571b          	srliw	a4,a4,0x8
    1ff4:	00a77733          	and	a4,a4,a0
    1ff8:	0107f7b3          	and	a5,a5,a6
    1ffc:	00e7e7b3          	or	a5,a5,a4
    2000:	0107971b          	slliw	a4,a5,0x10
    2004:	0107d79b          	srliw	a5,a5,0x10
    2008:	00f767b3          	or	a5,a4,a5
    200c:	02079793          	slli	a5,a5,0x20
    2010:	0207d793          	srli	a5,a5,0x20
    2014:	00c787b3          	add	a5,a5,a2
    2018:	fcb694e3          	bne	a3,a1,1fe0 <clint_prop+0xc0>
    201c:	00f43423          	sd	a5,8(s0)
    2020:	f51ff06f          	j	1f70 <clint_prop+0x50>
    2024:	00007597          	auipc	a1,0x7
    2028:	24458593          	addi	a1,a1,580 # 9268 <softfloat_countLeadingZeros8+0x518>
    202c:	00090513          	mv	a0,s2
    2030:	169060ef          	jal	ra,8998 <strcmp>
    2034:	f2051ee3          	bnez	a0,1f70 <clint_prop+0x50>
    2038:	0104b703          	ld	a4,16(s1)
    203c:	0184a783          	lw	a5,24(s1)
    2040:	01813083          	ld	ra,24(sp)
    2044:	00e43823          	sd	a4,16(s0)
    2048:	00f42c23          	sw	a5,24(s0)
    204c:	01013403          	ld	s0,16(sp)
    2050:	00813483          	ld	s1,8(sp)
    2054:	00013903          	ld	s2,0(sp)
    2058:	02010113          	addi	sp,sp,32
    205c:	00008067          	ret

0000000000002060 <plic_prop>:
    2060:	fe010113          	addi	sp,sp,-32
    2064:	01213023          	sd	s2,0(sp)
    2068:	00853903          	ld	s2,8(a0)
    206c:	00813823          	sd	s0,16(sp)
    2070:	00913423          	sd	s1,8(sp)
    2074:	00058413          	mv	s0,a1
    2078:	00050493          	mv	s1,a0
    207c:	00007597          	auipc	a1,0x7
    2080:	1dc58593          	addi	a1,a1,476 # 9258 <softfloat_countLeadingZeros8+0x508>
    2084:	00090513          	mv	a0,s2
    2088:	00113c23          	sd	ra,24(sp)
    208c:	10d060ef          	jal	ra,8998 <strcmp>
    2090:	02051c63          	bnez	a0,20c8 <plic_prop+0x68>
    2094:	00007597          	auipc	a1,0x7
    2098:	1ec58593          	addi	a1,a1,492 # 9280 <softfloat_countLeadingZeros8+0x530>
    209c:	00048513          	mv	a0,s1
    20a0:	dddff0ef          	jal	ra,1e7c <fdt_string_list_index>
    20a4:	02054263          	bltz	a0,20c8 <plic_prop+0x68>
    20a8:	00100793          	li	a5,1
    20ac:	00f42023          	sw	a5,0(s0)
    20b0:	01813083          	ld	ra,24(sp)
    20b4:	01013403          	ld	s0,16(sp)
    20b8:	00813483          	ld	s1,8(sp)
    20bc:	00013903          	ld	s2,0(sp)
    20c0:	02010113          	addi	sp,sp,32
    20c4:	00008067          	ret
    20c8:	00007597          	auipc	a1,0x7
    20cc:	02858593          	addi	a1,a1,40 # 90f0 <softfloat_countLeadingZeros8+0x3a0>
    20d0:	00090513          	mv	a0,s2
    20d4:	0c5060ef          	jal	ra,8998 <strcmp>
    20d8:	08051663          	bnez	a0,2164 <plic_prop+0x104>
    20dc:	0004b783          	ld	a5,0(s1)
    20e0:	0104b683          	ld	a3,16(s1)
    20e4:	0007b783          	ld	a5,0(a5)
    20e8:	00043423          	sd	zero,8(s0)
    20ec:	0107a783          	lw	a5,16(a5)
    20f0:	fcf050e3          	blez	a5,20b0 <plic_prop+0x50>
    20f4:	fff7859b          	addiw	a1,a5,-1
    20f8:	02059593          	slli	a1,a1,0x20
    20fc:	0205d593          	srli	a1,a1,0x20
    2100:	00158593          	addi	a1,a1,1
    2104:	00259593          	slli	a1,a1,0x2
    2108:	ff010837          	lui	a6,0xff010
    210c:	00ff0537          	lui	a0,0xff0
    2110:	00b685b3          	add	a1,a3,a1
    2114:	00000793          	li	a5,0
    2118:	f0080813          	addi	a6,a6,-256 # ffffffffff00ff00 <_end+0xfffffffffee0f860>
    211c:	0ff50513          	addi	a0,a0,255 # ff00ff <_end+0xdefa5f>
    2120:	00468693          	addi	a3,a3,4
    2124:	ffc6a703          	lw	a4,-4(a3)
    2128:	02079613          	slli	a2,a5,0x20
    212c:	0087179b          	slliw	a5,a4,0x8
    2130:	0087571b          	srliw	a4,a4,0x8
    2134:	00a77733          	and	a4,a4,a0
    2138:	0107f7b3          	and	a5,a5,a6
    213c:	00e7e7b3          	or	a5,a5,a4
    2140:	0107971b          	slliw	a4,a5,0x10
    2144:	0107d79b          	srliw	a5,a5,0x10
    2148:	00f767b3          	or	a5,a4,a5
    214c:	02079793          	slli	a5,a5,0x20
    2150:	0207d793          	srli	a5,a5,0x20
    2154:	00c787b3          	add	a5,a5,a2
    2158:	fcb694e3          	bne	a3,a1,2120 <plic_prop+0xc0>
    215c:	00f43423          	sd	a5,8(s0)
    2160:	f51ff06f          	j	20b0 <plic_prop+0x50>
    2164:	00007597          	auipc	a1,0x7
    2168:	10458593          	addi	a1,a1,260 # 9268 <softfloat_countLeadingZeros8+0x518>
    216c:	00090513          	mv	a0,s2
    2170:	029060ef          	jal	ra,8998 <strcmp>
    2174:	06050663          	beqz	a0,21e0 <plic_prop+0x180>
    2178:	00007597          	auipc	a1,0x7
    217c:	11858593          	addi	a1,a1,280 # 9290 <softfloat_countLeadingZeros8+0x540>
    2180:	00090513          	mv	a0,s2
    2184:	015060ef          	jal	ra,8998 <strcmp>
    2188:	f20514e3          	bnez	a0,20b0 <plic_prop+0x50>
    218c:	0104b783          	ld	a5,16(s1)
    2190:	ff0106b7          	lui	a3,0xff010
    2194:	f0068693          	addi	a3,a3,-256 # ffffffffff00ff00 <_end+0xfffffffffee0f860>
    2198:	0007a703          	lw	a4,0(a5)
    219c:	01813083          	ld	ra,24(sp)
    21a0:	00813483          	ld	s1,8(sp)
    21a4:	0087179b          	slliw	a5,a4,0x8
    21a8:	00d7f7b3          	and	a5,a5,a3
    21ac:	00ff06b7          	lui	a3,0xff0
    21b0:	0087571b          	srliw	a4,a4,0x8
    21b4:	0ff68693          	addi	a3,a3,255 # ff00ff <_end+0xdefa5f>
    21b8:	00d77733          	and	a4,a4,a3
    21bc:	00e7e7b3          	or	a5,a5,a4
    21c0:	0107971b          	slliw	a4,a5,0x10
    21c4:	0107d79b          	srliw	a5,a5,0x10
    21c8:	00f767b3          	or	a5,a4,a5
    21cc:	02f42023          	sw	a5,32(s0)
    21d0:	01013403          	ld	s0,16(sp)
    21d4:	00013903          	ld	s2,0(sp)
    21d8:	02010113          	addi	sp,sp,32
    21dc:	00008067          	ret
    21e0:	0104b703          	ld	a4,16(s1)
    21e4:	0184a783          	lw	a5,24(s1)
    21e8:	01813083          	ld	ra,24(sp)
    21ec:	00e43823          	sd	a4,16(s0)
    21f0:	00f42c23          	sw	a5,24(s0)
    21f4:	01013403          	ld	s0,16(sp)
    21f8:	00813483          	ld	s1,8(sp)
    21fc:	00013903          	ld	s2,0(sp)
    2200:	02010113          	addi	sp,sp,32
    2204:	00008067          	ret

0000000000002208 <compat_prop>:
    2208:	fe010113          	addi	sp,sp,-32
    220c:	00813823          	sd	s0,16(sp)
    2210:	00050413          	mv	s0,a0
    2214:	00853503          	ld	a0,8(a0)
    2218:	00913423          	sd	s1,8(sp)
    221c:	00058493          	mv	s1,a1
    2220:	00007597          	auipc	a1,0x7
    2224:	03858593          	addi	a1,a1,56 # 9258 <softfloat_countLeadingZeros8+0x508>
    2228:	00113c23          	sd	ra,24(sp)
    222c:	76c060ef          	jal	ra,8998 <strcmp>
    2230:	02051263          	bnez	a0,2254 <compat_prop+0x4c>
    2234:	0004b583          	ld	a1,0(s1)
    2238:	00040513          	mv	a0,s0
    223c:	c41ff0ef          	jal	ra,1e7c <fdt_string_list_index>
    2240:	00054a63          	bltz	a0,2254 <compat_prop+0x4c>
    2244:	0084a783          	lw	a5,8(s1)
    2248:	00c4a703          	lw	a4,12(s1)
    224c:	00e7d463          	ble	a4,a5,2254 <compat_prop+0x4c>
    2250:	00f4a623          	sw	a5,12(s1)
    2254:	01813083          	ld	ra,24(sp)
    2258:	01013403          	ld	s0,16(sp)
    225c:	00813483          	ld	s1,8(sp)
    2260:	02010113          	addi	sp,sp,32
    2264:	00008067          	ret

0000000000002268 <query_mem>:
    2268:	fb010113          	addi	sp,sp,-80
    226c:	fffff797          	auipc	a5,0xfffff
    2270:	47478793          	addi	a5,a5,1140 # 16e0 <mem_open>
    2274:	00f13c23          	sd	a5,24(sp)
    2278:	fffff797          	auipc	a5,0xfffff
    227c:	47878793          	addi	a5,a5,1144 # 16f0 <mem_prop>
    2280:	01810593          	addi	a1,sp,24
    2284:	02f13023          	sd	a5,32(sp)
    2288:	fffff797          	auipc	a5,0xfffff
    228c:	a9c78793          	addi	a5,a5,-1380 # d24 <mem_done>
    2290:	02f13423          	sd	a5,40(sp)
    2294:	04113423          	sd	ra,72(sp)
    2298:	04813023          	sd	s0,64(sp)
    229c:	0000b797          	auipc	a5,0xb
    22a0:	d807be23          	sd	zero,-612(a5) # d038 <mem_size>
    22a4:	0000b417          	auipc	s0,0xb
    22a8:	d9440413          	addi	s0,s0,-620 # d038 <mem_size>
    22ac:	02013823          	sd	zero,48(sp)
    22b0:	02213c23          	sd	sp,56(sp)
    22b4:	909ff0ef          	jal	ra,1bbc <fdt_scan>
    22b8:	00043583          	ld	a1,0(s0)
    22bc:	00007517          	auipc	a0,0x7
    22c0:	fe450513          	addi	a0,a0,-28 # 92a0 <softfloat_countLeadingZeros8+0x550>
    22c4:	7ac000ef          	jal	ra,2a70 <printm>
    22c8:	00043783          	ld	a5,0(s0)
    22cc:	00078a63          	beqz	a5,22e0 <query_mem+0x78>
    22d0:	04813083          	ld	ra,72(sp)
    22d4:	04013403          	ld	s0,64(sp)
    22d8:	05010113          	addi	sp,sp,80
    22dc:	00008067          	ret
    22e0:	00007517          	auipc	a0,0x7
    22e4:	c3850513          	addi	a0,a0,-968 # 8f18 <softfloat_countLeadingZeros8+0x1c8>
    22e8:	00007697          	auipc	a3,0x7
    22ec:	fc868693          	addi	a3,a3,-56 # 92b0 <softfloat_countLeadingZeros8+0x560>
    22f0:	0cd00613          	li	a2,205
    22f4:	00007597          	auipc	a1,0x7
    22f8:	c0c58593          	addi	a1,a1,-1012 # 8f00 <softfloat_countLeadingZeros8+0x1b0>
    22fc:	774000ef          	jal	ra,2a70 <printm>
    2300:	00010537          	lui	a0,0x10
    2304:	fff50513          	addi	a0,a0,-1 # ffff <finisher+0x2f7f>
    2308:	3a9000ef          	jal	ra,2eb0 <poweroff>

000000000000230c <query_harts>:
    230c:	fa010113          	addi	sp,sp,-96
    2310:	ffffe717          	auipc	a4,0xffffe
    2314:	45070713          	addi	a4,a4,1104 # 760 <hart_open>
    2318:	02e13423          	sd	a4,40(sp)
    231c:	fffff717          	auipc	a4,0xfffff
    2320:	c9470713          	addi	a4,a4,-876 # fb0 <hart_prop>
    2324:	02e13823          	sd	a4,48(sp)
    2328:	fffff717          	auipc	a4,0xfffff
    232c:	4a070713          	addi	a4,a4,1184 # 17c8 <hart_done>
    2330:	00810793          	addi	a5,sp,8
    2334:	02e13c23          	sd	a4,56(sp)
    2338:	02810593          	addi	a1,sp,40
    233c:	ffffe717          	auipc	a4,0xffffe
    2340:	44c70713          	addi	a4,a4,1100 # 788 <hart_close>
    2344:	04113c23          	sd	ra,88(sp)
    2348:	00013423          	sd	zero,8(sp)
    234c:	00013823          	sd	zero,16(sp)
    2350:	00013c23          	sd	zero,24(sp)
    2354:	02013023          	sd	zero,32(sp)
    2358:	04e13023          	sd	a4,64(sp)
    235c:	04f13423          	sd	a5,72(sp)
    2360:	85dff0ef          	jal	ra,1bbc <fdt_scan>
    2364:	f14027f3          	csrr	a5,mhartid
    2368:	0000b717          	auipc	a4,0xb
    236c:	cb870713          	addi	a4,a4,-840 # d020 <hart_mask>
    2370:	00073703          	ld	a4,0(a4)
    2374:	00f757b3          	srl	a5,a4,a5
    2378:	00078863          	beqz	a5,2388 <query_harts+0x7c>
    237c:	05813083          	ld	ra,88(sp)
    2380:	06010113          	addi	sp,sp,96
    2384:	00008067          	ret
    2388:	00007517          	auipc	a0,0x7
    238c:	b9050513          	addi	a0,a0,-1136 # 8f18 <softfloat_countLeadingZeros8+0x1c8>
    2390:	00007697          	auipc	a3,0x7
    2394:	f3068693          	addi	a3,a3,-208 # 92c0 <softfloat_countLeadingZeros8+0x570>
    2398:	12900613          	li	a2,297
    239c:	00007597          	auipc	a1,0x7
    23a0:	b6458593          	addi	a1,a1,-1180 # 8f00 <softfloat_countLeadingZeros8+0x1b0>
    23a4:	6cc000ef          	jal	ra,2a70 <printm>
    23a8:	00010537          	lui	a0,0x10
    23ac:	fff50513          	addi	a0,a0,-1 # ffff <finisher+0x2f7f>
    23b0:	301000ef          	jal	ra,2eb0 <poweroff>

00000000000023b4 <query_clint>:
    23b4:	fa010113          	addi	sp,sp,-96
    23b8:	ffffe797          	auipc	a5,0xffffe
    23bc:	3f478793          	addi	a5,a5,1012 # 7ac <clint_open>
    23c0:	02f13423          	sd	a5,40(sp)
    23c4:	00000797          	auipc	a5,0x0
    23c8:	b5c78793          	addi	a5,a5,-1188 # 1f20 <clint_prop>
    23cc:	02f13823          	sd	a5,48(sp)
    23d0:	ffffe797          	auipc	a5,0xffffe
    23d4:	50878793          	addi	a5,a5,1288 # 8d8 <clint_done>
    23d8:	02f13c23          	sd	a5,56(sp)
    23dc:	02810593          	addi	a1,sp,40
    23e0:	00810793          	addi	a5,sp,8
    23e4:	04f13423          	sd	a5,72(sp)
    23e8:	04113c23          	sd	ra,88(sp)
    23ec:	04013023          	sd	zero,64(sp)
    23f0:	02012223          	sw	zero,36(sp)
    23f4:	fc8ff0ef          	jal	ra,1bbc <fdt_scan>
    23f8:	02412783          	lw	a5,36(sp)
    23fc:	00078863          	beqz	a5,240c <query_clint+0x58>
    2400:	05813083          	ld	ra,88(sp)
    2404:	06010113          	addi	sp,sp,96
    2408:	00008067          	ret
    240c:	00007517          	auipc	a0,0x7
    2410:	b0c50513          	addi	a0,a0,-1268 # 8f18 <softfloat_countLeadingZeros8+0x1c8>
    2414:	00007697          	auipc	a3,0x7
    2418:	ed468693          	addi	a3,a3,-300 # 92e8 <softfloat_countLeadingZeros8+0x598>
    241c:	17600613          	li	a2,374
    2420:	00007597          	auipc	a1,0x7
    2424:	ae058593          	addi	a1,a1,-1312 # 8f00 <softfloat_countLeadingZeros8+0x1b0>
    2428:	648000ef          	jal	ra,2a70 <printm>
    242c:	00010537          	lui	a0,0x10
    2430:	fff50513          	addi	a0,a0,-1 # ffff <finisher+0x2f7f>
    2434:	27d000ef          	jal	ra,2eb0 <poweroff>

0000000000002438 <query_plic>:
    2438:	fa010113          	addi	sp,sp,-96
    243c:	ffffe797          	auipc	a5,0xffffe
    2440:	38078793          	addi	a5,a5,896 # 7bc <plic_open>
    2444:	00f13023          	sd	a5,0(sp)
    2448:	00000797          	auipc	a5,0x0
    244c:	c1878793          	addi	a5,a5,-1000 # 2060 <plic_prop>
    2450:	00f13423          	sd	a5,8(sp)
    2454:	ffffe797          	auipc	a5,0xffffe
    2458:	62878793          	addi	a5,a5,1576 # a7c <plic_done>
    245c:	00f13823          	sd	a5,16(sp)
    2460:	00010593          	mv	a1,sp
    2464:	02810793          	addi	a5,sp,40
    2468:	04113c23          	sd	ra,88(sp)
    246c:	00013c23          	sd	zero,24(sp)
    2470:	02f13023          	sd	a5,32(sp)
    2474:	04012223          	sw	zero,68(sp)
    2478:	f44ff0ef          	jal	ra,1bbc <fdt_scan>
    247c:	05813083          	ld	ra,88(sp)
    2480:	06010113          	addi	sp,sp,96
    2484:	00008067          	ret

0000000000002488 <filter_plic>:
    2488:	fa010113          	addi	sp,sp,-96
    248c:	ffffe797          	auipc	a5,0xffffe
    2490:	33078793          	addi	a5,a5,816 # 7bc <plic_open>
    2494:	00f13023          	sd	a5,0(sp)
    2498:	00000797          	auipc	a5,0x0
    249c:	bc878793          	addi	a5,a5,-1080 # 2060 <plic_prop>
    24a0:	00f13423          	sd	a5,8(sp)
    24a4:	ffffe797          	auipc	a5,0xffffe
    24a8:	32878793          	addi	a5,a5,808 # 7cc <plic_redact>
    24ac:	00f13823          	sd	a5,16(sp)
    24b0:	00010593          	mv	a1,sp
    24b4:	02810793          	addi	a5,sp,40
    24b8:	04113c23          	sd	ra,88(sp)
    24bc:	00013c23          	sd	zero,24(sp)
    24c0:	02f13023          	sd	a5,32(sp)
    24c4:	04012223          	sw	zero,68(sp)
    24c8:	ef4ff0ef          	jal	ra,1bbc <fdt_scan>
    24cc:	05813083          	ld	ra,88(sp)
    24d0:	06010113          	addi	sp,sp,96
    24d4:	00008067          	ret

00000000000024d8 <filter_compat>:
    24d8:	fb010113          	addi	sp,sp,-80
    24dc:	ffffe797          	auipc	a5,0xffffe
    24e0:	37c78793          	addi	a5,a5,892 # 858 <compat_open>
    24e4:	00f13c23          	sd	a5,24(sp)
    24e8:	00000797          	auipc	a5,0x0
    24ec:	d2078793          	addi	a5,a5,-736 # 2208 <compat_prop>
    24f0:	02f13023          	sd	a5,32(sp)
    24f4:	ffffe797          	auipc	a5,0xffffe
    24f8:	37478793          	addi	a5,a5,884 # 868 <compat_close>
    24fc:	02f13823          	sd	a5,48(sp)
    2500:	00810793          	addi	a5,sp,8
    2504:	02f13c23          	sd	a5,56(sp)
    2508:	3e700793          	li	a5,999
    250c:	00b13423          	sd	a1,8(sp)
    2510:	02079793          	slli	a5,a5,0x20
    2514:	01810593          	addi	a1,sp,24
    2518:	04113423          	sd	ra,72(sp)
    251c:	02013423          	sd	zero,40(sp)
    2520:	00f13823          	sd	a5,16(sp)
    2524:	e98ff0ef          	jal	ra,1bbc <fdt_scan>
    2528:	04813083          	ld	ra,72(sp)
    252c:	05010113          	addi	sp,sp,80
    2530:	00008067          	ret

0000000000002534 <query_chosen>:
    2534:	fb010113          	addi	sp,sp,-80
    2538:	fffff797          	auipc	a5,0xfffff
    253c:	a3478793          	addi	a5,a5,-1484 # f6c <chosen_open>
    2540:	00f13c23          	sd	a5,24(sp)
    2544:	ffffe797          	auipc	a5,0xffffe
    2548:	35078793          	addi	a5,a5,848 # 894 <chosen_close>
    254c:	02f13823          	sd	a5,48(sp)
    2550:	01810593          	addi	a1,sp,24
    2554:	fffff797          	auipc	a5,0xfffff
    2558:	4d078793          	addi	a5,a5,1232 # 1a24 <chosen_prop>
    255c:	04113423          	sd	ra,72(sp)
    2560:	02f13023          	sd	a5,32(sp)
    2564:	02013423          	sd	zero,40(sp)
    2568:	00013023          	sd	zero,0(sp)
    256c:	00013423          	sd	zero,8(sp)
    2570:	00013823          	sd	zero,16(sp)
    2574:	02213c23          	sd	sp,56(sp)
    2578:	e44ff0ef          	jal	ra,1bbc <fdt_scan>
    257c:	00813783          	ld	a5,8(sp)
    2580:	04813083          	ld	ra,72(sp)
    2584:	0000b717          	auipc	a4,0xb
    2588:	acf73a23          	sd	a5,-1324(a4) # d058 <kernel_start>
    258c:	01013783          	ld	a5,16(sp)
    2590:	0000b717          	auipc	a4,0xb
    2594:	aaf73823          	sd	a5,-1360(a4) # d040 <kernel_end>
    2598:	05010113          	addi	sp,sp,80
    259c:	00008067          	ret

00000000000025a0 <filter_harts>:
    25a0:	fa010113          	addi	sp,sp,-96
    25a4:	ffffe717          	auipc	a4,0xffffe
    25a8:	31070713          	addi	a4,a4,784 # 8b4 <hart_filter_open>
    25ac:	02e13423          	sd	a4,40(sp)
    25b0:	fffff717          	auipc	a4,0xfffff
    25b4:	c4870713          	addi	a4,a4,-952 # 11f8 <hart_filter_prop>
    25b8:	04113c23          	sd	ra,88(sp)
    25bc:	02e13823          	sd	a4,48(sp)
    25c0:	fffff717          	auipc	a4,0xfffff
    25c4:	2f070713          	addi	a4,a4,752 # 18b0 <hart_filter_done>
    25c8:	00058793          	mv	a5,a1
    25cc:	02e13c23          	sd	a4,56(sp)
    25d0:	0005b023          	sd	zero,0(a1)
    25d4:	00810713          	addi	a4,sp,8
    25d8:	02810593          	addi	a1,sp,40
    25dc:	04013023          	sd	zero,64(sp)
    25e0:	04e13423          	sd	a4,72(sp)
    25e4:	02f13023          	sd	a5,32(sp)
    25e8:	dd4ff0ef          	jal	ra,1bbc <fdt_scan>
    25ec:	05813083          	ld	ra,88(sp)
    25f0:	06010113          	addi	sp,sp,96
    25f4:	00008067          	ret

00000000000025f8 <fdt_print_printm>:
    25f8:	f9010113          	addi	sp,sp,-112
    25fc:	02913423          	sd	s1,40(sp)
    2600:	00050493          	mv	s1,a0
    2604:	00052503          	lw	a0,0(a0)
    2608:	01313c23          	sd	s3,24(sp)
    260c:	02113c23          	sd	ra,56(sp)
    2610:	02813823          	sd	s0,48(sp)
    2614:	03213023          	sd	s2,32(sp)
    2618:	04c13023          	sd	a2,64(sp)
    261c:	04d13423          	sd	a3,72(sp)
    2620:	04e13823          	sd	a4,80(sp)
    2624:	04f13c23          	sd	a5,88(sp)
    2628:	07013023          	sd	a6,96(sp)
    262c:	07113423          	sd	a7,104(sp)
    2630:	00058993          	mv	s3,a1
    2634:	02a05263          	blez	a0,2658 <fdt_print_printm+0x60>
    2638:	00000413          	li	s0,0
    263c:	00007917          	auipc	s2,0x7
    2640:	cbc90913          	addi	s2,s2,-836 # 92f8 <softfloat_countLeadingZeros8+0x5a8>
    2644:	00090513          	mv	a0,s2
    2648:	428000ef          	jal	ra,2a70 <printm>
    264c:	0004a783          	lw	a5,0(s1)
    2650:	0014041b          	addiw	s0,s0,1
    2654:	fef448e3          	blt	s0,a5,2644 <fdt_print_printm+0x4c>
    2658:	04010793          	addi	a5,sp,64
    265c:	00098513          	mv	a0,s3
    2660:	00078593          	mv	a1,a5
    2664:	00f13423          	sd	a5,8(sp)
    2668:	3b8000ef          	jal	ra,2a20 <vprintm>
    266c:	03813083          	ld	ra,56(sp)
    2670:	03013403          	ld	s0,48(sp)
    2674:	02813483          	ld	s1,40(sp)
    2678:	02013903          	ld	s2,32(sp)
    267c:	01813983          	ld	s3,24(sp)
    2680:	07010113          	addi	sp,sp,112
    2684:	00008067          	ret

0000000000002688 <fdt_print_prop>:
    2688:	00853603          	ld	a2,8(a0)
    268c:	fc010113          	addi	sp,sp,-64
    2690:	02913423          	sd	s1,40(sp)
    2694:	00050493          	mv	s1,a0
    2698:	00058513          	mv	a0,a1
    269c:	00007597          	auipc	a1,0x7
    26a0:	c6458593          	addi	a1,a1,-924 # 9300 <softfloat_countLeadingZeros8+0x5b0>
    26a4:	03213023          	sd	s2,32(sp)
    26a8:	02113c23          	sd	ra,56(sp)
    26ac:	02813823          	sd	s0,48(sp)
    26b0:	01313c23          	sd	s3,24(sp)
    26b4:	01413823          	sd	s4,16(sp)
    26b8:	01513423          	sd	s5,8(sp)
    26bc:	0104b903          	ld	s2,16(s1)
    26c0:	f39ff0ef          	jal	ra,25f8 <fdt_print_printm>
    26c4:	0184a783          	lw	a5,24(s1)
    26c8:	06078e63          	beqz	a5,2744 <fdt_print_prop+0xbc>
    26cc:	00007517          	auipc	a0,0x7
    26d0:	c4450513          	addi	a0,a0,-956 # 9310 <softfloat_countLeadingZeros8+0x5c0>
    26d4:	39c000ef          	jal	ra,2a70 <printm>
    26d8:	0184a583          	lw	a1,24(s1)
    26dc:	10b05863          	blez	a1,27ec <fdt_print_prop+0x164>
    26e0:	00090693          	mv	a3,s2
    26e4:	00000713          	li	a4,0
    26e8:	00100813          	li	a6,1
    26ec:	01900513          	li	a0,25
    26f0:	00900893          	li	a7,9
    26f4:	02000313          	li	t1,32
    26f8:	00100e13          	li	t3,1
    26fc:	0006c603          	lbu	a2,0(a3)
    2700:	fdf67793          	andi	a5,a2,-33
    2704:	fbf7879b          	addiw	a5,a5,-65
    2708:	0ff7f793          	andi	a5,a5,255
    270c:	06f57263          	bleu	a5,a0,2770 <fdt_print_prop+0xe8>
    2710:	fd06079b          	addiw	a5,a2,-48
    2714:	0ff7f793          	andi	a5,a5,255
    2718:	04f8fc63          	bleu	a5,a7,2770 <fdt_print_prop+0xe8>
    271c:	0c060463          	beqz	a2,27e4 <fdt_print_prop+0x15c>
    2720:	06660463          	beq	a2,t1,2788 <fdt_print_prop+0x100>
    2724:	fd46061b          	addiw	a2,a2,-44
    2728:	0ff67613          	andi	a2,a2,255
    272c:	04ce7e63          	bleu	a2,t3,2788 <fdt_print_prop+0x100>
    2730:	00000813          	li	a6,0
    2734:	0540006f          	j	2788 <fdt_print_prop+0x100>
    2738:	00007517          	auipc	a0,0x7
    273c:	bf850513          	addi	a0,a0,-1032 # 9330 <softfloat_countLeadingZeros8+0x5e0>
    2740:	330000ef          	jal	ra,2a70 <printm>
    2744:	03013403          	ld	s0,48(sp)
    2748:	03813083          	ld	ra,56(sp)
    274c:	02813483          	ld	s1,40(sp)
    2750:	02013903          	ld	s2,32(sp)
    2754:	01813983          	ld	s3,24(sp)
    2758:	01013a03          	ld	s4,16(sp)
    275c:	00813a83          	ld	s5,8(sp)
    2760:	00007517          	auipc	a0,0x7
    2764:	ba850513          	addi	a0,a0,-1112 # 9308 <softfloat_countLeadingZeros8+0x5b8>
    2768:	04010113          	addi	sp,sp,64
    276c:	3040006f          	j	2a70 <printm>
    2770:	00070c63          	beqz	a4,2788 <fdt_print_prop+0x100>
    2774:	00061a63          	bnez	a2,2788 <fdt_print_prop+0x100>
    2778:	fff6c783          	lbu	a5,-1(a3)
    277c:	00f037b3          	snez	a5,a5
    2780:	40f007b3          	neg	a5,a5
    2784:	00f87833          	and	a6,a6,a5
    2788:	0017071b          	addiw	a4,a4,1
    278c:	00168693          	addi	a3,a3,1
    2790:	f6b716e3          	bne	a4,a1,26fc <fdt_print_prop+0x74>
    2794:	00000413          	li	s0,0
    2798:	06080063          	beqz	a6,27f8 <fdt_print_prop+0x170>
    279c:	00007a17          	auipc	s4,0x7
    27a0:	b84a0a13          	addi	s4,s4,-1148 # 9320 <softfloat_countLeadingZeros8+0x5d0>
    27a4:	00007a97          	auipc	s5,0x7
    27a8:	b74a8a93          	addi	s5,s5,-1164 # 9318 <softfloat_countLeadingZeros8+0x5c8>
    27ac:	008909b3          	add	s3,s2,s0
    27b0:	00098593          	mv	a1,s3
    27b4:	000a0513          	mv	a0,s4
    27b8:	2b8000ef          	jal	ra,2a70 <printm>
    27bc:	00098513          	mv	a0,s3
    27c0:	1b0060ef          	jal	ra,8970 <strlen>
    27c4:	0184a783          	lw	a5,24(s1)
    27c8:	00850433          	add	s0,a0,s0
    27cc:	00140413          	addi	s0,s0,1
    27d0:	f6f47ae3          	bleu	a5,s0,2744 <fdt_print_prop+0xbc>
    27d4:	fc040ce3          	beqz	s0,27ac <fdt_print_prop+0x124>
    27d8:	000a8513          	mv	a0,s5
    27dc:	294000ef          	jal	ra,2a70 <printm>
    27e0:	fcdff06f          	j	27ac <fdt_print_prop+0x124>
    27e4:	f8071ae3          	bnez	a4,2778 <fdt_print_prop+0xf0>
    27e8:	fa1ff06f          	j	2788 <fdt_print_prop+0x100>
    27ec:	f4058ce3          	beqz	a1,2744 <fdt_print_prop+0xbc>
    27f0:	00000413          	li	s0,0
    27f4:	fa9ff06f          	j	279c <fdt_print_prop+0x114>
    27f8:	00007517          	auipc	a0,0x7
    27fc:	b3050513          	addi	a0,a0,-1232 # 9328 <softfloat_countLeadingZeros8+0x5d8>
    2800:	270000ef          	jal	ra,2a70 <printm>
    2804:	0184a703          	lw	a4,24(s1)
    2808:	00000a93          	li	s5,0
    280c:	41f7579b          	sraiw	a5,a4,0x1f
    2810:	01e7d79b          	srliw	a5,a5,0x1e
    2814:	00e787bb          	addw	a5,a5,a4
    2818:	4027d79b          	sraiw	a5,a5,0x2
    281c:	f0078ee3          	beqz	a5,2738 <fdt_print_prop+0xb0>
    2820:	ff010937          	lui	s2,0xff010
    2824:	00ff0437          	lui	s0,0xff0
    2828:	f0090913          	addi	s2,s2,-256 # ffffffffff00ff00 <_end+0xfffffffffee0f860>
    282c:	0ff40413          	addi	s0,s0,255 # ff00ff <_end+0xdefa5f>
    2830:	00007997          	auipc	s3,0x7
    2834:	b1098993          	addi	s3,s3,-1264 # 9340 <softfloat_countLeadingZeros8+0x5f0>
    2838:	00007a17          	auipc	s4,0x7
    283c:	b00a0a13          	addi	s4,s4,-1280 # 9338 <softfloat_countLeadingZeros8+0x5e8>
    2840:	0104b783          	ld	a5,16(s1)
    2844:	002a9713          	slli	a4,s5,0x2
    2848:	00098513          	mv	a0,s3
    284c:	00e787b3          	add	a5,a5,a4
    2850:	0007a703          	lw	a4,0(a5)
    2854:	001a8a93          	addi	s5,s5,1
    2858:	0087179b          	slliw	a5,a4,0x8
    285c:	0087571b          	srliw	a4,a4,0x8
    2860:	00877733          	and	a4,a4,s0
    2864:	0127f7b3          	and	a5,a5,s2
    2868:	00e7e7b3          	or	a5,a5,a4
    286c:	0107959b          	slliw	a1,a5,0x10
    2870:	0107d79b          	srliw	a5,a5,0x10
    2874:	00f5e5b3          	or	a1,a1,a5
    2878:	0005859b          	sext.w	a1,a1
    287c:	1f4000ef          	jal	ra,2a70 <printm>
    2880:	0184a703          	lw	a4,24(s1)
    2884:	41f7579b          	sraiw	a5,a4,0x1f
    2888:	01e7d79b          	srliw	a5,a5,0x1e
    288c:	00e787bb          	addw	a5,a5,a4
    2890:	4027d79b          	sraiw	a5,a5,0x2
    2894:	eafaf2e3          	bleu	a5,s5,2738 <fdt_print_prop+0xb0>
    2898:	fa0a84e3          	beqz	s5,2840 <fdt_print_prop+0x1b8>
    289c:	000a0513          	mv	a0,s4
    28a0:	1d0000ef          	jal	ra,2a70 <printm>
    28a4:	f9dff06f          	j	2840 <fdt_print_prop+0x1b8>

00000000000028a8 <fdt_print_open>:
    28a8:	00053683          	ld	a3,0(a0)
    28ac:	fe010113          	addi	sp,sp,-32
    28b0:	00813823          	sd	s0,16(sp)
    28b4:	00913423          	sd	s1,8(sp)
    28b8:	00113c23          	sd	ra,24(sp)
    28bc:	01213023          	sd	s2,0(sp)
    28c0:	00050493          	mv	s1,a0
    28c4:	00058413          	mv	s0,a1
    28c8:	04068c63          	beqz	a3,2920 <fdt_print_open+0x78>
    28cc:	0005a783          	lw	a5,0(a1)
    28d0:	fff7879b          	addiw	a5,a5,-1
    28d4:	00379713          	slli	a4,a5,0x3
    28d8:	00e58733          	add	a4,a1,a4
    28dc:	00873703          	ld	a4,8(a4)
    28e0:	04e68063          	beq	a3,a4,2920 <fdt_print_open+0x78>
    28e4:	00007917          	auipc	s2,0x7
    28e8:	a6490913          	addi	s2,s2,-1436 # 9348 <softfloat_countLeadingZeros8+0x5f8>
    28ec:	01c0006f          	j	2908 <fdt_print_open+0x60>
    28f0:	00042783          	lw	a5,0(s0)
    28f4:	fff7879b          	addiw	a5,a5,-1
    28f8:	00379713          	slli	a4,a5,0x3
    28fc:	00e40733          	add	a4,s0,a4
    2900:	00873703          	ld	a4,8(a4)
    2904:	00e68e63          	beq	a3,a4,2920 <fdt_print_open+0x78>
    2908:	00f42023          	sw	a5,0(s0)
    290c:	00090593          	mv	a1,s2
    2910:	00040513          	mv	a0,s0
    2914:	ce5ff0ef          	jal	ra,25f8 <fdt_print_printm>
    2918:	0004b683          	ld	a3,0(s1)
    291c:	fc069ae3          	bnez	a3,28f0 <fdt_print_open+0x48>
    2920:	0084b603          	ld	a2,8(s1)
    2924:	00040513          	mv	a0,s0
    2928:	00007597          	auipc	a1,0x7
    292c:	a2858593          	addi	a1,a1,-1496 # 9350 <softfloat_countLeadingZeros8+0x600>
    2930:	cc9ff0ef          	jal	ra,25f8 <fdt_print_printm>
    2934:	00042783          	lw	a5,0(s0)
    2938:	01813083          	ld	ra,24(sp)
    293c:	00013903          	ld	s2,0(sp)
    2940:	00379713          	slli	a4,a5,0x3
    2944:	00e40733          	add	a4,s0,a4
    2948:	00973423          	sd	s1,8(a4)
    294c:	0017879b          	addiw	a5,a5,1
    2950:	00f42023          	sw	a5,0(s0)
    2954:	01013403          	ld	s0,16(sp)
    2958:	00813483          	ld	s1,8(sp)
    295c:	02010113          	addi	sp,sp,32
    2960:	00008067          	ret

0000000000002964 <fdt_print>:
    2964:	eb010113          	addi	sp,sp,-336
    2968:	00000797          	auipc	a5,0x0
    296c:	f4078793          	addi	a5,a5,-192 # 28a8 <fdt_print_open>
    2970:	00f13023          	sd	a5,0(sp)
    2974:	00000797          	auipc	a5,0x0
    2978:	d1478793          	addi	a5,a5,-748 # 2688 <fdt_print_prop>
    297c:	00f13423          	sd	a5,8(sp)
    2980:	ffffe797          	auipc	a5,0xffffe
    2984:	f4c78793          	addi	a5,a5,-180 # 8cc <fdt_print_done>
    2988:	14813023          	sd	s0,320(sp)
    298c:	00f13823          	sd	a5,16(sp)
    2990:	02810413          	addi	s0,sp,40
    2994:	ffffe797          	auipc	a5,0xffffe
    2998:	f3c78793          	addi	a5,a5,-196 # 8d0 <fdt_print_close>
    299c:	00010593          	mv	a1,sp
    29a0:	00f13c23          	sd	a5,24(sp)
    29a4:	14113423          	sd	ra,328(sp)
    29a8:	12913c23          	sd	s1,312(sp)
    29ac:	02012423          	sw	zero,40(sp)
    29b0:	02813023          	sd	s0,32(sp)
    29b4:	a08ff0ef          	jal	ra,1bbc <fdt_scan>
    29b8:	02812783          	lw	a5,40(sp)
    29bc:	02f05463          	blez	a5,29e4 <fdt_print+0x80>
    29c0:	00007497          	auipc	s1,0x7
    29c4:	98848493          	addi	s1,s1,-1656 # 9348 <softfloat_countLeadingZeros8+0x5f8>
    29c8:	fff7879b          	addiw	a5,a5,-1
    29cc:	00048593          	mv	a1,s1
    29d0:	00040513          	mv	a0,s0
    29d4:	02f12423          	sw	a5,40(sp)
    29d8:	c21ff0ef          	jal	ra,25f8 <fdt_print_printm>
    29dc:	02812783          	lw	a5,40(sp)
    29e0:	fef044e3          	bgtz	a5,29c8 <fdt_print+0x64>
    29e4:	14813083          	ld	ra,328(sp)
    29e8:	14013403          	ld	s0,320(sp)
    29ec:	13813483          	ld	s1,312(sp)
    29f0:	15010113          	addi	sp,sp,336
    29f4:	00008067          	ret

00000000000029f8 <putstring>:
    29f8:	00054783          	lbu	a5,0(a0)
    29fc:	02078063          	beqz	a5,2a1c <putstring+0x24>
    2a00:	0e000737          	lui	a4,0xe000
    2a04:	10370713          	addi	a4,a4,259 # e000103 <_end+0xddffa63>
    2a08:	00471713          	slli	a4,a4,0x4
    2a0c:	00150513          	addi	a0,a0,1
    2a10:	00f72023          	sw	a5,0(a4)
    2a14:	00054783          	lbu	a5,0(a0)
    2a18:	fe079ae3          	bnez	a5,2a0c <putstring+0x14>
    2a1c:	00008067          	ret

0000000000002a20 <vprintm>:
    2a20:	ef010113          	addi	sp,sp,-272
    2a24:	00058693          	mv	a3,a1
    2a28:	00050613          	mv	a2,a0
    2a2c:	10000593          	li	a1,256
    2a30:	00010513          	mv	a0,sp
    2a34:	10113423          	sd	ra,264(sp)
    2a38:	2b9050ef          	jal	ra,84f0 <vsnprintf>
    2a3c:	00014703          	lbu	a4,0(sp)
    2a40:	02070263          	beqz	a4,2a64 <vprintm+0x44>
    2a44:	0e0006b7          	lui	a3,0xe000
    2a48:	10368693          	addi	a3,a3,259 # e000103 <_end+0xddffa63>
    2a4c:	00010793          	mv	a5,sp
    2a50:	00469693          	slli	a3,a3,0x4
    2a54:	00178793          	addi	a5,a5,1
    2a58:	00e6a023          	sw	a4,0(a3)
    2a5c:	0007c703          	lbu	a4,0(a5)
    2a60:	fe071ae3          	bnez	a4,2a54 <vprintm+0x34>
    2a64:	10813083          	ld	ra,264(sp)
    2a68:	11010113          	addi	sp,sp,272
    2a6c:	00008067          	ret

0000000000002a70 <printm>:
    2a70:	fa010113          	addi	sp,sp,-96
    2a74:	02810313          	addi	t1,sp,40
    2a78:	02b13423          	sd	a1,40(sp)
    2a7c:	00030593          	mv	a1,t1
    2a80:	00113c23          	sd	ra,24(sp)
    2a84:	02c13823          	sd	a2,48(sp)
    2a88:	02d13c23          	sd	a3,56(sp)
    2a8c:	04e13023          	sd	a4,64(sp)
    2a90:	04f13423          	sd	a5,72(sp)
    2a94:	05013823          	sd	a6,80(sp)
    2a98:	05113c23          	sd	a7,88(sp)
    2a9c:	00613423          	sd	t1,8(sp)
    2aa0:	f81ff0ef          	jal	ra,2a20 <vprintm>
    2aa4:	01813083          	ld	ra,24(sp)
    2aa8:	06010113          	addi	sp,sp,96
    2aac:	00008067          	ret

0000000000002ab0 <bad_trap>:
    2ab0:	ff010113          	addi	sp,sp,-16
    2ab4:	00113423          	sd	ra,8(sp)
    2ab8:	00060713          	mv	a4,a2
    2abc:	342026f3          	csrr	a3,mcause
    2ac0:	00007517          	auipc	a0,0x7
    2ac4:	8b050513          	addi	a0,a0,-1872 # 9370 <softfloat_countLeadingZeros8+0x620>
    2ac8:	01500613          	li	a2,21
    2acc:	00007597          	auipc	a1,0x7
    2ad0:	88c58593          	addi	a1,a1,-1908 # 9358 <softfloat_countLeadingZeros8+0x608>
    2ad4:	f9dff0ef          	jal	ra,2a70 <printm>
    2ad8:	00007517          	auipc	a0,0x7
    2adc:	8c850513          	addi	a0,a0,-1848 # 93a0 <softfloat_countLeadingZeros8+0x650>
    2ae0:	f91ff0ef          	jal	ra,2a70 <printm>
    2ae4:	0000006f          	j	2ae4 <bad_trap+0x34>

0000000000002ae8 <mcall_trap>:
    2ae8:	fe010113          	addi	sp,sp,-32
    2aec:	00813823          	sd	s0,16(sp)
    2af0:	00113c23          	sd	ra,24(sp)
    2af4:	00050413          	mv	s0,a0
    2af8:	00460613          	addi	a2,a2,4
    2afc:	34161073          	csrw	mepc,a2
    2b00:	08853503          	ld	a0,136(a0)
    2b04:	00800793          	li	a5,8
    2b08:	05043583          	ld	a1,80(s0)
    2b0c:	2ca7ec63          	bltu	a5,a0,2de4 <mcall_trap+0x2fc>
    2b10:	00006617          	auipc	a2,0x6
    2b14:	f5860613          	addi	a2,a2,-168 # 8a68 <atol+0x88>
    2b18:	00251713          	slli	a4,a0,0x2
    2b1c:	00c70733          	add	a4,a4,a2
    2b20:	00072783          	lw	a5,0(a4)
    2b24:	00c787b3          	add	a5,a5,a2
    2b28:	00078067          	jr	a5
    2b2c:	00400313          	li	t1,4
    2b30:	00400e13          	li	t3,4
    2b34:	0000a797          	auipc	a5,0xa
    2b38:	4ec78793          	addi	a5,a5,1260 # d020 <hart_mask>
    2b3c:	0007b503          	ld	a0,0(a5)
    2b40:	00058e63          	beqz	a1,2b5c <mcall_trap+0x74>
    2b44:	34102673          	csrr	a2,mepc
    2b48:	000207b7          	lui	a5,0x20
    2b4c:	3007a6f3          	csrrs	a3,mstatus,a5
    2b50:	0005b703          	ld	a4,0(a1)
    2b54:	30069073          	csrw	mstatus,a3
    2b58:	00e57533          	and	a0,a0,a4
    2b5c:	22050863          	beqz	a0,2d8c <mcall_trap+0x2a4>
    2b60:	00001637          	lui	a2,0x1
    2b64:	00c10633          	add	a2,sp,a2
    2b68:	fffff6b7          	lui	a3,0xfffff
    2b6c:	00050793          	mv	a5,a0
    2b70:	00000713          	li	a4,0
    2b74:	0000a897          	auipc	a7,0xa
    2b78:	4a488893          	addi	a7,a7,1188 # d018 <disabled_hart_mask>
    2b7c:	00d67633          	and	a2,a2,a3
    2b80:	00100f13          	li	t5,1
    2b84:	f1402ef3          	csrr	t4,mhartid
    2b88:	0100006f          	j	2b98 <mcall_trap+0xb0>
    2b8c:	0017d793          	srli	a5,a5,0x1
    2b90:	00170713          	addi	a4,a4,1
    2b94:	06078263          	beqz	a5,2bf8 <mcall_trap+0x110>
    2b98:	0017f693          	andi	a3,a5,1
    2b9c:	fe0688e3          	beqz	a3,2b8c <mcall_trap+0xa4>
    2ba0:	0008b683          	ld	a3,0(a7)
    2ba4:	40e6d6b3          	sra	a3,a3,a4
    2ba8:	0016f693          	andi	a3,a3,1
    2bac:	fe0690e3          	bnez	a3,2b8c <mcall_trap+0xa4>
    2bb0:	41d706b3          	sub	a3,a4,t4
    2bb4:	00c69693          	slli	a3,a3,0xc
    2bb8:	fc068593          	addi	a1,a3,-64 # ffffffffffffefc0 <_end+0xffffffffffdfe920>
    2bbc:	00b605b3          	add	a1,a2,a1
    2bc0:	0085a803          	lw	a6,8(a1)
    2bc4:	0008081b          	sext.w	a6,a6
    2bc8:	01012623          	sw	a6,12(sp)
    2bcc:	00c12803          	lw	a6,12(sp)
    2bd0:	01036833          	or	a6,t1,a6
    2bd4:	0105a423          	sw	a6,8(a1)
    2bd8:	00c12583          	lw	a1,12(sp)
    2bdc:	0ff0000f          	fence
    2be0:	00c686b3          	add	a3,a3,a2
    2be4:	fc06b683          	ld	a3,-64(a3)
    2be8:	0017d793          	srli	a5,a5,0x1
    2bec:	00170713          	addi	a4,a4,1
    2bf0:	01e6a023          	sw	t5,0(a3)
    2bf4:	fa0792e3          	bnez	a5,2b98 <mcall_trap+0xb0>
    2bf8:	00100713          	li	a4,1
    2bfc:	18ee0863          	beq	t3,a4,2d8c <mcall_trap+0x2a4>
    2c00:	00001337          	lui	t1,0x1
    2c04:	00610333          	add	t1,sp,t1
    2c08:	fffff737          	lui	a4,0xfffff
    2c0c:	f1402e73          	csrr	t3,mhartid
    2c10:	00e37333          	and	t1,t1,a4
    2c14:	00000693          	li	a3,0
    2c18:	000e0e93          	mv	t4,t3
    2c1c:	0100006f          	j	2c2c <mcall_trap+0x144>
    2c20:	00155513          	srli	a0,a0,0x1
    2c24:	00178793          	addi	a5,a5,1 # 20001 <finisher+0x12f81>
    2c28:	06050663          	beqz	a0,2c94 <mcall_trap+0x1ac>
    2c2c:	00157713          	andi	a4,a0,1
    2c30:	fe0708e3          	beqz	a4,2c20 <mcall_trap+0x138>
    2c34:	41c78733          	sub	a4,a5,t3
    2c38:	00c71713          	slli	a4,a4,0xc
    2c3c:	00e30733          	add	a4,t1,a4
    2c40:	fc073703          	ld	a4,-64(a4) # ffffffffffffefc0 <_end+0xffffffffffdfe920>
    2c44:	00072703          	lw	a4,0(a4)
    2c48:	0007071b          	sext.w	a4,a4
    2c4c:	fc070ae3          	beqz	a4,2c20 <mcall_trap+0x138>
    2c50:	41d785b3          	sub	a1,a5,t4
    2c54:	fc033603          	ld	a2,-64(t1) # fc0 <hart_prop+0x10>
    2c58:	00c59593          	slli	a1,a1,0xc
    2c5c:	00b305b3          	add	a1,t1,a1
    2c60:	00062703          	lw	a4,0(a2) # 1000 <hart_prop+0x50>
    2c64:	fc05b883          	ld	a7,-64(a1)
    2c68:	0007071b          	sext.w	a4,a4
    2c6c:	00e12423          	sw	a4,8(sp)
    2c70:	00062023          	sw	zero,0(a2)
    2c74:	00812803          	lw	a6,8(sp)
    2c78:	0008a703          	lw	a4,0(a7)
    2c7c:	0106e6b3          	or	a3,a3,a6
    2c80:	0007071b          	sext.w	a4,a4
    2c84:	fc071ee3          	bnez	a4,2c60 <mcall_trap+0x178>
    2c88:	00155513          	srli	a0,a0,0x1
    2c8c:	00178793          	addi	a5,a5,1
    2c90:	f8051ee3          	bnez	a0,2c2c <mcall_trap+0x144>
    2c94:	0e068c63          	beqz	a3,2d8c <mcall_trap+0x2a4>
    2c98:	000017b7          	lui	a5,0x1
    2c9c:	00f107b3          	add	a5,sp,a5
    2ca0:	fffff737          	lui	a4,0xfffff
    2ca4:	00e7f7b3          	and	a5,a5,a4
    2ca8:	fc07b783          	ld	a5,-64(a5) # fc0 <hart_prop+0x10>
    2cac:	00d7a023          	sw	a3,0(a5)
    2cb0:	0ff0000f          	fence
    2cb4:	04a43823          	sd	a0,80(s0)
    2cb8:	01813083          	ld	ra,24(sp)
    2cbc:	01013403          	ld	s0,16(sp)
    2cc0:	02010113          	addi	sp,sp,32
    2cc4:	00008067          	ret
    2cc8:	00100313          	li	t1,1
    2ccc:	00100e13          	li	t3,1
    2cd0:	e65ff06f          	j	2b34 <mcall_trap+0x4c>
    2cd4:	00200313          	li	t1,2
    2cd8:	00200e13          	li	t3,2
    2cdc:	e59ff06f          	j	2b34 <mcall_trap+0x4c>
    2ce0:	0000a797          	auipc	a5,0xa
    2ce4:	39078793          	addi	a5,a5,912 # d070 <uart>
    2ce8:	0007b783          	ld	a5,0(a5)
    2cec:	0a078c63          	beqz	a5,2da4 <mcall_trap+0x2bc>
    2cf0:	209000ef          	jal	ra,36f8 <uart_getchar>
    2cf4:	04a43823          	sd	a0,80(s0)
    2cf8:	01813083          	ld	ra,24(sp)
    2cfc:	01013403          	ld	s0,16(sp)
    2d00:	02010113          	addi	sp,sp,32
    2d04:	00008067          	ret
    2d08:	34417573          	csrrci	a0,mip,2
    2d0c:	00257513          	andi	a0,a0,2
    2d10:	04a43823          	sd	a0,80(s0)
    2d14:	01813083          	ld	ra,24(sp)
    2d18:	01013403          	ld	s0,16(sp)
    2d1c:	02010113          	addi	sp,sp,32
    2d20:	00008067          	ret
    2d24:	000017b7          	lui	a5,0x1
    2d28:	00f107b3          	add	a5,sp,a5
    2d2c:	fffff737          	lui	a4,0xfffff
    2d30:	00e7f7b3          	and	a5,a5,a4
    2d34:	fd07b783          	ld	a5,-48(a5) # fd0 <hart_prop+0x20>
    2d38:	00b7b023          	sd	a1,0(a5)
    2d3c:	02000793          	li	a5,32
    2d40:	3447b7f3          	csrrc	a5,mip,a5
    2d44:	08000793          	li	a5,128
    2d48:	3047a7f3          	csrrs	a5,mie,a5
    2d4c:	04a43823          	sd	a0,80(s0)
    2d50:	01813083          	ld	ra,24(sp)
    2d54:	01013403          	ld	s0,16(sp)
    2d58:	02010113          	addi	sp,sp,32
    2d5c:	00008067          	ret
    2d60:	0e0007b7          	lui	a5,0xe000
    2d64:	10378793          	addi	a5,a5,259 # e000103 <_end+0xddffa63>
    2d68:	0ff5f593          	andi	a1,a1,255
    2d6c:	00479793          	slli	a5,a5,0x4
    2d70:	00b7a023          	sw	a1,0(a5)
    2d74:	00000513          	li	a0,0
    2d78:	04a43823          	sd	a0,80(s0)
    2d7c:	01813083          	ld	ra,24(sp)
    2d80:	01013403          	ld	s0,16(sp)
    2d84:	02010113          	addi	sp,sp,32
    2d88:	00008067          	ret
    2d8c:	00000513          	li	a0,0
    2d90:	04a43823          	sd	a0,80(s0)
    2d94:	01813083          	ld	ra,24(sp)
    2d98:	01013403          	ld	s0,16(sp)
    2d9c:	02010113          	addi	sp,sp,32
    2da0:	00008067          	ret
    2da4:	0000a797          	auipc	a5,0xa
    2da8:	2d478793          	addi	a5,a5,724 # d078 <uart16550>
    2dac:	0007b783          	ld	a5,0(a5)
    2db0:	00079e63          	bnez	a5,2dcc <mcall_trap+0x2e4>
    2db4:	0000a797          	auipc	a5,0xa
    2db8:	2ac78793          	addi	a5,a5,684 # d060 <htif>
    2dbc:	0007b783          	ld	a5,0(a5)
    2dc0:	fc0786e3          	beqz	a5,2d8c <mcall_trap+0x2a4>
    2dc4:	5b4000ef          	jal	ra,3378 <htif_console_getchar>
    2dc8:	f2dff06f          	j	2cf4 <mcall_trap+0x20c>
    2dcc:	2f5000ef          	jal	ra,38c0 <uart16550_getchar>
    2dd0:	f25ff06f          	j	2cf4 <mcall_trap+0x20c>
    2dd4:	00006517          	auipc	a0,0x6
    2dd8:	5cc50513          	addi	a0,a0,1484 # 93a0 <softfloat_countLeadingZeros8+0x650>
    2ddc:	c95ff0ef          	jal	ra,2a70 <printm>
    2de0:	0000006f          	j	2de0 <mcall_trap+0x2f8>
    2de4:	fa800513          	li	a0,-88
    2de8:	f0dff06f          	j	2cf4 <mcall_trap+0x20c>

0000000000002dec <redirect_trap>:
    2dec:	14361073          	csrw	sbadaddr,a2
    2df0:	14151073          	csrw	sepc,a0
    2df4:	342027f3          	csrr	a5,mcause
    2df8:	14279073          	csrw	scause,a5
    2dfc:	105027f3          	csrr	a5,stvec
    2e00:	34179073          	csrw	mepc,a5
    2e04:	000016b7          	lui	a3,0x1
    2e08:	00459793          	slli	a5,a1,0x4
    2e0c:	edd5f713          	andi	a4,a1,-291
    2e10:	80068693          	addi	a3,a3,-2048 # 800 <plic_redact+0x34>
    2e14:	00d76733          	or	a4,a4,a3
    2e18:	0207f793          	andi	a5,a5,32
    2e1c:	0035d593          	srli	a1,a1,0x3
    2e20:	00e7e7b3          	or	a5,a5,a4
    2e24:	1005f593          	andi	a1,a1,256
    2e28:	00f5e5b3          	or	a1,a1,a5
    2e2c:	30059073          	csrw	mstatus,a1
    2e30:	bb0fd06f          	j	1e0 <__redirect_trap>

0000000000002e34 <pmp_trap>:
    2e34:	00060513          	mv	a0,a2
    2e38:	300025f3          	csrr	a1,mstatus
    2e3c:	34302673          	csrr	a2,mbadaddr
    2e40:	fadff06f          	j	2dec <redirect_trap>

0000000000002e44 <trap_from_machine_mode>:
    2e44:	ff010113          	addi	sp,sp,-16
    2e48:	00113423          	sd	ra,8(sp)
    2e4c:	00050693          	mv	a3,a0
    2e50:	00058813          	mv	a6,a1
    2e54:	00060893          	mv	a7,a2
    2e58:	34202773          	csrr	a4,mcause
    2e5c:	00f00793          	li	a5,15
    2e60:	04e7e063          	bltu	a5,a4,2ea0 <trap_from_machine_mode+0x5c>
    2e64:	00100793          	li	a5,1
    2e68:	00e797b3          	sll	a5,a5,a4
    2e6c:	0000a737          	lui	a4,0xa
    2e70:	0a270713          	addi	a4,a4,162 # a0a2 <tohost+0x9a>
    2e74:	00e7f7b3          	and	a5,a5,a4
    2e78:	02078463          	beqz	a5,2ea0 <trap_from_machine_mode+0x5c>
    2e7c:	300027f3          	csrr	a5,mstatus
    2e80:	02e79713          	slli	a4,a5,0x2e
    2e84:	02075463          	bgez	a4,2eac <trap_from_machine_mode+0x68>
    2e88:	34302673          	csrr	a2,mbadaddr
    2e8c:	06853583          	ld	a1,104(a0)
    2e90:	00813083          	ld	ra,8(sp)
    2e94:	06053503          	ld	a0,96(a0)
    2e98:	01010113          	addi	sp,sp,16
    2e9c:	f51ff06f          	j	2dec <redirect_trap>
    2ea0:	00088613          	mv	a2,a7
    2ea4:	00080593          	mv	a1,a6
    2ea8:	00068513          	mv	a0,a3
    2eac:	c05ff0ef          	jal	ra,2ab0 <bad_trap>

0000000000002eb0 <poweroff>:
    2eb0:	ff010113          	addi	sp,sp,-16
    2eb4:	00006517          	auipc	a0,0x6
    2eb8:	4ec50513          	addi	a0,a0,1260 # 93a0 <softfloat_countLeadingZeros8+0x650>
    2ebc:	00113423          	sd	ra,8(sp)
    2ec0:	bb1ff0ef          	jal	ra,2a70 <printm>
    2ec4:	0000006f          	j	2ec4 <poweroff+0x14>

0000000000002ec8 <mstatus_init>:
    2ec8:	301027f3          	csrr	a5,misa
    2ecc:	0087f713          	andi	a4,a5,8
    2ed0:	04071063          	bnez	a4,2f10 <mstatus_init+0x48>
    2ed4:	0207f793          	andi	a5,a5,32
    2ed8:	02079c63          	bnez	a5,2f10 <mstatus_init+0x48>
    2edc:	301027f3          	csrr	a5,misa
    2ee0:	02d79713          	slli	a4,a5,0x2d
    2ee4:	00075663          	bgez	a4,2ef0 <mstatus_init+0x28>
    2ee8:	fff00793          	li	a5,-1
    2eec:	10679073          	csrw	scounteren,a5
    2ef0:	fff00793          	li	a5,-1
    2ef4:	30679073          	csrw	mcounteren,a5
    2ef8:	30445073          	csrwi	mie,8
    2efc:	301027f3          	csrr	a5,misa
    2f00:	02d79713          	slli	a4,a5,0x2d
    2f04:	00075463          	bgez	a4,2f0c <mstatus_init+0x44>
    2f08:	18005073          	csrwi	sptbr,0
    2f0c:	00008067          	ret
    2f10:	000067b7          	lui	a5,0x6
    2f14:	30079073          	csrw	mstatus,a5
    2f18:	fc5ff06f          	j	2edc <mstatus_init+0x14>

0000000000002f1c <fp_init>:
    2f1c:	301027f3          	csrr	a5,misa
    2f20:	0087f713          	andi	a4,a5,8
    2f24:	00071663          	bnez	a4,2f30 <fp_init+0x14>
    2f28:	0207f793          	andi	a5,a5,32
    2f2c:	02078e63          	beqz	a5,2f68 <fp_init+0x4c>
    2f30:	ff010113          	addi	sp,sp,-16
    2f34:	00113423          	sd	ra,8(sp)
    2f38:	300027f3          	csrr	a5,mstatus
    2f3c:	00006737          	lui	a4,0x6
    2f40:	00e7f7b3          	and	a5,a5,a4
    2f44:	04078a63          	beqz	a5,2f98 <fp_init+0x7c>
    2f48:	02800793          	li	a5,40
    2f4c:	3017b7f3          	csrrc	a5,misa,a5
    2f50:	301027f3          	csrr	a5,misa
    2f54:	0287f793          	andi	a5,a5,40
    2f58:	00079a63          	bnez	a5,2f6c <fp_init+0x50>
    2f5c:	00813083          	ld	ra,8(sp)
    2f60:	01010113          	addi	sp,sp,16
    2f64:	00008067          	ret
    2f68:	00008067          	ret
    2f6c:	00006517          	auipc	a0,0x6
    2f70:	fac50513          	addi	a0,a0,-84 # 8f18 <softfloat_countLeadingZeros8+0x1c8>
    2f74:	00006697          	auipc	a3,0x6
    2f78:	47468693          	addi	a3,a3,1140 # 93e8 <softfloat_countLeadingZeros8+0x698>
    2f7c:	04e00613          	li	a2,78
    2f80:	00006597          	auipc	a1,0x6
    2f84:	45058593          	addi	a1,a1,1104 # 93d0 <softfloat_countLeadingZeros8+0x680>
    2f88:	ae9ff0ef          	jal	ra,2a70 <printm>
    2f8c:	00010537          	lui	a0,0x10
    2f90:	fff50513          	addi	a0,a0,-1 # ffff <finisher+0x2f7f>
    2f94:	f1dff0ef          	jal	ra,2eb0 <poweroff>
    2f98:	00006517          	auipc	a0,0x6
    2f9c:	f8050513          	addi	a0,a0,-128 # 8f18 <softfloat_countLeadingZeros8+0x1c8>
    2fa0:	00006697          	auipc	a3,0x6
    2fa4:	41068693          	addi	a3,a3,1040 # 93b0 <softfloat_countLeadingZeros8+0x660>
    2fa8:	04500613          	li	a2,69
    2fac:	00006597          	auipc	a1,0x6
    2fb0:	42458593          	addi	a1,a1,1060 # 93d0 <softfloat_countLeadingZeros8+0x680>
    2fb4:	abdff0ef          	jal	ra,2a70 <printm>
    2fb8:	00010537          	lui	a0,0x10
    2fbc:	fff50513          	addi	a0,a0,-1 # ffff <finisher+0x2f7f>
    2fc0:	ef1ff0ef          	jal	ra,2eb0 <poweroff>

0000000000002fc4 <hls_init>:
    2fc4:	f14027f3          	csrr	a5,mhartid
    2fc8:	40f507b3          	sub	a5,a0,a5
    2fcc:	00001537          	lui	a0,0x1
    2fd0:	00a10533          	add	a0,sp,a0
    2fd4:	fffff737          	lui	a4,0xfffff
    2fd8:	00c79793          	slli	a5,a5,0xc
    2fdc:	00e57533          	and	a0,a0,a4
    2fe0:	fc078793          	addi	a5,a5,-64 # 5fc0 <f64_lt+0x8>
    2fe4:	00f50533          	add	a0,a0,a5
    2fe8:	00053023          	sd	zero,0(a0) # 1000 <hart_prop+0x50>
    2fec:	00053423          	sd	zero,8(a0)
    2ff0:	00053823          	sd	zero,16(a0)
    2ff4:	00053c23          	sd	zero,24(a0)
    2ff8:	02053023          	sd	zero,32(a0)
    2ffc:	02053423          	sd	zero,40(a0)
    3000:	02053823          	sd	zero,48(a0)
    3004:	00008067          	ret

0000000000003008 <init_first_hart>:
    3008:	ff010113          	addi	sp,sp,-16
    300c:	00006517          	auipc	a0,0x6
    3010:	3fc50513          	addi	a0,a0,1020 # 9408 <softfloat_countLeadingZeros8+0x6b8>
    3014:	00113423          	sd	ra,8(sp)
    3018:	00813023          	sd	s0,0(sp)
    301c:	a55ff0ef          	jal	ra,2a70 <printm>
    3020:	ffffd417          	auipc	s0,0xffffd
    3024:	29840413          	addi	s0,s0,664 # 2b8 <_dtb>
    3028:	00040593          	mv	a1,s0
    302c:	00006517          	auipc	a0,0x6
    3030:	3dc50513          	addi	a0,a0,988 # 9408 <softfloat_countLeadingZeros8+0x6b8>
    3034:	a3dff0ef          	jal	ra,2a70 <printm>
    3038:	00040513          	mv	a0,s0
    303c:	6e4000ef          	jal	ra,3720 <query_uart>
    3040:	00040513          	mv	a0,s0
    3044:	0a5000ef          	jal	ra,38e8 <query_uart16550>
    3048:	00006517          	auipc	a0,0x6
    304c:	3d850513          	addi	a0,a0,984 # 9420 <softfloat_countLeadingZeros8+0x6d0>
    3050:	a21ff0ef          	jal	ra,2a70 <printm>
    3054:	e75ff0ef          	jal	ra,2ec8 <mstatus_init>
    3058:	ec5ff0ef          	jal	ra,2f1c <fp_init>
    305c:	00000513          	li	a0,0
    3060:	f65ff0ef          	jal	ra,2fc4 <hls_init>
    3064:	00040513          	mv	a0,s0
    3068:	209000ef          	jal	ra,3a70 <query_finisher>
    306c:	00040513          	mv	a0,s0
    3070:	9f8ff0ef          	jal	ra,2268 <query_mem>
    3074:	00006517          	auipc	a0,0x6
    3078:	3bc50513          	addi	a0,a0,956 # 9430 <softfloat_countLeadingZeros8+0x6e0>
    307c:	9f5ff0ef          	jal	ra,2a70 <printm>
    3080:	0000a717          	auipc	a4,0xa
    3084:	fb870713          	addi	a4,a4,-72 # d038 <mem_size>
    3088:	00073783          	ld	a5,0(a4)
    308c:	00040513          	mv	a0,s0
    3090:	ffe006b7          	lui	a3,0xffe00
    3094:	00013403          	ld	s0,0(sp)
    3098:	00813083          	ld	ra,8(sp)
    309c:	00d7f7b3          	and	a5,a5,a3
    30a0:	00f73023          	sd	a5,0(a4)
    30a4:	01010113          	addi	sp,sp,16
    30a8:	d8cfd06f          	j	634 <boot_loader>

00000000000030ac <init_other_hart>:
    30ac:	ff010113          	addi	sp,sp,-16
    30b0:	00113423          	sd	ra,8(sp)
    30b4:	00813023          	sd	s0,0(sp)
    30b8:	00058413          	mv	s0,a1
    30bc:	e0dff0ef          	jal	ra,2ec8 <mstatus_init>
    30c0:	e5dff0ef          	jal	ra,2f1c <fp_init>
    30c4:	00001737          	lui	a4,0x1
    30c8:	00e10733          	add	a4,sp,a4
    30cc:	fffff7b7          	lui	a5,0xfffff
    30d0:	00f77733          	and	a4,a4,a5
    30d4:	fc073683          	ld	a3,-64(a4) # fc0 <hart_prop+0x10>
    30d8:	fd073783          	ld	a5,-48(a4)
    30dc:	0006a023          	sw	zero,0(a3) # ffffffffffe00000 <_end+0xffffffffffbff960>
    30e0:	fff00693          	li	a3,-1
    30e4:	00d7b023          	sd	a3,0(a5) # fffffffffffff000 <_end+0xffffffffffdfe960>
    30e8:	34405073          	csrwi	mip,0
    30ec:	0000a797          	auipc	a5,0xa
    30f0:	f3c78793          	addi	a5,a5,-196 # d028 <plic_ndevs>
    30f4:	0007b603          	ld	a2,0(a5)
    30f8:	04060c63          	beqz	a2,3150 <init_other_hart+0xa4>
    30fc:	ff073803          	ld	a6,-16(a4)
    3100:	ff867613          	andi	a2,a2,-8
    3104:	00860613          	addi	a2,a2,8
    3108:	00000793          	li	a5,0
    310c:	fff00893          	li	a7,-1
    3110:	00080863          	beqz	a6,3120 <init_other_hart+0x74>
    3114:	ff073683          	ld	a3,-16(a4)
    3118:	00f686b3          	add	a3,a3,a5
    311c:	0116b023          	sd	a7,0(a3)
    3120:	00878793          	addi	a5,a5,8
    3124:	fef616e3          	bne	a2,a5,3110 <init_other_hart+0x64>
    3128:	000017b7          	lui	a5,0x1
    312c:	fffff737          	lui	a4,0xfffff
    3130:	00f107b3          	add	a5,sp,a5
    3134:	00e7f7b3          	and	a5,a5,a4
    3138:	fd87b703          	ld	a4,-40(a5) # fd8 <hart_prop+0x28>
    313c:	fe87b783          	ld	a5,-24(a5)
    3140:	00100693          	li	a3,1
    3144:	00d72023          	sw	a3,0(a4) # fffffffffffff000 <_end+0xffffffffffdfe960>
    3148:	00078463          	beqz	a5,3150 <init_other_hart+0xa4>
    314c:	0007a023          	sw	zero,0(a5)
    3150:	00040513          	mv	a0,s0
    3154:	00013403          	ld	s0,0(sp)
    3158:	00813083          	ld	ra,8(sp)
    315c:	01010113          	addi	sp,sp,16
    3160:	c50fd06f          	j	5b0 <boot_other_hart>

0000000000003164 <enter_supervisor_mode>:
    3164:	fff00793          	li	a5,-1
    3168:	01f00713          	li	a4,31
    316c:	00b7d793          	srli	a5,a5,0xb
    3170:	00000297          	auipc	t0,0x0
    3174:	01428293          	addi	t0,t0,20 # 3184 <enter_supervisor_mode+0x20>
    3178:	305292f3          	csrrw	t0,mtvec,t0
    317c:	3b079073          	csrw	pmpaddr0,a5
    3180:	3a071073          	csrw	pmpcfg0,a4
    3184:	30529073          	csrw	mtvec,t0
    3188:	30002773          	csrr	a4,mstatus
    318c:	ffffe6b7          	lui	a3,0xffffe
    3190:	000017b7          	lui	a5,0x1
    3194:	77f68693          	addi	a3,a3,1919 # ffffffffffffe77f <_end+0xffffffffffdfe0df>
    3198:	00d77733          	and	a4,a4,a3
    319c:	80078693          	addi	a3,a5,-2048 # 800 <plic_redact+0x34>
    31a0:	00d76733          	or	a4,a4,a3
    31a4:	30071073          	csrw	mstatus,a4
    31a8:	fffff737          	lui	a4,0xfffff
    31ac:	00f107b3          	add	a5,sp,a5
    31b0:	00e7f7b3          	and	a5,a5,a4
    31b4:	dc078713          	addi	a4,a5,-576
    31b8:	34071073          	csrw	mscratch,a4
    31bc:	dc07b023          	sd	zero,-576(a5)
    31c0:	34151073          	csrw	mepc,a0
    31c4:	00058513          	mv	a0,a1
    31c8:	00060593          	mv	a1,a2
    31cc:	30200073          	mret

00000000000031d0 <enter_machine_mode>:
    31d0:	ff010113          	addi	sp,sp,-16
    31d4:	fff00793          	li	a5,-1
    31d8:	00050713          	mv	a4,a0
    31dc:	00113423          	sd	ra,8(sp)
    31e0:	00058513          	mv	a0,a1
    31e4:	01f00693          	li	a3,31
    31e8:	00b7d793          	srli	a5,a5,0xb
    31ec:	00000297          	auipc	t0,0x0
    31f0:	01428293          	addi	t0,t0,20 # 3200 <enter_machine_mode+0x30>
    31f4:	305292f3          	csrrw	t0,mtvec,t0
    31f8:	3b079073          	csrw	pmpaddr0,a5
    31fc:	3a069073          	csrw	pmpcfg0,a3
    3200:	30529073          	csrw	mtvec,t0
    3204:	300027f3          	csrr	a5,mstatus
    3208:	f7f7f793          	andi	a5,a5,-129
    320c:	30079073          	csrw	mstatus,a5
    3210:	000017b7          	lui	a5,0x1
    3214:	00f107b3          	add	a5,sp,a5
    3218:	fffff6b7          	lui	a3,0xfffff
    321c:	00d7f7b3          	and	a5,a5,a3
    3220:	dc078793          	addi	a5,a5,-576 # dc0 <mem_done+0x9c>
    3224:	34079073          	csrw	mscratch,a5
    3228:	00060593          	mv	a1,a2
    322c:	000700e7          	jalr	a4

0000000000003230 <htif_done>:
    3230:	0005a783          	lw	a5,0(a1)
    3234:	00078863          	beqz	a5,3244 <htif_done+0x14>
    3238:	00100793          	li	a5,1
    323c:	0000a717          	auipc	a4,0xa
    3240:	e2f73223          	sd	a5,-476(a4) # d060 <htif>
    3244:	00008067          	ret

0000000000003248 <htif_open>:
    3248:	00058023          	sb	zero,0(a1)
    324c:	000580a3          	sb	zero,1(a1)
    3250:	00058123          	sb	zero,2(a1)
    3254:	000581a3          	sb	zero,3(a1)
    3258:	00008067          	ret

000000000000325c <__check_fromhost>:
    325c:	00007797          	auipc	a5,0x7
    3260:	da478793          	addi	a5,a5,-604 # a000 <fromhost>
    3264:	0007b783          	ld	a5,0(a5)
    3268:	04078c63          	beqz	a5,32c0 <__check_fromhost+0x64>
    326c:	ff010113          	addi	sp,sp,-16
    3270:	00007717          	auipc	a4,0x7
    3274:	d8073823          	sd	zero,-624(a4) # a000 <fromhost>
    3278:	00113423          	sd	ra,8(sp)
    327c:	0387d693          	srli	a3,a5,0x38
    3280:	00100713          	li	a4,1
    3284:	06e69663          	bne	a3,a4,32f0 <__check_fromhost+0x94>
    3288:	00879713          	slli	a4,a5,0x8
    328c:	03875713          	srli	a4,a4,0x38
    3290:	00070a63          	beqz	a4,32a4 <__check_fromhost+0x48>
    3294:	02d71863          	bne	a4,a3,32c4 <__check_fromhost+0x68>
    3298:	00813083          	ld	ra,8(sp)
    329c:	01010113          	addi	sp,sp,16
    32a0:	00008067          	ret
    32a4:	00813083          	ld	ra,8(sp)
    32a8:	0ff7f793          	andi	a5,a5,255
    32ac:	0017879b          	addiw	a5,a5,1
    32b0:	0000a717          	auipc	a4,0xa
    32b4:	daf72c23          	sw	a5,-584(a4) # d068 <htif_console_buf>
    32b8:	01010113          	addi	sp,sp,16
    32bc:	00008067          	ret
    32c0:	00008067          	ret
    32c4:	00006517          	auipc	a0,0x6
    32c8:	c5450513          	addi	a0,a0,-940 # 8f18 <softfloat_countLeadingZeros8+0x1c8>
    32cc:	00006697          	auipc	a3,0x6
    32d0:	d8c68693          	addi	a3,a3,-628 # 9058 <softfloat_countLeadingZeros8+0x308>
    32d4:	02700613          	li	a2,39
    32d8:	00006597          	auipc	a1,0x6
    32dc:	18058593          	addi	a1,a1,384 # 9458 <softfloat_countLeadingZeros8+0x708>
    32e0:	f90ff0ef          	jal	ra,2a70 <printm>
    32e4:	00010537          	lui	a0,0x10
    32e8:	fff50513          	addi	a0,a0,-1 # ffff <finisher+0x2f7f>
    32ec:	bc5ff0ef          	jal	ra,2eb0 <poweroff>
    32f0:	00006517          	auipc	a0,0x6
    32f4:	c2850513          	addi	a0,a0,-984 # 8f18 <softfloat_countLeadingZeros8+0x1c8>
    32f8:	00006697          	auipc	a3,0x6
    32fc:	14868693          	addi	a3,a3,328 # 9440 <softfloat_countLeadingZeros8+0x6f0>
    3300:	01f00613          	li	a2,31
    3304:	00006597          	auipc	a1,0x6
    3308:	15458593          	addi	a1,a1,340 # 9458 <softfloat_countLeadingZeros8+0x708>
    330c:	f64ff0ef          	jal	ra,2a70 <printm>
    3310:	00010537          	lui	a0,0x10
    3314:	fff50513          	addi	a0,a0,-1 # ffff <finisher+0x2f7f>
    3318:	b99ff0ef          	jal	ra,2eb0 <poweroff>

000000000000331c <htif_prop>:
    331c:	fe010113          	addi	sp,sp,-32
    3320:	00813823          	sd	s0,16(sp)
    3324:	00050413          	mv	s0,a0
    3328:	00853503          	ld	a0,8(a0)
    332c:	00913423          	sd	s1,8(sp)
    3330:	00058493          	mv	s1,a1
    3334:	00006597          	auipc	a1,0x6
    3338:	f2458593          	addi	a1,a1,-220 # 9258 <softfloat_countLeadingZeros8+0x508>
    333c:	00113c23          	sd	ra,24(sp)
    3340:	658050ef          	jal	ra,8998 <strcmp>
    3344:	02051063          	bnez	a0,3364 <htif_prop+0x48>
    3348:	01043503          	ld	a0,16(s0)
    334c:	00006597          	auipc	a1,0x6
    3350:	12458593          	addi	a1,a1,292 # 9470 <softfloat_countLeadingZeros8+0x720>
    3354:	644050ef          	jal	ra,8998 <strcmp>
    3358:	00051663          	bnez	a0,3364 <htif_prop+0x48>
    335c:	00100793          	li	a5,1
    3360:	00f4a023          	sw	a5,0(s1)
    3364:	01813083          	ld	ra,24(sp)
    3368:	01013403          	ld	s0,16(sp)
    336c:	00813483          	ld	s1,8(sp)
    3370:	02010113          	addi	sp,sp,32
    3374:	00008067          	ret

0000000000003378 <htif_console_getchar>:
    3378:	fe010113          	addi	sp,sp,-32
    337c:	00813823          	sd	s0,16(sp)
    3380:	00113c23          	sd	ra,24(sp)
    3384:	00913423          	sd	s1,8(sp)
    3388:	0000a717          	auipc	a4,0xa
    338c:	c8870713          	addi	a4,a4,-888 # d010 <htif_lock>
    3390:	fff00413          	li	s0,-1
    3394:	00072783          	lw	a5,0(a4)
    3398:	0007879b          	sext.w	a5,a5
    339c:	fe079ce3          	bnez	a5,3394 <htif_console_getchar+0x1c>
    33a0:	00072783          	lw	a5,0(a4)
    33a4:	0000a697          	auipc	a3,0xa
    33a8:	c686a623          	sw	s0,-916(a3) # d010 <htif_lock>
    33ac:	0007879b          	sext.w	a5,a5
    33b0:	0ff0000f          	fence
    33b4:	fe0790e3          	bnez	a5,3394 <htif_console_getchar+0x1c>
    33b8:	ea5ff0ef          	jal	ra,325c <__check_fromhost>
    33bc:	0000a797          	auipc	a5,0xa
    33c0:	cac78793          	addi	a5,a5,-852 # d068 <htif_console_buf>
    33c4:	0007a483          	lw	s1,0(a5)
    33c8:	0004849b          	sext.w	s1,s1
    33cc:	0204cc63          	bltz	s1,3404 <htif_console_getchar+0x8c>
    33d0:	0000a797          	auipc	a5,0xa
    33d4:	c887ac23          	sw	s0,-872(a5) # d068 <htif_console_buf>
    33d8:	00007417          	auipc	s0,0x7
    33dc:	c2840413          	addi	s0,s0,-984 # a000 <fromhost>
    33e0:	00843783          	ld	a5,8(s0)
    33e4:	00078863          	beqz	a5,33f4 <htif_console_getchar+0x7c>
    33e8:	e75ff0ef          	jal	ra,325c <__check_fromhost>
    33ec:	00843783          	ld	a5,8(s0)
    33f0:	fe079ce3          	bnez	a5,33e8 <htif_console_getchar+0x70>
    33f4:	00100793          	li	a5,1
    33f8:	03879793          	slli	a5,a5,0x38
    33fc:	00007717          	auipc	a4,0x7
    3400:	c0f73623          	sd	a5,-1012(a4) # a008 <tohost>
    3404:	0ff0000f          	fence
    3408:	01813083          	ld	ra,24(sp)
    340c:	01013403          	ld	s0,16(sp)
    3410:	0000a797          	auipc	a5,0xa
    3414:	c007a023          	sw	zero,-1024(a5) # d010 <htif_lock>
    3418:	fff4851b          	addiw	a0,s1,-1
    341c:	00813483          	ld	s1,8(sp)
    3420:	02010113          	addi	sp,sp,32
    3424:	00008067          	ret

0000000000003428 <htif_syscall>:
    3428:	fe010113          	addi	sp,sp,-32
    342c:	00913423          	sd	s1,8(sp)
    3430:	00113c23          	sd	ra,24(sp)
    3434:	00813823          	sd	s0,16(sp)
    3438:	00050493          	mv	s1,a0
    343c:	0000a717          	auipc	a4,0xa
    3440:	bd470713          	addi	a4,a4,-1068 # d010 <htif_lock>
    3444:	fff00693          	li	a3,-1
    3448:	00072783          	lw	a5,0(a4)
    344c:	0007879b          	sext.w	a5,a5
    3450:	fe079ce3          	bnez	a5,3448 <htif_syscall+0x20>
    3454:	00072783          	lw	a5,0(a4)
    3458:	0000a617          	auipc	a2,0xa
    345c:	bad62c23          	sw	a3,-1096(a2) # d010 <htif_lock>
    3460:	0007879b          	sext.w	a5,a5
    3464:	0ff0000f          	fence
    3468:	fe0790e3          	bnez	a5,3448 <htif_syscall+0x20>
    346c:	00007417          	auipc	s0,0x7
    3470:	b9440413          	addi	s0,s0,-1132 # a000 <fromhost>
    3474:	00843783          	ld	a5,8(s0)
    3478:	00078863          	beqz	a5,3488 <htif_syscall+0x60>
    347c:	de1ff0ef          	jal	ra,325c <__check_fromhost>
    3480:	00843783          	ld	a5,8(s0)
    3484:	fe079ce3          	bnez	a5,347c <htif_syscall+0x54>
    3488:	00007797          	auipc	a5,0x7
    348c:	b897b023          	sd	s1,-1152(a5) # a008 <tohost>
    3490:	00043783          	ld	a5,0(s0)
    3494:	fe078ee3          	beqz	a5,3490 <htif_syscall+0x68>
    3498:	00879713          	slli	a4,a5,0x8
    349c:	0387d793          	srli	a5,a5,0x38
    34a0:	03875713          	srli	a4,a4,0x38
    34a4:	00079463          	bnez	a5,34ac <htif_syscall+0x84>
    34a8:	00070663          	beqz	a4,34b4 <htif_syscall+0x8c>
    34ac:	db1ff0ef          	jal	ra,325c <__check_fromhost>
    34b0:	fe1ff06f          	j	3490 <htif_syscall+0x68>
    34b4:	00007797          	auipc	a5,0x7
    34b8:	b407b623          	sd	zero,-1204(a5) # a000 <fromhost>
    34bc:	0ff0000f          	fence
    34c0:	01813083          	ld	ra,24(sp)
    34c4:	01013403          	ld	s0,16(sp)
    34c8:	0000a797          	auipc	a5,0xa
    34cc:	b407a423          	sw	zero,-1208(a5) # d010 <htif_lock>
    34d0:	00813483          	ld	s1,8(sp)
    34d4:	02010113          	addi	sp,sp,32
    34d8:	00008067          	ret

00000000000034dc <htif_console_putchar>:
    34dc:	fe010113          	addi	sp,sp,-32
    34e0:	00913423          	sd	s1,8(sp)
    34e4:	00113c23          	sd	ra,24(sp)
    34e8:	00813823          	sd	s0,16(sp)
    34ec:	00050493          	mv	s1,a0
    34f0:	0000a717          	auipc	a4,0xa
    34f4:	b2070713          	addi	a4,a4,-1248 # d010 <htif_lock>
    34f8:	fff00693          	li	a3,-1
    34fc:	00072783          	lw	a5,0(a4)
    3500:	0007879b          	sext.w	a5,a5
    3504:	fe079ce3          	bnez	a5,34fc <htif_console_putchar+0x20>
    3508:	00072783          	lw	a5,0(a4)
    350c:	0000a617          	auipc	a2,0xa
    3510:	b0d62223          	sw	a3,-1276(a2) # d010 <htif_lock>
    3514:	0007879b          	sext.w	a5,a5
    3518:	0ff0000f          	fence
    351c:	fe0790e3          	bnez	a5,34fc <htif_console_putchar+0x20>
    3520:	00007417          	auipc	s0,0x7
    3524:	ae040413          	addi	s0,s0,-1312 # a000 <fromhost>
    3528:	00843783          	ld	a5,8(s0)
    352c:	00078863          	beqz	a5,353c <htif_console_putchar+0x60>
    3530:	d2dff0ef          	jal	ra,325c <__check_fromhost>
    3534:	00843783          	ld	a5,8(s0)
    3538:	fe079ce3          	bnez	a5,3530 <htif_console_putchar+0x54>
    353c:	10100793          	li	a5,257
    3540:	03079793          	slli	a5,a5,0x30
    3544:	00f4e4b3          	or	s1,s1,a5
    3548:	00007797          	auipc	a5,0x7
    354c:	ac97b023          	sd	s1,-1344(a5) # a008 <tohost>
    3550:	0ff0000f          	fence
    3554:	01813083          	ld	ra,24(sp)
    3558:	01013403          	ld	s0,16(sp)
    355c:	0000a797          	auipc	a5,0xa
    3560:	aa07aa23          	sw	zero,-1356(a5) # d010 <htif_lock>
    3564:	00813483          	ld	s1,8(sp)
    3568:	02010113          	addi	sp,sp,32
    356c:	00008067          	ret

0000000000003570 <htif_poweroff>:
    3570:	00100793          	li	a5,1
    3574:	00007717          	auipc	a4,0x7
    3578:	a8073623          	sd	zero,-1396(a4) # a000 <fromhost>
    357c:	00007717          	auipc	a4,0x7
    3580:	a8f73623          	sd	a5,-1396(a4) # a008 <tohost>
    3584:	ff1ff06f          	j	3574 <htif_poweroff+0x4>

0000000000003588 <query_htif>:
    3588:	fc010113          	addi	sp,sp,-64
    358c:	00000797          	auipc	a5,0x0
    3590:	cbc78793          	addi	a5,a5,-836 # 3248 <htif_open>
    3594:	00f13423          	sd	a5,8(sp)
    3598:	00000797          	auipc	a5,0x0
    359c:	d8478793          	addi	a5,a5,-636 # 331c <htif_prop>
    35a0:	00f13823          	sd	a5,16(sp)
    35a4:	00810593          	addi	a1,sp,8
    35a8:	00000797          	auipc	a5,0x0
    35ac:	c8878793          	addi	a5,a5,-888 # 3230 <htif_done>
    35b0:	02113c23          	sd	ra,56(sp)
    35b4:	02013023          	sd	zero,32(sp)
    35b8:	00f13c23          	sd	a5,24(sp)
    35bc:	02213423          	sd	sp,40(sp)
    35c0:	dfcfe0ef          	jal	ra,1bbc <fdt_scan>
    35c4:	03813083          	ld	ra,56(sp)
    35c8:	04010113          	addi	sp,sp,64
    35cc:	00008067          	ret

00000000000035d0 <uart_open>:
    35d0:	00058513          	mv	a0,a1
    35d4:	01000613          	li	a2,16
    35d8:	00000593          	li	a1,0
    35dc:	3340506f          	j	8910 <memset>

00000000000035e0 <uart_done>:
    35e0:	0005a783          	lw	a5,0(a1)
    35e4:	00078e63          	beqz	a5,3600 <uart_done+0x20>
    35e8:	0085b783          	ld	a5,8(a1)
    35ec:	00078a63          	beqz	a5,3600 <uart_done+0x20>
    35f0:	0000a717          	auipc	a4,0xa
    35f4:	a8070713          	addi	a4,a4,-1408 # d070 <uart>
    35f8:	00073703          	ld	a4,0(a4)
    35fc:	00070463          	beqz	a4,3604 <uart_done+0x24>
    3600:	00008067          	ret
    3604:	00100713          	li	a4,1
    3608:	00e7a423          	sw	a4,8(a5)
    360c:	0000a697          	auipc	a3,0xa
    3610:	a6f6b223          	sd	a5,-1436(a3) # d070 <uart>
    3614:	00e7a623          	sw	a4,12(a5)
    3618:	00008067          	ret

000000000000361c <uart_prop>:
    361c:	fe010113          	addi	sp,sp,-32
    3620:	00913423          	sd	s1,8(sp)
    3624:	00853483          	ld	s1,8(a0)
    3628:	00813823          	sd	s0,16(sp)
    362c:	01213023          	sd	s2,0(sp)
    3630:	00050413          	mv	s0,a0
    3634:	00058913          	mv	s2,a1
    3638:	00048513          	mv	a0,s1
    363c:	00006597          	auipc	a1,0x6
    3640:	c1c58593          	addi	a1,a1,-996 # 9258 <softfloat_countLeadingZeros8+0x508>
    3644:	00113c23          	sd	ra,24(sp)
    3648:	350050ef          	jal	ra,8998 <strcmp>
    364c:	00051c63          	bnez	a0,3664 <uart_prop+0x48>
    3650:	01043503          	ld	a0,16(s0)
    3654:	00006597          	auipc	a1,0x6
    3658:	e2c58593          	addi	a1,a1,-468 # 9480 <softfloat_countLeadingZeros8+0x730>
    365c:	33c050ef          	jal	ra,8998 <strcmp>
    3660:	04050c63          	beqz	a0,36b8 <uart_prop+0x9c>
    3664:	00006597          	auipc	a1,0x6
    3668:	a8c58593          	addi	a1,a1,-1396 # 90f0 <softfloat_countLeadingZeros8+0x3a0>
    366c:	00048513          	mv	a0,s1
    3670:	328050ef          	jal	ra,8998 <strcmp>
    3674:	00050e63          	beqz	a0,3690 <uart_prop+0x74>
    3678:	01813083          	ld	ra,24(sp)
    367c:	01013403          	ld	s0,16(sp)
    3680:	00813483          	ld	s1,8(sp)
    3684:	00013903          	ld	s2,0(sp)
    3688:	02010113          	addi	sp,sp,32
    368c:	00008067          	ret
    3690:	00043783          	ld	a5,0(s0)
    3694:	01043583          	ld	a1,16(s0)
    3698:	01013403          	ld	s0,16(sp)
    369c:	01813083          	ld	ra,24(sp)
    36a0:	00813483          	ld	s1,8(sp)
    36a4:	00890613          	addi	a2,s2,8
    36a8:	0007b503          	ld	a0,0(a5)
    36ac:	00013903          	ld	s2,0(sp)
    36b0:	02010113          	addi	sp,sp,32
    36b4:	ea0fe06f          	j	1d54 <fdt_get_address>
    36b8:	01813083          	ld	ra,24(sp)
    36bc:	01013403          	ld	s0,16(sp)
    36c0:	00100793          	li	a5,1
    36c4:	00f92023          	sw	a5,0(s2)
    36c8:	00813483          	ld	s1,8(sp)
    36cc:	00013903          	ld	s2,0(sp)
    36d0:	02010113          	addi	sp,sp,32
    36d4:	00008067          	ret

00000000000036d8 <uart_putchar>:
    36d8:	0000a797          	auipc	a5,0xa
    36dc:	99878793          	addi	a5,a5,-1640 # d070 <uart>
    36e0:	0007b703          	ld	a4,0(a5)
    36e4:	00072783          	lw	a5,0(a4)
    36e8:	fe07cee3          	bltz	a5,36e4 <uart_putchar+0xc>
    36ec:	0005051b          	sext.w	a0,a0
    36f0:	00a72023          	sw	a0,0(a4)
    36f4:	00008067          	ret

00000000000036f8 <uart_getchar>:
    36f8:	0000a797          	auipc	a5,0xa
    36fc:	97878793          	addi	a5,a5,-1672 # d070 <uart>
    3700:	0007b783          	ld	a5,0(a5)
    3704:	0047a783          	lw	a5,4(a5)
    3708:	0007879b          	sext.w	a5,a5
    370c:	0007851b          	sext.w	a0,a5
    3710:	0007c463          	bltz	a5,3718 <uart_getchar+0x20>
    3714:	00008067          	ret
    3718:	fff00513          	li	a0,-1
    371c:	00008067          	ret

0000000000003720 <query_uart>:
    3720:	fb010113          	addi	sp,sp,-80
    3724:	00000797          	auipc	a5,0x0
    3728:	eac78793          	addi	a5,a5,-340 # 35d0 <uart_open>
    372c:	00f13c23          	sd	a5,24(sp)
    3730:	00000797          	auipc	a5,0x0
    3734:	eec78793          	addi	a5,a5,-276 # 361c <uart_prop>
    3738:	02f13023          	sd	a5,32(sp)
    373c:	00000797          	auipc	a5,0x0
    3740:	ea478793          	addi	a5,a5,-348 # 35e0 <uart_done>
    3744:	02f13423          	sd	a5,40(sp)
    3748:	01810593          	addi	a1,sp,24
    374c:	00810793          	addi	a5,sp,8
    3750:	04113423          	sd	ra,72(sp)
    3754:	02013823          	sd	zero,48(sp)
    3758:	02f13c23          	sd	a5,56(sp)
    375c:	c60fe0ef          	jal	ra,1bbc <fdt_scan>
    3760:	04813083          	ld	ra,72(sp)
    3764:	05010113          	addi	sp,sp,80
    3768:	00008067          	ret

000000000000376c <uart16550_open>:
    376c:	00058513          	mv	a0,a1
    3770:	01000613          	li	a2,16
    3774:	00000593          	li	a1,0
    3778:	1980506f          	j	8910 <memset>

000000000000377c <uart16550_done>:
    377c:	0005a783          	lw	a5,0(a1)
    3780:	00078e63          	beqz	a5,379c <uart16550_done+0x20>
    3784:	0085b783          	ld	a5,8(a1)
    3788:	00078a63          	beqz	a5,379c <uart16550_done+0x20>
    378c:	0000a717          	auipc	a4,0xa
    3790:	8ec70713          	addi	a4,a4,-1812 # d078 <uart16550>
    3794:	00073683          	ld	a3,0(a4)
    3798:	00068463          	beqz	a3,37a0 <uart16550_done+0x24>
    379c:	00008067          	ret
    37a0:	0000a697          	auipc	a3,0xa
    37a4:	8cf6bc23          	sd	a5,-1832(a3) # d078 <uart16550>
    37a8:	000780a3          	sb	zero,1(a5)
    37ac:	00073683          	ld	a3,0(a4)
    37b0:	f8000613          	li	a2,-128
    37b4:	00300793          	li	a5,3
    37b8:	00c681a3          	sb	a2,3(a3)
    37bc:	00073683          	ld	a3,0(a4)
    37c0:	00f68023          	sb	a5,0(a3)
    37c4:	00073683          	ld	a3,0(a4)
    37c8:	000680a3          	sb	zero,1(a3)
    37cc:	00073683          	ld	a3,0(a4)
    37d0:	00f681a3          	sb	a5,3(a3)
    37d4:	00073783          	ld	a5,0(a4)
    37d8:	fc700713          	li	a4,-57
    37dc:	00e78123          	sb	a4,2(a5)
    37e0:	00008067          	ret

00000000000037e4 <uart16550_prop>:
    37e4:	fe010113          	addi	sp,sp,-32
    37e8:	00913423          	sd	s1,8(sp)
    37ec:	00853483          	ld	s1,8(a0)
    37f0:	00813823          	sd	s0,16(sp)
    37f4:	01213023          	sd	s2,0(sp)
    37f8:	00050413          	mv	s0,a0
    37fc:	00058913          	mv	s2,a1
    3800:	00048513          	mv	a0,s1
    3804:	00006597          	auipc	a1,0x6
    3808:	a5458593          	addi	a1,a1,-1452 # 9258 <softfloat_countLeadingZeros8+0x508>
    380c:	00113c23          	sd	ra,24(sp)
    3810:	188050ef          	jal	ra,8998 <strcmp>
    3814:	00051c63          	bnez	a0,382c <uart16550_prop+0x48>
    3818:	01043503          	ld	a0,16(s0)
    381c:	00006597          	auipc	a1,0x6
    3820:	c7458593          	addi	a1,a1,-908 # 9490 <softfloat_countLeadingZeros8+0x740>
    3824:	174050ef          	jal	ra,8998 <strcmp>
    3828:	04050c63          	beqz	a0,3880 <uart16550_prop+0x9c>
    382c:	00006597          	auipc	a1,0x6
    3830:	8c458593          	addi	a1,a1,-1852 # 90f0 <softfloat_countLeadingZeros8+0x3a0>
    3834:	00048513          	mv	a0,s1
    3838:	160050ef          	jal	ra,8998 <strcmp>
    383c:	00050e63          	beqz	a0,3858 <uart16550_prop+0x74>
    3840:	01813083          	ld	ra,24(sp)
    3844:	01013403          	ld	s0,16(sp)
    3848:	00813483          	ld	s1,8(sp)
    384c:	00013903          	ld	s2,0(sp)
    3850:	02010113          	addi	sp,sp,32
    3854:	00008067          	ret
    3858:	00043783          	ld	a5,0(s0)
    385c:	01043583          	ld	a1,16(s0)
    3860:	01013403          	ld	s0,16(sp)
    3864:	01813083          	ld	ra,24(sp)
    3868:	00813483          	ld	s1,8(sp)
    386c:	00890613          	addi	a2,s2,8
    3870:	0007b503          	ld	a0,0(a5)
    3874:	00013903          	ld	s2,0(sp)
    3878:	02010113          	addi	sp,sp,32
    387c:	cd8fe06f          	j	1d54 <fdt_get_address>
    3880:	01813083          	ld	ra,24(sp)
    3884:	01013403          	ld	s0,16(sp)
    3888:	00100793          	li	a5,1
    388c:	00f92023          	sw	a5,0(s2)
    3890:	00813483          	ld	s1,8(sp)
    3894:	00013903          	ld	s2,0(sp)
    3898:	02010113          	addi	sp,sp,32
    389c:	00008067          	ret

00000000000038a0 <uart16550_putchar>:
    38a0:	00009797          	auipc	a5,0x9
    38a4:	7d878793          	addi	a5,a5,2008 # d078 <uart16550>
    38a8:	0007b703          	ld	a4,0(a5)
    38ac:	00574783          	lbu	a5,5(a4)
    38b0:	0207f793          	andi	a5,a5,32
    38b4:	fe078ce3          	beqz	a5,38ac <uart16550_putchar+0xc>
    38b8:	00a70023          	sb	a0,0(a4)
    38bc:	00008067          	ret

00000000000038c0 <uart16550_getchar>:
    38c0:	00009797          	auipc	a5,0x9
    38c4:	7b878793          	addi	a5,a5,1976 # d078 <uart16550>
    38c8:	0007b703          	ld	a4,0(a5)
    38cc:	00574783          	lbu	a5,5(a4)
    38d0:	0017f793          	andi	a5,a5,1
    38d4:	00078663          	beqz	a5,38e0 <uart16550_getchar+0x20>
    38d8:	00074503          	lbu	a0,0(a4)
    38dc:	00008067          	ret
    38e0:	fff00513          	li	a0,-1
    38e4:	00008067          	ret

00000000000038e8 <query_uart16550>:
    38e8:	fb010113          	addi	sp,sp,-80
    38ec:	00000797          	auipc	a5,0x0
    38f0:	e8078793          	addi	a5,a5,-384 # 376c <uart16550_open>
    38f4:	00f13c23          	sd	a5,24(sp)
    38f8:	00000797          	auipc	a5,0x0
    38fc:	eec78793          	addi	a5,a5,-276 # 37e4 <uart16550_prop>
    3900:	02f13023          	sd	a5,32(sp)
    3904:	00000797          	auipc	a5,0x0
    3908:	e7878793          	addi	a5,a5,-392 # 377c <uart16550_done>
    390c:	02f13423          	sd	a5,40(sp)
    3910:	01810593          	addi	a1,sp,24
    3914:	00810793          	addi	a5,sp,8
    3918:	04113423          	sd	ra,72(sp)
    391c:	02013823          	sd	zero,48(sp)
    3920:	02f13c23          	sd	a5,56(sp)
    3924:	a98fe0ef          	jal	ra,1bbc <fdt_scan>
    3928:	04813083          	ld	ra,72(sp)
    392c:	05010113          	addi	sp,sp,80
    3930:	00008067          	ret

0000000000003934 <finisher_open>:
    3934:	00058513          	mv	a0,a1
    3938:	01000613          	li	a2,16
    393c:	00000593          	li	a1,0
    3940:	7d10406f          	j	8910 <memset>

0000000000003944 <finisher_done>:
    3944:	0005a783          	lw	a5,0(a1)
    3948:	00078e63          	beqz	a5,3964 <finisher_done+0x20>
    394c:	0085b783          	ld	a5,8(a1)
    3950:	00078a63          	beqz	a5,3964 <finisher_done+0x20>
    3954:	00009717          	auipc	a4,0x9
    3958:	72c70713          	addi	a4,a4,1836 # d080 <finisher>
    395c:	00073703          	ld	a4,0(a4)
    3960:	00070463          	beqz	a4,3968 <finisher_done+0x24>
    3964:	00008067          	ret
    3968:	00009717          	auipc	a4,0x9
    396c:	70f73c23          	sd	a5,1816(a4) # d080 <finisher>
    3970:	00008067          	ret

0000000000003974 <finisher_prop>:
    3974:	fe010113          	addi	sp,sp,-32
    3978:	00913423          	sd	s1,8(sp)
    397c:	00853483          	ld	s1,8(a0)
    3980:	00813823          	sd	s0,16(sp)
    3984:	01213023          	sd	s2,0(sp)
    3988:	00050413          	mv	s0,a0
    398c:	00058913          	mv	s2,a1
    3990:	00048513          	mv	a0,s1
    3994:	00006597          	auipc	a1,0x6
    3998:	8c458593          	addi	a1,a1,-1852 # 9258 <softfloat_countLeadingZeros8+0x508>
    399c:	00113c23          	sd	ra,24(sp)
    39a0:	7f9040ef          	jal	ra,8998 <strcmp>
    39a4:	00051c63          	bnez	a0,39bc <finisher_prop+0x48>
    39a8:	01043503          	ld	a0,16(s0)
    39ac:	00006597          	auipc	a1,0x6
    39b0:	af458593          	addi	a1,a1,-1292 # 94a0 <softfloat_countLeadingZeros8+0x750>
    39b4:	7e5040ef          	jal	ra,8998 <strcmp>
    39b8:	04050c63          	beqz	a0,3a10 <finisher_prop+0x9c>
    39bc:	00005597          	auipc	a1,0x5
    39c0:	73458593          	addi	a1,a1,1844 # 90f0 <softfloat_countLeadingZeros8+0x3a0>
    39c4:	00048513          	mv	a0,s1
    39c8:	7d1040ef          	jal	ra,8998 <strcmp>
    39cc:	00050e63          	beqz	a0,39e8 <finisher_prop+0x74>
    39d0:	01813083          	ld	ra,24(sp)
    39d4:	01013403          	ld	s0,16(sp)
    39d8:	00813483          	ld	s1,8(sp)
    39dc:	00013903          	ld	s2,0(sp)
    39e0:	02010113          	addi	sp,sp,32
    39e4:	00008067          	ret
    39e8:	00043783          	ld	a5,0(s0)
    39ec:	01043583          	ld	a1,16(s0)
    39f0:	01013403          	ld	s0,16(sp)
    39f4:	01813083          	ld	ra,24(sp)
    39f8:	00813483          	ld	s1,8(sp)
    39fc:	00890613          	addi	a2,s2,8
    3a00:	0007b503          	ld	a0,0(a5)
    3a04:	00013903          	ld	s2,0(sp)
    3a08:	02010113          	addi	sp,sp,32
    3a0c:	b48fe06f          	j	1d54 <fdt_get_address>
    3a10:	01813083          	ld	ra,24(sp)
    3a14:	01013403          	ld	s0,16(sp)
    3a18:	00100793          	li	a5,1
    3a1c:	00f92023          	sw	a5,0(s2)
    3a20:	00813483          	ld	s1,8(sp)
    3a24:	00013903          	ld	s2,0(sp)
    3a28:	02010113          	addi	sp,sp,32
    3a2c:	00008067          	ret

0000000000003a30 <finisher_exit>:
    3a30:	00009797          	auipc	a5,0x9
    3a34:	65078793          	addi	a5,a5,1616 # d080 <finisher>
    3a38:	0007b783          	ld	a5,0(a5)
    3a3c:	02078063          	beqz	a5,3a5c <finisher_exit+0x2c>
    3a40:	02050063          	beqz	a0,3a60 <finisher_exit+0x30>
    3a44:	00003737          	lui	a4,0x3
    3a48:	0105151b          	slliw	a0,a0,0x10
    3a4c:	33370713          	addi	a4,a4,819 # 3333 <htif_prop+0x17>
    3a50:	00e56533          	or	a0,a0,a4
    3a54:	0005051b          	sext.w	a0,a0
    3a58:	00a7a023          	sw	a0,0(a5)
    3a5c:	00008067          	ret
    3a60:	00005737          	lui	a4,0x5
    3a64:	5557071b          	addiw	a4,a4,1365
    3a68:	00e7a023          	sw	a4,0(a5)
    3a6c:	00008067          	ret

0000000000003a70 <query_finisher>:
    3a70:	fb010113          	addi	sp,sp,-80
    3a74:	00000797          	auipc	a5,0x0
    3a78:	ec078793          	addi	a5,a5,-320 # 3934 <finisher_open>
    3a7c:	00f13c23          	sd	a5,24(sp)
    3a80:	00000797          	auipc	a5,0x0
    3a84:	ef478793          	addi	a5,a5,-268 # 3974 <finisher_prop>
    3a88:	02f13023          	sd	a5,32(sp)
    3a8c:	00000797          	auipc	a5,0x0
    3a90:	eb878793          	addi	a5,a5,-328 # 3944 <finisher_done>
    3a94:	02f13423          	sd	a5,40(sp)
    3a98:	01810593          	addi	a1,sp,24
    3a9c:	00810793          	addi	a5,sp,8
    3aa0:	04113423          	sd	ra,72(sp)
    3aa4:	02013823          	sd	zero,48(sp)
    3aa8:	02f13c23          	sd	a5,56(sp)
    3aac:	910fe0ef          	jal	ra,1bbc <fdt_scan>
    3ab0:	04813083          	ld	ra,72(sp)
    3ab4:	05010113          	addi	sp,sp,80
    3ab8:	00008067          	ret

0000000000003abc <truly_illegal_insn.constprop.1>:
    3abc:	b30ff06f          	j	2dec <redirect_trap>

0000000000003ac0 <illegal_insn_trap>:
    3ac0:	fe010113          	addi	sp,sp,-32
    3ac4:	00913423          	sd	s1,8(sp)
    3ac8:	00050493          	mv	s1,a0
    3acc:	00006517          	auipc	a0,0x6
    3ad0:	9e450513          	addi	a0,a0,-1564 # 94b0 <softfloat_countLeadingZeros8+0x760>
    3ad4:	00813823          	sd	s0,16(sp)
    3ad8:	01213023          	sd	s2,0(sp)
    3adc:	00113c23          	sd	ra,24(sp)
    3ae0:	00058913          	mv	s2,a1
    3ae4:	00060413          	mv	s0,a2
    3ae8:	f89fe0ef          	jal	ra,2a70 <printm>
    3aec:	300025f3          	csrr	a1,mstatus
    3af0:	34302773          	csrr	a4,mbadaddr
    3af4:	00300793          	li	a5,3
    3af8:	00377613          	andi	a2,a4,3
    3afc:	04f61463          	bne	a2,a5,3b44 <illegal_insn_trap+0x84>
    3b00:	00440793          	addi	a5,s0,4
    3b04:	34179073          	csrw	mepc,a5
    3b08:	00005697          	auipc	a3,0x5
    3b0c:	f8468693          	addi	a3,a3,-124 # 8a8c <illegal_insn_trap_table>
    3b10:	07c77793          	andi	a5,a4,124
    3b14:	00d787b3          	add	a5,a5,a3
    3b18:	00040613          	mv	a2,s0
    3b1c:	01013403          	ld	s0,16(sp)
    3b20:	01813083          	ld	ra,24(sp)
    3b24:	0007e303          	lwu	t1,0(a5)
    3b28:	00058693          	mv	a3,a1
    3b2c:	00048513          	mv	a0,s1
    3b30:	00090593          	mv	a1,s2
    3b34:	00813483          	ld	s1,8(sp)
    3b38:	00013903          	ld	s2,0(sp)
    3b3c:	02010113          	addi	sp,sp,32
    3b40:	00030067          	jr	t1
    3b44:	02070263          	beqz	a4,3b68 <illegal_insn_trap+0xa8>
    3b48:	00040513          	mv	a0,s0
    3b4c:	01013403          	ld	s0,16(sp)
    3b50:	01813083          	ld	ra,24(sp)
    3b54:	00813483          	ld	s1,8(sp)
    3b58:	00013903          	ld	s2,0(sp)
    3b5c:	00070613          	mv	a2,a4
    3b60:	02010113          	addi	sp,sp,32
    3b64:	f59ff06f          	j	3abc <truly_illegal_insn.constprop.1>
    3b68:	00040613          	mv	a2,s0
    3b6c:	000a05b7          	lui	a1,0xa0
    3b70:	3005a6f3          	csrrs	a3,mstatus,a1
    3b74:	00066703          	lwu	a4,0(a2)
    3b78:	30069073          	csrw	mstatus,a3
    3b7c:	00377613          	andi	a2,a4,3
    3b80:	00068593          	mv	a1,a3
    3b84:	f6f60ee3          	beq	a2,a5,3b00 <illegal_insn_trap+0x40>
    3b88:	fc1ff06f          	j	3b48 <illegal_insn_trap+0x88>

0000000000003b8c <truly_illegal_insn>:
    3b8c:	00060513          	mv	a0,a2
    3b90:	00068593          	mv	a1,a3
    3b94:	00070613          	mv	a2,a4
    3b98:	a54ff06f          	j	2dec <redirect_trap>

0000000000003b9c <emulate_system_opcode>:
    3b9c:	00c75e13          	srli	t3,a4,0xc
    3ba0:	00002837          	lui	a6,0x2
    3ba4:	0f8e7893          	andi	a7,t3,248
    3ba8:	80080813          	addi	a6,a6,-2048 # 1800 <hart_done+0x38>
    3bac:	00f75e93          	srli	t4,a4,0xf
    3bb0:	011508b3          	add	a7,a0,a7
    3bb4:	0147579b          	srliw	a5,a4,0x14
    3bb8:	0106f833          	and	a6,a3,a6
    3bbc:	7ff00313          	li	t1,2047
    3bc0:	00060f13          	mv	t5,a2
    3bc4:	01fefe93          	andi	t4,t4,31
    3bc8:	0008b603          	ld	a2,0(a7)
    3bcc:	0007879b          	sext.w	a5,a5
    3bd0:	07036063          	bltu	t1,a6,3c30 <emulate_system_opcode+0x94>
    3bd4:	10602873          	csrr	a6,scounteren
    3bd8:	32400593          	li	a1,804
    3bdc:	14b78863          	beq	a5,a1,3d2c <emulate_system_opcode+0x190>
    3be0:	08f5f663          	bleu	a5,a1,3c6c <emulate_system_opcode+0xd0>
    3be4:	000015b7          	lui	a1,0x1
    3be8:	c0058893          	addi	a7,a1,-1024 # c00 <plic_done+0x184>
    3bec:	27178c63          	beq	a5,a7,3e64 <emulate_system_opcode+0x2c8>
    3bf0:	0af8fe63          	bleu	a5,a7,3cac <emulate_system_opcode+0x110>
    3bf4:	c0158893          	addi	a7,a1,-1023
    3bf8:	29178c63          	beq	a5,a7,3e90 <emulate_system_opcode+0x2f4>
    3bfc:	c0258593          	addi	a1,a1,-1022
    3c00:	04b79e63          	bne	a5,a1,3c5c <emulate_system_opcode+0xc0>
    3c04:	00487813          	andi	a6,a6,4
    3c08:	04080a63          	beqz	a6,3c5c <emulate_system_opcode+0xc0>
    3c0c:	b02025f3          	csrr	a1,minstret
    3c10:	007e7e13          	andi	t3,t3,7
    3c14:	00005897          	auipc	a7,0x5
    3c18:	ef888893          	addi	a7,a7,-264 # 8b0c <illegal_insn_trap_table+0x80>
    3c1c:	002e1e13          	slli	t3,t3,0x2
    3c20:	011e0e33          	add	t3,t3,a7
    3c24:	000e2803          	lw	a6,0(t3)
    3c28:	01180833          	add	a6,a6,a7
    3c2c:	00080067          	jr	a6
    3c30:	32400593          	li	a1,804
    3c34:	0eb78c63          	beq	a5,a1,3d2c <emulate_system_opcode+0x190>
    3c38:	02f5fa63          	bleu	a5,a1,3c6c <emulate_system_opcode+0xd0>
    3c3c:	000015b7          	lui	a1,0x1
    3c40:	c0058813          	addi	a6,a1,-1024 # c00 <plic_done+0x184>
    3c44:	23078463          	beq	a5,a6,3e6c <emulate_system_opcode+0x2d0>
    3c48:	0af87063          	bleu	a5,a6,3ce8 <emulate_system_opcode+0x14c>
    3c4c:	c0158813          	addi	a6,a1,-1023
    3c50:	25078463          	beq	a5,a6,3e98 <emulate_system_opcode+0x2fc>
    3c54:	c0258593          	addi	a1,a1,-1022
    3c58:	fab78ae3          	beq	a5,a1,3c0c <emulate_system_opcode+0x70>
    3c5c:	00070613          	mv	a2,a4
    3c60:	00068593          	mv	a1,a3
    3c64:	000f0513          	mv	a0,t5
    3c68:	e55ff06f          	j	3abc <truly_illegal_insn.constprop.1>
    3c6c:	00200593          	li	a1,2
    3c70:	18b78863          	beq	a5,a1,3e00 <emulate_system_opcode+0x264>
    3c74:	14f5f863          	bleu	a5,a1,3dc4 <emulate_system_opcode+0x228>
    3c78:	00300593          	li	a1,3
    3c7c:	08b78063          	beq	a5,a1,3cfc <emulate_system_opcode+0x160>
    3c80:	32300593          	li	a1,803
    3c84:	fcb79ce3          	bne	a5,a1,3c5c <emulate_system_opcode+0xc0>
    3c88:	323025f3          	csrr	a1,mhpmevent3
    3c8c:	007e7e13          	andi	t3,t3,7
    3c90:	00005897          	auipc	a7,0x5
    3c94:	e9c88893          	addi	a7,a7,-356 # 8b2c <illegal_insn_trap_table+0xa0>
    3c98:	002e1e13          	slli	t3,t3,0x2
    3c9c:	011e0e33          	add	t3,t3,a7
    3ca0:	000e2803          	lw	a6,0(t3)
    3ca4:	01180833          	add	a6,a6,a7
    3ca8:	00080067          	jr	a6
    3cac:	b0358893          	addi	a7,a1,-1277
    3cb0:	19178463          	beq	a5,a7,3e38 <emulate_system_opcode+0x29c>
    3cb4:	b0458593          	addi	a1,a1,-1276
    3cb8:	fab792e3          	bne	a5,a1,3c5c <emulate_system_opcode+0xc0>
    3cbc:	01087813          	andi	a6,a6,16
    3cc0:	f8080ee3          	beqz	a6,3c5c <emulate_system_opcode+0xc0>
    3cc4:	b04025f3          	csrr	a1,mhpmcounter4
    3cc8:	007e7e13          	andi	t3,t3,7
    3ccc:	00005897          	auipc	a7,0x5
    3cd0:	e8088893          	addi	a7,a7,-384 # 8b4c <illegal_insn_trap_table+0xc0>
    3cd4:	002e1e13          	slli	t3,t3,0x2
    3cd8:	011e0e33          	add	t3,t3,a7
    3cdc:	000e2803          	lw	a6,0(t3)
    3ce0:	01180833          	add	a6,a6,a7
    3ce4:	00080067          	jr	a6
    3ce8:	b0358813          	addi	a6,a1,-1277
    3cec:	15078a63          	beq	a5,a6,3e40 <emulate_system_opcode+0x2a4>
    3cf0:	b0458593          	addi	a1,a1,-1276
    3cf4:	fcb788e3          	beq	a5,a1,3cc4 <emulate_system_opcode+0x128>
    3cf8:	f65ff06f          	j	3c5c <emulate_system_opcode+0xc0>
    3cfc:	000065b7          	lui	a1,0x6
    3d00:	00b6f5b3          	and	a1,a3,a1
    3d04:	f4058ce3          	beqz	a1,3c5c <emulate_system_opcode+0xc0>
    3d08:	007e7e13          	andi	t3,t3,7
    3d0c:	00005897          	auipc	a7,0x5
    3d10:	e6088893          	addi	a7,a7,-416 # 8b6c <illegal_insn_trap_table+0xe0>
    3d14:	002e1e13          	slli	t3,t3,0x2
    3d18:	011e0e33          	add	t3,t3,a7
    3d1c:	000e2803          	lw	a6,0(t3)
    3d20:	0ff27593          	andi	a1,tp,255
    3d24:	01180833          	add	a6,a6,a7
    3d28:	00080067          	jr	a6
    3d2c:	324025f3          	csrr	a1,mhpmevent4
    3d30:	007e7e13          	andi	t3,t3,7
    3d34:	00005897          	auipc	a7,0x5
    3d38:	e5888893          	addi	a7,a7,-424 # 8b8c <illegal_insn_trap_table+0x100>
    3d3c:	002e1e13          	slli	t3,t3,0x2
    3d40:	011e0e33          	add	t3,t3,a7
    3d44:	000e2803          	lw	a6,0(t3)
    3d48:	01180833          	add	a6,a6,a7
    3d4c:	00080067          	jr	a6
    3d50:	00bee633          	or	a2,t4,a1
    3d54:	020e8a63          	beqz	t4,3d88 <emulate_system_opcode+0x1ec>
    3d58:	32400813          	li	a6,804
    3d5c:	1f078c63          	beq	a5,a6,3f54 <emulate_system_opcode+0x3b8>
    3d60:	16f87463          	bleu	a5,a6,3ec8 <emulate_system_opcode+0x32c>
    3d64:	00001837          	lui	a6,0x1
    3d68:	b0480893          	addi	a7,a6,-1276 # b04 <plic_done+0x88>
    3d6c:	21178063          	beq	a5,a7,3f6c <emulate_system_opcode+0x3d0>
    3d70:	1ef8f663          	bleu	a5,a7,3f5c <emulate_system_opcode+0x3c0>
    3d74:	c0080893          	addi	a7,a6,-1024
    3d78:	1d178063          	beq	a5,a7,3f38 <emulate_system_opcode+0x39c>
    3d7c:	c0280813          	addi	a6,a6,-1022
    3d80:	ed079ee3          	bne	a5,a6,3c5c <emulate_system_opcode+0xc0>
    3d84:	b0261073          	csrw	minstret,a2
    3d88:	00475713          	srli	a4,a4,0x4
    3d8c:	0f877713          	andi	a4,a4,248
    3d90:	00e50533          	add	a0,a0,a4
    3d94:	00b53023          	sd	a1,0(a0)
    3d98:	00008067          	ret
    3d9c:	fff64613          	not	a2,a2
    3da0:	00b67633          	and	a2,a2,a1
    3da4:	fb1ff06f          	j	3d54 <emulate_system_opcode+0x1b8>
    3da8:	000e8613          	mv	a2,t4
    3dac:	fadff06f          	j	3d58 <emulate_system_opcode+0x1bc>
    3db0:	00b66633          	or	a2,a2,a1
    3db4:	fa1ff06f          	j	3d54 <emulate_system_opcode+0x1b8>
    3db8:	fffec613          	not	a2,t4
    3dbc:	00b67633          	and	a2,a2,a1
    3dc0:	f95ff06f          	j	3d54 <emulate_system_opcode+0x1b8>
    3dc4:	00100593          	li	a1,1
    3dc8:	e8b79ae3          	bne	a5,a1,3c5c <emulate_system_opcode+0xc0>
    3dcc:	000065b7          	lui	a1,0x6
    3dd0:	00b6f5b3          	and	a1,a3,a1
    3dd4:	e80584e3          	beqz	a1,3c5c <emulate_system_opcode+0xc0>
    3dd8:	007e7e13          	andi	t3,t3,7
    3ddc:	00005317          	auipc	t1,0x5
    3de0:	dd030313          	addi	t1,t1,-560 # 8bac <illegal_insn_trap_table+0x120>
    3de4:	002e1e13          	slli	t3,t3,0x2
    3de8:	006e0e33          	add	t3,t3,t1
    3dec:	000e2883          	lw	a7,0(t3)
    3df0:	0002081b          	sext.w	a6,tp
    3df4:	01f87593          	andi	a1,a6,31
    3df8:	006888b3          	add	a7,a7,t1
    3dfc:	00088067          	jr	a7
    3e00:	000065b7          	lui	a1,0x6
    3e04:	00b6f5b3          	and	a1,a3,a1
    3e08:	e4058ae3          	beqz	a1,3c5c <emulate_system_opcode+0xc0>
    3e0c:	007e7e13          	andi	t3,t3,7
    3e10:	00005317          	auipc	t1,0x5
    3e14:	dbc30313          	addi	t1,t1,-580 # 8bcc <illegal_insn_trap_table+0x140>
    3e18:	002e1e13          	slli	t3,t3,0x2
    3e1c:	006e0e33          	add	t3,t3,t1
    3e20:	000e2883          	lw	a7,0(t3)
    3e24:	0002081b          	sext.w	a6,tp
    3e28:	4058559b          	sraiw	a1,a6,0x5
    3e2c:	006888b3          	add	a7,a7,t1
    3e30:	0075f593          	andi	a1,a1,7
    3e34:	00088067          	jr	a7
    3e38:	00887813          	andi	a6,a6,8
    3e3c:	e20800e3          	beqz	a6,3c5c <emulate_system_opcode+0xc0>
    3e40:	b03025f3          	csrr	a1,mhpmcounter3
    3e44:	007e7e13          	andi	t3,t3,7
    3e48:	00005897          	auipc	a7,0x5
    3e4c:	da488893          	addi	a7,a7,-604 # 8bec <illegal_insn_trap_table+0x160>
    3e50:	002e1e13          	slli	t3,t3,0x2
    3e54:	011e0e33          	add	t3,t3,a7
    3e58:	000e2803          	lw	a6,0(t3)
    3e5c:	01180833          	add	a6,a6,a7
    3e60:	00080067          	jr	a6
    3e64:	00187813          	andi	a6,a6,1
    3e68:	de080ae3          	beqz	a6,3c5c <emulate_system_opcode+0xc0>
    3e6c:	b00025f3          	csrr	a1,mcycle
    3e70:	007e7e13          	andi	t3,t3,7
    3e74:	00005897          	auipc	a7,0x5
    3e78:	d9888893          	addi	a7,a7,-616 # 8c0c <illegal_insn_trap_table+0x180>
    3e7c:	002e1e13          	slli	t3,t3,0x2
    3e80:	011e0e33          	add	t3,t3,a7
    3e84:	000e2803          	lw	a6,0(t3)
    3e88:	01180833          	add	a6,a6,a7
    3e8c:	00080067          	jr	a6
    3e90:	00287813          	andi	a6,a6,2
    3e94:	dc0804e3          	beqz	a6,3c5c <emulate_system_opcode+0xc0>
    3e98:	007e7e13          	andi	t3,t3,7
    3e9c:	00005897          	auipc	a7,0x5
    3ea0:	d9088893          	addi	a7,a7,-624 # 8c2c <illegal_insn_trap_table+0x1a0>
    3ea4:	002e1e13          	slli	t3,t3,0x2
    3ea8:	00009597          	auipc	a1,0x9
    3eac:	1a058593          	addi	a1,a1,416 # d048 <mtime>
    3eb0:	0005b583          	ld	a1,0(a1)
    3eb4:	011e0e33          	add	t3,t3,a7
    3eb8:	000e2803          	lw	a6,0(t3)
    3ebc:	0005b583          	ld	a1,0(a1)
    3ec0:	01180833          	add	a6,a6,a7
    3ec4:	00080067          	jr	a6
    3ec8:	00200813          	li	a6,2
    3ecc:	03078063          	beq	a5,a6,3eec <emulate_system_opcode+0x350>
    3ed0:	04f87063          	bleu	a5,a6,3f10 <emulate_system_opcode+0x374>
    3ed4:	00300813          	li	a6,3
    3ed8:	07078463          	beq	a5,a6,3f40 <emulate_system_opcode+0x3a4>
    3edc:	32300813          	li	a6,803
    3ee0:	d7079ee3          	bne	a5,a6,3c5c <emulate_system_opcode+0xc0>
    3ee4:	32361073          	csrw	mhpmevent3,a2
    3ee8:	ea1ff06f          	j	3d88 <emulate_system_opcode+0x1ec>
    3eec:	0002081b          	sext.w	a6,tp
    3ef0:	01f87793          	andi	a5,a6,31
    3ef4:	00561613          	slli	a2,a2,0x5
    3ef8:	00c7e7b3          	or	a5,a5,a2
    3efc:	0ff7f793          	andi	a5,a5,255
    3f00:	00f00233          	add	tp,zero,a5
    3f04:	000067b7          	lui	a5,0x6
    3f08:	3007a7f3          	csrrs	a5,mstatus,a5
    3f0c:	e7dff06f          	j	3d88 <emulate_system_opcode+0x1ec>
    3f10:	00100813          	li	a6,1
    3f14:	d50794e3          	bne	a5,a6,3c5c <emulate_system_opcode+0xc0>
    3f18:	0002081b          	sext.w	a6,tp
    3f1c:	0e087813          	andi	a6,a6,224
    3f20:	01f67613          	andi	a2,a2,31
    3f24:	00c86633          	or	a2,a6,a2
    3f28:	00c00233          	add	tp,zero,a2
    3f2c:	000067b7          	lui	a5,0x6
    3f30:	3007a7f3          	csrrs	a5,mstatus,a5
    3f34:	e55ff06f          	j	3d88 <emulate_system_opcode+0x1ec>
    3f38:	b0061073          	csrw	mcycle,a2
    3f3c:	e4dff06f          	j	3d88 <emulate_system_opcode+0x1ec>
    3f40:	0ff67613          	andi	a2,a2,255
    3f44:	00c00233          	add	tp,zero,a2
    3f48:	000067b7          	lui	a5,0x6
    3f4c:	3007a7f3          	csrrs	a5,mstatus,a5
    3f50:	e39ff06f          	j	3d88 <emulate_system_opcode+0x1ec>
    3f54:	32461073          	csrw	mhpmevent4,a2
    3f58:	e31ff06f          	j	3d88 <emulate_system_opcode+0x1ec>
    3f5c:	b0380813          	addi	a6,a6,-1277
    3f60:	cf079ee3          	bne	a5,a6,3c5c <emulate_system_opcode+0xc0>
    3f64:	b0361073          	csrw	mhpmcounter3,a2
    3f68:	e21ff06f          	j	3d88 <emulate_system_opcode+0x1ec>
    3f6c:	b0461073          	csrw	mhpmcounter4,a2
    3f70:	e19ff06f          	j	3d88 <emulate_system_opcode+0x1ec>

0000000000003f74 <emulate_fp>:
    3f74:	000067b7          	lui	a5,0x6
    3f78:	00f6f7b3          	and	a5,a3,a5
    3f7c:	02078c63          	beqz	a5,3fb4 <emulate_fp+0x40>
    3f80:	01975793          	srli	a5,a4,0x19
    3f84:	00005897          	auipc	a7,0x5
    3f88:	cc888893          	addi	a7,a7,-824 # 8c4c <fp_emulation_table>
    3f8c:	07c7f793          	andi	a5,a5,124
    3f90:	00007837          	lui	a6,0x7
    3f94:	011787b3          	add	a5,a5,a7
    3f98:	010778b3          	and	a7,a4,a6
    3f9c:	0007e303          	lwu	t1,0(a5) # 6000 <f64_lt+0x48>
    3fa0:	0ff27793          	andi	a5,tp,255
    3fa4:	01089a63          	bne	a7,a6,3fb8 <emulate_fp+0x44>
    3fa8:	0087981b          	slliw	a6,a5,0x8
    3fac:	0107e233          	or	tp,a5,a6
    3fb0:	00030067          	jr	t1
    3fb4:	bd9ff06f          	j	3b8c <truly_illegal_insn>
    3fb8:	00c75813          	srli	a6,a4,0xc
    3fbc:	00787e13          	andi	t3,a6,7
    3fc0:	00400893          	li	a7,4
    3fc4:	ffc8e8e3          	bltu	a7,t3,3fb4 <emulate_fp+0x40>
    3fc8:	00d8181b          	slliw	a6,a6,0xd
    3fcc:	0000e8b7          	lui	a7,0xe
    3fd0:	01187833          	and	a6,a6,a7
    3fd4:	00f86233          	or	tp,a6,a5
    3fd8:	fd9ff06f          	j	3fb0 <emulate_fp+0x3c>

0000000000003fdc <emulate_any_fadd>:
    3fdc:	fe010113          	addi	sp,sp,-32
    3fe0:	01975813          	srli	a6,a4,0x19
    3fe4:	00813823          	sd	s0,16(sp)
    3fe8:	00913423          	sd	s1,8(sp)
    3fec:	00113c23          	sd	ra,24(sp)
    3ff0:	00387813          	andi	a6,a6,3
    3ff4:	00070413          	mv	s0,a4
    3ff8:	00050493          	mv	s1,a0
    3ffc:	06080c63          	beqz	a6,4074 <emulate_any_fadd+0x98>
    4000:	00100893          	li	a7,1
    4004:	01180c63          	beq	a6,a7,401c <emulate_any_fadd+0x40>
    4008:	01013403          	ld	s0,16(sp)
    400c:	01813083          	ld	ra,24(sp)
    4010:	00813483          	ld	s1,8(sp)
    4014:	02010113          	addi	sp,sp,32
    4018:	b75ff06f          	j	3b8c <truly_illegal_insn>
    401c:	01175693          	srli	a3,a4,0x11
    4020:	0f86f693          	andi	a3,a3,248
    4024:	00c75713          	srli	a4,a4,0xc
    4028:	00d506b3          	add	a3,a0,a3
    402c:	0f877713          	andi	a4,a4,248
    4030:	1006b583          	ld	a1,256(a3)
    4034:	00e50733          	add	a4,a0,a4
    4038:	10073503          	ld	a0,256(a4) # 5100 <misaligned_load_trap+0x1b8>
    403c:	02079793          	slli	a5,a5,0x20
    4040:	00b7c5b3          	xor	a1,a5,a1
    4044:	441010ef          	jal	ra,5c84 <f64_add>
    4048:	00445793          	srli	a5,s0,0x4
    404c:	0f87f793          	andi	a5,a5,248
    4050:	00f48433          	add	s0,s1,a5
    4054:	10a43023          	sd	a0,256(s0)
    4058:	000067b7          	lui	a5,0x6
    405c:	3007a7f3          	csrrs	a5,mstatus,a5
    4060:	01813083          	ld	ra,24(sp)
    4064:	01013403          	ld	s0,16(sp)
    4068:	00813483          	ld	s1,8(sp)
    406c:	02010113          	addi	sp,sp,32
    4070:	00008067          	ret
    4074:	01175693          	srli	a3,a4,0x11
    4078:	0f86f693          	andi	a3,a3,248
    407c:	00c75713          	srli	a4,a4,0xc
    4080:	00d506b3          	add	a3,a0,a3
    4084:	0f877713          	andi	a4,a4,248
    4088:	1006a583          	lw	a1,256(a3)
    408c:	00e50733          	add	a4,a0,a4
    4090:	10072503          	lw	a0,256(a4)
    4094:	00445413          	srli	s0,s0,0x4
    4098:	00b7c5b3          	xor	a1,a5,a1
    409c:	0f847413          	andi	s0,s0,248
    40a0:	1b8010ef          	jal	ra,5258 <f32_add>
    40a4:	00848433          	add	s0,s1,s0
    40a8:	10a42023          	sw	a0,256(s0)
    40ac:	000067b7          	lui	a5,0x6
    40b0:	3007a7f3          	csrrs	a5,mstatus,a5
    40b4:	01813083          	ld	ra,24(sp)
    40b8:	01013403          	ld	s0,16(sp)
    40bc:	00813483          	ld	s1,8(sp)
    40c0:	02010113          	addi	sp,sp,32
    40c4:	00008067          	ret

00000000000040c8 <emulate_fadd>:
    40c8:	00000793          	li	a5,0
    40cc:	f11ff06f          	j	3fdc <emulate_any_fadd>

00000000000040d0 <emulate_fsub>:
    40d0:	800007b7          	lui	a5,0x80000
    40d4:	f09ff06f          	j	3fdc <emulate_any_fadd>

00000000000040d8 <emulate_fmul>:
    40d8:	fe010113          	addi	sp,sp,-32
    40dc:	01975813          	srli	a6,a4,0x19
    40e0:	00813823          	sd	s0,16(sp)
    40e4:	00913423          	sd	s1,8(sp)
    40e8:	00113c23          	sd	ra,24(sp)
    40ec:	00387813          	andi	a6,a6,3
    40f0:	00070413          	mv	s0,a4
    40f4:	00050493          	mv	s1,a0
    40f8:	06080863          	beqz	a6,4168 <emulate_fmul+0x90>
    40fc:	00100793          	li	a5,1
    4100:	00f80c63          	beq	a6,a5,4118 <emulate_fmul+0x40>
    4104:	01013403          	ld	s0,16(sp)
    4108:	01813083          	ld	ra,24(sp)
    410c:	00813483          	ld	s1,8(sp)
    4110:	02010113          	addi	sp,sp,32
    4114:	a79ff06f          	j	3b8c <truly_illegal_insn>
    4118:	00c45793          	srli	a5,s0,0xc
    411c:	01175713          	srli	a4,a4,0x11
    4120:	0f877713          	andi	a4,a4,248
    4124:	0f87f793          	andi	a5,a5,248
    4128:	00e50733          	add	a4,a0,a4
    412c:	00f507b3          	add	a5,a0,a5
    4130:	10073583          	ld	a1,256(a4)
    4134:	1007b503          	ld	a0,256(a5) # ffffffff80000100 <_end+0xffffffff7fdffa60>
    4138:	7e1010ef          	jal	ra,6118 <f64_mul>
    413c:	00445793          	srli	a5,s0,0x4
    4140:	0f87f793          	andi	a5,a5,248
    4144:	00f487b3          	add	a5,s1,a5
    4148:	10a7b023          	sd	a0,256(a5)
    414c:	000067b7          	lui	a5,0x6
    4150:	3007a7f3          	csrrs	a5,mstatus,a5
    4154:	01813083          	ld	ra,24(sp)
    4158:	01013403          	ld	s0,16(sp)
    415c:	00813483          	ld	s1,8(sp)
    4160:	02010113          	addi	sp,sp,32
    4164:	00008067          	ret
    4168:	00c45793          	srli	a5,s0,0xc
    416c:	01175713          	srli	a4,a4,0x11
    4170:	0f877713          	andi	a4,a4,248
    4174:	0f87f793          	andi	a5,a5,248
    4178:	00e50733          	add	a4,a0,a4
    417c:	00f507b3          	add	a5,a0,a5
    4180:	10072583          	lw	a1,256(a4)
    4184:	1007a503          	lw	a0,256(a5) # 6100 <f64_lt_quiet+0xbc>
    4188:	00445413          	srli	s0,s0,0x4
    418c:	0f847413          	andi	s0,s0,248
    4190:	578010ef          	jal	ra,5708 <f32_mul>
    4194:	00848433          	add	s0,s1,s0
    4198:	10a42023          	sw	a0,256(s0)
    419c:	000067b7          	lui	a5,0x6
    41a0:	3007a7f3          	csrrs	a5,mstatus,a5
    41a4:	01813083          	ld	ra,24(sp)
    41a8:	01013403          	ld	s0,16(sp)
    41ac:	00813483          	ld	s1,8(sp)
    41b0:	02010113          	addi	sp,sp,32
    41b4:	00008067          	ret

00000000000041b8 <emulate_fdiv>:
    41b8:	fe010113          	addi	sp,sp,-32
    41bc:	01975813          	srli	a6,a4,0x19
    41c0:	00813823          	sd	s0,16(sp)
    41c4:	00913423          	sd	s1,8(sp)
    41c8:	00113c23          	sd	ra,24(sp)
    41cc:	00387813          	andi	a6,a6,3
    41d0:	00070413          	mv	s0,a4
    41d4:	00050493          	mv	s1,a0
    41d8:	06080863          	beqz	a6,4248 <emulate_fdiv+0x90>
    41dc:	00100793          	li	a5,1
    41e0:	00f80c63          	beq	a6,a5,41f8 <emulate_fdiv+0x40>
    41e4:	01013403          	ld	s0,16(sp)
    41e8:	01813083          	ld	ra,24(sp)
    41ec:	00813483          	ld	s1,8(sp)
    41f0:	02010113          	addi	sp,sp,32
    41f4:	999ff06f          	j	3b8c <truly_illegal_insn>
    41f8:	00c45793          	srli	a5,s0,0xc
    41fc:	01175713          	srli	a4,a4,0x11
    4200:	0f877713          	andi	a4,a4,248
    4204:	0f87f793          	andi	a5,a5,248
    4208:	00e50733          	add	a4,a0,a4
    420c:	00f507b3          	add	a5,a0,a5
    4210:	10073583          	ld	a1,256(a4)
    4214:	1007b503          	ld	a0,256(a5) # 6100 <f64_lt_quiet+0xbc>
    4218:	291010ef          	jal	ra,5ca8 <f64_div>
    421c:	00445793          	srli	a5,s0,0x4
    4220:	0f87f793          	andi	a5,a5,248
    4224:	00f487b3          	add	a5,s1,a5
    4228:	10a7b023          	sd	a0,256(a5)
    422c:	000067b7          	lui	a5,0x6
    4230:	3007a7f3          	csrrs	a5,mstatus,a5
    4234:	01813083          	ld	ra,24(sp)
    4238:	01013403          	ld	s0,16(sp)
    423c:	00813483          	ld	s1,8(sp)
    4240:	02010113          	addi	sp,sp,32
    4244:	00008067          	ret
    4248:	00c45793          	srli	a5,s0,0xc
    424c:	01175713          	srli	a4,a4,0x11
    4250:	0f877713          	andi	a4,a4,248
    4254:	0f87f793          	andi	a5,a5,248
    4258:	00e50733          	add	a4,a0,a4
    425c:	00f507b3          	add	a5,a0,a5
    4260:	10072583          	lw	a1,256(a4)
    4264:	1007a503          	lw	a0,256(a5) # 6100 <f64_lt_quiet+0xbc>
    4268:	00445413          	srli	s0,s0,0x4
    426c:	0f847413          	andi	s0,s0,248
    4270:	014010ef          	jal	ra,5284 <f32_div>
    4274:	00848433          	add	s0,s1,s0
    4278:	10a42023          	sw	a0,256(s0)
    427c:	000067b7          	lui	a5,0x6
    4280:	3007a7f3          	csrrs	a5,mstatus,a5
    4284:	01813083          	ld	ra,24(sp)
    4288:	01013403          	ld	s0,16(sp)
    428c:	00813483          	ld	s1,8(sp)
    4290:	02010113          	addi	sp,sp,32
    4294:	00008067          	ret

0000000000004298 <emulate_fsqrt>:
    4298:	01475793          	srli	a5,a4,0x14
    429c:	01f7f793          	andi	a5,a5,31
    42a0:	08079263          	bnez	a5,4324 <emulate_fsqrt+0x8c>
    42a4:	fe010113          	addi	sp,sp,-32
    42a8:	01975813          	srli	a6,a4,0x19
    42ac:	00813823          	sd	s0,16(sp)
    42b0:	00913423          	sd	s1,8(sp)
    42b4:	00113c23          	sd	ra,24(sp)
    42b8:	00387813          	andi	a6,a6,3
    42bc:	00050493          	mv	s1,a0
    42c0:	00070413          	mv	s0,a4
    42c4:	02080063          	beqz	a6,42e4 <emulate_fsqrt+0x4c>
    42c8:	00100793          	li	a5,1
    42cc:	04f80e63          	beq	a6,a5,4328 <emulate_fsqrt+0x90>
    42d0:	01013403          	ld	s0,16(sp)
    42d4:	01813083          	ld	ra,24(sp)
    42d8:	00813483          	ld	s1,8(sp)
    42dc:	02010113          	addi	sp,sp,32
    42e0:	8adff06f          	j	3b8c <truly_illegal_insn>
    42e4:	00c75793          	srli	a5,a4,0xc
    42e8:	0f87f793          	andi	a5,a5,248
    42ec:	00f507b3          	add	a5,a0,a5
    42f0:	1007a503          	lw	a0,256(a5) # 6100 <f64_lt_quiet+0xbc>
    42f4:	00445413          	srli	s0,s0,0x4
    42f8:	0f847413          	andi	s0,s0,248
    42fc:	5e0010ef          	jal	ra,58dc <f32_sqrt>
    4300:	00848433          	add	s0,s1,s0
    4304:	10a42023          	sw	a0,256(s0)
    4308:	000067b7          	lui	a5,0x6
    430c:	3007a7f3          	csrrs	a5,mstatus,a5
    4310:	01813083          	ld	ra,24(sp)
    4314:	01013403          	ld	s0,16(sp)
    4318:	00813483          	ld	s1,8(sp)
    431c:	02010113          	addi	sp,sp,32
    4320:	00008067          	ret
    4324:	869ff06f          	j	3b8c <truly_illegal_insn>
    4328:	00c75793          	srli	a5,a4,0xc
    432c:	0f87f793          	andi	a5,a5,248
    4330:	00f507b3          	add	a5,a0,a5
    4334:	1007b503          	ld	a0,256(a5) # 6100 <f64_lt_quiet+0xbc>
    4338:	7b5010ef          	jal	ra,62ec <f64_sqrt>
    433c:	00445793          	srli	a5,s0,0x4
    4340:	0f87f793          	andi	a5,a5,248
    4344:	00f487b3          	add	a5,s1,a5
    4348:	10a7b023          	sd	a0,256(a5)
    434c:	000067b7          	lui	a5,0x6
    4350:	3007a7f3          	csrrs	a5,mstatus,a5
    4354:	01813083          	ld	ra,24(sp)
    4358:	01013403          	ld	s0,16(sp)
    435c:	00813483          	ld	s1,8(sp)
    4360:	02010113          	addi	sp,sp,32
    4364:	00008067          	ret

0000000000004368 <emulate_fsgnj>:
    4368:	00c75793          	srli	a5,a4,0xc
    436c:	0077f893          	andi	a7,a5,7
    4370:	00200813          	li	a6,2
    4374:	01184c63          	blt	a6,a7,438c <emulate_fsgnj+0x24>
    4378:	01975813          	srli	a6,a4,0x19
    437c:	00387813          	andi	a6,a6,3
    4380:	00080863          	beqz	a6,4390 <emulate_fsgnj+0x28>
    4384:	00100313          	li	t1,1
    4388:	06680663          	beq	a6,t1,43f4 <emulate_fsgnj+0x8c>
    438c:	801ff06f          	j	3b8c <truly_illegal_insn>
    4390:	01175613          	srli	a2,a4,0x11
    4394:	0f87f793          	andi	a5,a5,248
    4398:	0f867613          	andi	a2,a2,248
    439c:	00f507b3          	add	a5,a0,a5
    43a0:	00c50633          	add	a2,a0,a2
    43a4:	1007a683          	lw	a3,256(a5) # 6100 <f64_lt_quiet+0xbc>
    43a8:	10062783          	lw	a5,256(a2)
    43ac:	4018d61b          	sraiw	a2,a7,0x1
    43b0:	01f6d59b          	srliw	a1,a3,0x1f
    43b4:	01f7d79b          	srliw	a5,a5,0x1f
    43b8:	00b67633          	and	a2,a2,a1
    43bc:	00f8c7b3          	xor	a5,a7,a5
    43c0:	00c7c7b3          	xor	a5,a5,a2
    43c4:	80000637          	lui	a2,0x80000
    43c8:	fff64613          	not	a2,a2
    43cc:	00475713          	srli	a4,a4,0x4
    43d0:	0f877713          	andi	a4,a4,248
    43d4:	00c6f6b3          	and	a3,a3,a2
    43d8:	01f7979b          	slliw	a5,a5,0x1f
    43dc:	00f6e7b3          	or	a5,a3,a5
    43e0:	00e50533          	add	a0,a0,a4
    43e4:	10f52023          	sw	a5,256(a0)
    43e8:	000067b7          	lui	a5,0x6
    43ec:	3007a7f3          	csrrs	a5,mstatus,a5
    43f0:	00008067          	ret
    43f4:	01175693          	srli	a3,a4,0x11
    43f8:	0f87f793          	andi	a5,a5,248
    43fc:	0f86f693          	andi	a3,a3,248
    4400:	00f507b3          	add	a5,a0,a5
    4404:	00d506b3          	add	a3,a0,a3
    4408:	1007b603          	ld	a2,256(a5) # 6100 <f64_lt_quiet+0xbc>
    440c:	1006b783          	ld	a5,256(a3)
    4410:	0018d693          	srli	a3,a7,0x1
    4414:	03f65593          	srli	a1,a2,0x3f
    4418:	03f7d793          	srli	a5,a5,0x3f
    441c:	00b6f6b3          	and	a3,a3,a1
    4420:	0117c7b3          	xor	a5,a5,a7
    4424:	00d7c7b3          	xor	a5,a5,a3
    4428:	fff00693          	li	a3,-1
    442c:	0016d693          	srli	a3,a3,0x1
    4430:	00475713          	srli	a4,a4,0x4
    4434:	00d67633          	and	a2,a2,a3
    4438:	0f877713          	andi	a4,a4,248
    443c:	03f79793          	slli	a5,a5,0x3f
    4440:	00c7e7b3          	or	a5,a5,a2
    4444:	00e50733          	add	a4,a0,a4
    4448:	10f73023          	sd	a5,256(a4)
    444c:	000067b7          	lui	a5,0x6
    4450:	3007a7f3          	csrrs	a5,mstatus,a5
    4454:	00008067          	ret

0000000000004458 <emulate_fmin>:
    4458:	00c75793          	srli	a5,a4,0xc
    445c:	0077f313          	andi	t1,a5,7
    4460:	00100893          	li	a7,1
    4464:	1668cc63          	blt	a7,t1,45dc <emulate_fmin+0x184>
    4468:	fd010113          	addi	sp,sp,-48
    446c:	01975813          	srli	a6,a4,0x19
    4470:	02813023          	sd	s0,32(sp)
    4474:	00913c23          	sd	s1,24(sp)
    4478:	02113423          	sd	ra,40(sp)
    447c:	01213823          	sd	s2,16(sp)
    4480:	01313423          	sd	s3,8(sp)
    4484:	01413023          	sd	s4,0(sp)
    4488:	00387813          	andi	a6,a6,3
    448c:	00050493          	mv	s1,a0
    4490:	00070413          	mv	s0,a4
    4494:	08081a63          	bnez	a6,4528 <emulate_fmin+0xd0>
    4498:	01175713          	srli	a4,a4,0x11
    449c:	0f877713          	andi	a4,a4,248
    44a0:	00e50733          	add	a4,a0,a4
    44a4:	0f87f793          	andi	a5,a5,248
    44a8:	00f507b3          	add	a5,a0,a5
    44ac:	10072a03          	lw	s4,256(a4)
    44b0:	1007a903          	lw	s2,256(a5) # 6100 <f64_lt_quiet+0xbc>
    44b4:	000a099b          	sext.w	s3,s4
    44b8:	0009051b          	sext.w	a0,s2
    44bc:	00098593          	mv	a1,s3
    44c0:	00030663          	beqz	t1,44cc <emulate_fmin+0x74>
    44c4:	00050593          	mv	a1,a0
    44c8:	00098513          	mv	a0,s3
    44cc:	148010ef          	jal	ra,5614 <f32_lt_quiet>
    44d0:	02051063          	bnez	a0,44f0 <emulate_fmin+0x98>
    44d4:	fff9c793          	not	a5,s3
    44d8:	7f800737          	lui	a4,0x7f800
    44dc:	00e7f7b3          	and	a5,a5,a4
    44e0:	00079663          	bnez	a5,44ec <emulate_fmin+0x94>
    44e4:	02999793          	slli	a5,s3,0x29
    44e8:	00079463          	bnez	a5,44f0 <emulate_fmin+0x98>
    44ec:	000a0913          	mv	s2,s4
    44f0:	00445413          	srli	s0,s0,0x4
    44f4:	0f847413          	andi	s0,s0,248
    44f8:	00848433          	add	s0,s1,s0
    44fc:	11242023          	sw	s2,256(s0)
    4500:	000067b7          	lui	a5,0x6
    4504:	3007a7f3          	csrrs	a5,mstatus,a5
    4508:	02813083          	ld	ra,40(sp)
    450c:	02013403          	ld	s0,32(sp)
    4510:	01813483          	ld	s1,24(sp)
    4514:	01013903          	ld	s2,16(sp)
    4518:	00813983          	ld	s3,8(sp)
    451c:	00013a03          	ld	s4,0(sp)
    4520:	03010113          	addi	sp,sp,48
    4524:	00008067          	ret
    4528:	09181a63          	bne	a6,a7,45bc <emulate_fmin+0x164>
    452c:	01175713          	srli	a4,a4,0x11
    4530:	0f87f793          	andi	a5,a5,248
    4534:	0f877713          	andi	a4,a4,248
    4538:	00f507b3          	add	a5,a0,a5
    453c:	00e50733          	add	a4,a0,a4
    4540:	1007b903          	ld	s2,256(a5) # 6100 <f64_lt_quiet+0xbc>
    4544:	10073983          	ld	s3,256(a4) # 7f800100 <_end+0x7f5ffa60>
    4548:	00090513          	mv	a0,s2
    454c:	00098593          	mv	a1,s3
    4550:	00030663          	beqz	t1,455c <emulate_fmin+0x104>
    4554:	00090593          	mv	a1,s2
    4558:	00098513          	mv	a0,s3
    455c:	2e9010ef          	jal	ra,6044 <f64_lt_quiet>
    4560:	02051263          	bnez	a0,4584 <emulate_fmin+0x12c>
    4564:	7ff00713          	li	a4,2047
    4568:	fff9c793          	not	a5,s3
    456c:	03471713          	slli	a4,a4,0x34
    4570:	00e7f7b3          	and	a5,a5,a4
    4574:	00079663          	bnez	a5,4580 <emulate_fmin+0x128>
    4578:	00c99793          	slli	a5,s3,0xc
    457c:	00079463          	bnez	a5,4584 <emulate_fmin+0x12c>
    4580:	00098913          	mv	s2,s3
    4584:	00445413          	srli	s0,s0,0x4
    4588:	0f847413          	andi	s0,s0,248
    458c:	00848433          	add	s0,s1,s0
    4590:	11243023          	sd	s2,256(s0)
    4594:	000067b7          	lui	a5,0x6
    4598:	3007a7f3          	csrrs	a5,mstatus,a5
    459c:	02813083          	ld	ra,40(sp)
    45a0:	02013403          	ld	s0,32(sp)
    45a4:	01813483          	ld	s1,24(sp)
    45a8:	01013903          	ld	s2,16(sp)
    45ac:	00813983          	ld	s3,8(sp)
    45b0:	00013a03          	ld	s4,0(sp)
    45b4:	03010113          	addi	sp,sp,48
    45b8:	00008067          	ret
    45bc:	02013403          	ld	s0,32(sp)
    45c0:	02813083          	ld	ra,40(sp)
    45c4:	01813483          	ld	s1,24(sp)
    45c8:	01013903          	ld	s2,16(sp)
    45cc:	00813983          	ld	s3,8(sp)
    45d0:	00013a03          	ld	s4,0(sp)
    45d4:	03010113          	addi	sp,sp,48
    45d8:	db4ff06f          	j	3b8c <truly_illegal_insn>
    45dc:	db0ff06f          	j	3b8c <truly_illegal_insn>

00000000000045e0 <emulate_fcvt_ff>:
    45e0:	fe010113          	addi	sp,sp,-32
    45e4:	01975793          	srli	a5,a4,0x19
    45e8:	00813823          	sd	s0,16(sp)
    45ec:	01475813          	srli	a6,a4,0x14
    45f0:	00113c23          	sd	ra,24(sp)
    45f4:	0037f793          	andi	a5,a5,3
    45f8:	00050413          	mv	s0,a0
    45fc:	01f87813          	andi	a6,a6,31
    4600:	02079063          	bnez	a5,4620 <emulate_fcvt_ff+0x40>
    4604:	00100793          	li	a5,1
    4608:	06f80463          	beq	a6,a5,4670 <emulate_fcvt_ff+0x90>
    460c:	00040513          	mv	a0,s0
    4610:	01013403          	ld	s0,16(sp)
    4614:	01813083          	ld	ra,24(sp)
    4618:	02010113          	addi	sp,sp,32
    461c:	d70ff06f          	j	3b8c <truly_illegal_insn>
    4620:	00100513          	li	a0,1
    4624:	fea794e3          	bne	a5,a0,460c <emulate_fcvt_ff+0x2c>
    4628:	fe0812e3          	bnez	a6,460c <emulate_fcvt_ff+0x2c>
    462c:	00c75793          	srli	a5,a4,0xc
    4630:	0f87f793          	andi	a5,a5,248
    4634:	00f407b3          	add	a5,s0,a5
    4638:	1007a503          	lw	a0,256(a5) # 6100 <f64_lt_quiet+0xbc>
    463c:	00e13423          	sd	a4,8(sp)
    4640:	424010ef          	jal	ra,5a64 <f32_to_f64>
    4644:	00813703          	ld	a4,8(sp)
    4648:	000067b7          	lui	a5,0x6
    464c:	00475713          	srli	a4,a4,0x4
    4650:	0f877713          	andi	a4,a4,248
    4654:	00e40733          	add	a4,s0,a4
    4658:	10a73023          	sd	a0,256(a4)
    465c:	3007a7f3          	csrrs	a5,mstatus,a5
    4660:	01813083          	ld	ra,24(sp)
    4664:	01013403          	ld	s0,16(sp)
    4668:	02010113          	addi	sp,sp,32
    466c:	00008067          	ret
    4670:	00c75793          	srli	a5,a4,0xc
    4674:	0f87f793          	andi	a5,a5,248
    4678:	00f507b3          	add	a5,a0,a5
    467c:	1007b503          	ld	a0,256(a5) # 6100 <f64_lt_quiet+0xbc>
    4680:	00e13423          	sd	a4,8(sp)
    4684:	61d010ef          	jal	ra,64a0 <f64_to_f32>
    4688:	00813703          	ld	a4,8(sp)
    468c:	000067b7          	lui	a5,0x6
    4690:	00475713          	srli	a4,a4,0x4
    4694:	0f877713          	andi	a4,a4,248
    4698:	00e40733          	add	a4,s0,a4
    469c:	10a72023          	sw	a0,256(a4)
    46a0:	3007a7f3          	csrrs	a5,mstatus,a5
    46a4:	01813083          	ld	ra,24(sp)
    46a8:	01013403          	ld	s0,16(sp)
    46ac:	02010113          	addi	sp,sp,32
    46b0:	00008067          	ret

00000000000046b4 <emulate_fcvt_fi>:
    46b4:	fe010113          	addi	sp,sp,-32
    46b8:	00913423          	sd	s1,8(sp)
    46bc:	01975493          	srli	s1,a4,0x19
    46c0:	00113c23          	sd	ra,24(sp)
    46c4:	00813823          	sd	s0,16(sp)
    46c8:	01213023          	sd	s2,0(sp)
    46cc:	0034f493          	andi	s1,s1,3
    46d0:	00100893          	li	a7,1
    46d4:	0698ee63          	bltu	a7,s1,4750 <emulate_fcvt_fi+0x9c>
    46d8:	00c75793          	srli	a5,a4,0xc
    46dc:	0f87f793          	andi	a5,a5,248
    46e0:	01475813          	srli	a6,a4,0x14
    46e4:	00f507b3          	add	a5,a0,a5
    46e8:	01f87813          	andi	a6,a6,31
    46ec:	00070413          	mv	s0,a4
    46f0:	00050913          	mv	s2,a0
    46f4:	0007b783          	ld	a5,0(a5) # 6000 <f64_lt+0x48>
    46f8:	07180c63          	beq	a6,a7,4770 <emulate_fcvt_fi+0xbc>
    46fc:	06080663          	beqz	a6,4768 <emulate_fcvt_fi+0xb4>
    4700:	00200893          	li	a7,2
    4704:	0b180a63          	beq	a6,a7,47b8 <emulate_fcvt_fi+0x104>
    4708:	00300893          	li	a7,3
    470c:	05181263          	bne	a6,a7,4750 <emulate_fcvt_fi+0x9c>
    4710:	00078513          	mv	a0,a5
    4714:	29d030ef          	jal	ra,81b0 <ui64_to_f64>
    4718:	00445793          	srli	a5,s0,0x4
    471c:	0f87f793          	andi	a5,a5,248
    4720:	10078793          	addi	a5,a5,256
    4724:	00f90933          	add	s2,s2,a5
    4728:	06048463          	beqz	s1,4790 <emulate_fcvt_fi+0xdc>
    472c:	00a93023          	sd	a0,0(s2)
    4730:	000067b7          	lui	a5,0x6
    4734:	3007a7f3          	csrrs	a5,mstatus,a5
    4738:	01813083          	ld	ra,24(sp)
    473c:	01013403          	ld	s0,16(sp)
    4740:	00813483          	ld	s1,8(sp)
    4744:	00013903          	ld	s2,0(sp)
    4748:	02010113          	addi	sp,sp,32
    474c:	00008067          	ret
    4750:	01013403          	ld	s0,16(sp)
    4754:	01813083          	ld	ra,24(sp)
    4758:	00813483          	ld	s1,8(sp)
    475c:	00013903          	ld	s2,0(sp)
    4760:	02010113          	addi	sp,sp,32
    4764:	c28ff06f          	j	3b8c <truly_illegal_insn>
    4768:	02079713          	slli	a4,a5,0x20
    476c:	06074463          	bltz	a4,47d4 <emulate_fcvt_fi+0x120>
    4770:	02079513          	slli	a0,a5,0x20
    4774:	02055513          	srli	a0,a0,0x20
    4778:	239030ef          	jal	ra,81b0 <ui64_to_f64>
    477c:	00445793          	srli	a5,s0,0x4
    4780:	0f87f793          	andi	a5,a5,248
    4784:	10078793          	addi	a5,a5,256 # 6100 <f64_lt_quiet+0xbc>
    4788:	00f90933          	add	s2,s2,a5
    478c:	fa0490e3          	bnez	s1,472c <emulate_fcvt_fi+0x78>
    4790:	511010ef          	jal	ra,64a0 <f64_to_f32>
    4794:	00a92023          	sw	a0,0(s2)
    4798:	000067b7          	lui	a5,0x6
    479c:	3007a7f3          	csrrs	a5,mstatus,a5
    47a0:	01813083          	ld	ra,24(sp)
    47a4:	01013403          	ld	s0,16(sp)
    47a8:	00813483          	ld	s1,8(sp)
    47ac:	00013903          	ld	s2,0(sp)
    47b0:	02010113          	addi	sp,sp,32
    47b4:	00008067          	ret
    47b8:	40f00533          	neg	a0,a5
    47bc:	f407dae3          	bgez	a5,4710 <emulate_fcvt_fi+0x5c>
    47c0:	1f1030ef          	jal	ra,81b0 <ui64_to_f64>
    47c4:	fff00793          	li	a5,-1
    47c8:	03f79793          	slli	a5,a5,0x3f
    47cc:	00f54533          	xor	a0,a0,a5
    47d0:	f49ff06f          	j	4718 <emulate_fcvt_fi+0x64>
    47d4:	40f007bb          	negw	a5,a5
    47d8:	02079513          	slli	a0,a5,0x20
    47dc:	02055513          	srli	a0,a0,0x20
    47e0:	fe1ff06f          	j	47c0 <emulate_fcvt_fi+0x10c>

00000000000047e4 <emulate_fcvt_if>:
    47e4:	fd010113          	addi	sp,sp,-48
    47e8:	00913c23          	sd	s1,24(sp)
    47ec:	01475493          	srli	s1,a4,0x14
    47f0:	02113423          	sd	ra,40(sp)
    47f4:	02813023          	sd	s0,32(sp)
    47f8:	01213823          	sd	s2,16(sp)
    47fc:	01313423          	sd	s3,8(sp)
    4800:	01413023          	sd	s4,0(sp)
    4804:	01f4f493          	andi	s1,s1,31
    4808:	00300793          	li	a5,3
    480c:	0a97c863          	blt	a5,s1,48bc <emulate_fcvt_if+0xd8>
    4810:	01975793          	srli	a5,a4,0x19
    4814:	0037f793          	andi	a5,a5,3
    4818:	00050993          	mv	s3,a0
    481c:	00070413          	mv	s0,a4
    4820:	0a078e63          	beqz	a5,48dc <emulate_fcvt_if+0xf8>
    4824:	00100813          	li	a6,1
    4828:	09079a63          	bne	a5,a6,48bc <emulate_fcvt_if+0xd8>
    482c:	00c75793          	srli	a5,a4,0xc
    4830:	0f87f793          	andi	a5,a5,248
    4834:	00f507b3          	add	a5,a0,a5
    4838:	1007b503          	ld	a0,256(a5) # 6100 <f64_lt_quiet+0xbc>
    483c:	40d2559b          	sraiw	a1,tp,0xd
    4840:	0a054c63          	bltz	a0,48f8 <emulate_fcvt_if+0x114>
    4844:	00100613          	li	a2,1
    4848:	531010ef          	jal	ra,6578 <f64_to_ui64>
    484c:	00200793          	li	a5,2
    4850:	0ef48263          	beq	s1,a5,4934 <emulate_fcvt_if+0x150>
    4854:	00300713          	li	a4,3
    4858:	00050793          	mv	a5,a0
    485c:	02e48463          	beq	s1,a4,4884 <emulate_fcvt_if+0xa0>
    4860:	00100793          	li	a5,1
    4864:	0ef48263          	beq	s1,a5,4948 <emulate_fcvt_if+0x164>
    4868:	80000737          	lui	a4,0x80000
    486c:	fff74713          	not	a4,a4
    4870:	0005079b          	sext.w	a5,a0
    4874:	00070693          	mv	a3,a4
    4878:	00a6f663          	bleu	a0,a3,4884 <emulate_fcvt_if+0xa0>
    487c:	01026213          	ori	tp,tp,16
    4880:	00070793          	mv	a5,a4
    4884:	00006737          	lui	a4,0x6
    4888:	30072773          	csrrs	a4,mstatus,a4
    488c:	00445413          	srli	s0,s0,0x4
    4890:	0f847413          	andi	s0,s0,248
    4894:	00898433          	add	s0,s3,s0
    4898:	00f43023          	sd	a5,0(s0)
    489c:	02813083          	ld	ra,40(sp)
    48a0:	02013403          	ld	s0,32(sp)
    48a4:	01813483          	ld	s1,24(sp)
    48a8:	01013903          	ld	s2,16(sp)
    48ac:	00813983          	ld	s3,8(sp)
    48b0:	00013a03          	ld	s4,0(sp)
    48b4:	03010113          	addi	sp,sp,48
    48b8:	00008067          	ret
    48bc:	02013403          	ld	s0,32(sp)
    48c0:	02813083          	ld	ra,40(sp)
    48c4:	01813483          	ld	s1,24(sp)
    48c8:	01013903          	ld	s2,16(sp)
    48cc:	00813983          	ld	s3,8(sp)
    48d0:	00013a03          	ld	s4,0(sp)
    48d4:	03010113          	addi	sp,sp,48
    48d8:	ab4ff06f          	j	3b8c <truly_illegal_insn>
    48dc:	00c75793          	srli	a5,a4,0xc
    48e0:	0f87f793          	andi	a5,a5,248
    48e4:	00f507b3          	add	a5,a0,a5
    48e8:	1007a503          	lw	a0,256(a5)
    48ec:	178010ef          	jal	ra,5a64 <f32_to_f64>
    48f0:	40d2559b          	sraiw	a1,tp,0xd
    48f4:	f40558e3          	bgez	a0,4844 <emulate_fcvt_if+0x60>
    48f8:	fff00a13          	li	s4,-1
    48fc:	03fa1913          	slli	s2,s4,0x3f
    4900:	00100613          	li	a2,1
    4904:	01254533          	xor	a0,a0,s2
    4908:	471010ef          	jal	ra,6578 <f64_to_ui64>
    490c:	00200793          	li	a5,2
    4910:	06f48063          	beq	s1,a5,4970 <emulate_fcvt_if+0x18c>
    4914:	00300793          	li	a5,3
    4918:	04f48463          	beq	s1,a5,4960 <emulate_fcvt_if+0x17c>
    491c:	00100713          	li	a4,1
    4920:	06e48063          	beq	s1,a4,4980 <emulate_fcvt_if+0x19c>
    4924:	01f71713          	slli	a4,a4,0x1f
    4928:	40a007bb          	negw	a5,a0
    492c:	00070693          	mv	a3,a4
    4930:	f49ff06f          	j	4878 <emulate_fcvt_if+0x94>
    4934:	fff00713          	li	a4,-1
    4938:	00175713          	srli	a4,a4,0x1
    493c:	00050793          	mv	a5,a0
    4940:	00070693          	mv	a3,a4
    4944:	f35ff06f          	j	4878 <emulate_fcvt_if+0x94>
    4948:	fff00793          	li	a5,-1
    494c:	0207d793          	srli	a5,a5,0x20
    4950:	00078713          	mv	a4,a5
    4954:	00070693          	mv	a3,a4
    4958:	00f577b3          	and	a5,a0,a5
    495c:	f1dff06f          	j	4878 <emulate_fcvt_if+0x94>
    4960:	fff00713          	li	a4,-1
    4964:	00000693          	li	a3,0
    4968:	00000793          	li	a5,0
    496c:	f0dff06f          	j	4878 <emulate_fcvt_if+0x94>
    4970:	00090713          	mv	a4,s2
    4974:	40a007b3          	neg	a5,a0
    4978:	00090693          	mv	a3,s2
    497c:	efdff06f          	j	4878 <emulate_fcvt_if+0x94>
    4980:	020a5713          	srli	a4,s4,0x20
    4984:	00000693          	li	a3,0
    4988:	00000793          	li	a5,0
    498c:	eedff06f          	j	4878 <emulate_fcvt_if+0x94>

0000000000004990 <emulate_fcmp>:
    4990:	fd010113          	addi	sp,sp,-48
    4994:	00c75793          	srli	a5,a4,0xc
    4998:	01213823          	sd	s2,16(sp)
    499c:	02113423          	sd	ra,40(sp)
    49a0:	02813023          	sd	s0,32(sp)
    49a4:	00913c23          	sd	s1,24(sp)
    49a8:	01313423          	sd	s3,8(sp)
    49ac:	01413023          	sd	s4,0(sp)
    49b0:	0077f913          	andi	s2,a5,7
    49b4:	00200813          	li	a6,2
    49b8:	0d284a63          	blt	a6,s2,4a8c <emulate_fcmp+0xfc>
    49bc:	01975813          	srli	a6,a4,0x19
    49c0:	00387813          	andi	a6,a6,3
    49c4:	00050493          	mv	s1,a0
    49c8:	00070413          	mv	s0,a4
    49cc:	06081663          	bnez	a6,4a38 <emulate_fcmp+0xa8>
    49d0:	01175713          	srli	a4,a4,0x11
    49d4:	0f87f793          	andi	a5,a5,248
    49d8:	0f877713          	andi	a4,a4,248
    49dc:	00f507b3          	add	a5,a0,a5
    49e0:	00e50733          	add	a4,a0,a4
    49e4:	00100693          	li	a3,1
    49e8:	1007a983          	lw	s3,256(a5)
    49ec:	10072a03          	lw	s4,256(a4) # 6100 <f64_lt_quiet+0xbc>
    49f0:	08d91063          	bne	s2,a3,4a70 <emulate_fcmp+0xe0>
    49f4:	000a0593          	mv	a1,s4
    49f8:	00098513          	mv	a0,s3
    49fc:	375000ef          	jal	ra,5570 <f32_lt>
    4a00:	000067b7          	lui	a5,0x6
    4a04:	3007a7f3          	csrrs	a5,mstatus,a5
    4a08:	00445413          	srli	s0,s0,0x4
    4a0c:	0f847413          	andi	s0,s0,248
    4a10:	00848433          	add	s0,s1,s0
    4a14:	00a43023          	sd	a0,0(s0)
    4a18:	02813083          	ld	ra,40(sp)
    4a1c:	02013403          	ld	s0,32(sp)
    4a20:	01813483          	ld	s1,24(sp)
    4a24:	01013903          	ld	s2,16(sp)
    4a28:	00813983          	ld	s3,8(sp)
    4a2c:	00013a03          	ld	s4,0(sp)
    4a30:	03010113          	addi	sp,sp,48
    4a34:	00008067          	ret
    4a38:	00100893          	li	a7,1
    4a3c:	05181863          	bne	a6,a7,4a8c <emulate_fcmp+0xfc>
    4a40:	01175713          	srli	a4,a4,0x11
    4a44:	0f87f793          	andi	a5,a5,248
    4a48:	0f877713          	andi	a4,a4,248
    4a4c:	00f507b3          	add	a5,a0,a5
    4a50:	00e50733          	add	a4,a0,a4
    4a54:	1007b983          	ld	s3,256(a5) # 6100 <f64_lt_quiet+0xbc>
    4a58:	10073a03          	ld	s4,256(a4)
    4a5c:	05091863          	bne	s2,a6,4aac <emulate_fcmp+0x11c>
    4a60:	000a0593          	mv	a1,s4
    4a64:	00098513          	mv	a0,s3
    4a68:	550010ef          	jal	ra,5fb8 <f64_lt>
    4a6c:	f95ff06f          	j	4a00 <emulate_fcmp+0x70>
    4a70:	000a0593          	mv	a1,s4
    4a74:	00098513          	mv	a0,s3
    4a78:	22d000ef          	jal	ra,54a4 <f32_eq>
    4a7c:	f80912e3          	bnez	s2,4a00 <emulate_fcmp+0x70>
    4a80:	f6050ae3          	beqz	a0,49f4 <emulate_fcmp+0x64>
    4a84:	00100513          	li	a0,1
    4a88:	f79ff06f          	j	4a00 <emulate_fcmp+0x70>
    4a8c:	02013403          	ld	s0,32(sp)
    4a90:	02813083          	ld	ra,40(sp)
    4a94:	01813483          	ld	s1,24(sp)
    4a98:	01013903          	ld	s2,16(sp)
    4a9c:	00813983          	ld	s3,8(sp)
    4aa0:	00013a03          	ld	s4,0(sp)
    4aa4:	03010113          	addi	sp,sp,48
    4aa8:	8e4ff06f          	j	3b8c <truly_illegal_insn>
    4aac:	000a0593          	mv	a1,s4
    4ab0:	00098513          	mv	a0,s3
    4ab4:	450010ef          	jal	ra,5f04 <f64_eq>
    4ab8:	f40914e3          	bnez	s2,4a00 <emulate_fcmp+0x70>
    4abc:	fa0502e3          	beqz	a0,4a60 <emulate_fcmp+0xd0>
    4ac0:	00100513          	li	a0,1
    4ac4:	f3dff06f          	j	4a00 <emulate_fcmp+0x70>

0000000000004ac8 <emulate_fmv_if>:
    4ac8:	01475793          	srli	a5,a4,0x14
    4acc:	01f7f793          	andi	a5,a5,31
    4ad0:	0a079863          	bnez	a5,4b80 <emulate_fmv_if+0xb8>
    4ad4:	fe010113          	addi	sp,sp,-32
    4ad8:	01975793          	srli	a5,a4,0x19
    4adc:	00813823          	sd	s0,16(sp)
    4ae0:	00913423          	sd	s1,8(sp)
    4ae4:	00113c23          	sd	ra,24(sp)
    4ae8:	0037f793          	andi	a5,a5,3
    4aec:	00068313          	mv	t1,a3
    4af0:	00060893          	mv	a7,a2
    4af4:	00058813          	mv	a6,a1
    4af8:	00050493          	mv	s1,a0
    4afc:	00070413          	mv	s0,a4
    4b00:	08079263          	bnez	a5,4b84 <emulate_fmv_if+0xbc>
    4b04:	00c75793          	srli	a5,a4,0xc
    4b08:	0f87f713          	andi	a4,a5,248
    4b0c:	00e50733          	add	a4,a0,a4
    4b10:	0077f793          	andi	a5,a5,7
    4b14:	10072503          	lw	a0,256(a4)
    4b18:	00078c63          	beqz	a5,4b30 <emulate_fmv_if+0x68>
    4b1c:	00100713          	li	a4,1
    4b20:	02e79e63          	bne	a5,a4,4b5c <emulate_fmv_if+0x94>
    4b24:	010010ef          	jal	ra,5b34 <f32_classify>
    4b28:	02051513          	slli	a0,a0,0x20
    4b2c:	02055513          	srli	a0,a0,0x20
    4b30:	000067b7          	lui	a5,0x6
    4b34:	3007a7f3          	csrrs	a5,mstatus,a5
    4b38:	00445413          	srli	s0,s0,0x4
    4b3c:	0f847413          	andi	s0,s0,248
    4b40:	00848433          	add	s0,s1,s0
    4b44:	00a43023          	sd	a0,0(s0)
    4b48:	01813083          	ld	ra,24(sp)
    4b4c:	01013403          	ld	s0,16(sp)
    4b50:	00813483          	ld	s1,8(sp)
    4b54:	02010113          	addi	sp,sp,32
    4b58:	00008067          	ret
    4b5c:	00040713          	mv	a4,s0
    4b60:	00030693          	mv	a3,t1
    4b64:	00088613          	mv	a2,a7
    4b68:	00080593          	mv	a1,a6
    4b6c:	00048513          	mv	a0,s1
    4b70:	01013403          	ld	s0,16(sp)
    4b74:	01813083          	ld	ra,24(sp)
    4b78:	00813483          	ld	s1,8(sp)
    4b7c:	02010113          	addi	sp,sp,32
    4b80:	80cff06f          	j	3b8c <truly_illegal_insn>
    4b84:	00100e13          	li	t3,1
    4b88:	ffc794e3          	bne	a5,t3,4b70 <emulate_fmv_if+0xa8>
    4b8c:	00c75713          	srli	a4,a4,0xc
    4b90:	0f877693          	andi	a3,a4,248
    4b94:	00d506b3          	add	a3,a0,a3
    4b98:	00777713          	andi	a4,a4,7
    4b9c:	1006b503          	ld	a0,256(a3)
    4ba0:	f80708e3          	beqz	a4,4b30 <emulate_fmv_if+0x68>
    4ba4:	faf71ce3          	bne	a4,a5,4b5c <emulate_fmv_if+0x94>
    4ba8:	2e1010ef          	jal	ra,6688 <f64_classify>
    4bac:	02051513          	slli	a0,a0,0x20
    4bb0:	02055513          	srli	a0,a0,0x20
    4bb4:	f7dff06f          	j	4b30 <emulate_fmv_if+0x68>

0000000000004bb8 <emulate_fmv_fi>:
    4bb8:	00006317          	auipc	t1,0x6
    4bbc:	48830313          	addi	t1,t1,1160 # b040 <_fdata+0x40>
    4bc0:	00033303          	ld	t1,0(t1)
    4bc4:	00c75893          	srli	a7,a4,0xc
    4bc8:	00f00813          	li	a6,15
    4bcc:	0f88f893          	andi	a7,a7,248
    4bd0:	01c81813          	slli	a6,a6,0x1c
    4bd4:	011508b3          	add	a7,a0,a7
    4bd8:	00677333          	and	t1,a4,t1
    4bdc:	05380813          	addi	a6,a6,83 # 7053 <softfloat_mulAddF64+0x27>
    4be0:	0008b883          	ld	a7,0(a7) # e000 <finisher+0xf80>
    4be4:	03030a63          	beq	t1,a6,4c18 <emulate_fmv_fi+0x60>
    4be8:	07900813          	li	a6,121
    4bec:	01981813          	slli	a6,a6,0x19
    4bf0:	05380813          	addi	a6,a6,83
    4bf4:	01030463          	beq	t1,a6,4bfc <emulate_fmv_fi+0x44>
    4bf8:	f95fe06f          	j	3b8c <truly_illegal_insn>
    4bfc:	00475793          	srli	a5,a4,0x4
    4c00:	0f87f793          	andi	a5,a5,248
    4c04:	00f507b3          	add	a5,a0,a5
    4c08:	1117b023          	sd	a7,256(a5) # 6100 <f64_lt_quiet+0xbc>
    4c0c:	000067b7          	lui	a5,0x6
    4c10:	3007a7f3          	csrrs	a5,mstatus,a5
    4c14:	00008067          	ret
    4c18:	00475713          	srli	a4,a4,0x4
    4c1c:	0f877713          	andi	a4,a4,248
    4c20:	00e50733          	add	a4,a0,a4
    4c24:	11172023          	sw	a7,256(a4)
    4c28:	000067b7          	lui	a5,0x6
    4c2c:	3007a7f3          	csrrs	a5,mstatus,a5
    4c30:	00008067          	ret

0000000000004c34 <emulate_fmadd>:
    4c34:	000067b7          	lui	a5,0x6
    4c38:	00f6f7b3          	and	a5,a3,a5
    4c3c:	18078c63          	beqz	a5,4dd4 <emulate_fmadd+0x1a0>
    4c40:	00007337          	lui	t1,0x7
    4c44:	00375813          	srli	a6,a4,0x3
    4c48:	00275793          	srli	a5,a4,0x2
    4c4c:	00677e33          	and	t3,a4,t1
    4c50:	00187893          	andi	a7,a6,1
    4c54:	0017f813          	andi	a6,a5,1
    4c58:	0ff27793          	andi	a5,tp,255
    4c5c:	146e1a63          	bne	t3,t1,4db0 <emulate_fmadd+0x17c>
    4c60:	0087931b          	slliw	t1,a5,0x8
    4c64:	0067e233          	or	tp,a5,t1
    4c68:	fe010113          	addi	sp,sp,-32
    4c6c:	00813823          	sd	s0,16(sp)
    4c70:	00913423          	sd	s1,8(sp)
    4c74:	00113c23          	sd	ra,24(sp)
    4c78:	00070413          	mv	s0,a4
    4c7c:	00050493          	mv	s1,a0
    4c80:	01975793          	srli	a5,a4,0x19
    4c84:	0037f793          	andi	a5,a5,3
    4c88:	08079263          	bnez	a5,4d0c <emulate_fmadd+0xd8>
    4c8c:	00c75793          	srli	a5,a4,0xc
    4c90:	0f87f793          	andi	a5,a5,248
    4c94:	00f507b3          	add	a5,a0,a5
    4c98:	1007a503          	lw	a0,256(a5) # 6100 <f64_lt_quiet+0xbc>
    4c9c:	00088663          	beqz	a7,4ca8 <emulate_fmadd+0x74>
    4ca0:	800007b7          	lui	a5,0x80000
    4ca4:	00f54533          	xor	a0,a0,a5
    4ca8:	01145713          	srli	a4,s0,0x11
    4cac:	01845793          	srli	a5,s0,0x18
    4cb0:	0f877713          	andi	a4,a4,248
    4cb4:	0f87f793          	andi	a5,a5,248
    4cb8:	00e48733          	add	a4,s1,a4
    4cbc:	00f487b3          	add	a5,s1,a5
    4cc0:	0005051b          	sext.w	a0,a0
    4cc4:	10072583          	lw	a1,256(a4)
    4cc8:	1007a603          	lw	a2,256(a5) # ffffffff80000100 <_end+0xffffffff7fdffa60>
    4ccc:	00080663          	beqz	a6,4cd8 <emulate_fmadd+0xa4>
    4cd0:	800007b7          	lui	a5,0x80000
    4cd4:	00f64633          	xor	a2,a2,a5
    4cd8:	00445413          	srli	s0,s0,0x4
    4cdc:	00000693          	li	a3,0
    4ce0:	0f847413          	andi	s0,s0,248
    4ce4:	000020ef          	jal	ra,6ce4 <softfloat_mulAddF32>
    4ce8:	00848433          	add	s0,s1,s0
    4cec:	10a42023          	sw	a0,256(s0)
    4cf0:	000067b7          	lui	a5,0x6
    4cf4:	3007a7f3          	csrrs	a5,mstatus,a5
    4cf8:	01813083          	ld	ra,24(sp)
    4cfc:	01013403          	ld	s0,16(sp)
    4d00:	00813483          	ld	s1,8(sp)
    4d04:	02010113          	addi	sp,sp,32
    4d08:	00008067          	ret
    4d0c:	00100313          	li	t1,1
    4d10:	06679e63          	bne	a5,t1,4d8c <emulate_fmadd+0x158>
    4d14:	00c75793          	srli	a5,a4,0xc
    4d18:	0f87f793          	andi	a5,a5,248
    4d1c:	00f507b3          	add	a5,a0,a5
    4d20:	1007b503          	ld	a0,256(a5) # 6100 <f64_lt_quiet+0xbc>
    4d24:	00088863          	beqz	a7,4d34 <emulate_fmadd+0x100>
    4d28:	fff00793          	li	a5,-1
    4d2c:	03f79793          	slli	a5,a5,0x3f
    4d30:	00f54533          	xor	a0,a0,a5
    4d34:	01145713          	srli	a4,s0,0x11
    4d38:	01845793          	srli	a5,s0,0x18
    4d3c:	0f877713          	andi	a4,a4,248
    4d40:	0f87f793          	andi	a5,a5,248
    4d44:	00e48733          	add	a4,s1,a4
    4d48:	00f487b3          	add	a5,s1,a5
    4d4c:	10073583          	ld	a1,256(a4)
    4d50:	1007b603          	ld	a2,256(a5)
    4d54:	04081663          	bnez	a6,4da0 <emulate_fmadd+0x16c>
    4d58:	00445413          	srli	s0,s0,0x4
    4d5c:	00000693          	li	a3,0
    4d60:	0f847413          	andi	s0,s0,248
    4d64:	2c8020ef          	jal	ra,702c <softfloat_mulAddF64>
    4d68:	00848433          	add	s0,s1,s0
    4d6c:	10a43023          	sd	a0,256(s0)
    4d70:	000067b7          	lui	a5,0x6
    4d74:	3007a7f3          	csrrs	a5,mstatus,a5
    4d78:	01813083          	ld	ra,24(sp)
    4d7c:	01013403          	ld	s0,16(sp)
    4d80:	00813483          	ld	s1,8(sp)
    4d84:	02010113          	addi	sp,sp,32
    4d88:	00008067          	ret
    4d8c:	01013403          	ld	s0,16(sp)
    4d90:	01813083          	ld	ra,24(sp)
    4d94:	00813483          	ld	s1,8(sp)
    4d98:	02010113          	addi	sp,sp,32
    4d9c:	df1fe06f          	j	3b8c <truly_illegal_insn>
    4da0:	fff00793          	li	a5,-1
    4da4:	03f79793          	slli	a5,a5,0x3f
    4da8:	00f64633          	xor	a2,a2,a5
    4dac:	fadff06f          	j	4d58 <emulate_fmadd+0x124>
    4db0:	00c75313          	srli	t1,a4,0xc
    4db4:	00737e93          	andi	t4,t1,7
    4db8:	00400e13          	li	t3,4
    4dbc:	01de6c63          	bltu	t3,t4,4dd4 <emulate_fmadd+0x1a0>
    4dc0:	00d3131b          	slliw	t1,t1,0xd
    4dc4:	0000ee37          	lui	t3,0xe
    4dc8:	01c37333          	and	t1,t1,t3
    4dcc:	00f36233          	or	tp,t1,a5
    4dd0:	e99ff06f          	j	4c68 <emulate_fmadd+0x34>
    4dd4:	db9fe06f          	j	3b8c <truly_illegal_insn>

0000000000004dd8 <emulate_float_load>:
    4dd8:	00c75813          	srli	a6,a4,0xc
    4ddc:	0f887813          	andi	a6,a6,248
    4de0:	01050833          	add	a6,a0,a6
    4de4:	00083e03          	ld	t3,0(a6)
    4de8:	00006337          	lui	t1,0x6
    4dec:	4147581b          	sraiw	a6,a4,0x14
    4df0:	0066f333          	and	t1,a3,t1
    4df4:	00070793          	mv	a5,a4
    4df8:	01c80833          	add	a6,a6,t3
    4dfc:	04030863          	beqz	t1,4e4c <emulate_float_load+0x74>
    4e00:	00007337          	lui	t1,0x7
    4e04:	00677333          	and	t1,a4,t1
    4e08:	00002e37          	lui	t3,0x2
    4e0c:	05c30463          	beq	t1,t3,4e54 <emulate_float_load+0x7c>
    4e10:	00003e37          	lui	t3,0x3
    4e14:	03c31e63          	bne	t1,t3,4e50 <emulate_float_load+0x78>
    4e18:	00787713          	andi	a4,a6,7
    4e1c:	06071663          	bnez	a4,4e88 <emulate_float_load+0xb0>
    4e20:	0047d793          	srli	a5,a5,0x4
    4e24:	0f87f793          	andi	a5,a5,248
    4e28:	00f507b3          	add	a5,a0,a5
    4e2c:	00020737          	lui	a4,0x20
    4e30:	300726f3          	csrrs	a3,mstatus,a4
    4e34:	00083583          	ld	a1,0(a6)
    4e38:	30069073          	csrw	mstatus,a3
    4e3c:	10b7b023          	sd	a1,256(a5) # 6100 <f64_lt_quiet+0xbc>
    4e40:	000067b7          	lui	a5,0x6
    4e44:	3007a7f3          	csrrs	a5,mstatus,a5
    4e48:	00008067          	ret
    4e4c:	0000006f          	j	4e4c <emulate_float_load+0x74>
    4e50:	d3dfe06f          	j	3b8c <truly_illegal_insn>
    4e54:	00387713          	andi	a4,a6,3
    4e58:	02071863          	bnez	a4,4e88 <emulate_float_load+0xb0>
    4e5c:	0047d793          	srli	a5,a5,0x4
    4e60:	0f87f793          	andi	a5,a5,248
    4e64:	00f507b3          	add	a5,a0,a5
    4e68:	00020737          	lui	a4,0x20
    4e6c:	300726f3          	csrrs	a3,mstatus,a4
    4e70:	00082583          	lw	a1,0(a6)
    4e74:	30069073          	csrw	mstatus,a3
    4e78:	10b7a023          	sw	a1,256(a5) # 6100 <f64_lt_quiet+0xbc>
    4e7c:	000067b7          	lui	a5,0x6
    4e80:	3007a7f3          	csrrs	a5,mstatus,a5
    4e84:	00008067          	ret
    4e88:	34381073          	csrw	mbadaddr,a6
    4e8c:	0bc0006f          	j	4f48 <misaligned_load_trap>

0000000000004e90 <emulate_float_store>:
    4e90:	00c75893          	srli	a7,a4,0xc
    4e94:	0f88f893          	andi	a7,a7,248
    4e98:	011508b3          	add	a7,a0,a7
    4e9c:	4197531b          	sraiw	t1,a4,0x19
    4ea0:	00775793          	srli	a5,a4,0x7
    4ea4:	0008be83          	ld	t4,0(a7)
    4ea8:	0053131b          	slliw	t1,t1,0x5
    4eac:	01f7f793          	andi	a5,a5,31
    4eb0:	0067e7b3          	or	a5,a5,t1
    4eb4:	000068b7          	lui	a7,0x6
    4eb8:	0007879b          	sext.w	a5,a5
    4ebc:	0116f8b3          	and	a7,a3,a7
    4ec0:	00070813          	mv	a6,a4
    4ec4:	01d787b3          	add	a5,a5,t4
    4ec8:	04088463          	beqz	a7,4f10 <emulate_float_store+0x80>
    4ecc:	000078b7          	lui	a7,0x7
    4ed0:	011778b3          	and	a7,a4,a7
    4ed4:	00002337          	lui	t1,0x2
    4ed8:	02688e63          	beq	a7,t1,4f14 <emulate_float_store+0x84>
    4edc:	00003337          	lui	t1,0x3
    4ee0:	02689863          	bne	a7,t1,4f10 <emulate_float_store+0x80>
    4ee4:	0077f713          	andi	a4,a5,7
    4ee8:	04071c63          	bnez	a4,4f40 <emulate_float_store+0xb0>
    4eec:	01185813          	srli	a6,a6,0x11
    4ef0:	0f887813          	andi	a6,a6,248
    4ef4:	01050833          	add	a6,a0,a6
    4ef8:	10083703          	ld	a4,256(a6)
    4efc:	000205b7          	lui	a1,0x20
    4f00:	3005a6f3          	csrrs	a3,mstatus,a1
    4f04:	00e7b023          	sd	a4,0(a5) # 6000 <f64_lt+0x48>
    4f08:	30069073          	csrw	mstatus,a3
    4f0c:	00008067          	ret
    4f10:	c7dfe06f          	j	3b8c <truly_illegal_insn>
    4f14:	0037f713          	andi	a4,a5,3
    4f18:	02071463          	bnez	a4,4f40 <emulate_float_store+0xb0>
    4f1c:	01185813          	srli	a6,a6,0x11
    4f20:	0f887813          	andi	a6,a6,248
    4f24:	01050833          	add	a6,a0,a6
    4f28:	10082703          	lw	a4,256(a6)
    4f2c:	000205b7          	lui	a1,0x20
    4f30:	3005a6f3          	csrrs	a3,mstatus,a1
    4f34:	00e7a023          	sw	a4,0(a5)
    4f38:	30069073          	csrw	mstatus,a3
    4f3c:	00008067          	ret
    4f40:	34379073          	csrw	mbadaddr,a5
    4f44:	1f80006f          	j	513c <misaligned_store_trap>

0000000000004f48 <misaligned_load_trap>:
    4f48:	fe010113          	addi	sp,sp,-32
    4f4c:	000a07b7          	lui	a5,0xa0
    4f50:	00813c23          	sd	s0,24(sp)
    4f54:	3007a6f3          	csrrs	a3,mstatus,a5
    4f58:	00066703          	lwu	a4,0(a2) # ffffffff80000000 <_end+0xffffffff7fdff960>
    4f5c:	30069073          	csrw	mstatus,a3
    4f60:	00300813          	li	a6,3
    4f64:	00377893          	andi	a7,a4,3
    4f68:	00060313          	mv	t1,a2
    4f6c:	00068e93          	mv	t4,a3
    4f70:	00200793          	li	a5,2
    4f74:	01089463          	bne	a7,a6,4f7c <misaligned_load_trap+0x34>
    4f78:	00400793          	li	a5,4
    4f7c:	00f30f33          	add	t5,t1,a5
    4f80:	34302e73          	csrr	t3,mbadaddr
    4f84:	000077b7          	lui	a5,0x7
    4f88:	00002637          	lui	a2,0x2
    4f8c:	07f78793          	addi	a5,a5,127 # 707f <softfloat_mulAddF64+0x53>
    4f90:	00f777b3          	and	a5,a4,a5
    4f94:	00360813          	addi	a6,a2,3 # 2003 <clint_prop+0xe3>
    4f98:	0f078e63          	beq	a5,a6,5094 <misaligned_load_trap+0x14c>
    4f9c:	00003837          	lui	a6,0x3
    4fa0:	00380893          	addi	a7,a6,3 # 3003 <hls_init+0x3f>
    4fa4:	05178863          	beq	a5,a7,4ff4 <misaligned_load_trap+0xac>
    4fa8:	000068b7          	lui	a7,0x6
    4fac:	00388893          	addi	a7,a7,3 # 6003 <f64_lt+0x4b>
    4fb0:	13178863          	beq	a5,a7,50e0 <misaligned_load_trap+0x198>
    4fb4:	00780813          	addi	a6,a6,7
    4fb8:	0f078a63          	beq	a5,a6,50ac <misaligned_load_trap+0x164>
    4fbc:	00760613          	addi	a2,a2,7
    4fc0:	12c78c63          	beq	a5,a2,50f8 <misaligned_load_trap+0x1b0>
    4fc4:	00001637          	lui	a2,0x1
    4fc8:	00360613          	addi	a2,a2,3 # 1003 <hart_prop+0x53>
    4fcc:	14c78c63          	beq	a5,a2,5124 <misaligned_load_trap+0x1dc>
    4fd0:	00005637          	lui	a2,0x5
    4fd4:	00360613          	addi	a2,a2,3 # 5003 <misaligned_load_trap+0xbb>
    4fd8:	12c79c63          	bne	a5,a2,5110 <misaligned_load_trap+0x1c8>
    4fdc:	00013423          	sd	zero,8(sp)
    4fe0:	00200e93          	li	t4,2
    4fe4:	00200393          	li	t2,2
    4fe8:	00000293          	li	t0,0
    4fec:	00000f93          	li	t6,0
    4ff0:	0180006f          	j	5008 <misaligned_load_trap+0xc0>
    4ff4:	00013423          	sd	zero,8(sp)
    4ff8:	00800e93          	li	t4,8
    4ffc:	00800393          	li	t2,8
    5000:	00000293          	li	t0,0
    5004:	00000f93          	li	t6,0
    5008:	00810593          	addi	a1,sp,8
    500c:	00000793          	li	a5,0
    5010:	000208b7          	lui	a7,0x20
    5014:	01c78833          	add	a6,a5,t3
    5018:	00030613          	mv	a2,t1
    501c:	00178793          	addi	a5,a5,1
    5020:	3008a6f3          	csrrs	a3,mstatus,a7
    5024:	00084403          	lbu	s0,0(a6)
    5028:	30069073          	csrw	mstatus,a3
    502c:	00858023          	sb	s0,0(a1) # 20000 <finisher+0x12f80>
    5030:	00158593          	addi	a1,a1,1
    5034:	ffd7c0e3          	blt	a5,t4,5014 <misaligned_load_trap+0xcc>
    5038:	00475713          	srli	a4,a4,0x4
    503c:	00813783          	ld	a5,8(sp)
    5040:	0f877713          	andi	a4,a4,248
    5044:	02028863          	beqz	t0,5074 <misaligned_load_trap+0x12c>
    5048:	10070713          	addi	a4,a4,256 # 20100 <finisher+0x13080>
    504c:	00800693          	li	a3,8
    5050:	00e50733          	add	a4,a0,a4
    5054:	06d38863          	beq	t2,a3,50c4 <misaligned_load_trap+0x17c>
    5058:	00f72023          	sw	a5,0(a4)
    505c:	000067b7          	lui	a5,0x6
    5060:	3007a7f3          	csrrs	a5,mstatus,a5
    5064:	341f1073          	csrw	mepc,t5
    5068:	01813403          	ld	s0,24(sp)
    506c:	02010113          	addi	sp,sp,32
    5070:	00008067          	ret
    5074:	01f797b3          	sll	a5,a5,t6
    5078:	00e50733          	add	a4,a0,a4
    507c:	41f7d7b3          	sra	a5,a5,t6
    5080:	00f73023          	sd	a5,0(a4)
    5084:	341f1073          	csrw	mepc,t5
    5088:	01813403          	ld	s0,24(sp)
    508c:	02010113          	addi	sp,sp,32
    5090:	00008067          	ret
    5094:	00013423          	sd	zero,8(sp)
    5098:	00400e93          	li	t4,4
    509c:	00400393          	li	t2,4
    50a0:	00000293          	li	t0,0
    50a4:	02000f93          	li	t6,32
    50a8:	f61ff06f          	j	5008 <misaligned_load_trap+0xc0>
    50ac:	00013423          	sd	zero,8(sp)
    50b0:	00800e93          	li	t4,8
    50b4:	00800393          	li	t2,8
    50b8:	00100293          	li	t0,1
    50bc:	00000f93          	li	t6,0
    50c0:	f49ff06f          	j	5008 <misaligned_load_trap+0xc0>
    50c4:	00f73023          	sd	a5,0(a4)
    50c8:	000067b7          	lui	a5,0x6
    50cc:	3007a7f3          	csrrs	a5,mstatus,a5
    50d0:	341f1073          	csrw	mepc,t5
    50d4:	01813403          	ld	s0,24(sp)
    50d8:	02010113          	addi	sp,sp,32
    50dc:	00008067          	ret
    50e0:	00013423          	sd	zero,8(sp)
    50e4:	00400e93          	li	t4,4
    50e8:	00400393          	li	t2,4
    50ec:	00000293          	li	t0,0
    50f0:	00000f93          	li	t6,0
    50f4:	f15ff06f          	j	5008 <misaligned_load_trap+0xc0>
    50f8:	00013423          	sd	zero,8(sp)
    50fc:	00400e93          	li	t4,4
    5100:	00400393          	li	t2,4
    5104:	00100293          	li	t0,1
    5108:	00000f93          	li	t6,0
    510c:	efdff06f          	j	5008 <misaligned_load_trap+0xc0>
    5110:	01813403          	ld	s0,24(sp)
    5114:	000e8693          	mv	a3,t4
    5118:	00030613          	mv	a2,t1
    511c:	02010113          	addi	sp,sp,32
    5120:	a6dfe06f          	j	3b8c <truly_illegal_insn>
    5124:	00013423          	sd	zero,8(sp)
    5128:	00200e93          	li	t4,2
    512c:	00200393          	li	t2,2
    5130:	00000293          	li	t0,0
    5134:	03000f93          	li	t6,48
    5138:	ed1ff06f          	j	5008 <misaligned_load_trap+0xc0>

000000000000513c <misaligned_store_trap>:
    513c:	000a07b7          	lui	a5,0xa0
    5140:	00300813          	li	a6,3
    5144:	3007a6f3          	csrrs	a3,mstatus,a5
    5148:	00066703          	lwu	a4,0(a2)
    514c:	30069073          	csrw	mstatus,a3
    5150:	00377793          	andi	a5,a4,3
    5154:	ff010113          	addi	sp,sp,-16
    5158:	00060893          	mv	a7,a2
    515c:	00068f13          	mv	t5,a3
    5160:	00200313          	li	t1,2
    5164:	01079463          	bne	a5,a6,516c <misaligned_store_trap+0x30>
    5168:	00400313          	li	t1,4
    516c:	01175793          	srli	a5,a4,0x11
    5170:	0f87f793          	andi	a5,a5,248
    5174:	00f507b3          	add	a5,a0,a5
    5178:	0007b603          	ld	a2,0(a5) # a0000 <finisher+0x92f80>
    517c:	00002837          	lui	a6,0x2
    5180:	02380e93          	addi	t4,a6,35 # 2023 <clint_prop+0x103>
    5184:	00c13423          	sd	a2,8(sp)
    5188:	00007637          	lui	a2,0x7
    518c:	07f60613          	addi	a2,a2,127 # 707f <softfloat_mulAddF64+0x53>
    5190:	00c77633          	and	a2,a4,a2
    5194:	00688e33          	add	t3,a7,t1
    5198:	09d60c63          	beq	a2,t4,5230 <misaligned_store_trap+0xf4>
    519c:	00003337          	lui	t1,0x3
    51a0:	02330e93          	addi	t4,t1,35 # 3023 <init_first_hart+0x1b>
    51a4:	03d60a63          	beq	a2,t4,51d8 <misaligned_store_trap+0x9c>
    51a8:	02730313          	addi	t1,t1,39
    51ac:	08660e63          	beq	a2,t1,5248 <misaligned_store_trap+0x10c>
    51b0:	02780813          	addi	a6,a6,39
    51b4:	09060263          	beq	a2,a6,5238 <misaligned_store_trap+0xfc>
    51b8:	00001837          	lui	a6,0x1
    51bc:	02380813          	addi	a6,a6,35 # 1023 <hart_prop+0x73>
    51c0:	00200793          	li	a5,2
    51c4:	01060c63          	beq	a2,a6,51dc <misaligned_store_trap+0xa0>
    51c8:	000f0693          	mv	a3,t5
    51cc:	00088613          	mv	a2,a7
    51d0:	01010113          	addi	sp,sp,16
    51d4:	9b9fe06f          	j	3b8c <truly_illegal_insn>
    51d8:	00800793          	li	a5,8
    51dc:	343025f3          	csrr	a1,mbadaddr
    51e0:	fff7851b          	addiw	a0,a5,-1
    51e4:	02051513          	slli	a0,a0,0x20
    51e8:	02055513          	srli	a0,a0,0x20
    51ec:	00158793          	addi	a5,a1,1
    51f0:	00810713          	addi	a4,sp,8
    51f4:	00f50533          	add	a0,a0,a5
    51f8:	00020337          	lui	t1,0x20
    51fc:	0080006f          	j	5204 <misaligned_store_trap+0xc8>
    5200:	00178793          	addi	a5,a5,1
    5204:	00074803          	lbu	a6,0(a4)
    5208:	00088613          	mv	a2,a7
    520c:	300326f3          	csrrs	a3,mstatus,t1
    5210:	01058023          	sb	a6,0(a1)
    5214:	30069073          	csrw	mstatus,a3
    5218:	00078593          	mv	a1,a5
    521c:	00170713          	addi	a4,a4,1
    5220:	fea790e3          	bne	a5,a0,5200 <misaligned_store_trap+0xc4>
    5224:	341e1073          	csrw	mepc,t3
    5228:	01010113          	addi	sp,sp,16
    522c:	00008067          	ret
    5230:	00400793          	li	a5,4
    5234:	fa9ff06f          	j	51dc <misaligned_store_trap+0xa0>
    5238:	1007a703          	lw	a4,256(a5)
    523c:	00400793          	li	a5,4
    5240:	00e13423          	sd	a4,8(sp)
    5244:	f99ff06f          	j	51dc <misaligned_store_trap+0xa0>
    5248:	1007b703          	ld	a4,256(a5)
    524c:	00800793          	li	a5,8
    5250:	00e13423          	sd	a4,8(sp)
    5254:	f89ff06f          	j	51dc <misaligned_store_trap+0xa0>

0000000000005258 <f32_add>:
    5258:	00b547b3          	xor	a5,a0,a1
    525c:	02079713          	slli	a4,a5,0x20
    5260:	0005051b          	sext.w	a0,a0
    5264:	0005859b          	sext.w	a1,a1
    5268:	00001317          	auipc	t1,0x1
    526c:	54830313          	addi	t1,t1,1352 # 67b0 <softfloat_addMagsF32>
    5270:	00074463          	bltz	a4,5278 <f32_add+0x20>
    5274:	00030067          	jr	t1
    5278:	00003317          	auipc	t1,0x3
    527c:	b3030313          	addi	t1,t1,-1232 # 7da8 <softfloat_subMagsF32>
    5280:	00030067          	jr	t1

0000000000005284 <f32_div>:
    5284:	fd010113          	addi	sp,sp,-48
    5288:	008007b7          	lui	a5,0x800
    528c:	01f5d61b          	srliw	a2,a1,0x1f
    5290:	fff78793          	addi	a5,a5,-1 # 7fffff <_end+0x5ff95f>
    5294:	01f5569b          	srliw	a3,a0,0x1f
    5298:	00913c23          	sd	s1,24(sp)
    529c:	0175549b          	srliw	s1,a0,0x17
    52a0:	00a7f733          	and	a4,a5,a0
    52a4:	00c6c6b3          	xor	a3,a3,a2
    52a8:	00b7f7b3          	and	a5,a5,a1
    52ac:	02813023          	sd	s0,32(sp)
    52b0:	01213823          	sd	s2,16(sp)
    52b4:	01313423          	sd	s3,8(sp)
    52b8:	0175d91b          	srliw	s2,a1,0x17
    52bc:	01413023          	sd	s4,0(sp)
    52c0:	02113423          	sd	ra,40(sp)
    52c4:	0ff4f493          	andi	s1,s1,255
    52c8:	0ff00613          	li	a2,255
    52cc:	0005051b          	sext.w	a0,a0
    52d0:	0007041b          	sext.w	s0,a4
    52d4:	0005859b          	sext.w	a1,a1
    52d8:	0ff97913          	andi	s2,s2,255
    52dc:	00078a1b          	sext.w	s4,a5
    52e0:	0ff6f993          	andi	s3,a3,255
    52e4:	08c48463          	beq	s1,a2,536c <f32_div+0xe8>
    52e8:	00c90e63          	beq	s2,a2,5304 <f32_div+0x80>
    52ec:	04091a63          	bnez	s2,5340 <f32_div+0xbc>
    52f0:	040a1063          	bnez	s4,5330 <f32_div+0xac>
    52f4:	0084e733          	or	a4,s1,s0
    52f8:	12070c63          	beqz	a4,5430 <f32_div+0x1ac>
    52fc:	00826213          	ori	tp,tp,8
    5300:	0740006f          	j	5374 <f32_div+0xf0>
    5304:	040a0263          	beqz	s4,5348 <f32_div+0xc4>
    5308:	6ed020ef          	jal	ra,81f4 <softfloat_propagateNaNF32UI>
    530c:	02813083          	ld	ra,40(sp)
    5310:	02013403          	ld	s0,32(sp)
    5314:	01813483          	ld	s1,24(sp)
    5318:	01013903          	ld	s2,16(sp)
    531c:	00813983          	ld	s3,8(sp)
    5320:	00013a03          	ld	s4,0(sp)
    5324:	0005051b          	sext.w	a0,a0
    5328:	03010113          	addi	sp,sp,48
    532c:	00008067          	ret
    5330:	000a0513          	mv	a0,s4
    5334:	214020ef          	jal	ra,7548 <softfloat_normSubnormalF32Sig>
    5338:	0005091b          	sext.w	s2,a0
    533c:	42055a13          	srai	s4,a0,0x20
    5340:	06049863          	bnez	s1,53b0 <f32_div+0x12c>
    5344:	04041e63          	bnez	s0,53a0 <f32_div+0x11c>
    5348:	02813083          	ld	ra,40(sp)
    534c:	02013403          	ld	s0,32(sp)
    5350:	01f9951b          	slliw	a0,s3,0x1f
    5354:	01813483          	ld	s1,24(sp)
    5358:	01013903          	ld	s2,16(sp)
    535c:	00813983          	ld	s3,8(sp)
    5360:	00013a03          	ld	s4,0(sp)
    5364:	03010113          	addi	sp,sp,48
    5368:	00008067          	ret
    536c:	f8041ee3          	bnez	s0,5308 <f32_div+0x84>
    5370:	0a990e63          	beq	s2,s1,542c <f32_div+0x1a8>
    5374:	02813083          	ld	ra,40(sp)
    5378:	02013403          	ld	s0,32(sp)
    537c:	01f9951b          	slliw	a0,s3,0x1f
    5380:	7f8006b7          	lui	a3,0x7f800
    5384:	01813483          	ld	s1,24(sp)
    5388:	01013903          	ld	s2,16(sp)
    538c:	00813983          	ld	s3,8(sp)
    5390:	00013a03          	ld	s4,0(sp)
    5394:	00d5053b          	addw	a0,a0,a3
    5398:	03010113          	addi	sp,sp,48
    539c:	00008067          	ret
    53a0:	00040513          	mv	a0,s0
    53a4:	1a4020ef          	jal	ra,7548 <softfloat_normSubnormalF32Sig>
    53a8:	0005049b          	sext.w	s1,a0
    53ac:	42055413          	srai	s0,a0,0x20
    53b0:	008006b7          	lui	a3,0x800
    53b4:	00d46733          	or	a4,s0,a3
    53b8:	00da67b3          	or	a5,s4,a3
    53bc:	4124893b          	subw	s2,s1,s2
    53c0:	08f77c63          	bleu	a5,a4,5458 <f32_div+0x1d4>
    53c4:	0087149b          	slliw	s1,a4,0x8
    53c8:	07d9091b          	addiw	s2,s2,125
    53cc:	0087941b          	slliw	s0,a5,0x8
    53d0:	0004051b          	sext.w	a0,s0
    53d4:	72c010ef          	jal	ra,6b00 <softfloat_approxRecip32_1>
    53d8:	02049493          	slli	s1,s1,0x20
    53dc:	02051793          	slli	a5,a0,0x20
    53e0:	0204d493          	srli	s1,s1,0x20
    53e4:	0207d793          	srli	a5,a5,0x20
    53e8:	029787b3          	mul	a5,a5,s1
    53ec:	00100713          	li	a4,1
    53f0:	4207d793          	srai	a5,a5,0x20
    53f4:	0027879b          	addiw	a5,a5,2
    53f8:	03f7f693          	andi	a3,a5,63
    53fc:	0007861b          	sext.w	a2,a5
    5400:	06d77263          	bleu	a3,a4,5464 <f32_div+0x1e0>
    5404:	02013403          	ld	s0,32(sp)
    5408:	02813083          	ld	ra,40(sp)
    540c:	01813483          	ld	s1,24(sp)
    5410:	00013a03          	ld	s4,0(sp)
    5414:	00090593          	mv	a1,s2
    5418:	00098513          	mv	a0,s3
    541c:	01013903          	ld	s2,16(sp)
    5420:	00813983          	ld	s3,8(sp)
    5424:	03010113          	addi	sp,sp,48
    5428:	25c0206f          	j	7684 <softfloat_roundPackToF32>
    542c:	ec0a1ee3          	bnez	s4,5308 <f32_div+0x84>
    5430:	01026213          	ori	tp,tp,16
    5434:	02813083          	ld	ra,40(sp)
    5438:	02013403          	ld	s0,32(sp)
    543c:	01813483          	ld	s1,24(sp)
    5440:	01013903          	ld	s2,16(sp)
    5444:	00813983          	ld	s3,8(sp)
    5448:	00013a03          	ld	s4,0(sp)
    544c:	7fc00537          	lui	a0,0x7fc00
    5450:	03010113          	addi	sp,sp,48
    5454:	00008067          	ret
    5458:	0077149b          	slliw	s1,a4,0x7
    545c:	07e9091b          	addiw	s2,s2,126
    5460:	f6dff06f          	j	53cc <f32_div+0x148>
    5464:	ffc7f793          	andi	a5,a5,-4
    5468:	0007861b          	sext.w	a2,a5
    546c:	0016179b          	slliw	a5,a2,0x1
    5470:	02079713          	slli	a4,a5,0x20
    5474:	02041793          	slli	a5,s0,0x20
    5478:	02075713          	srli	a4,a4,0x20
    547c:	0207d793          	srli	a5,a5,0x20
    5480:	02f707b3          	mul	a5,a4,a5
    5484:	02049493          	slli	s1,s1,0x20
    5488:	40f487b3          	sub	a5,s1,a5
    548c:	0007c863          	bltz	a5,549c <f32_div+0x218>
    5490:	f6078ae3          	beqz	a5,5404 <f32_div+0x180>
    5494:	00166613          	ori	a2,a2,1
    5498:	f6dff06f          	j	5404 <f32_div+0x180>
    549c:	ffc6061b          	addiw	a2,a2,-4
    54a0:	f65ff06f          	j	5404 <f32_div+0x180>

00000000000054a4 <f32_eq>:
    54a4:	00050793          	mv	a5,a0
    54a8:	7f8006b7          	lui	a3,0x7f800
    54ac:	fff7c713          	not	a4,a5
    54b0:	00d77733          	and	a4,a4,a3
    54b4:	0005061b          	sext.w	a2,a0
    54b8:	0005869b          	sext.w	a3,a1
    54bc:	04071063          	bnez	a4,54fc <f32_eq+0x58>
    54c0:	00800737          	lui	a4,0x800
    54c4:	fff70713          	addi	a4,a4,-1 # 7fffff <_end+0x5ff95f>
    54c8:	00f77733          	and	a4,a4,a5
    54cc:	0007071b          	sext.w	a4,a4
    54d0:	02070663          	beqz	a4,54fc <f32_eq+0x58>
    54d4:	7fc00737          	lui	a4,0x7fc00
    54d8:	00e7f733          	and	a4,a5,a4
    54dc:	7f8006b7          	lui	a3,0x7f800
    54e0:	06d70c63          	beq	a4,a3,5558 <f32_eq+0xb4>
    54e4:	7fc007b7          	lui	a5,0x7fc00
    54e8:	00f5f7b3          	and	a5,a1,a5
    54ec:	7f800737          	lui	a4,0x7f800
    54f0:	00000513          	li	a0,0
    54f4:	04e78263          	beq	a5,a4,5538 <f32_eq+0x94>
    54f8:	00008067          	ret
    54fc:	fff5c713          	not	a4,a1
    5500:	7f800537          	lui	a0,0x7f800
    5504:	00a77733          	and	a4,a4,a0
    5508:	00071c63          	bnez	a4,5520 <f32_eq+0x7c>
    550c:	00800737          	lui	a4,0x800
    5510:	fff70713          	addi	a4,a4,-1 # 7fffff <_end+0x5ff95f>
    5514:	00b77733          	and	a4,a4,a1
    5518:	0007071b          	sext.w	a4,a4
    551c:	fa071ce3          	bnez	a4,54d4 <f32_eq+0x30>
    5520:	00100513          	li	a0,1
    5524:	fcd60ae3          	beq	a2,a3,54f8 <f32_eq+0x54>
    5528:	00b7e533          	or	a0,a5,a1
    552c:	0015151b          	slliw	a0,a0,0x1
    5530:	00153513          	seqz	a0,a0
    5534:	00008067          	ret
    5538:	004007b7          	lui	a5,0x400
    553c:	fff78793          	addi	a5,a5,-1 # 3fffff <_end+0x1ff95f>
    5540:	00b7f5b3          	and	a1,a5,a1
    5544:	0005859b          	sext.w	a1,a1
    5548:	fa0588e3          	beqz	a1,54f8 <f32_eq+0x54>
    554c:	01026213          	ori	tp,tp,16
    5550:	00000513          	li	a0,0
    5554:	00008067          	ret
    5558:	00400537          	lui	a0,0x400
    555c:	fff50513          	addi	a0,a0,-1 # 3fffff <_end+0x1ff95f>
    5560:	00f577b3          	and	a5,a0,a5
    5564:	0007879b          	sext.w	a5,a5
    5568:	f6078ee3          	beqz	a5,54e4 <f32_eq+0x40>
    556c:	fe1ff06f          	j	554c <f32_eq+0xa8>

0000000000005570 <f32_lt>:
    5570:	00050793          	mv	a5,a0
    5574:	fff7c713          	not	a4,a5
    5578:	7f8006b7          	lui	a3,0x7f800
    557c:	00d77733          	and	a4,a4,a3
    5580:	0005061b          	sext.w	a2,a0
    5584:	0005881b          	sext.w	a6,a1
    5588:	00071c63          	bnez	a4,55a0 <f32_lt+0x30>
    558c:	00800737          	lui	a4,0x800
    5590:	fff70713          	addi	a4,a4,-1 # 7fffff <_end+0x5ff95f>
    5594:	00f77733          	and	a4,a4,a5
    5598:	0007071b          	sext.w	a4,a4
    559c:	04071463          	bnez	a4,55e4 <f32_lt+0x74>
    55a0:	fff5c713          	not	a4,a1
    55a4:	7f8006b7          	lui	a3,0x7f800
    55a8:	00d77733          	and	a4,a4,a3
    55ac:	00071c63          	bnez	a4,55c4 <f32_lt+0x54>
    55b0:	008006b7          	lui	a3,0x800
    55b4:	fff68693          	addi	a3,a3,-1 # 7fffff <_end+0x5ff95f>
    55b8:	00b6f6b3          	and	a3,a3,a1
    55bc:	0006869b          	sext.w	a3,a3
    55c0:	02069263          	bnez	a3,55e4 <f32_lt+0x74>
    55c4:	01f7d71b          	srliw	a4,a5,0x1f
    55c8:	01f5d69b          	srliw	a3,a1,0x1f
    55cc:	0ff77713          	andi	a4,a4,255
    55d0:	0ff6f693          	andi	a3,a3,255
    55d4:	00000513          	li	a0,0
    55d8:	00d70c63          	beq	a4,a3,55f0 <f32_lt+0x80>
    55dc:	02064463          	bltz	a2,5604 <f32_lt+0x94>
    55e0:	00008067          	ret
    55e4:	01026213          	ori	tp,tp,16
    55e8:	00000513          	li	a0,0
    55ec:	00008067          	ret
    55f0:	ff0608e3          	beq	a2,a6,55e0 <f32_lt+0x70>
    55f4:	01063533          	sltu	a0,a2,a6
    55f8:	40e50533          	sub	a0,a0,a4
    55fc:	00a03533          	snez	a0,a0
    5600:	00008067          	ret
    5604:	00b7e533          	or	a0,a5,a1
    5608:	0015151b          	slliw	a0,a0,0x1
    560c:	00a03533          	snez	a0,a0
    5610:	00008067          	ret

0000000000005614 <f32_lt_quiet>:
    5614:	00050793          	mv	a5,a0
    5618:	fff7c713          	not	a4,a5
    561c:	7f8006b7          	lui	a3,0x7f800
    5620:	00d77733          	and	a4,a4,a3
    5624:	0005061b          	sext.w	a2,a0
    5628:	0005881b          	sext.w	a6,a1
    562c:	04071063          	bnez	a4,566c <f32_lt_quiet+0x58>
    5630:	00800737          	lui	a4,0x800
    5634:	fff70713          	addi	a4,a4,-1 # 7fffff <_end+0x5ff95f>
    5638:	00f77733          	and	a4,a4,a5
    563c:	0007071b          	sext.w	a4,a4
    5640:	02070663          	beqz	a4,566c <f32_lt_quiet+0x58>
    5644:	7fc00737          	lui	a4,0x7fc00
    5648:	00e7f733          	and	a4,a5,a4
    564c:	7f8006b7          	lui	a3,0x7f800
    5650:	0ad70063          	beq	a4,a3,56f0 <f32_lt_quiet+0xdc>
    5654:	7fc007b7          	lui	a5,0x7fc00
    5658:	00f5f7b3          	and	a5,a1,a5
    565c:	7f800737          	lui	a4,0x7f800
    5660:	00000513          	li	a0,0
    5664:	06e78663          	beq	a5,a4,56d0 <f32_lt_quiet+0xbc>
    5668:	00008067          	ret
    566c:	fff5c713          	not	a4,a1
    5670:	7f8006b7          	lui	a3,0x7f800
    5674:	00d77733          	and	a4,a4,a3
    5678:	00071c63          	bnez	a4,5690 <f32_lt_quiet+0x7c>
    567c:	008006b7          	lui	a3,0x800
    5680:	fff68693          	addi	a3,a3,-1 # 7fffff <_end+0x5ff95f>
    5684:	00b6f6b3          	and	a3,a3,a1
    5688:	0006869b          	sext.w	a3,a3
    568c:	fa069ce3          	bnez	a3,5644 <f32_lt_quiet+0x30>
    5690:	01f7d71b          	srliw	a4,a5,0x1f
    5694:	01f5d69b          	srliw	a3,a1,0x1f
    5698:	0ff77713          	andi	a4,a4,255
    569c:	0ff6f693          	andi	a3,a3,255
    56a0:	00000513          	li	a0,0
    56a4:	00d70c63          	beq	a4,a3,56bc <f32_lt_quiet+0xa8>
    56a8:	fc0650e3          	bgez	a2,5668 <f32_lt_quiet+0x54>
    56ac:	00b7e533          	or	a0,a5,a1
    56b0:	0015151b          	slliw	a0,a0,0x1
    56b4:	00a03533          	snez	a0,a0
    56b8:	00008067          	ret
    56bc:	fb0606e3          	beq	a2,a6,5668 <f32_lt_quiet+0x54>
    56c0:	01063533          	sltu	a0,a2,a6
    56c4:	40e50533          	sub	a0,a0,a4
    56c8:	00a03533          	snez	a0,a0
    56cc:	00008067          	ret
    56d0:	004007b7          	lui	a5,0x400
    56d4:	fff78793          	addi	a5,a5,-1 # 3fffff <_end+0x1ff95f>
    56d8:	00b7f5b3          	and	a1,a5,a1
    56dc:	0005859b          	sext.w	a1,a1
    56e0:	f80584e3          	beqz	a1,5668 <f32_lt_quiet+0x54>
    56e4:	01026213          	ori	tp,tp,16
    56e8:	00000513          	li	a0,0
    56ec:	00008067          	ret
    56f0:	00400537          	lui	a0,0x400
    56f4:	fff50513          	addi	a0,a0,-1 # 3fffff <_end+0x1ff95f>
    56f8:	00f577b3          	and	a5,a0,a5
    56fc:	0007879b          	sext.w	a5,a5
    5700:	f4078ae3          	beqz	a5,5654 <f32_lt_quiet+0x40>
    5704:	fe1ff06f          	j	56e4 <f32_lt_quiet+0xd0>

0000000000005708 <f32_mul>:
    5708:	fd010113          	addi	sp,sp,-48
    570c:	008007b7          	lui	a5,0x800
    5710:	01f5d69b          	srliw	a3,a1,0x1f
    5714:	fff78793          	addi	a5,a5,-1 # 7fffff <_end+0x5ff95f>
    5718:	01f5571b          	srliw	a4,a0,0x1f
    571c:	01213823          	sd	s2,16(sp)
    5720:	0175591b          	srliw	s2,a0,0x17
    5724:	00d74733          	xor	a4,a4,a3
    5728:	02813023          	sd	s0,32(sp)
    572c:	00913c23          	sd	s1,24(sp)
    5730:	00a7f433          	and	s0,a5,a0
    5734:	01313423          	sd	s3,8(sp)
    5738:	00b7f7b3          	and	a5,a5,a1
    573c:	0175d99b          	srliw	s3,a1,0x17
    5740:	01413023          	sd	s4,0(sp)
    5744:	02113423          	sd	ra,40(sp)
    5748:	0ff97913          	andi	s2,s2,255
    574c:	0ff00693          	li	a3,255
    5750:	00040a1b          	sext.w	s4,s0
    5754:	0005051b          	sext.w	a0,a0
    5758:	0005859b          	sext.w	a1,a1
    575c:	0ff9f993          	andi	s3,s3,255
    5760:	0007841b          	sext.w	s0,a5
    5764:	0ff77493          	andi	s1,a4,255
    5768:	06d90463          	beq	s2,a3,57d0 <f32_mul+0xc8>
    576c:	02d98863          	beq	s3,a3,579c <f32_mul+0x94>
    5770:	0a091263          	bnez	s2,5814 <f32_mul+0x10c>
    5774:	080a1863          	bnez	s4,5804 <f32_mul+0xfc>
    5778:	02813083          	ld	ra,40(sp)
    577c:	02013403          	ld	s0,32(sp)
    5780:	01f4951b          	slliw	a0,s1,0x1f
    5784:	01013903          	ld	s2,16(sp)
    5788:	01813483          	ld	s1,24(sp)
    578c:	00813983          	ld	s3,8(sp)
    5790:	00013a03          	ld	s4,0(sp)
    5794:	03010113          	addi	sp,sp,48
    5798:	00008067          	ret
    579c:	01496933          	or	s2,s2,s4
    57a0:	02041e63          	bnez	s0,57dc <f32_mul+0xd4>
    57a4:	0e091c63          	bnez	s2,589c <f32_mul+0x194>
    57a8:	01026213          	ori	tp,tp,16
    57ac:	02813083          	ld	ra,40(sp)
    57b0:	02013403          	ld	s0,32(sp)
    57b4:	01813483          	ld	s1,24(sp)
    57b8:	01013903          	ld	s2,16(sp)
    57bc:	00813983          	ld	s3,8(sp)
    57c0:	00013a03          	ld	s4,0(sp)
    57c4:	7fc00537          	lui	a0,0x7fc00
    57c8:	03010113          	addi	sp,sp,48
    57cc:	00008067          	ret
    57d0:	000a1663          	bnez	s4,57dc <f32_mul+0xd4>
    57d4:	0f299a63          	bne	s3,s2,58c8 <f32_mul+0x1c0>
    57d8:	0e040863          	beqz	s0,58c8 <f32_mul+0x1c0>
    57dc:	219020ef          	jal	ra,81f4 <softfloat_propagateNaNF32UI>
    57e0:	02813083          	ld	ra,40(sp)
    57e4:	02013403          	ld	s0,32(sp)
    57e8:	01813483          	ld	s1,24(sp)
    57ec:	01013903          	ld	s2,16(sp)
    57f0:	00813983          	ld	s3,8(sp)
    57f4:	00013a03          	ld	s4,0(sp)
    57f8:	0005051b          	sext.w	a0,a0
    57fc:	03010113          	addi	sp,sp,48
    5800:	00008067          	ret
    5804:	000a0513          	mv	a0,s4
    5808:	541010ef          	jal	ra,7548 <softfloat_normSubnormalF32Sig>
    580c:	0005091b          	sext.w	s2,a0
    5810:	42055a13          	srai	s4,a0,0x20
    5814:	00099c63          	bnez	s3,582c <f32_mul+0x124>
    5818:	f60400e3          	beqz	s0,5778 <f32_mul+0x70>
    581c:	00040513          	mv	a0,s0
    5820:	529010ef          	jal	ra,7548 <softfloat_normSubnormalF32Sig>
    5824:	0005099b          	sext.w	s3,a0
    5828:	42055413          	srai	s0,a0,0x20
    582c:	007a151b          	slliw	a0,s4,0x7
    5830:	0084171b          	slliw	a4,s0,0x8
    5834:	40000a37          	lui	s4,0x40000
    5838:	80000437          	lui	s0,0x80000
    583c:	01456533          	or	a0,a0,s4
    5840:	00876733          	or	a4,a4,s0
    5844:	02051513          	slli	a0,a0,0x20
    5848:	02071713          	slli	a4,a4,0x20
    584c:	02075713          	srli	a4,a4,0x20
    5850:	02055513          	srli	a0,a0,0x20
    5854:	02e50533          	mul	a0,a0,a4
    5858:	02000593          	li	a1,32
    585c:	0139093b          	addw	s2,s2,s3
    5860:	424020ef          	jal	ra,7c84 <softfloat_shortShiftRightJam64>
    5864:	0005061b          	sext.w	a2,a0
    5868:	400007b7          	lui	a5,0x40000
    586c:	06f67463          	bleu	a5,a2,58d4 <f32_mul+0x1cc>
    5870:	0016161b          	slliw	a2,a2,0x1
    5874:	f809059b          	addiw	a1,s2,-128
    5878:	02013403          	ld	s0,32(sp)
    587c:	02813083          	ld	ra,40(sp)
    5880:	01013903          	ld	s2,16(sp)
    5884:	00813983          	ld	s3,8(sp)
    5888:	00013a03          	ld	s4,0(sp)
    588c:	00048513          	mv	a0,s1
    5890:	01813483          	ld	s1,24(sp)
    5894:	03010113          	addi	sp,sp,48
    5898:	5ed0106f          	j	7684 <softfloat_roundPackToF32>
    589c:	02813083          	ld	ra,40(sp)
    58a0:	02013403          	ld	s0,32(sp)
    58a4:	01f4951b          	slliw	a0,s1,0x1f
    58a8:	7f800737          	lui	a4,0x7f800
    58ac:	01813483          	ld	s1,24(sp)
    58b0:	01013903          	ld	s2,16(sp)
    58b4:	00813983          	ld	s3,8(sp)
    58b8:	00013a03          	ld	s4,0(sp)
    58bc:	00e5053b          	addw	a0,a0,a4
    58c0:	03010113          	addi	sp,sp,48
    58c4:	00008067          	ret
    58c8:	0089e933          	or	s2,s3,s0
    58cc:	fc0918e3          	bnez	s2,589c <f32_mul+0x194>
    58d0:	ed9ff06f          	j	57a8 <f32_mul+0xa0>
    58d4:	f819059b          	addiw	a1,s2,-127
    58d8:	fa1ff06f          	j	5878 <f32_mul+0x170>

00000000000058dc <f32_sqrt>:
    58dc:	008007b7          	lui	a5,0x800
    58e0:	fe010113          	addi	sp,sp,-32
    58e4:	0175571b          	srliw	a4,a0,0x17
    58e8:	fff78793          	addi	a5,a5,-1 # 7fffff <_end+0x5ff95f>
    58ec:	00a7f7b3          	and	a5,a5,a0
    58f0:	00113c23          	sd	ra,24(sp)
    58f4:	00813823          	sd	s0,16(sp)
    58f8:	00913423          	sd	s1,8(sp)
    58fc:	01213023          	sd	s2,0(sp)
    5900:	0ff77713          	andi	a4,a4,255
    5904:	0ff00693          	li	a3,255
    5908:	0005061b          	sext.w	a2,a0
    590c:	0007879b          	sext.w	a5,a5
    5910:	04d70863          	beq	a4,a3,5960 <f32_sqrt+0x84>
    5914:	02064263          	bltz	a2,5938 <f32_sqrt+0x5c>
    5918:	06071c63          	bnez	a4,5990 <f32_sqrt+0xb4>
    591c:	06079263          	bnez	a5,5980 <f32_sqrt+0xa4>
    5920:	01813083          	ld	ra,24(sp)
    5924:	01013403          	ld	s0,16(sp)
    5928:	00813483          	ld	s1,8(sp)
    592c:	00013903          	ld	s2,0(sp)
    5930:	02010113          	addi	sp,sp,32
    5934:	00008067          	ret
    5938:	00f767b3          	or	a5,a4,a5
    593c:	fe0782e3          	beqz	a5,5920 <f32_sqrt+0x44>
    5940:	01026213          	ori	tp,tp,16
    5944:	01813083          	ld	ra,24(sp)
    5948:	01013403          	ld	s0,16(sp)
    594c:	00813483          	ld	s1,8(sp)
    5950:	00013903          	ld	s2,0(sp)
    5954:	7fc00537          	lui	a0,0x7fc00
    5958:	02010113          	addi	sp,sp,32
    595c:	00008067          	ret
    5960:	0c079a63          	bnez	a5,5a34 <f32_sqrt+0x158>
    5964:	fc064ee3          	bltz	a2,5940 <f32_sqrt+0x64>
    5968:	01813083          	ld	ra,24(sp)
    596c:	01013403          	ld	s0,16(sp)
    5970:	00813483          	ld	s1,8(sp)
    5974:	00013903          	ld	s2,0(sp)
    5978:	02010113          	addi	sp,sp,32
    597c:	00008067          	ret
    5980:	00078513          	mv	a0,a5
    5984:	3c5010ef          	jal	ra,7548 <softfloat_normSubnormalF32Sig>
    5988:	0005071b          	sext.w	a4,a0
    598c:	42055793          	srai	a5,a0,0x20
    5990:	0087941b          	slliw	s0,a5,0x8
    5994:	800007b7          	lui	a5,0x80000
    5998:	00f46433          	or	s0,s0,a5
    599c:	0004041b          	sext.w	s0,s0
    59a0:	00177493          	andi	s1,a4,1
    59a4:	00040593          	mv	a1,s0
    59a8:	00048513          	mv	a0,s1
    59ac:	f817091b          	addiw	s2,a4,-127
    59b0:	1e8010ef          	jal	ra,6b98 <softfloat_approxRecipSqrt32_1>
    59b4:	02051513          	slli	a0,a0,0x20
    59b8:	02041793          	slli	a5,s0,0x20
    59bc:	02055513          	srli	a0,a0,0x20
    59c0:	0207d793          	srli	a5,a5,0x20
    59c4:	02a787b3          	mul	a5,a5,a0
    59c8:	4019591b          	sraiw	s2,s2,0x1
    59cc:	07e9091b          	addiw	s2,s2,126
    59d0:	4207d793          	srai	a5,a5,0x20
    59d4:	00048663          	beqz	s1,59e0 <f32_sqrt+0x104>
    59d8:	0017d79b          	srliw	a5,a5,0x1
    59dc:	0007879b          	sext.w	a5,a5
    59e0:	0027879b          	addiw	a5,a5,2
    59e4:	03f7f693          	andi	a3,a5,63
    59e8:	00100713          	li	a4,1
    59ec:	0007861b          	sext.w	a2,a5
    59f0:	02d77263          	bleu	a3,a4,5a14 <f32_sqrt+0x138>
    59f4:	01013403          	ld	s0,16(sp)
    59f8:	01813083          	ld	ra,24(sp)
    59fc:	00813483          	ld	s1,8(sp)
    5a00:	00090593          	mv	a1,s2
    5a04:	00013903          	ld	s2,0(sp)
    5a08:	00000513          	li	a0,0
    5a0c:	02010113          	addi	sp,sp,32
    5a10:	4750106f          	j	7684 <softfloat_roundPackToF32>
    5a14:	0027d71b          	srliw	a4,a5,0x2
    5a18:	02e7073b          	mulw	a4,a4,a4
    5a1c:	ffc7f793          	andi	a5,a5,-4
    5a20:	0007861b          	sext.w	a2,a5
    5a24:	02074c63          	bltz	a4,5a5c <f32_sqrt+0x180>
    5a28:	fc0706e3          	beqz	a4,59f4 <f32_sqrt+0x118>
    5a2c:	fff6061b          	addiw	a2,a2,-1
    5a30:	fc5ff06f          	j	59f4 <f32_sqrt+0x118>
    5a34:	00000593          	li	a1,0
    5a38:	00060513          	mv	a0,a2
    5a3c:	7b8020ef          	jal	ra,81f4 <softfloat_propagateNaNF32UI>
    5a40:	01813083          	ld	ra,24(sp)
    5a44:	01013403          	ld	s0,16(sp)
    5a48:	00813483          	ld	s1,8(sp)
    5a4c:	00013903          	ld	s2,0(sp)
    5a50:	0005051b          	sext.w	a0,a0
    5a54:	02010113          	addi	sp,sp,32
    5a58:	00008067          	ret
    5a5c:	00166613          	ori	a2,a2,1
    5a60:	f95ff06f          	j	59f4 <f32_sqrt+0x118>

0000000000005a64 <f32_to_f64>:
    5a64:	008007b7          	lui	a5,0x800
    5a68:	ff010113          	addi	sp,sp,-16
    5a6c:	0175571b          	srliw	a4,a0,0x17
    5a70:	fff78793          	addi	a5,a5,-1 # 7fffff <_end+0x5ff95f>
    5a74:	00813023          	sd	s0,0(sp)
    5a78:	00a7f7b3          	and	a5,a5,a0
    5a7c:	01f5541b          	srliw	s0,a0,0x1f
    5a80:	00113423          	sd	ra,8(sp)
    5a84:	0ff77713          	andi	a4,a4,255
    5a88:	0ff00693          	li	a3,255
    5a8c:	0ff47413          	andi	s0,s0,255
    5a90:	0007879b          	sext.w	a5,a5
    5a94:	04d70a63          	beq	a4,a3,5ae8 <f32_to_f64+0x84>
    5a98:	03f41413          	slli	s0,s0,0x3f
    5a9c:	02070a63          	beqz	a4,5ad0 <f32_to_f64+0x6c>
    5aa0:	02079793          	slli	a5,a5,0x20
    5aa4:	0207d793          	srli	a5,a5,0x20
    5aa8:	3807071b          	addiw	a4,a4,896
    5aac:	01d79793          	slli	a5,a5,0x1d
    5ab0:	03471713          	slli	a4,a4,0x34
    5ab4:	00878433          	add	s0,a5,s0
    5ab8:	00870433          	add	s0,a4,s0
    5abc:	00040513          	mv	a0,s0
    5ac0:	00813083          	ld	ra,8(sp)
    5ac4:	00013403          	ld	s0,0(sp)
    5ac8:	01010113          	addi	sp,sp,16
    5acc:	00008067          	ret
    5ad0:	fe0786e3          	beqz	a5,5abc <f32_to_f64+0x58>
    5ad4:	00078513          	mv	a0,a5
    5ad8:	271010ef          	jal	ra,7548 <softfloat_normSubnormalF32Sig>
    5adc:	fff5071b          	addiw	a4,a0,-1
    5ae0:	42055793          	srai	a5,a0,0x20
    5ae4:	fbdff06f          	j	5aa0 <f32_to_f64+0x3c>
    5ae8:	00078e63          	beqz	a5,5b04 <f32_to_f64+0xa0>
    5aec:	02951793          	slli	a5,a0,0x29
    5af0:	0207cc63          	bltz	a5,5b28 <f32_to_f64+0xc4>
    5af4:	01026213          	ori	tp,tp,16
    5af8:	00fff437          	lui	s0,0xfff
    5afc:	02741413          	slli	s0,s0,0x27
    5b00:	fbdff06f          	j	5abc <f32_to_f64+0x58>
    5b04:	7ff00793          	li	a5,2047
    5b08:	03f41413          	slli	s0,s0,0x3f
    5b0c:	03479793          	slli	a5,a5,0x34
    5b10:	00f40433          	add	s0,s0,a5
    5b14:	00040513          	mv	a0,s0
    5b18:	00813083          	ld	ra,8(sp)
    5b1c:	00013403          	ld	s0,0(sp)
    5b20:	01010113          	addi	sp,sp,16
    5b24:	00008067          	ret
    5b28:	00fff437          	lui	s0,0xfff
    5b2c:	02741413          	slli	s0,s0,0x27
    5b30:	f8dff06f          	j	5abc <f32_to_f64+0x58>

0000000000005b34 <f32_classify>:
    5b34:	0175579b          	srliw	a5,a0,0x17
    5b38:	0005071b          	sext.w	a4,a0
    5b3c:	0ff7f793          	andi	a5,a5,255
    5b40:	0a074c63          	bltz	a4,5bf8 <f32_classify+0xc4>
    5b44:	0ff00693          	li	a3,255
    5b48:	06d78663          	beq	a5,a3,5bb4 <f32_classify+0x80>
    5b4c:	04000693          	li	a3,64
    5b50:	0c078c63          	beqz	a5,5c28 <f32_classify+0xf4>
    5b54:	00000793          	li	a5,0
    5b58:	fff54713          	not	a4,a0
    5b5c:	7f800637          	lui	a2,0x7f800
    5b60:	00c77733          	and	a4,a4,a2
    5b64:	00d7e7b3          	or	a5,a5,a3
    5b68:	00000693          	li	a3,0
    5b6c:	04071063          	bnez	a4,5bac <f32_classify+0x78>
    5b70:	00800637          	lui	a2,0x800
    5b74:	fff60613          	addi	a2,a2,-1 # 7fffff <_end+0x5ff95f>
    5b78:	00a67633          	and	a2,a2,a0
    5b7c:	0006061b          	sext.w	a2,a2
    5b80:	00070693          	mv	a3,a4
    5b84:	02060463          	beqz	a2,5bac <f32_classify+0x78>
    5b88:	7fc00737          	lui	a4,0x7fc00
    5b8c:	00e57733          	and	a4,a0,a4
    5b90:	7f8006b7          	lui	a3,0x7f800
    5b94:	08d70e63          	beq	a4,a3,5c30 <f32_classify+0xfc>
    5b98:	7fc00737          	lui	a4,0x7fc00
    5b9c:	00e57733          	and	a4,a0,a4
    5ba0:	7f800637          	lui	a2,0x7f800
    5ba4:	20000693          	li	a3,512
    5ba8:	0ac70063          	beq	a4,a2,5c48 <f32_classify+0x114>
    5bac:	00f6e533          	or	a0,a3,a5
    5bb0:	00008067          	ret
    5bb4:	008006b7          	lui	a3,0x800
    5bb8:	fff68693          	addi	a3,a3,-1 # 7fffff <_end+0x5ff95f>
    5bbc:	00a6f6b3          	and	a3,a3,a0
    5bc0:	0006869b          	sext.w	a3,a3
    5bc4:	0016b693          	seqz	a3,a3
    5bc8:	00769693          	slli	a3,a3,0x7
    5bcc:	f80744e3          	bltz	a4,5b54 <f32_classify+0x20>
    5bd0:	f80792e3          	bnez	a5,5b54 <f32_classify+0x20>
    5bd4:	00800737          	lui	a4,0x800
    5bd8:	fff70713          	addi	a4,a4,-1 # 7fffff <_end+0x5ff95f>
    5bdc:	00a77733          	and	a4,a4,a0
    5be0:	0007071b          	sext.w	a4,a4
    5be4:	00070463          	beqz	a4,5bec <f32_classify+0xb8>
    5be8:	0206e693          	ori	a3,a3,32
    5bec:	00173713          	seqz	a4,a4
    5bf0:	0047179b          	slliw	a5,a4,0x4
    5bf4:	f65ff06f          	j	5b58 <f32_classify+0x24>
    5bf8:	0ff00713          	li	a4,255
    5bfc:	06e78863          	beq	a5,a4,5c6c <f32_classify+0x138>
    5c00:	00200693          	li	a3,2
    5c04:	f40798e3          	bnez	a5,5b54 <f32_classify+0x20>
    5c08:	00800737          	lui	a4,0x800
    5c0c:	fff70713          	addi	a4,a4,-1 # 7fffff <_end+0x5ff95f>
    5c10:	00a77733          	and	a4,a4,a0
    5c14:	0007071b          	sext.w	a4,a4
    5c18:	00000693          	li	a3,0
    5c1c:	04070463          	beqz	a4,5c64 <f32_classify+0x130>
    5c20:	0046e693          	ori	a3,a3,4
    5c24:	f35ff06f          	j	5b58 <f32_classify+0x24>
    5c28:	00000693          	li	a3,0
    5c2c:	fa1ff06f          	j	5bcc <f32_classify+0x98>
    5c30:	00400737          	lui	a4,0x400
    5c34:	fff70713          	addi	a4,a4,-1 # 3fffff <_end+0x1ff95f>
    5c38:	00a77733          	and	a4,a4,a0
    5c3c:	0007071b          	sext.w	a4,a4
    5c40:	f4070ce3          	beqz	a4,5b98 <f32_classify+0x64>
    5c44:	1007e793          	ori	a5,a5,256
    5c48:	004006b7          	lui	a3,0x400
    5c4c:	fff68693          	addi	a3,a3,-1 # 3fffff <_end+0x1ff95f>
    5c50:	00a6f6b3          	and	a3,a3,a0
    5c54:	0006869b          	sext.w	a3,a3
    5c58:	0016b693          	seqz	a3,a3
    5c5c:	0096969b          	slliw	a3,a3,0x9
    5c60:	f4dff06f          	j	5bac <f32_classify+0x78>
    5c64:	0086e693          	ori	a3,a3,8
    5c68:	ef1ff06f          	j	5b58 <f32_classify+0x24>
    5c6c:	008007b7          	lui	a5,0x800
    5c70:	fff78793          	addi	a5,a5,-1 # 7fffff <_end+0x5ff95f>
    5c74:	00a7f7b3          	and	a5,a5,a0
    5c78:	0007879b          	sext.w	a5,a5
    5c7c:	0017b693          	seqz	a3,a5
    5c80:	ed5ff06f          	j	5b54 <f32_classify+0x20>

0000000000005c84 <f64_add>:
    5c84:	03f55613          	srli	a2,a0,0x3f
    5c88:	03f5d793          	srli	a5,a1,0x3f
    5c8c:	00002317          	auipc	t1,0x2
    5c90:	32c30313          	addi	t1,t1,812 # 7fb8 <softfloat_subMagsF64>
    5c94:	00f60463          	beq	a2,a5,5c9c <f64_add+0x18>
    5c98:	00030067          	jr	t1
    5c9c:	00001317          	auipc	t1,0x1
    5ca0:	cd430313          	addi	t1,t1,-812 # 6970 <softfloat_addMagsF64>
    5ca4:	00030067          	jr	t1

0000000000005ca8 <f64_div>:
    5ca8:	fc010113          	addi	sp,sp,-64
    5cac:	02913423          	sd	s1,40(sp)
    5cb0:	fff00793          	li	a5,-1
    5cb4:	03455493          	srli	s1,a0,0x34
    5cb8:	00c7d793          	srli	a5,a5,0xc
    5cbc:	02813823          	sd	s0,48(sp)
    5cc0:	03213023          	sd	s2,32(sp)
    5cc4:	01313c23          	sd	s3,24(sp)
    5cc8:	01413823          	sd	s4,16(sp)
    5ccc:	0345d993          	srli	s3,a1,0x34
    5cd0:	00a5ca33          	xor	s4,a1,a0
    5cd4:	02113c23          	sd	ra,56(sp)
    5cd8:	7ff4f493          	andi	s1,s1,2047
    5cdc:	7ff00713          	li	a4,2047
    5ce0:	00f57933          	and	s2,a0,a5
    5ce4:	7ff9f993          	andi	s3,s3,2047
    5ce8:	00f5f433          	and	s0,a1,a5
    5cec:	03fa5a13          	srli	s4,s4,0x3f
    5cf0:	08e48263          	beq	s1,a4,5d74 <f64_div+0xcc>
    5cf4:	00e98e63          	beq	s3,a4,5d10 <f64_div+0x68>
    5cf8:	04099863          	bnez	s3,5d48 <f64_div+0xa0>
    5cfc:	02041e63          	bnez	s0,5d38 <f64_div+0x90>
    5d00:	0124e4b3          	or	s1,s1,s2
    5d04:	1c048063          	beqz	s1,5ec4 <f64_div+0x21c>
    5d08:	00826213          	ori	tp,tp,8
    5d0c:	0700006f          	j	5d7c <f64_div+0xd4>
    5d10:	04040063          	beqz	s0,5d50 <f64_div+0xa8>
    5d14:	52c020ef          	jal	ra,8240 <softfloat_propagateNaNF64UI>
    5d18:	03813083          	ld	ra,56(sp)
    5d1c:	03013403          	ld	s0,48(sp)
    5d20:	02813483          	ld	s1,40(sp)
    5d24:	02013903          	ld	s2,32(sp)
    5d28:	01813983          	ld	s3,24(sp)
    5d2c:	01013a03          	ld	s4,16(sp)
    5d30:	04010113          	addi	sp,sp,64
    5d34:	00008067          	ret
    5d38:	00040513          	mv	a0,s0
    5d3c:	051010ef          	jal	ra,758c <softfloat_normSubnormalF64Sig>
    5d40:	0005099b          	sext.w	s3,a0
    5d44:	00058413          	mv	s0,a1
    5d48:	06049a63          	bnez	s1,5dbc <f64_div+0x114>
    5d4c:	06091063          	bnez	s2,5dac <f64_div+0x104>
    5d50:	03813083          	ld	ra,56(sp)
    5d54:	03013403          	ld	s0,48(sp)
    5d58:	03fa1513          	slli	a0,s4,0x3f
    5d5c:	02813483          	ld	s1,40(sp)
    5d60:	02013903          	ld	s2,32(sp)
    5d64:	01813983          	ld	s3,24(sp)
    5d68:	01013a03          	ld	s4,16(sp)
    5d6c:	04010113          	addi	sp,sp,64
    5d70:	00008067          	ret
    5d74:	fa0910e3          	bnez	s2,5d14 <f64_div+0x6c>
    5d78:	14998463          	beq	s3,s1,5ec0 <f64_div+0x218>
    5d7c:	03813083          	ld	ra,56(sp)
    5d80:	03013403          	ld	s0,48(sp)
    5d84:	7ff00793          	li	a5,2047
    5d88:	03fa1513          	slli	a0,s4,0x3f
    5d8c:	03479793          	slli	a5,a5,0x34
    5d90:	02813483          	ld	s1,40(sp)
    5d94:	02013903          	ld	s2,32(sp)
    5d98:	01813983          	ld	s3,24(sp)
    5d9c:	01013a03          	ld	s4,16(sp)
    5da0:	00f50533          	add	a0,a0,a5
    5da4:	04010113          	addi	sp,sp,64
    5da8:	00008067          	ret
    5dac:	00090513          	mv	a0,s2
    5db0:	7dc010ef          	jal	ra,758c <softfloat_normSubnormalF64Sig>
    5db4:	0005049b          	sext.w	s1,a0
    5db8:	00058913          	mv	s2,a1
    5dbc:	00100793          	li	a5,1
    5dc0:	03479793          	slli	a5,a5,0x34
    5dc4:	00f96933          	or	s2,s2,a5
    5dc8:	00f46433          	or	s0,s0,a5
    5dcc:	413484bb          	subw	s1,s1,s3
    5dd0:	12897063          	bleu	s0,s2,5ef0 <f64_div+0x248>
    5dd4:	3fd4849b          	addiw	s1,s1,1021
    5dd8:	00b91913          	slli	s2,s2,0xb
    5ddc:	00b41413          	slli	s0,s0,0xb
    5de0:	02045993          	srli	s3,s0,0x20
    5de4:	0009851b          	sext.w	a0,s3
    5de8:	519000ef          	jal	ra,6b00 <softfloat_approxRecip32_1>
    5dec:	ffe5051b          	addiw	a0,a0,-2
    5df0:	02051513          	slli	a0,a0,0x20
    5df4:	02055513          	srli	a0,a0,0x20
    5df8:	02095613          	srli	a2,s2,0x20
    5dfc:	02a60633          	mul	a2,a2,a0
    5e00:	0044541b          	srliw	s0,s0,0x4
    5e04:	02041413          	slli	s0,s0,0x20
    5e08:	02045413          	srli	s0,s0,0x20
    5e0c:	fff00793          	li	a5,-1
    5e10:	02079793          	slli	a5,a5,0x20
    5e14:	03f00693          	li	a3,63
    5e18:	02065713          	srli	a4,a2,0x20
    5e1c:	0017171b          	slliw	a4,a4,0x1
    5e20:	02071713          	slli	a4,a4,0x20
    5e24:	02075713          	srli	a4,a4,0x20
    5e28:	02e985b3          	mul	a1,s3,a4
    5e2c:	00f67633          	and	a2,a2,a5
    5e30:	02870733          	mul	a4,a4,s0
    5e34:	40b90933          	sub	s2,s2,a1
    5e38:	01c91913          	slli	s2,s2,0x1c
    5e3c:	40e90933          	sub	s2,s2,a4
    5e40:	02095793          	srli	a5,s2,0x20
    5e44:	02a787b3          	mul	a5,a5,a0
    5e48:	0207d793          	srli	a5,a5,0x20
    5e4c:	0047879b          	addiw	a5,a5,4
    5e50:	02079713          	slli	a4,a5,0x20
    5e54:	01c75713          	srli	a4,a4,0x1c
    5e58:	00e60633          	add	a2,a2,a4
    5e5c:	1ff67713          	andi	a4,a2,511
    5e60:	02e6ec63          	bltu	a3,a4,5e98 <f64_div+0x1f0>
    5e64:	0017979b          	slliw	a5,a5,0x1
    5e68:	ff07f793          	andi	a5,a5,-16
    5e6c:	02079793          	slli	a5,a5,0x20
    5e70:	0207d793          	srli	a5,a5,0x20
    5e74:	02f989b3          	mul	s3,s3,a5
    5e78:	f8067613          	andi	a2,a2,-128
    5e7c:	02f40433          	mul	s0,s0,a5
    5e80:	41390933          	sub	s2,s2,s3
    5e84:	01c91913          	slli	s2,s2,0x1c
    5e88:	40890433          	sub	s0,s2,s0
    5e8c:	06044863          	bltz	s0,5efc <f64_div+0x254>
    5e90:	00040463          	beqz	s0,5e98 <f64_div+0x1f0>
    5e94:	00166613          	ori	a2,a2,1
    5e98:	03013403          	ld	s0,48(sp)
    5e9c:	03813083          	ld	ra,56(sp)
    5ea0:	02013903          	ld	s2,32(sp)
    5ea4:	01813983          	ld	s3,24(sp)
    5ea8:	00048593          	mv	a1,s1
    5eac:	000a0513          	mv	a0,s4
    5eb0:	02813483          	ld	s1,40(sp)
    5eb4:	01013a03          	ld	s4,16(sp)
    5eb8:	04010113          	addi	sp,sp,64
    5ebc:	1350106f          	j	77f0 <softfloat_roundPackToF64>
    5ec0:	e4041ae3          	bnez	s0,5d14 <f64_div+0x6c>
    5ec4:	01026213          	ori	tp,tp,16
    5ec8:	03813083          	ld	ra,56(sp)
    5ecc:	03013403          	ld	s0,48(sp)
    5ed0:	00fff537          	lui	a0,0xfff
    5ed4:	02813483          	ld	s1,40(sp)
    5ed8:	02013903          	ld	s2,32(sp)
    5edc:	01813983          	ld	s3,24(sp)
    5ee0:	01013a03          	ld	s4,16(sp)
    5ee4:	02751513          	slli	a0,a0,0x27
    5ee8:	04010113          	addi	sp,sp,64
    5eec:	00008067          	ret
    5ef0:	3fe4849b          	addiw	s1,s1,1022
    5ef4:	00a91913          	slli	s2,s2,0xa
    5ef8:	ee5ff06f          	j	5ddc <f64_div+0x134>
    5efc:	f8060613          	addi	a2,a2,-128 # 7f7fff80 <_end+0x7f5ff8e0>
    5f00:	f99ff06f          	j	5e98 <f64_div+0x1f0>

0000000000005f04 <f64_eq>:
    5f04:	7ff00693          	li	a3,2047
    5f08:	fff54713          	not	a4,a0
    5f0c:	03469693          	slli	a3,a3,0x34
    5f10:	00d77733          	and	a4,a4,a3
    5f14:	00050793          	mv	a5,a0
    5f18:	04071263          	bnez	a4,5f5c <f64_eq+0x58>
    5f1c:	00c51713          	slli	a4,a0,0xc
    5f20:	02070e63          	beqz	a4,5f5c <f64_eq+0x58>
    5f24:	00fff737          	lui	a4,0xfff
    5f28:	02771713          	slli	a4,a4,0x27
    5f2c:	7ff00693          	li	a3,2047
    5f30:	00e7f733          	and	a4,a5,a4
    5f34:	03469693          	slli	a3,a3,0x34
    5f38:	06d70a63          	beq	a4,a3,5fac <f64_eq+0xa8>
    5f3c:	00fff7b7          	lui	a5,0xfff
    5f40:	02779793          	slli	a5,a5,0x27
    5f44:	7ff00713          	li	a4,2047
    5f48:	00f5f7b3          	and	a5,a1,a5
    5f4c:	03471713          	slli	a4,a4,0x34
    5f50:	00000513          	li	a0,0
    5f54:	04e78263          	beq	a5,a4,5f98 <f64_eq+0x94>
    5f58:	00008067          	ret
    5f5c:	7ff00693          	li	a3,2047
    5f60:	fff5c713          	not	a4,a1
    5f64:	03469693          	slli	a3,a3,0x34
    5f68:	00d77733          	and	a4,a4,a3
    5f6c:	00071663          	bnez	a4,5f78 <f64_eq+0x74>
    5f70:	00c59713          	slli	a4,a1,0xc
    5f74:	fa0718e3          	bnez	a4,5f24 <f64_eq+0x20>
    5f78:	00100513          	li	a0,1
    5f7c:	fcb78ee3          	beq	a5,a1,5f58 <f64_eq+0x54>
    5f80:	fff00513          	li	a0,-1
    5f84:	00b7e7b3          	or	a5,a5,a1
    5f88:	00155513          	srli	a0,a0,0x1
    5f8c:	00a7f533          	and	a0,a5,a0
    5f90:	00153513          	seqz	a0,a0
    5f94:	00008067          	ret
    5f98:	00d59793          	slli	a5,a1,0xd
    5f9c:	fa078ee3          	beqz	a5,5f58 <f64_eq+0x54>
    5fa0:	01026213          	ori	tp,tp,16
    5fa4:	00000513          	li	a0,0
    5fa8:	00008067          	ret
    5fac:	00d79713          	slli	a4,a5,0xd
    5fb0:	f80706e3          	beqz	a4,5f3c <f64_eq+0x38>
    5fb4:	fedff06f          	j	5fa0 <f64_eq+0x9c>

0000000000005fb8 <f64_lt>:
    5fb8:	7ff00693          	li	a3,2047
    5fbc:	fff54713          	not	a4,a0
    5fc0:	03469693          	slli	a3,a3,0x34
    5fc4:	00d77733          	and	a4,a4,a3
    5fc8:	00050793          	mv	a5,a0
    5fcc:	00071663          	bnez	a4,5fd8 <f64_lt+0x20>
    5fd0:	00c51713          	slli	a4,a0,0xc
    5fd4:	02071c63          	bnez	a4,600c <f64_lt+0x54>
    5fd8:	7ff00693          	li	a3,2047
    5fdc:	fff5c713          	not	a4,a1
    5fe0:	03469693          	slli	a3,a3,0x34
    5fe4:	00d77733          	and	a4,a4,a3
    5fe8:	00071663          	bnez	a4,5ff4 <f64_lt+0x3c>
    5fec:	00c59713          	slli	a4,a1,0xc
    5ff0:	00071e63          	bnez	a4,600c <f64_lt+0x54>
    5ff4:	03f7d713          	srli	a4,a5,0x3f
    5ff8:	03f5d693          	srli	a3,a1,0x3f
    5ffc:	00000513          	li	a0,0
    6000:	00d70c63          	beq	a4,a3,6018 <f64_lt+0x60>
    6004:	0207c463          	bltz	a5,602c <f64_lt+0x74>
    6008:	00008067          	ret
    600c:	01026213          	ori	tp,tp,16
    6010:	00000513          	li	a0,0
    6014:	00008067          	ret
    6018:	feb788e3          	beq	a5,a1,6008 <f64_lt+0x50>
    601c:	00b7b533          	sltu	a0,a5,a1
    6020:	40e50533          	sub	a0,a0,a4
    6024:	00a03533          	snez	a0,a0
    6028:	00008067          	ret
    602c:	fff00513          	li	a0,-1
    6030:	00b7e7b3          	or	a5,a5,a1
    6034:	00155513          	srli	a0,a0,0x1
    6038:	00a7f533          	and	a0,a5,a0
    603c:	00a03533          	snez	a0,a0
    6040:	00008067          	ret

0000000000006044 <f64_lt_quiet>:
    6044:	7ff00693          	li	a3,2047
    6048:	fff54713          	not	a4,a0
    604c:	03469693          	slli	a3,a3,0x34
    6050:	00d77733          	and	a4,a4,a3
    6054:	00050793          	mv	a5,a0
    6058:	04071263          	bnez	a4,609c <f64_lt_quiet+0x58>
    605c:	00c51713          	slli	a4,a0,0xc
    6060:	02070e63          	beqz	a4,609c <f64_lt_quiet+0x58>
    6064:	00fff737          	lui	a4,0xfff
    6068:	02771713          	slli	a4,a4,0x27
    606c:	7ff00693          	li	a3,2047
    6070:	00e7f733          	and	a4,a5,a4
    6074:	03469693          	slli	a3,a3,0x34
    6078:	08d70a63          	beq	a4,a3,610c <f64_lt_quiet+0xc8>
    607c:	00fff7b7          	lui	a5,0xfff
    6080:	02779793          	slli	a5,a5,0x27
    6084:	7ff00713          	li	a4,2047
    6088:	00f5f7b3          	and	a5,a1,a5
    608c:	03471713          	slli	a4,a4,0x34
    6090:	00000513          	li	a0,0
    6094:	06e78263          	beq	a5,a4,60f8 <f64_lt_quiet+0xb4>
    6098:	00008067          	ret
    609c:	7ff00693          	li	a3,2047
    60a0:	fff5c713          	not	a4,a1
    60a4:	03469693          	slli	a3,a3,0x34
    60a8:	00d77733          	and	a4,a4,a3
    60ac:	00071663          	bnez	a4,60b8 <f64_lt_quiet+0x74>
    60b0:	00c59713          	slli	a4,a1,0xc
    60b4:	fa0718e3          	bnez	a4,6064 <f64_lt_quiet+0x20>
    60b8:	03f7d713          	srli	a4,a5,0x3f
    60bc:	03f5d693          	srli	a3,a1,0x3f
    60c0:	00000513          	li	a0,0
    60c4:	02d70063          	beq	a4,a3,60e4 <f64_lt_quiet+0xa0>
    60c8:	fc07d8e3          	bgez	a5,6098 <f64_lt_quiet+0x54>
    60cc:	fff00513          	li	a0,-1
    60d0:	00b7e7b3          	or	a5,a5,a1
    60d4:	00155513          	srli	a0,a0,0x1
    60d8:	00a7f533          	and	a0,a5,a0
    60dc:	00a03533          	snez	a0,a0
    60e0:	00008067          	ret
    60e4:	fab78ae3          	beq	a5,a1,6098 <f64_lt_quiet+0x54>
    60e8:	00b7b533          	sltu	a0,a5,a1
    60ec:	40e50533          	sub	a0,a0,a4
    60f0:	00a03533          	snez	a0,a0
    60f4:	00008067          	ret
    60f8:	00d59793          	slli	a5,a1,0xd
    60fc:	f8078ee3          	beqz	a5,6098 <f64_lt_quiet+0x54>
    6100:	01026213          	ori	tp,tp,16
    6104:	00000513          	li	a0,0
    6108:	00008067          	ret
    610c:	00d79713          	slli	a4,a5,0xd
    6110:	f60706e3          	beqz	a4,607c <f64_lt_quiet+0x38>
    6114:	fedff06f          	j	6100 <f64_lt_quiet+0xbc>

0000000000006118 <f64_mul>:
    6118:	fb010113          	addi	sp,sp,-80
    611c:	03213823          	sd	s2,48(sp)
    6120:	fff00713          	li	a4,-1
    6124:	03455913          	srli	s2,a0,0x34
    6128:	00c75713          	srli	a4,a4,0xc
    612c:	04813023          	sd	s0,64(sp)
    6130:	02913c23          	sd	s1,56(sp)
    6134:	03313423          	sd	s3,40(sp)
    6138:	03413023          	sd	s4,32(sp)
    613c:	0345d993          	srli	s3,a1,0x34
    6140:	00a5c7b3          	xor	a5,a1,a0
    6144:	04113423          	sd	ra,72(sp)
    6148:	7ff97913          	andi	s2,s2,2047
    614c:	7ff00693          	li	a3,2047
    6150:	00e57a33          	and	s4,a0,a4
    6154:	7ff9f993          	andi	s3,s3,2047
    6158:	00e5f4b3          	and	s1,a1,a4
    615c:	03f7d413          	srli	s0,a5,0x3f
    6160:	04d90e63          	beq	s2,a3,61bc <f64_mul+0xa4>
    6164:	02d98863          	beq	s3,a3,6194 <f64_mul+0x7c>
    6168:	0a091063          	bnez	s2,6208 <f64_mul+0xf0>
    616c:	080a1663          	bnez	s4,61f8 <f64_mul+0xe0>
    6170:	03f41513          	slli	a0,s0,0x3f
    6174:	04813083          	ld	ra,72(sp)
    6178:	04013403          	ld	s0,64(sp)
    617c:	03813483          	ld	s1,56(sp)
    6180:	03013903          	ld	s2,48(sp)
    6184:	02813983          	ld	s3,40(sp)
    6188:	02013a03          	ld	s4,32(sp)
    618c:	05010113          	addi	sp,sp,80
    6190:	00008067          	ret
    6194:	10048463          	beqz	s1,629c <f64_mul+0x184>
    6198:	0a8020ef          	jal	ra,8240 <softfloat_propagateNaNF64UI>
    619c:	04813083          	ld	ra,72(sp)
    61a0:	04013403          	ld	s0,64(sp)
    61a4:	03813483          	ld	s1,56(sp)
    61a8:	03013903          	ld	s2,48(sp)
    61ac:	02813983          	ld	s3,40(sp)
    61b0:	02013a03          	ld	s4,32(sp)
    61b4:	05010113          	addi	sp,sp,80
    61b8:	00008067          	ret
    61bc:	fc0a1ee3          	bnez	s4,6198 <f64_mul+0x80>
    61c0:	11298a63          	beq	s3,s2,62d4 <f64_mul+0x1bc>
    61c4:	0099e5b3          	or	a1,s3,s1
    61c8:	0c059e63          	bnez	a1,62a4 <f64_mul+0x18c>
    61cc:	01026213          	ori	tp,tp,16
    61d0:	04813083          	ld	ra,72(sp)
    61d4:	04013403          	ld	s0,64(sp)
    61d8:	00fff537          	lui	a0,0xfff
    61dc:	03813483          	ld	s1,56(sp)
    61e0:	03013903          	ld	s2,48(sp)
    61e4:	02813983          	ld	s3,40(sp)
    61e8:	02013a03          	ld	s4,32(sp)
    61ec:	02751513          	slli	a0,a0,0x27
    61f0:	05010113          	addi	sp,sp,80
    61f4:	00008067          	ret
    61f8:	000a0513          	mv	a0,s4
    61fc:	390010ef          	jal	ra,758c <softfloat_normSubnormalF64Sig>
    6200:	0005091b          	sext.w	s2,a0
    6204:	00058a13          	mv	s4,a1
    6208:	00099c63          	bnez	s3,6220 <f64_mul+0x108>
    620c:	f60482e3          	beqz	s1,6170 <f64_mul+0x58>
    6210:	00048513          	mv	a0,s1
    6214:	378010ef          	jal	ra,758c <softfloat_normSubnormalF64Sig>
    6218:	0005099b          	sext.w	s3,a0
    621c:	00058493          	mv	s1,a1
    6220:	fff00593          	li	a1,-1
    6224:	00100513          	li	a0,1
    6228:	00aa1a13          	slli	s4,s4,0xa
    622c:	00b49493          	slli	s1,s1,0xb
    6230:	03f59593          	slli	a1,a1,0x3f
    6234:	03e51513          	slli	a0,a0,0x3e
    6238:	01010613          	addi	a2,sp,16
    623c:	00b4e5b3          	or	a1,s1,a1
    6240:	00aa6533          	or	a0,s4,a0
    6244:	229000ef          	jal	ra,6c6c <softfloat_mul64To128M>
    6248:	01412783          	lw	a5,20(sp)
    624c:	013905bb          	addw	a1,s2,s3
    6250:	01813603          	ld	a2,24(sp)
    6254:	08079463          	bnez	a5,62dc <f64_mul+0x1c4>
    6258:	01012783          	lw	a5,16(sp)
    625c:	08079063          	bnez	a5,62dc <f64_mul+0x1c4>
    6260:	fff00793          	li	a5,-1
    6264:	0027d793          	srli	a5,a5,0x2
    6268:	06c7ee63          	bltu	a5,a2,62e4 <f64_mul+0x1cc>
    626c:	c005859b          	addiw	a1,a1,-1024
    6270:	00161613          	slli	a2,a2,0x1
    6274:	00040513          	mv	a0,s0
    6278:	578010ef          	jal	ra,77f0 <softfloat_roundPackToF64>
    627c:	04813083          	ld	ra,72(sp)
    6280:	04013403          	ld	s0,64(sp)
    6284:	03813483          	ld	s1,56(sp)
    6288:	03013903          	ld	s2,48(sp)
    628c:	02813983          	ld	s3,40(sp)
    6290:	02013a03          	ld	s4,32(sp)
    6294:	05010113          	addi	sp,sp,80
    6298:	00008067          	ret
    629c:	014965b3          	or	a1,s2,s4
    62a0:	f20586e3          	beqz	a1,61cc <f64_mul+0xb4>
    62a4:	03f41513          	slli	a0,s0,0x3f
    62a8:	04813083          	ld	ra,72(sp)
    62ac:	04013403          	ld	s0,64(sp)
    62b0:	7ff00793          	li	a5,2047
    62b4:	03479793          	slli	a5,a5,0x34
    62b8:	03813483          	ld	s1,56(sp)
    62bc:	03013903          	ld	s2,48(sp)
    62c0:	02813983          	ld	s3,40(sp)
    62c4:	02013a03          	ld	s4,32(sp)
    62c8:	00f50533          	add	a0,a0,a5
    62cc:	05010113          	addi	sp,sp,80
    62d0:	00008067          	ret
    62d4:	ec0492e3          	bnez	s1,6198 <f64_mul+0x80>
    62d8:	eedff06f          	j	61c4 <f64_mul+0xac>
    62dc:	00166613          	ori	a2,a2,1
    62e0:	f81ff06f          	j	6260 <f64_mul+0x148>
    62e4:	c015859b          	addiw	a1,a1,-1023
    62e8:	f8dff06f          	j	6274 <f64_mul+0x15c>

00000000000062ec <f64_sqrt>:
    62ec:	fc010113          	addi	sp,sp,-64
    62f0:	03455713          	srli	a4,a0,0x34
    62f4:	fff00593          	li	a1,-1
    62f8:	00c5d593          	srli	a1,a1,0xc
    62fc:	02113c23          	sd	ra,56(sp)
    6300:	02813823          	sd	s0,48(sp)
    6304:	02913423          	sd	s1,40(sp)
    6308:	03213023          	sd	s2,32(sp)
    630c:	01313c23          	sd	s3,24(sp)
    6310:	7ff77713          	andi	a4,a4,2047
    6314:	7ff00693          	li	a3,2047
    6318:	00050793          	mv	a5,a0
    631c:	00b575b3          	and	a1,a0,a1
    6320:	06d70063          	beq	a4,a3,6380 <f64_sqrt+0x94>
    6324:	02054663          	bltz	a0,6350 <f64_sqrt+0x64>
    6328:	06071863          	bnez	a4,6398 <f64_sqrt+0xac>
    632c:	06059063          	bnez	a1,638c <f64_sqrt+0xa0>
    6330:	03813083          	ld	ra,56(sp)
    6334:	03013403          	ld	s0,48(sp)
    6338:	02813483          	ld	s1,40(sp)
    633c:	02013903          	ld	s2,32(sp)
    6340:	01813983          	ld	s3,24(sp)
    6344:	00078513          	mv	a0,a5
    6348:	04010113          	addi	sp,sp,64
    634c:	00008067          	ret
    6350:	00b765b3          	or	a1,a4,a1
    6354:	fc058ee3          	beqz	a1,6330 <f64_sqrt+0x44>
    6358:	01026213          	ori	tp,tp,16
    635c:	03813083          	ld	ra,56(sp)
    6360:	03013403          	ld	s0,48(sp)
    6364:	00fff537          	lui	a0,0xfff
    6368:	02813483          	ld	s1,40(sp)
    636c:	02013903          	ld	s2,32(sp)
    6370:	01813983          	ld	s3,24(sp)
    6374:	02751513          	slli	a0,a0,0x27
    6378:	04010113          	addi	sp,sp,64
    637c:	00008067          	ret
    6380:	0e059a63          	bnez	a1,6474 <f64_sqrt+0x188>
    6384:	fa0556e3          	bgez	a0,6330 <f64_sqrt+0x44>
    6388:	fd1ff06f          	j	6358 <f64_sqrt+0x6c>
    638c:	00058513          	mv	a0,a1
    6390:	1fc010ef          	jal	ra,758c <softfloat_normSubnormalF64Sig>
    6394:	0005071b          	sext.w	a4,a0
    6398:	00100413          	li	s0,1
    639c:	03441413          	slli	s0,s0,0x34
    63a0:	0085e433          	or	s0,a1,s0
    63a4:	00177493          	andi	s1,a4,1
    63a8:	01545913          	srli	s2,s0,0x15
    63ac:	0009059b          	sext.w	a1,s2
    63b0:	00048513          	mv	a0,s1
    63b4:	c017099b          	addiw	s3,a4,-1023
    63b8:	7e0000ef          	jal	ra,6b98 <softfloat_approxRecipSqrt32_1>
    63bc:	02051513          	slli	a0,a0,0x20
    63c0:	02091793          	slli	a5,s2,0x20
    63c4:	02055513          	srli	a0,a0,0x20
    63c8:	0207d793          	srli	a5,a5,0x20
    63cc:	02a787b3          	mul	a5,a5,a0
    63d0:	4019d99b          	sraiw	s3,s3,0x1
    63d4:	3fe9899b          	addiw	s3,s3,1022
    63d8:	00941713          	slli	a4,s0,0x9
    63dc:	4207d793          	srai	a5,a5,0x20
    63e0:	00048863          	beqz	s1,63f0 <f64_sqrt+0x104>
    63e4:	0017d79b          	srliw	a5,a5,0x1
    63e8:	00841713          	slli	a4,s0,0x8
    63ec:	0007879b          	sext.w	a5,a5
    63f0:	02079793          	slli	a5,a5,0x20
    63f4:	0207d793          	srli	a5,a5,0x20
    63f8:	02f78633          	mul	a2,a5,a5
    63fc:	02079793          	slli	a5,a5,0x20
    6400:	0207e793          	ori	a5,a5,32
    6404:	02100693          	li	a3,33
    6408:	40c70633          	sub	a2,a4,a2
    640c:	00265613          	srli	a2,a2,0x2
    6410:	02061613          	slli	a2,a2,0x20
    6414:	02065613          	srli	a2,a2,0x20
    6418:	02a60633          	mul	a2,a2,a0
    641c:	02065613          	srli	a2,a2,0x20
    6420:	00361613          	slli	a2,a2,0x3
    6424:	00f60633          	add	a2,a2,a5
    6428:	1ff67793          	andi	a5,a2,511
    642c:	02f6e263          	bltu	a3,a5,6450 <f64_sqrt+0x164>
    6430:	fc067613          	andi	a2,a2,-64
    6434:	00665793          	srli	a5,a2,0x6
    6438:	02f787b3          	mul	a5,a5,a5
    643c:	03471713          	slli	a4,a4,0x34
    6440:	40f70733          	sub	a4,a4,a5
    6444:	04074a63          	bltz	a4,6498 <f64_sqrt+0x1ac>
    6448:	00070463          	beqz	a4,6450 <f64_sqrt+0x164>
    644c:	00166613          	ori	a2,a2,1
    6450:	03013403          	ld	s0,48(sp)
    6454:	03813083          	ld	ra,56(sp)
    6458:	02813483          	ld	s1,40(sp)
    645c:	02013903          	ld	s2,32(sp)
    6460:	00098593          	mv	a1,s3
    6464:	01813983          	ld	s3,24(sp)
    6468:	00000513          	li	a0,0
    646c:	04010113          	addi	sp,sp,64
    6470:	3800106f          	j	77f0 <softfloat_roundPackToF64>
    6474:	00000593          	li	a1,0
    6478:	5c9010ef          	jal	ra,8240 <softfloat_propagateNaNF64UI>
    647c:	03813083          	ld	ra,56(sp)
    6480:	03013403          	ld	s0,48(sp)
    6484:	02813483          	ld	s1,40(sp)
    6488:	02013903          	ld	s2,32(sp)
    648c:	01813983          	ld	s3,24(sp)
    6490:	04010113          	addi	sp,sp,64
    6494:	00008067          	ret
    6498:	fff60613          	addi	a2,a2,-1
    649c:	fb5ff06f          	j	6450 <f64_sqrt+0x164>

00000000000064a0 <f64_to_f32>:
    64a0:	fe010113          	addi	sp,sp,-32
    64a4:	00913423          	sd	s1,8(sp)
    64a8:	fff00793          	li	a5,-1
    64ac:	03455493          	srli	s1,a0,0x34
    64b0:	00813823          	sd	s0,16(sp)
    64b4:	00c7d793          	srli	a5,a5,0xc
    64b8:	00113c23          	sd	ra,24(sp)
    64bc:	7ff4f493          	andi	s1,s1,2047
    64c0:	7ff00713          	li	a4,2047
    64c4:	03f55413          	srli	s0,a0,0x3f
    64c8:	00f577b3          	and	a5,a0,a5
    64cc:	04e49a63          	bne	s1,a4,6520 <f64_to_f32+0x80>
    64d0:	02079463          	bnez	a5,64f8 <f64_to_f32+0x58>
    64d4:	01f4141b          	slliw	s0,s0,0x1f
    64d8:	7f800537          	lui	a0,0x7f800
    64dc:	00a4043b          	addw	s0,s0,a0
    64e0:	00040513          	mv	a0,s0
    64e4:	01813083          	ld	ra,24(sp)
    64e8:	01013403          	ld	s0,16(sp)
    64ec:	00813483          	ld	s1,8(sp)
    64f0:	02010113          	addi	sp,sp,32
    64f4:	00008067          	ret
    64f8:	00c51793          	slli	a5,a0,0xc
    64fc:	7fc00437          	lui	s0,0x7fc00
    6500:	fe07c0e3          	bltz	a5,64e0 <f64_to_f32+0x40>
    6504:	01026213          	ori	tp,tp,16
    6508:	00040513          	mv	a0,s0
    650c:	01813083          	ld	ra,24(sp)
    6510:	01013403          	ld	s0,16(sp)
    6514:	00813483          	ld	s1,8(sp)
    6518:	02010113          	addi	sp,sp,32
    651c:	00008067          	ret
    6520:	00078513          	mv	a0,a5
    6524:	01600593          	li	a1,22
    6528:	75c010ef          	jal	ra,7c84 <softfloat_shortShiftRightJam64>
    652c:	0005051b          	sext.w	a0,a0
    6530:	00a4e7b3          	or	a5,s1,a0
    6534:	02079063          	bnez	a5,6554 <f64_to_f32+0xb4>
    6538:	01f4141b          	slliw	s0,s0,0x1f
    653c:	00040513          	mv	a0,s0
    6540:	01813083          	ld	ra,24(sp)
    6544:	01013403          	ld	s0,16(sp)
    6548:	00813483          	ld	s1,8(sp)
    654c:	02010113          	addi	sp,sp,32
    6550:	00008067          	ret
    6554:	40000637          	lui	a2,0x40000
    6558:	00c56633          	or	a2,a0,a2
    655c:	00040513          	mv	a0,s0
    6560:	01013403          	ld	s0,16(sp)
    6564:	01813083          	ld	ra,24(sp)
    6568:	c7f4859b          	addiw	a1,s1,-897
    656c:	00813483          	ld	s1,8(sp)
    6570:	02010113          	addi	sp,sp,32
    6574:	1100106f          	j	7684 <softfloat_roundPackToF32>

0000000000006578 <f64_to_ui64>:
    6578:	03455713          	srli	a4,a0,0x34
    657c:	fc010113          	addi	sp,sp,-64
    6580:	7ff77713          	andi	a4,a4,2047
    6584:	43300693          	li	a3,1075
    6588:	fff00793          	li	a5,-1
    658c:	02813823          	sd	s0,48(sp)
    6590:	03213023          	sd	s2,32(sp)
    6594:	01313c23          	sd	s3,24(sp)
    6598:	40e686bb          	subw	a3,a3,a4
    659c:	00c7d793          	srli	a5,a5,0xc
    65a0:	02113c23          	sd	ra,56(sp)
    65a4:	02913423          	sd	s1,40(sp)
    65a8:	00012023          	sw	zero,0(sp)
    65ac:	00060993          	mv	s3,a2
    65b0:	00050413          	mv	s0,a0
    65b4:	00058913          	mv	s2,a1
    65b8:	00f577b3          	and	a5,a0,a5
    65bc:	0006861b          	sext.w	a2,a3
    65c0:	08070c63          	beqz	a4,6658 <f64_to_ui64+0xe0>
    65c4:	00100593          	li	a1,1
    65c8:	03459593          	slli	a1,a1,0x34
    65cc:	00b7e5b3          	or	a1,a5,a1
    65d0:	08c04263          	bgtz	a2,6654 <f64_to_ui64+0xdc>
    65d4:	ff500513          	li	a0,-11
    65d8:	04a64663          	blt	a2,a0,6624 <f64_to_ui64+0xac>
    65dc:	40d006bb          	negw	a3,a3
    65e0:	00d596b3          	sll	a3,a1,a3
    65e4:	0206d793          	srli	a5,a3,0x20
    65e8:	00f12423          	sw	a5,8(sp)
    65ec:	00d12223          	sw	a3,4(sp)
    65f0:	00010493          	mv	s1,sp
    65f4:	00098693          	mv	a3,s3
    65f8:	00090613          	mv	a2,s2
    65fc:	00048593          	mv	a1,s1
    6600:	03f45513          	srli	a0,s0,0x3f
    6604:	7c5000ef          	jal	ra,75c8 <softfloat_roundMToUI64>
    6608:	03813083          	ld	ra,56(sp)
    660c:	03013403          	ld	s0,48(sp)
    6610:	02813483          	ld	s1,40(sp)
    6614:	02013903          	ld	s2,32(sp)
    6618:	01813983          	ld	s3,24(sp)
    661c:	04010113          	addi	sp,sp,64
    6620:	00008067          	ret
    6624:	01026213          	ori	tp,tp,16
    6628:	7ff00693          	li	a3,2047
    662c:	04d70863          	beq	a4,a3,667c <f64_to_ui64+0x104>
    6630:	fff44413          	not	s0,s0
    6634:	43f45513          	srai	a0,s0,0x3f
    6638:	03813083          	ld	ra,56(sp)
    663c:	03013403          	ld	s0,48(sp)
    6640:	02813483          	ld	s1,40(sp)
    6644:	02013903          	ld	s2,32(sp)
    6648:	01813983          	ld	s3,24(sp)
    664c:	04010113          	addi	sp,sp,64
    6650:	00008067          	ret
    6654:	00058793          	mv	a5,a1
    6658:	00010493          	mv	s1,sp
    665c:	0207d713          	srli	a4,a5,0x20
    6660:	00048693          	mv	a3,s1
    6664:	00048593          	mv	a1,s1
    6668:	00300513          	li	a0,3
    666c:	00e12423          	sw	a4,8(sp)
    6670:	00f12223          	sw	a5,4(sp)
    6674:	40c010ef          	jal	ra,7a80 <softfloat_shiftRightJamM>
    6678:	f7dff06f          	j	65f4 <f64_to_ui64+0x7c>
    667c:	fff00513          	li	a0,-1
    6680:	fa0788e3          	beqz	a5,6630 <f64_to_ui64+0xb8>
    6684:	f85ff06f          	j	6608 <f64_to_ui64+0x90>

0000000000006688 <f64_classify>:
    6688:	03455793          	srli	a5,a0,0x34
    668c:	7ff7f793          	andi	a5,a5,2047
    6690:	7ff00713          	li	a4,2047
    6694:	0a054663          	bltz	a0,6740 <f64_classify+0xb8>
    6698:	06e78663          	beq	a5,a4,6704 <f64_classify+0x7c>
    669c:	04000693          	li	a3,64
    66a0:	0c078063          	beqz	a5,6760 <f64_classify+0xd8>
    66a4:	00000793          	li	a5,0
    66a8:	7ff00613          	li	a2,2047
    66ac:	fff54713          	not	a4,a0
    66b0:	03461613          	slli	a2,a2,0x34
    66b4:	00c77733          	and	a4,a4,a2
    66b8:	00d7e7b3          	or	a5,a5,a3
    66bc:	00000693          	li	a3,0
    66c0:	02071e63          	bnez	a4,66fc <f64_classify+0x74>
    66c4:	00070693          	mv	a3,a4
    66c8:	00c51713          	slli	a4,a0,0xc
    66cc:	02070863          	beqz	a4,66fc <f64_classify+0x74>
    66d0:	00fff737          	lui	a4,0xfff
    66d4:	02771713          	slli	a4,a4,0x27
    66d8:	00e57733          	and	a4,a0,a4
    66dc:	08c70663          	beq	a4,a2,6768 <f64_classify+0xe0>
    66e0:	00fff737          	lui	a4,0xfff
    66e4:	02771713          	slli	a4,a4,0x27
    66e8:	7ff00613          	li	a2,2047
    66ec:	00e57733          	and	a4,a0,a4
    66f0:	03461613          	slli	a2,a2,0x34
    66f4:	20000693          	li	a3,512
    66f8:	08c70263          	beq	a4,a2,677c <f64_classify+0xf4>
    66fc:	00f6e533          	or	a0,a3,a5
    6700:	00008067          	ret
    6704:	fff00693          	li	a3,-1
    6708:	00c6d693          	srli	a3,a3,0xc
    670c:	00d576b3          	and	a3,a0,a3
    6710:	0016b693          	seqz	a3,a3
    6714:	00769693          	slli	a3,a3,0x7
    6718:	f80546e3          	bltz	a0,66a4 <f64_classify+0x1c>
    671c:	f80794e3          	bnez	a5,66a4 <f64_classify+0x1c>
    6720:	fff00713          	li	a4,-1
    6724:	00c75713          	srli	a4,a4,0xc
    6728:	00e57733          	and	a4,a0,a4
    672c:	00070463          	beqz	a4,6734 <f64_classify+0xac>
    6730:	0206e693          	ori	a3,a3,32
    6734:	00173713          	seqz	a4,a4
    6738:	0047179b          	slliw	a5,a4,0x4
    673c:	f6dff06f          	j	66a8 <f64_classify+0x20>
    6740:	04e78e63          	beq	a5,a4,679c <f64_classify+0x114>
    6744:	00200693          	li	a3,2
    6748:	f4079ee3          	bnez	a5,66a4 <f64_classify+0x1c>
    674c:	00c51713          	slli	a4,a0,0xc
    6750:	00000693          	li	a3,0
    6754:	04070063          	beqz	a4,6794 <f64_classify+0x10c>
    6758:	0046e693          	ori	a3,a3,4
    675c:	f4dff06f          	j	66a8 <f64_classify+0x20>
    6760:	00000693          	li	a3,0
    6764:	fb5ff06f          	j	6718 <f64_classify+0x90>
    6768:	fff00713          	li	a4,-1
    676c:	00d75713          	srli	a4,a4,0xd
    6770:	00e57733          	and	a4,a0,a4
    6774:	f60706e3          	beqz	a4,66e0 <f64_classify+0x58>
    6778:	1007e793          	ori	a5,a5,256
    677c:	fff00693          	li	a3,-1
    6780:	00d6d693          	srli	a3,a3,0xd
    6784:	00d576b3          	and	a3,a0,a3
    6788:	0016b693          	seqz	a3,a3
    678c:	0096969b          	slliw	a3,a3,0x9
    6790:	f6dff06f          	j	66fc <f64_classify+0x74>
    6794:	0086e693          	ori	a3,a3,8
    6798:	f11ff06f          	j	66a8 <f64_classify+0x20>
    679c:	fff00793          	li	a5,-1
    67a0:	00c7d793          	srli	a5,a5,0xc
    67a4:	00f577b3          	and	a5,a0,a5
    67a8:	0017b693          	seqz	a3,a5
    67ac:	ef9ff06f          	j	66a4 <f64_classify+0x1c>

00000000000067b0 <softfloat_addMagsF32>:
    67b0:	fd010113          	addi	sp,sp,-48
    67b4:	02813023          	sd	s0,32(sp)
    67b8:	00913c23          	sd	s1,24(sp)
    67bc:	0175541b          	srliw	s0,a0,0x17
    67c0:	0175d49b          	srliw	s1,a1,0x17
    67c4:	0ff47413          	andi	s0,s0,255
    67c8:	0ff4f493          	andi	s1,s1,255
    67cc:	008007b7          	lui	a5,0x800
    67d0:	fff78793          	addi	a5,a5,-1 # 7fffff <_end+0x5ff95f>
    67d4:	02113423          	sd	ra,40(sp)
    67d8:	01213823          	sd	s2,16(sp)
    67dc:	01313423          	sd	s3,8(sp)
    67e0:	01413023          	sd	s4,0(sp)
    67e4:	409406bb          	subw	a3,s0,s1
    67e8:	00f57633          	and	a2,a0,a5
    67ec:	00f5f733          	and	a4,a1,a5
    67f0:	02069663          	bnez	a3,681c <softfloat_addMagsF32+0x6c>
    67f4:	0a041463          	bnez	s0,689c <softfloat_addMagsF32+0xec>
    67f8:	00e5053b          	addw	a0,a0,a4
    67fc:	02813083          	ld	ra,40(sp)
    6800:	02013403          	ld	s0,32(sp)
    6804:	01813483          	ld	s1,24(sp)
    6808:	01013903          	ld	s2,16(sp)
    680c:	00813983          	ld	s3,8(sp)
    6810:	00013a03          	ld	s4,0(sp)
    6814:	03010113          	addi	sp,sp,48
    6818:	00008067          	ret
    681c:	01f5591b          	srliw	s2,a0,0x1f
    6820:	0066199b          	slliw	s3,a2,0x6
    6824:	00671a1b          	slliw	s4,a4,0x6
    6828:	00098613          	mv	a2,s3
    682c:	000a0713          	mv	a4,s4
    6830:	0ff97913          	andi	s2,s2,255
    6834:	0ff00793          	li	a5,255
    6838:	0a06c463          	bltz	a3,68e0 <softfloat_addMagsF32+0x130>
    683c:	10f40c63          	beq	s0,a5,6954 <softfloat_addMagsF32+0x1a4>
    6840:	20000537          	lui	a0,0x20000
    6844:	0c048463          	beqz	s1,690c <softfloat_addMagsF32+0x15c>
    6848:	00068593          	mv	a1,a3
    684c:	00a7053b          	addw	a0,a4,a0
    6850:	1dc010ef          	jal	ra,7a2c <softfloat_shiftRightJam32>
    6854:	00050a1b          	sext.w	s4,a0
    6858:	200007b7          	lui	a5,0x20000
    685c:	014989bb          	addw	s3,s3,s4
    6860:	00f9863b          	addw	a2,s3,a5
    6864:	400007b7          	lui	a5,0x40000
    6868:	00f67663          	bleu	a5,a2,6874 <softfloat_addMagsF32+0xc4>
    686c:	fff4041b          	addiw	s0,s0,-1
    6870:	0016161b          	slliw	a2,a2,0x1
    6874:	00040593          	mv	a1,s0
    6878:	02013403          	ld	s0,32(sp)
    687c:	02813083          	ld	ra,40(sp)
    6880:	01813483          	ld	s1,24(sp)
    6884:	00813983          	ld	s3,8(sp)
    6888:	00013a03          	ld	s4,0(sp)
    688c:	00090513          	mv	a0,s2
    6890:	01013903          	ld	s2,16(sp)
    6894:	03010113          	addi	sp,sp,48
    6898:	5ed0006f          	j	7684 <softfloat_roundPackToF32>
    689c:	0ff00693          	li	a3,255
    68a0:	06d40a63          	beq	s0,a3,6914 <softfloat_addMagsF32+0x164>
    68a4:	010007b7          	lui	a5,0x1000
    68a8:	00e7873b          	addw	a4,a5,a4
    68ac:	00c7063b          	addw	a2,a4,a2
    68b0:	01f5551b          	srliw	a0,a0,0x1f
    68b4:	00167793          	andi	a5,a2,1
    68b8:	0ff57913          	andi	s2,a0,255
    68bc:	08079863          	bnez	a5,694c <softfloat_addMagsF32+0x19c>
    68c0:	0fe00793          	li	a5,254
    68c4:	08f40463          	beq	s0,a5,694c <softfloat_addMagsF32+0x19c>
    68c8:	01f9151b          	slliw	a0,s2,0x1f
    68cc:	0016561b          	srliw	a2,a2,0x1
    68d0:	00c5053b          	addw	a0,a0,a2
    68d4:	0174141b          	slliw	s0,s0,0x17
    68d8:	0085053b          	addw	a0,a0,s0
    68dc:	f21ff06f          	j	67fc <softfloat_addMagsF32+0x4c>
    68e0:	06f48e63          	beq	s1,a5,695c <softfloat_addMagsF32+0x1ac>
    68e4:	00068813          	mv	a6,a3
    68e8:	20000537          	lui	a0,0x20000
    68ec:	00041463          	bnez	s0,68f4 <softfloat_addMagsF32+0x144>
    68f0:	00098513          	mv	a0,s3
    68f4:	410005bb          	negw	a1,a6
    68f8:	00a6053b          	addw	a0,a2,a0
    68fc:	130010ef          	jal	ra,7a2c <softfloat_shiftRightJam32>
    6900:	0005099b          	sext.w	s3,a0
    6904:	00048413          	mv	s0,s1
    6908:	f51ff06f          	j	6858 <softfloat_addMagsF32+0xa8>
    690c:	000a0513          	mv	a0,s4
    6910:	f39ff06f          	j	6848 <softfloat_addMagsF32+0x98>
    6914:	00050893          	mv	a7,a0
    6918:	0115e8b3          	or	a7,a1,a7
    691c:	00f8f7b3          	and	a5,a7,a5
    6920:	ec078ee3          	beqz	a5,67fc <softfloat_addMagsF32+0x4c>
    6924:	0d1010ef          	jal	ra,81f4 <softfloat_propagateNaNF32UI>
    6928:	02813083          	ld	ra,40(sp)
    692c:	02013403          	ld	s0,32(sp)
    6930:	01813483          	ld	s1,24(sp)
    6934:	01013903          	ld	s2,16(sp)
    6938:	00813983          	ld	s3,8(sp)
    693c:	00013a03          	ld	s4,0(sp)
    6940:	0005051b          	sext.w	a0,a0
    6944:	03010113          	addi	sp,sp,48
    6948:	00008067          	ret
    694c:	0066161b          	slliw	a2,a2,0x6
    6950:	f25ff06f          	j	6874 <softfloat_addMagsF32+0xc4>
    6954:	fc0998e3          	bnez	s3,6924 <softfloat_addMagsF32+0x174>
    6958:	ea5ff06f          	j	67fc <softfloat_addMagsF32+0x4c>
    695c:	fc0a14e3          	bnez	s4,6924 <softfloat_addMagsF32+0x174>
    6960:	01f9191b          	slliw	s2,s2,0x1f
    6964:	7f800537          	lui	a0,0x7f800
    6968:	00a9053b          	addw	a0,s2,a0
    696c:	e91ff06f          	j	67fc <softfloat_addMagsF32+0x4c>

0000000000006970 <softfloat_addMagsF64>:
    6970:	fd010113          	addi	sp,sp,-48
    6974:	02813023          	sd	s0,32(sp)
    6978:	00913c23          	sd	s1,24(sp)
    697c:	03455413          	srli	s0,a0,0x34
    6980:	0345d493          	srli	s1,a1,0x34
    6984:	7ff47413          	andi	s0,s0,2047
    6988:	7ff4f493          	andi	s1,s1,2047
    698c:	fff00793          	li	a5,-1
    6990:	00c7d793          	srli	a5,a5,0xc
    6994:	01313423          	sd	s3,8(sp)
    6998:	02113423          	sd	ra,40(sp)
    699c:	01213823          	sd	s2,16(sp)
    69a0:	01413023          	sd	s4,0(sp)
    69a4:	409406bb          	subw	a3,s0,s1
    69a8:	00060993          	mv	s3,a2
    69ac:	00f578b3          	and	a7,a0,a5
    69b0:	00f5f733          	and	a4,a1,a5
    69b4:	02069663          	bnez	a3,69e0 <softfloat_addMagsF64+0x70>
    69b8:	08041e63          	bnez	s0,6a54 <softfloat_addMagsF64+0xe4>
    69bc:	00e50533          	add	a0,a0,a4
    69c0:	02813083          	ld	ra,40(sp)
    69c4:	02013403          	ld	s0,32(sp)
    69c8:	01813483          	ld	s1,24(sp)
    69cc:	01013903          	ld	s2,16(sp)
    69d0:	00813983          	ld	s3,8(sp)
    69d4:	00013a03          	ld	s4,0(sp)
    69d8:	03010113          	addi	sp,sp,48
    69dc:	00008067          	ret
    69e0:	00989913          	slli	s2,a7,0x9
    69e4:	00971a13          	slli	s4,a4,0x9
    69e8:	7ff00793          	li	a5,2047
    69ec:	0806c463          	bltz	a3,6a74 <softfloat_addMagsF64+0x104>
    69f0:	0ef40a63          	beq	s0,a5,6ae4 <softfloat_addMagsF64+0x174>
    69f4:	00a71513          	slli	a0,a4,0xa
    69f8:	0a049663          	bnez	s1,6aa4 <softfloat_addMagsF64+0x134>
    69fc:	00068593          	mv	a1,a3
    6a00:	058010ef          	jal	ra,7a58 <softfloat_shiftRightJam64>
    6a04:	00050a13          	mv	s4,a0
    6a08:	00100713          	li	a4,1
    6a0c:	01490633          	add	a2,s2,s4
    6a10:	03d71713          	slli	a4,a4,0x3d
    6a14:	fff00793          	li	a5,-1
    6a18:	00e60633          	add	a2,a2,a4
    6a1c:	0027d793          	srli	a5,a5,0x2
    6a20:	00c7e663          	bltu	a5,a2,6a2c <softfloat_addMagsF64+0xbc>
    6a24:	fff4041b          	addiw	s0,s0,-1
    6a28:	00161613          	slli	a2,a2,0x1
    6a2c:	00040593          	mv	a1,s0
    6a30:	02013403          	ld	s0,32(sp)
    6a34:	02813083          	ld	ra,40(sp)
    6a38:	01813483          	ld	s1,24(sp)
    6a3c:	01013903          	ld	s2,16(sp)
    6a40:	00013a03          	ld	s4,0(sp)
    6a44:	00098513          	mv	a0,s3
    6a48:	00813983          	ld	s3,8(sp)
    6a4c:	03010113          	addi	sp,sp,48
    6a50:	5a10006f          	j	77f0 <softfloat_roundPackToF64>
    6a54:	7ff00693          	li	a3,2047
    6a58:	04d40e63          	beq	s0,a3,6ab4 <softfloat_addMagsF64+0x144>
    6a5c:	00100613          	li	a2,1
    6a60:	03561613          	slli	a2,a2,0x35
    6a64:	00c70733          	add	a4,a4,a2
    6a68:	01170633          	add	a2,a4,a7
    6a6c:	00961613          	slli	a2,a2,0x9
    6a70:	fbdff06f          	j	6a2c <softfloat_addMagsF64+0xbc>
    6a74:	06f48c63          	beq	s1,a5,6aec <softfloat_addMagsF64+0x17c>
    6a78:	00068813          	mv	a6,a3
    6a7c:	00a89513          	slli	a0,a7,0xa
    6a80:	00040863          	beqz	s0,6a90 <softfloat_addMagsF64+0x120>
    6a84:	00100513          	li	a0,1
    6a88:	03d51513          	slli	a0,a0,0x3d
    6a8c:	00a90533          	add	a0,s2,a0
    6a90:	410005bb          	negw	a1,a6
    6a94:	7c5000ef          	jal	ra,7a58 <softfloat_shiftRightJam64>
    6a98:	00050913          	mv	s2,a0
    6a9c:	00048413          	mv	s0,s1
    6aa0:	f69ff06f          	j	6a08 <softfloat_addMagsF64+0x98>
    6aa4:	00100513          	li	a0,1
    6aa8:	03d51513          	slli	a0,a0,0x3d
    6aac:	00aa0533          	add	a0,s4,a0
    6ab0:	f4dff06f          	j	69fc <softfloat_addMagsF64+0x8c>
    6ab4:	00b56733          	or	a4,a0,a1
    6ab8:	00f777b3          	and	a5,a4,a5
    6abc:	f00782e3          	beqz	a5,69c0 <softfloat_addMagsF64+0x50>
    6ac0:	780010ef          	jal	ra,8240 <softfloat_propagateNaNF64UI>
    6ac4:	02813083          	ld	ra,40(sp)
    6ac8:	02013403          	ld	s0,32(sp)
    6acc:	01813483          	ld	s1,24(sp)
    6ad0:	01013903          	ld	s2,16(sp)
    6ad4:	00813983          	ld	s3,8(sp)
    6ad8:	00013a03          	ld	s4,0(sp)
    6adc:	03010113          	addi	sp,sp,48
    6ae0:	00008067          	ret
    6ae4:	fc091ee3          	bnez	s2,6ac0 <softfloat_addMagsF64+0x150>
    6ae8:	ed9ff06f          	j	69c0 <softfloat_addMagsF64+0x50>
    6aec:	fc0a1ae3          	bnez	s4,6ac0 <softfloat_addMagsF64+0x150>
    6af0:	03f61513          	slli	a0,a2,0x3f
    6af4:	03449493          	slli	s1,s1,0x34
    6af8:	00950533          	add	a0,a0,s1
    6afc:	ec5ff06f          	j	69c0 <softfloat_addMagsF64+0x50>

0000000000006b00 <softfloat_approxRecip32_1>:
    6b00:	01b5579b          	srliw	a5,a0,0x1b
    6b04:	00f7f793          	andi	a5,a5,15
    6b08:	00179793          	slli	a5,a5,0x1
    6b0c:	00002717          	auipc	a4,0x2
    6b10:	1c470713          	addi	a4,a4,452 # 8cd0 <softfloat_approxRecip_1k1s>
    6b14:	00f70733          	add	a4,a4,a5
    6b18:	00075683          	lhu	a3,0(a4)
    6b1c:	00b5571b          	srliw	a4,a0,0xb
    6b20:	03071713          	slli	a4,a4,0x30
    6b24:	03075713          	srli	a4,a4,0x30
    6b28:	02e686bb          	mulw	a3,a3,a4
    6b2c:	00002717          	auipc	a4,0x2
    6b30:	1c470713          	addi	a4,a4,452 # 8cf0 <softfloat_approxRecip_1k0s>
    6b34:	00f707b3          	add	a5,a4,a5
    6b38:	0007d703          	lhu	a4,0(a5) # 1000000 <_end+0xdff960>
    6b3c:	02051793          	slli	a5,a0,0x20
    6b40:	0207d793          	srli	a5,a5,0x20
    6b44:	0146d69b          	srliw	a3,a3,0x14
    6b48:	40d7073b          	subw	a4,a4,a3
    6b4c:	03071713          	slli	a4,a4,0x30
    6b50:	03075713          	srli	a4,a4,0x30
    6b54:	02e787b3          	mul	a5,a5,a4
    6b58:	0107151b          	slliw	a0,a4,0x10
    6b5c:	0077d793          	srli	a5,a5,0x7
    6b60:	fff7c793          	not	a5,a5
    6b64:	02079793          	slli	a5,a5,0x20
    6b68:	0207d793          	srli	a5,a5,0x20
    6b6c:	02f70733          	mul	a4,a4,a5
    6b70:	02f787b3          	mul	a5,a5,a5
    6b74:	01875713          	srli	a4,a4,0x18
    6b78:	00e5073b          	addw	a4,a0,a4
    6b7c:	02071513          	slli	a0,a4,0x20
    6b80:	02055513          	srli	a0,a0,0x20
    6b84:	0207d793          	srli	a5,a5,0x20
    6b88:	02a787b3          	mul	a5,a5,a0
    6b8c:	0307d793          	srli	a5,a5,0x30
    6b90:	00f7053b          	addw	a0,a4,a5
    6b94:	00008067          	ret

0000000000006b98 <softfloat_approxRecipSqrt32_1>:
    6b98:	01b5d71b          	srliw	a4,a1,0x1b
    6b9c:	00e77713          	andi	a4,a4,14
    6ba0:	00a7073b          	addw	a4,a4,a0
    6ba4:	00171713          	slli	a4,a4,0x1
    6ba8:	00002797          	auipc	a5,0x2
    6bac:	16878793          	addi	a5,a5,360 # 8d10 <softfloat_approxRecipSqrt_1k1s>
    6bb0:	00e787b3          	add	a5,a5,a4
    6bb4:	0007d783          	lhu	a5,0(a5)
    6bb8:	00c5d69b          	srliw	a3,a1,0xc
    6bbc:	03069693          	slli	a3,a3,0x30
    6bc0:	0306d693          	srli	a3,a3,0x30
    6bc4:	02d787bb          	mulw	a5,a5,a3
    6bc8:	00002697          	auipc	a3,0x2
    6bcc:	16868693          	addi	a3,a3,360 # 8d30 <softfloat_approxRecipSqrt_1k0s>
    6bd0:	00e68733          	add	a4,a3,a4
    6bd4:	00075683          	lhu	a3,0(a4)
    6bd8:	0147d79b          	srliw	a5,a5,0x14
    6bdc:	40f686bb          	subw	a3,a3,a5
    6be0:	03069693          	slli	a3,a3,0x30
    6be4:	0306d693          	srli	a3,a3,0x30
    6be8:	0006871b          	sext.w	a4,a3
    6bec:	02e707bb          	mulw	a5,a4,a4
    6bf0:	00051463          	bnez	a0,6bf8 <softfloat_approxRecipSqrt32_1+0x60>
    6bf4:	0017979b          	slliw	a5,a5,0x1
    6bf8:	02079793          	slli	a5,a5,0x20
    6bfc:	02059593          	slli	a1,a1,0x20
    6c00:	0205d593          	srli	a1,a1,0x20
    6c04:	0207d793          	srli	a5,a5,0x20
    6c08:	0107151b          	slliw	a0,a4,0x10
    6c0c:	00e7161b          	slliw	a2,a4,0xe
    6c10:	02b787b3          	mul	a5,a5,a1
    6c14:	0177d793          	srli	a5,a5,0x17
    6c18:	fff7c793          	not	a5,a5
    6c1c:	02079793          	slli	a5,a5,0x20
    6c20:	0207d793          	srli	a5,a5,0x20
    6c24:	02f686b3          	mul	a3,a3,a5
    6c28:	02f787b3          	mul	a5,a5,a5
    6c2c:	0196d693          	srli	a3,a3,0x19
    6c30:	00d506bb          	addw	a3,a0,a3
    6c34:	0016d71b          	srliw	a4,a3,0x1
    6c38:	0036d59b          	srliw	a1,a3,0x3
    6c3c:	00b7073b          	addw	a4,a4,a1
    6c40:	40c7073b          	subw	a4,a4,a2
    6c44:	02071713          	slli	a4,a4,0x20
    6c48:	02075713          	srli	a4,a4,0x20
    6c4c:	0207d793          	srli	a5,a5,0x20
    6c50:	02f707b3          	mul	a5,a4,a5
    6c54:	0307d793          	srli	a5,a5,0x30
    6c58:	00f6853b          	addw	a0,a3,a5
    6c5c:	00055463          	bgez	a0,6c64 <softfloat_approxRecipSqrt32_1+0xcc>
    6c60:	00008067          	ret
    6c64:	80000537          	lui	a0,0x80000
    6c68:	00008067          	ret

0000000000006c6c <softfloat_mul64To128M>:
    6c6c:	fff00813          	li	a6,-1
    6c70:	02085813          	srli	a6,a6,0x20
    6c74:	02055713          	srli	a4,a0,0x20
    6c78:	0205d693          	srli	a3,a1,0x20
    6c7c:	01057533          	and	a0,a0,a6
    6c80:	0105f5b3          	and	a1,a1,a6
    6c84:	02a687b3          	mul	a5,a3,a0
    6c88:	02b70833          	mul	a6,a4,a1
    6c8c:	010787b3          	add	a5,a5,a6
    6c90:	02b50533          	mul	a0,a0,a1
    6c94:	02d706b3          	mul	a3,a4,a3
    6c98:	0507e063          	bltu	a5,a6,6cd8 <softfloat_mul64To128M+0x6c>
    6c9c:	00000813          	li	a6,0
    6ca0:	02079713          	slli	a4,a5,0x20
    6ca4:	00e505b3          	add	a1,a0,a4
    6ca8:	00e5b733          	sltu	a4,a1,a4
    6cac:	0207d793          	srli	a5,a5,0x20
    6cb0:	00d70733          	add	a4,a4,a3
    6cb4:	0107e7b3          	or	a5,a5,a6
    6cb8:	00e787b3          	add	a5,a5,a4
    6cbc:	0205d693          	srli	a3,a1,0x20
    6cc0:	0207d713          	srli	a4,a5,0x20
    6cc4:	00d62223          	sw	a3,4(a2) # 40000004 <_end+0x3fdff964>
    6cc8:	00b62023          	sw	a1,0(a2)
    6ccc:	00e62623          	sw	a4,12(a2)
    6cd0:	00f62423          	sw	a5,8(a2)
    6cd4:	00008067          	ret
    6cd8:	00100813          	li	a6,1
    6cdc:	02081813          	slli	a6,a6,0x20
    6ce0:	fc1ff06f          	j	6ca0 <softfloat_mul64To128M+0x34>

0000000000006ce4 <softfloat_mulAddF32>:
    6ce4:	f9010113          	addi	sp,sp,-112
    6ce8:	fff68713          	addi	a4,a3,-1
    6cec:	04913c23          	sd	s1,88(sp)
    6cf0:	ffe68693          	addi	a3,a3,-2
    6cf4:	03613823          	sd	s6,48(sp)
    6cf8:	0175549b          	srliw	s1,a0,0x17
    6cfc:	00b54b33          	xor	s6,a0,a1
    6d00:	008007b7          	lui	a5,0x800
    6d04:	fff78793          	addi	a5,a5,-1 # 7fffff <_end+0x5ff95f>
    6d08:	06813023          	sd	s0,96(sp)
    6d0c:	05213823          	sd	s2,80(sp)
    6d10:	05313423          	sd	s3,72(sp)
    6d14:	0016b913          	seqz	s2,a3
    6d18:	05413023          	sd	s4,64(sp)
    6d1c:	03513c23          	sd	s5,56(sp)
    6d20:	03713423          	sd	s7,40(sp)
    6d24:	03813023          	sd	s8,32(sp)
    6d28:	01913c23          	sd	s9,24(sp)
    6d2c:	0175d99b          	srliw	s3,a1,0x17
    6d30:	00173713          	seqz	a4,a4
    6d34:	03f65b93          	srli	s7,a2,0x3f
    6d38:	01765a9b          	srliw	s5,a2,0x17
    6d3c:	03fb5b13          	srli	s6,s6,0x3f
    6d40:	06113423          	sd	ra,104(sp)
    6d44:	0ff4f493          	andi	s1,s1,255
    6d48:	0ff00693          	li	a3,255
    6d4c:	00f57a33          	and	s4,a0,a5
    6d50:	0ff9f993          	andi	s3,s3,255
    6d54:	00f5fc33          	and	s8,a1,a5
    6d58:	00ebcbb3          	xor	s7,s7,a4
    6d5c:	0ffafa93          	andi	s5,s5,255
    6d60:	00f67433          	and	s0,a2,a5
    6d64:	012b4cb3          	xor	s9,s6,s2
    6d68:	08d48a63          	beq	s1,a3,6dfc <softfloat_mulAddF32+0x118>
    6d6c:	02d98c63          	beq	s3,a3,6da4 <softfloat_mulAddF32+0xc0>
    6d70:	0eda8c63          	beq	s5,a3,6e68 <softfloat_mulAddF32+0x184>
    6d74:	0c048063          	beqz	s1,6e34 <softfloat_mulAddF32+0x150>
    6d78:	10099663          	bnez	s3,6e84 <softfloat_mulAddF32+0x1a0>
    6d7c:	0e0c1c63          	bnez	s8,6e74 <softfloat_mulAddF32+0x190>
    6d80:	008ae7b3          	or	a5,s5,s0
    6d84:	0c079e63          	bnez	a5,6e60 <softfloat_mulAddF32+0x17c>
    6d88:	0d9b8c63          	beq	s7,s9,6e60 <softfloat_mulAddF32+0x17c>
    6d8c:	40d2571b          	sraiw	a4,tp,0xd
    6d90:	00200793          	li	a5,2
    6d94:	80000537          	lui	a0,0x80000
    6d98:	02f70863          	beq	a4,a5,6dc8 <softfloat_mulAddF32+0xe4>
    6d9c:	00000513          	li	a0,0
    6da0:	0280006f          	j	6dc8 <softfloat_mulAddF32+0xe4>
    6da4:	0144e4b3          	or	s1,s1,s4
    6da8:	060c0063          	beqz	s8,6e08 <softfloat_mulAddF32+0x124>
    6dac:	00c13423          	sd	a2,8(sp)
    6db0:	444010ef          	jal	ra,81f4 <softfloat_propagateNaNF32UI>
    6db4:	00813603          	ld	a2,8(sp)
    6db8:	0005051b          	sext.w	a0,a0
    6dbc:	00060593          	mv	a1,a2
    6dc0:	434010ef          	jal	ra,81f4 <softfloat_propagateNaNF32UI>
    6dc4:	0005051b          	sext.w	a0,a0
    6dc8:	06813083          	ld	ra,104(sp)
    6dcc:	06013403          	ld	s0,96(sp)
    6dd0:	05813483          	ld	s1,88(sp)
    6dd4:	05013903          	ld	s2,80(sp)
    6dd8:	04813983          	ld	s3,72(sp)
    6ddc:	04013a03          	ld	s4,64(sp)
    6de0:	03813a83          	ld	s5,56(sp)
    6de4:	03013b03          	ld	s6,48(sp)
    6de8:	02813b83          	ld	s7,40(sp)
    6dec:	02013c03          	ld	s8,32(sp)
    6df0:	01813c83          	ld	s9,24(sp)
    6df4:	07010113          	addi	sp,sp,112
    6df8:	00008067          	ret
    6dfc:	fa0a18e3          	bnez	s4,6dac <softfloat_mulAddF32+0xc8>
    6e00:	04998a63          	beq	s3,s1,6e54 <softfloat_mulAddF32+0x170>
    6e04:	0189e4b3          	or	s1,s3,s8
    6e08:	02048063          	beqz	s1,6e28 <softfloat_mulAddF32+0x144>
    6e0c:	01fc951b          	slliw	a0,s9,0x1f
    6e10:	7f800737          	lui	a4,0x7f800
    6e14:	0ff00793          	li	a5,255
    6e18:	00e5053b          	addw	a0,a0,a4
    6e1c:	fafa96e3          	bne	s5,a5,6dc8 <softfloat_mulAddF32+0xe4>
    6e20:	f8041ee3          	bnez	s0,6dbc <softfloat_mulAddF32+0xd8>
    6e24:	fb9b82e3          	beq	s7,s9,6dc8 <softfloat_mulAddF32+0xe4>
    6e28:	01026213          	ori	tp,tp,16
    6e2c:	7fc00537          	lui	a0,0x7fc00
    6e30:	f8dff06f          	j	6dbc <softfloat_mulAddF32+0xd8>
    6e34:	f40a06e3          	beqz	s4,6d80 <softfloat_mulAddF32+0x9c>
    6e38:	000a0513          	mv	a0,s4
    6e3c:	00c13423          	sd	a2,8(sp)
    6e40:	708000ef          	jal	ra,7548 <softfloat_normSubnormalF32Sig>
    6e44:	0005049b          	sext.w	s1,a0
    6e48:	42055a13          	srai	s4,a0,0x20
    6e4c:	00813603          	ld	a2,8(sp)
    6e50:	f29ff06f          	j	6d78 <softfloat_mulAddF32+0x94>
    6e54:	f40c1ce3          	bnez	s8,6dac <softfloat_mulAddF32+0xc8>
    6e58:	0189e4b3          	or	s1,s3,s8
    6e5c:	fadff06f          	j	6e08 <softfloat_mulAddF32+0x124>
    6e60:	00060513          	mv	a0,a2
    6e64:	f65ff06f          	j	6dc8 <softfloat_mulAddF32+0xe4>
    6e68:	fe040ce3          	beqz	s0,6e60 <softfloat_mulAddF32+0x17c>
    6e6c:	00000513          	li	a0,0
    6e70:	f4dff06f          	j	6dbc <softfloat_mulAddF32+0xd8>
    6e74:	000c0513          	mv	a0,s8
    6e78:	6d0000ef          	jal	ra,7548 <softfloat_normSubnormalF32Sig>
    6e7c:	0005099b          	sext.w	s3,a0
    6e80:	42055c13          	srai	s8,a0,0x20
    6e84:	400007b7          	lui	a5,0x40000
    6e88:	007a1a1b          	slliw	s4,s4,0x7
    6e8c:	007c1c1b          	slliw	s8,s8,0x7
    6e90:	00fa6a33          	or	s4,s4,a5
    6e94:	00fc6c33          	or	s8,s8,a5
    6e98:	020a1a13          	slli	s4,s4,0x20
    6e9c:	020c1c13          	slli	s8,s8,0x20
    6ea0:	020a5a13          	srli	s4,s4,0x20
    6ea4:	020c5c13          	srli	s8,s8,0x20
    6ea8:	038a0a33          	mul	s4,s4,s8
    6eac:	fff00793          	li	a5,-1
    6eb0:	0037d793          	srli	a5,a5,0x3
    6eb4:	013484bb          	addw	s1,s1,s3
    6eb8:	0d47fc63          	bleu	s4,a5,6f90 <softfloat_mulAddF32+0x2ac>
    6ebc:	f824849b          	addiw	s1,s1,-126
    6ec0:	020a9863          	bnez	s5,6ef0 <softfloat_mulAddF32+0x20c>
    6ec4:	00041e63          	bnez	s0,6ee0 <softfloat_mulAddF32+0x1fc>
    6ec8:	01f00593          	li	a1,31
    6ecc:	000a0513          	mv	a0,s4
    6ed0:	5b5000ef          	jal	ra,7c84 <softfloat_shortShiftRightJam64>
    6ed4:	fff4849b          	addiw	s1,s1,-1
    6ed8:	0005061b          	sext.w	a2,a0
    6edc:	0780006f          	j	6f54 <softfloat_mulAddF32+0x270>
    6ee0:	00040513          	mv	a0,s0
    6ee4:	664000ef          	jal	ra,7548 <softfloat_normSubnormalF32Sig>
    6ee8:	00050a9b          	sext.w	s5,a0
    6eec:	42055413          	srai	s0,a0,0x20
    6ef0:	0064179b          	slliw	a5,s0,0x6
    6ef4:	20000637          	lui	a2,0x20000
    6ef8:	00c7e7b3          	or	a5,a5,a2
    6efc:	415485bb          	subw	a1,s1,s5
    6f00:	00058713          	mv	a4,a1
    6f04:	0007841b          	sext.w	s0,a5
    6f08:	0b9b8863          	beq	s7,s9,6fb8 <softfloat_mulAddF32+0x2d4>
    6f0c:	02041413          	slli	s0,s0,0x20
    6f10:	0805c663          	bltz	a1,6f9c <softfloat_mulAddF32+0x2b8>
    6f14:	0c059a63          	bnez	a1,6fe8 <softfloat_mulAddF32+0x304>
    6f18:	408a0a33          	sub	s4,s4,s0
    6f1c:	e60a08e3          	beqz	s4,6d8c <softfloat_mulAddF32+0xa8>
    6f20:	000a5863          	bgez	s4,6f30 <softfloat_mulAddF32+0x24c>
    6f24:	412b0933          	sub	s2,s6,s2
    6f28:	00193c93          	seqz	s9,s2
    6f2c:	41400a33          	neg	s4,s4
    6f30:	000a0513          	mv	a0,s4
    6f34:	424010ef          	jal	ra,8358 <softfloat_countLeadingZeros64>
    6f38:	0005051b          	sext.w	a0,a0
    6f3c:	fff5079b          	addiw	a5,a0,-1
    6f40:	fdf5051b          	addiw	a0,a0,-33
    6f44:	02051713          	slli	a4,a0,0x20
    6f48:	40f484bb          	subw	s1,s1,a5
    6f4c:	00aa163b          	sllw	a2,s4,a0
    6f50:	0c074263          	bltz	a4,7014 <softfloat_mulAddF32+0x330>
    6f54:	06013403          	ld	s0,96(sp)
    6f58:	06813083          	ld	ra,104(sp)
    6f5c:	05013903          	ld	s2,80(sp)
    6f60:	04813983          	ld	s3,72(sp)
    6f64:	04013a03          	ld	s4,64(sp)
    6f68:	03813a83          	ld	s5,56(sp)
    6f6c:	03013b03          	ld	s6,48(sp)
    6f70:	02813b83          	ld	s7,40(sp)
    6f74:	02013c03          	ld	s8,32(sp)
    6f78:	00048593          	mv	a1,s1
    6f7c:	000c8513          	mv	a0,s9
    6f80:	05813483          	ld	s1,88(sp)
    6f84:	01813c83          	ld	s9,24(sp)
    6f88:	07010113          	addi	sp,sp,112
    6f8c:	6f80006f          	j	7684 <softfloat_roundPackToF32>
    6f90:	f814849b          	addiw	s1,s1,-127
    6f94:	001a1a13          	slli	s4,s4,0x1
    6f98:	f29ff06f          	j	6ec0 <softfloat_mulAddF32+0x1dc>
    6f9c:	000a0513          	mv	a0,s4
    6fa0:	40b005bb          	negw	a1,a1
    6fa4:	2b5000ef          	jal	ra,7a58 <softfloat_shiftRightJam64>
    6fa8:	40a40a33          	sub	s4,s0,a0
    6fac:	000a8493          	mv	s1,s5
    6fb0:	000b8c93          	mv	s9,s7
    6fb4:	f7dff06f          	j	6f30 <softfloat_mulAddF32+0x24c>
    6fb8:	04b05063          	blez	a1,6ff8 <softfloat_mulAddF32+0x314>
    6fbc:	02041513          	slli	a0,s0,0x20
    6fc0:	299000ef          	jal	ra,7a58 <softfloat_shiftRightJam64>
    6fc4:	02000593          	li	a1,32
    6fc8:	01450533          	add	a0,a0,s4
    6fcc:	4b9000ef          	jal	ra,7c84 <softfloat_shortShiftRightJam64>
    6fd0:	0005061b          	sext.w	a2,a0
    6fd4:	400007b7          	lui	a5,0x40000
    6fd8:	f6f67ee3          	bleu	a5,a2,6f54 <softfloat_mulAddF32+0x270>
    6fdc:	0016161b          	slliw	a2,a2,0x1
    6fe0:	fff4849b          	addiw	s1,s1,-1
    6fe4:	f71ff06f          	j	6f54 <softfloat_mulAddF32+0x270>
    6fe8:	00040513          	mv	a0,s0
    6fec:	26d000ef          	jal	ra,7a58 <softfloat_shiftRightJam64>
    6ff0:	40aa0a33          	sub	s4,s4,a0
    6ff4:	f3dff06f          	j	6f30 <softfloat_mulAddF32+0x24c>
    6ff8:	02000593          	li	a1,32
    6ffc:	40e585bb          	subw	a1,a1,a4
    7000:	000a0513          	mv	a0,s4
    7004:	255000ef          	jal	ra,7a58 <softfloat_shiftRightJam64>
    7008:	0085063b          	addw	a2,a0,s0
    700c:	000a8493          	mv	s1,s5
    7010:	fc5ff06f          	j	6fd4 <softfloat_mulAddF32+0x2f0>
    7014:	02000593          	li	a1,32
    7018:	40f585bb          	subw	a1,a1,a5
    701c:	000a0513          	mv	a0,s4
    7020:	465000ef          	jal	ra,7c84 <softfloat_shortShiftRightJam64>
    7024:	0005061b          	sext.w	a2,a0
    7028:	f2dff06f          	j	6f54 <softfloat_mulAddF32+0x270>

000000000000702c <softfloat_mulAddF64>:
    702c:	f5010113          	addi	sp,sp,-176
    7030:	fff68713          	addi	a4,a3,-1
    7034:	08913c23          	sd	s1,152(sp)
    7038:	ffe68693          	addi	a3,a3,-2
    703c:	07513c23          	sd	s5,120(sp)
    7040:	03455493          	srli	s1,a0,0x34
    7044:	00a5cab3          	xor	s5,a1,a0
    7048:	fff00793          	li	a5,-1
    704c:	00c7d793          	srli	a5,a5,0xc
    7050:	0a813023          	sd	s0,160(sp)
    7054:	09213823          	sd	s2,144(sp)
    7058:	03465413          	srli	s0,a2,0x34
    705c:	0016b913          	seqz	s2,a3
    7060:	09313423          	sd	s3,136(sp)
    7064:	09413023          	sd	s4,128(sp)
    7068:	07613823          	sd	s6,112(sp)
    706c:	07713423          	sd	s7,104(sp)
    7070:	05913c23          	sd	s9,88(sp)
    7074:	05a13823          	sd	s10,80(sp)
    7078:	0345d993          	srli	s3,a1,0x34
    707c:	03f65813          	srli	a6,a2,0x3f
    7080:	00173713          	seqz	a4,a4
    7084:	03fada93          	srli	s5,s5,0x3f
    7088:	0a113423          	sd	ra,168(sp)
    708c:	07813023          	sd	s8,96(sp)
    7090:	05b13423          	sd	s11,72(sp)
    7094:	7ff4f493          	andi	s1,s1,2047
    7098:	7ff00693          	li	a3,2047
    709c:	7ff47c93          	andi	s9,s0,2047
    70a0:	00f57a33          	and	s4,a0,a5
    70a4:	7ff9f993          	andi	s3,s3,2047
    70a8:	00f5fd33          	and	s10,a1,a5
    70ac:	00e84b33          	xor	s6,a6,a4
    70b0:	00f67433          	and	s0,a2,a5
    70b4:	012acbb3          	xor	s7,s5,s2
    70b8:	08d48c63          	beq	s1,a3,7150 <softfloat_mulAddF64+0x124>
    70bc:	06d98863          	beq	s3,a3,712c <softfloat_mulAddF64+0x100>
    70c0:	10dc8063          	beq	s9,a3,71c0 <softfloat_mulAddF64+0x194>
    70c4:	0a048c63          	beqz	s1,717c <softfloat_mulAddF64+0x150>
    70c8:	10099a63          	bnez	s3,71dc <softfloat_mulAddF64+0x1b0>
    70cc:	100d1063          	bnez	s10,71cc <softfloat_mulAddF64+0x1a0>
    70d0:	008ce433          	or	s0,s9,s0
    70d4:	00041c63          	bnez	s0,70ec <softfloat_mulAddF64+0xc0>
    70d8:	017b0a63          	beq	s6,s7,70ec <softfloat_mulAddF64+0xc0>
    70dc:	40d2571b          	sraiw	a4,tp,0xd
    70e0:	00200793          	li	a5,2
    70e4:	00000613          	li	a2,0
    70e8:	26f70463          	beq	a4,a5,7350 <softfloat_mulAddF64+0x324>
    70ec:	00060513          	mv	a0,a2
    70f0:	0a813083          	ld	ra,168(sp)
    70f4:	0a013403          	ld	s0,160(sp)
    70f8:	09813483          	ld	s1,152(sp)
    70fc:	09013903          	ld	s2,144(sp)
    7100:	08813983          	ld	s3,136(sp)
    7104:	08013a03          	ld	s4,128(sp)
    7108:	07813a83          	ld	s5,120(sp)
    710c:	07013b03          	ld	s6,112(sp)
    7110:	06813b83          	ld	s7,104(sp)
    7114:	06013c03          	ld	s8,96(sp)
    7118:	05813c83          	ld	s9,88(sp)
    711c:	05013d03          	ld	s10,80(sp)
    7120:	04813d83          	ld	s11,72(sp)
    7124:	0b010113          	addi	sp,sp,176
    7128:	00008067          	ret
    712c:	0144e4b3          	or	s1,s1,s4
    7130:	020d0663          	beqz	s10,715c <softfloat_mulAddF64+0x130>
    7134:	00c13423          	sd	a2,8(sp)
    7138:	108010ef          	jal	ra,8240 <softfloat_propagateNaNF64UI>
    713c:	00813603          	ld	a2,8(sp)
    7140:	00060593          	mv	a1,a2
    7144:	0fc010ef          	jal	ra,8240 <softfloat_propagateNaNF64UI>
    7148:	00050613          	mv	a2,a0
    714c:	fa1ff06f          	j	70ec <softfloat_mulAddF64+0xc0>
    7150:	fe0a12e3          	bnez	s4,7134 <softfloat_mulAddF64+0x108>
    7154:	06998063          	beq	s3,s1,71b4 <softfloat_mulAddF64+0x188>
    7158:	01a9e4b3          	or	s1,s3,s10
    715c:	04048463          	beqz	s1,71a4 <softfloat_mulAddF64+0x178>
    7160:	7ff00793          	li	a5,2047
    7164:	03fb9513          	slli	a0,s7,0x3f
    7168:	03479713          	slli	a4,a5,0x34
    716c:	00e50533          	add	a0,a0,a4
    7170:	02fc8663          	beq	s9,a5,719c <softfloat_mulAddF64+0x170>
    7174:	00050613          	mv	a2,a0
    7178:	f75ff06f          	j	70ec <softfloat_mulAddF64+0xc0>
    717c:	f40a0ae3          	beqz	s4,70d0 <softfloat_mulAddF64+0xa4>
    7180:	000a0513          	mv	a0,s4
    7184:	00c13423          	sd	a2,8(sp)
    7188:	404000ef          	jal	ra,758c <softfloat_normSubnormalF64Sig>
    718c:	0005049b          	sext.w	s1,a0
    7190:	00058a13          	mv	s4,a1
    7194:	00813603          	ld	a2,8(sp)
    7198:	f31ff06f          	j	70c8 <softfloat_mulAddF64+0x9c>
    719c:	fa0412e3          	bnez	s0,7140 <softfloat_mulAddF64+0x114>
    71a0:	fd7b0ae3          	beq	s6,s7,7174 <softfloat_mulAddF64+0x148>
    71a4:	01026213          	ori	tp,tp,16
    71a8:	00fff537          	lui	a0,0xfff
    71ac:	02751513          	slli	a0,a0,0x27
    71b0:	f91ff06f          	j	7140 <softfloat_mulAddF64+0x114>
    71b4:	f80d10e3          	bnez	s10,7134 <softfloat_mulAddF64+0x108>
    71b8:	01a9e4b3          	or	s1,s3,s10
    71bc:	fa1ff06f          	j	715c <softfloat_mulAddF64+0x130>
    71c0:	f20406e3          	beqz	s0,70ec <softfloat_mulAddF64+0xc0>
    71c4:	00000513          	li	a0,0
    71c8:	f79ff06f          	j	7140 <softfloat_mulAddF64+0x114>
    71cc:	000d0513          	mv	a0,s10
    71d0:	3bc000ef          	jal	ra,758c <softfloat_normSubnormalF64Sig>
    71d4:	0005099b          	sext.w	s3,a0
    71d8:	00058d13          	mv	s10,a1
    71dc:	fff00c13          	li	s8,-1
    71e0:	00100d93          	li	s11,1
    71e4:	03ed9d93          	slli	s11,s11,0x3e
    71e8:	00bd1d13          	slli	s10,s10,0xb
    71ec:	00aa1513          	slli	a0,s4,0xa
    71f0:	03fc1593          	slli	a1,s8,0x3f
    71f4:	00bd65b3          	or	a1,s10,a1
    71f8:	02010613          	addi	a2,sp,32
    71fc:	01b56533          	or	a0,a0,s11
    7200:	a6dff0ef          	jal	ra,6c6c <softfloat_mul64To128M>
    7204:	02813d03          	ld	s10,40(sp)
    7208:	013484bb          	addw	s1,s1,s3
    720c:	01bd77b3          	and	a5,s10,s11
    7210:	02078c63          	beqz	a5,7248 <softfloat_mulAddF64+0x21c>
    7214:	c024899b          	addiw	s3,s1,-1022
    7218:	0c0c9263          	bnez	s9,72dc <softfloat_mulAddF64+0x2b0>
    721c:	26041263          	bnez	s0,7480 <softfloat_mulAddF64+0x454>
    7220:	c014859b          	addiw	a1,s1,-1023
    7224:	02412783          	lw	a5,36(sp)
    7228:	00079663          	bnez	a5,7234 <softfloat_mulAddF64+0x208>
    722c:	02012783          	lw	a5,32(sp)
    7230:	00078463          	beqz	a5,7238 <softfloat_mulAddF64+0x20c>
    7234:	001d6d13          	ori	s10,s10,1
    7238:	000d0613          	mv	a2,s10
    723c:	000b8513          	mv	a0,s7
    7240:	5b0000ef          	jal	ra,77f0 <softfloat_roundPackToF64>
    7244:	eadff06f          	j	70f0 <softfloat_mulAddF64+0xc4>
    7248:	c014899b          	addiw	s3,s1,-1023
    724c:	000c9a63          	bnez	s9,7260 <softfloat_mulAddF64+0x234>
    7250:	12041663          	bnez	s0,737c <softfloat_mulAddF64+0x350>
    7254:	001d1d13          	slli	s10,s10,0x1
    7258:	c004859b          	addiw	a1,s1,-1024
    725c:	fc9ff06f          	j	7224 <softfloat_mulAddF64+0x1f8>
    7260:	00a41413          	slli	s0,s0,0xa
    7264:	41998a3b          	subw	s4,s3,s9
    7268:	01b46db3          	or	s11,s0,s11
    726c:	120a4663          	bltz	s4,7398 <softfloat_mulAddF64+0x36c>
    7270:	02010693          	addi	a3,sp,32
    7274:	00068613          	mv	a2,a3
    7278:	00068593          	mv	a1,a3
    727c:	00400513          	li	a0,4
    7280:	024010ef          	jal	ra,82a4 <softfloat_addM>
    7284:	140a1663          	bnez	s4,73d0 <softfloat_mulAddF64+0x3a4>
    7288:	02813d03          	ld	s10,40(sp)
    728c:	1b7b0663          	beq	s6,s7,7438 <softfloat_mulAddF64+0x40c>
    7290:	41bd0db3          	sub	s11,s10,s11
    7294:	1c0d9263          	bnez	s11,7458 <softfloat_mulAddF64+0x42c>
    7298:	02412783          	lw	a5,36(sp)
    729c:	00079663          	bnez	a5,72a8 <softfloat_mulAddF64+0x27c>
    72a0:	02012783          	lw	a5,32(sp)
    72a4:	e2078ce3          	beqz	a5,70dc <softfloat_mulAddF64+0xb0>
    72a8:	02013423          	sd	zero,40(sp)
    72ac:	02813d03          	ld	s10,40(sp)
    72b0:	00000413          	li	s0,0
    72b4:	000d1663          	bnez	s10,72c0 <softfloat_mulAddF64+0x294>
    72b8:	02013d03          	ld	s10,32(sp)
    72bc:	04000413          	li	s0,64
    72c0:	000d0513          	mv	a0,s10
    72c4:	094010ef          	jal	ra,8358 <softfloat_countLeadingZeros64>
    72c8:	0085043b          	addw	s0,a0,s0
    72cc:	fff4061b          	addiw	a2,s0,-1
    72d0:	08061663          	bnez	a2,735c <softfloat_mulAddF64+0x330>
    72d4:	fff9859b          	addiw	a1,s3,-1
    72d8:	f4dff06f          	j	7224 <softfloat_mulAddF64+0x1f8>
    72dc:	00a41413          	slli	s0,s0,0xa
    72e0:	41998a3b          	subw	s4,s3,s9
    72e4:	01b46db3          	or	s11,s0,s11
    72e8:	f80a5ee3          	bgez	s4,7284 <softfloat_mulAddF64+0x258>
    72ec:	217b0263          	beq	s6,s7,74f0 <softfloat_mulAddF64+0x4c4>
    72f0:	218a1463          	bne	s4,s8,74f8 <softfloat_mulAddF64+0x4cc>
    72f4:	02010693          	addi	a3,sp,32
    72f8:	00100613          	li	a2,1
    72fc:	00068593          	mv	a1,a3
    7300:	00400513          	li	a0,4
    7304:	115000ef          	jal	ra,7c18 <softfloat_shortShiftRightM>
    7308:	000c8993          	mv	s3,s9
    730c:	fff00a13          	li	s4,-1
    7310:	fff00793          	li	a5,-1
    7314:	08fa0863          	beq	s4,a5,73a4 <softfloat_mulAddF64+0x378>
    7318:	02412783          	lw	a5,36(sp)
    731c:	41ad8d33          	sub	s10,s11,s10
    7320:	00079663          	bnez	a5,732c <softfloat_mulAddF64+0x300>
    7324:	02012783          	lw	a5,32(sp)
    7328:	00078663          	beqz	a5,7334 <softfloat_mulAddF64+0x308>
    732c:	fffd0d93          	addi	s11,s10,-1 # 1afff <finisher+0xdf7f>
    7330:	001ded13          	ori	s10,s11,1
    7334:	001d1793          	slli	a5,s10,0x1
    7338:	fff9859b          	addiw	a1,s3,-1
    733c:	000b0b93          	mv	s7,s6
    7340:	ee07cce3          	bltz	a5,7238 <softfloat_mulAddF64+0x20c>
    7344:	001d1d13          	slli	s10,s10,0x1
    7348:	ffe9859b          	addiw	a1,s3,-2
    734c:	eedff06f          	j	7238 <softfloat_mulAddF64+0x20c>
    7350:	fff00613          	li	a2,-1
    7354:	03f61613          	slli	a2,a2,0x3f
    7358:	d95ff06f          	j	70ec <softfloat_mulAddF64+0xc0>
    735c:	02010693          	addi	a3,sp,32
    7360:	00068593          	mv	a1,a3
    7364:	00400513          	li	a0,4
    7368:	40c9843b          	subw	s0,s3,a2
    736c:	5ec000ef          	jal	ra,7958 <softfloat_shiftLeftM>
    7370:	fff4059b          	addiw	a1,s0,-1
    7374:	02813d03          	ld	s10,40(sp)
    7378:	eadff06f          	j	7224 <softfloat_mulAddF64+0x1f8>
    737c:	00040513          	mv	a0,s0
    7380:	20c000ef          	jal	ra,758c <softfloat_normSubnormalF64Sig>
    7384:	00050c9b          	sext.w	s9,a0
    7388:	00a59593          	slli	a1,a1,0xa
    738c:	41998a3b          	subw	s4,s3,s9
    7390:	01b5edb3          	or	s11,a1,s11
    7394:	ec0a5ee3          	bgez	s4,7270 <softfloat_mulAddF64+0x244>
    7398:	137b0463          	beq	s6,s7,74c0 <softfloat_mulAddF64+0x494>
    739c:	000c8993          	mv	s3,s9
    73a0:	158a1263          	bne	s4,s8,74e4 <softfloat_mulAddF64+0x4b8>
    73a4:	02010693          	addi	a3,sp,32
    73a8:	020dd793          	srli	a5,s11,0x20
    73ac:	00068613          	mv	a2,a3
    73b0:	03010593          	addi	a1,sp,48
    73b4:	00400513          	li	a0,4
    73b8:	02f12e23          	sw	a5,60(sp)
    73bc:	03b12c23          	sw	s11,56(sp)
    73c0:	02013823          	sd	zero,48(sp)
    73c4:	000b0b93          	mv	s7,s6
    73c8:	15d000ef          	jal	ra,7d24 <softfloat_subM>
    73cc:	ee1ff06f          	j	72ac <softfloat_mulAddF64+0x280>
    73d0:	03010693          	addi	a3,sp,48
    73d4:	020dd793          	srli	a5,s11,0x20
    73d8:	000a0613          	mv	a2,s4
    73dc:	00068593          	mv	a1,a3
    73e0:	00400513          	li	a0,4
    73e4:	02f12e23          	sw	a5,60(sp)
    73e8:	03b12c23          	sw	s11,56(sp)
    73ec:	02013823          	sd	zero,48(sp)
    73f0:	690000ef          	jal	ra,7a80 <softfloat_shiftRightJamM>
    73f4:	0b7b0663          	beq	s6,s7,74a0 <softfloat_mulAddF64+0x474>
    73f8:	f00a4ce3          	bltz	s4,7310 <softfloat_mulAddF64+0x2e4>
    73fc:	02010693          	addi	a3,sp,32
    7400:	03010613          	addi	a2,sp,48
    7404:	00068593          	mv	a1,a3
    7408:	00400513          	li	a0,4
    740c:	119000ef          	jal	ra,7d24 <softfloat_subM>
    7410:	00100793          	li	a5,1
    7414:	e8fa0ce3          	beq	s4,a5,72ac <softfloat_mulAddF64+0x280>
    7418:	02813d03          	ld	s10,40(sp)
    741c:	03e79793          	slli	a5,a5,0x3e
    7420:	fff9859b          	addiw	a1,s3,-1
    7424:	00fd77b3          	and	a5,s10,a5
    7428:	de079ee3          	bnez	a5,7224 <softfloat_mulAddF64+0x1f8>
    742c:	001d1d13          	slli	s10,s10,0x1
    7430:	ffe9859b          	addiw	a1,s3,-2
    7434:	df1ff06f          	j	7224 <softfloat_mulAddF64+0x1f8>
    7438:	01bd0d33          	add	s10,s10,s11
    743c:	e80d5ce3          	bgez	s10,72d4 <softfloat_mulAddF64+0x2a8>
    7440:	00100593          	li	a1,1
    7444:	000d0513          	mv	a0,s10
    7448:	03d000ef          	jal	ra,7c84 <softfloat_shortShiftRightJam64>
    744c:	00050d13          	mv	s10,a0
    7450:	00098593          	mv	a1,s3
    7454:	dd1ff06f          	j	7224 <softfloat_mulAddF64+0x1f8>
    7458:	020dd793          	srli	a5,s11,0x20
    745c:	02f12623          	sw	a5,44(sp)
    7460:	03b12423          	sw	s11,40(sp)
    7464:	e40dd4e3          	bgez	s11,72ac <softfloat_mulAddF64+0x280>
    7468:	412a8933          	sub	s2,s5,s2
    746c:	02010593          	addi	a1,sp,32
    7470:	00400513          	li	a0,4
    7474:	00193b93          	seqz	s7,s2
    7478:	08c000ef          	jal	ra,7504 <softfloat_negXM>
    747c:	e31ff06f          	j	72ac <softfloat_mulAddF64+0x280>
    7480:	00040513          	mv	a0,s0
    7484:	108000ef          	jal	ra,758c <softfloat_normSubnormalF64Sig>
    7488:	00050c9b          	sext.w	s9,a0
    748c:	00a59593          	slli	a1,a1,0xa
    7490:	41998a3b          	subw	s4,s3,s9
    7494:	01b5edb3          	or	s11,a1,s11
    7498:	de0a56e3          	bgez	s4,7284 <softfloat_mulAddF64+0x258>
    749c:	e51ff06f          	j	72ec <softfloat_mulAddF64+0x2c0>
    74a0:	f9405ce3          	blez	s4,7438 <softfloat_mulAddF64+0x40c>
    74a4:	02010693          	addi	a3,sp,32
    74a8:	03010613          	addi	a2,sp,48
    74ac:	00068593          	mv	a1,a3
    74b0:	00400513          	li	a0,4
    74b4:	5f1000ef          	jal	ra,82a4 <softfloat_addM>
    74b8:	02813d03          	ld	s10,40(sp)
    74bc:	f81ff06f          	j	743c <softfloat_mulAddF64+0x410>
    74c0:	fff00593          	li	a1,-1
    74c4:	414585bb          	subw	a1,a1,s4
    74c8:	000c8993          	mv	s3,s9
    74cc:	f60586e3          	beqz	a1,7438 <softfloat_mulAddF64+0x40c>
    74d0:	000d0513          	mv	a0,s10
    74d4:	584000ef          	jal	ra,7a58 <softfloat_shiftRightJam64>
    74d8:	00050d13          	mv	s10,a0
    74dc:	000c8993          	mv	s3,s9
    74e0:	f15ff06f          	j	73f4 <softfloat_mulAddF64+0x3c8>
    74e4:	fff00593          	li	a1,-1
    74e8:	414585bb          	subw	a1,a1,s4
    74ec:	fe5ff06f          	j	74d0 <softfloat_mulAddF64+0x4a4>
    74f0:	00000593          	li	a1,0
    74f4:	fd1ff06f          	j	74c4 <softfloat_mulAddF64+0x498>
    74f8:	00000593          	li	a1,0
    74fc:	414585bb          	subw	a1,a1,s4
    7500:	fd1ff06f          	j	74d0 <softfloat_mulAddF64+0x4a4>

0000000000007504 <softfloat_negXM>:
    7504:	0005a783          	lw	a5,0(a1)
    7508:	fff5071b          	addiw	a4,a0,-1
    750c:	02071713          	slli	a4,a4,0x20
    7510:	00000693          	li	a3,0
    7514:	01e75713          	srli	a4,a4,0x1e
    7518:	40f687bb          	subw	a5,a3,a5
    751c:	00b70733          	add	a4,a4,a1
    7520:	00f5a023          	sw	a5,0(a1)
    7524:	02e58063          	beq	a1,a4,7544 <softfloat_negXM+0x40>
    7528:	00078463          	beqz	a5,7530 <softfloat_negXM+0x2c>
    752c:	fff00693          	li	a3,-1
    7530:	00458593          	addi	a1,a1,4
    7534:	0005a783          	lw	a5,0(a1)
    7538:	40f687bb          	subw	a5,a3,a5
    753c:	00f5a023          	sw	a5,0(a1)
    7540:	fee594e3          	bne	a1,a4,7528 <softfloat_negXM+0x24>
    7544:	00008067          	ret

0000000000007548 <softfloat_normSubnormalF32Sig>:
    7548:	ff010113          	addi	sp,sp,-16
    754c:	00813023          	sd	s0,0(sp)
    7550:	00113423          	sd	ra,8(sp)
    7554:	00050413          	mv	s0,a0
    7558:	5b9000ef          	jal	ra,8310 <softfloat_countLeadingZeros32>
    755c:	ff85079b          	addiw	a5,a0,-8
    7560:	00100513          	li	a0,1
    7564:	40f5053b          	subw	a0,a0,a5
    7568:	00f4143b          	sllw	s0,s0,a5
    756c:	02051513          	slli	a0,a0,0x20
    7570:	02041413          	slli	s0,s0,0x20
    7574:	02055513          	srli	a0,a0,0x20
    7578:	00856533          	or	a0,a0,s0
    757c:	00813083          	ld	ra,8(sp)
    7580:	00013403          	ld	s0,0(sp)
    7584:	01010113          	addi	sp,sp,16
    7588:	00008067          	ret

000000000000758c <softfloat_normSubnormalF64Sig>:
    758c:	fe010113          	addi	sp,sp,-32
    7590:	00813823          	sd	s0,16(sp)
    7594:	00113c23          	sd	ra,24(sp)
    7598:	00050413          	mv	s0,a0
    759c:	5bd000ef          	jal	ra,8358 <softfloat_countLeadingZeros64>
    75a0:	ff55059b          	addiw	a1,a0,-11
    75a4:	00100793          	li	a5,1
    75a8:	40b787bb          	subw	a5,a5,a1
    75ac:	01813083          	ld	ra,24(sp)
    75b0:	00b415b3          	sll	a1,s0,a1
    75b4:	01013403          	ld	s0,16(sp)
    75b8:	00f12023          	sw	a5,0(sp)
    75bc:	00013503          	ld	a0,0(sp)
    75c0:	02010113          	addi	sp,sp,32
    75c4:	00008067          	ret

00000000000075c8 <softfloat_roundMToUI64>:
    75c8:	0085e783          	lwu	a5,8(a1)
    75cc:	0045e883          	lwu	a7,4(a1)
    75d0:	ffb67813          	andi	a6,a2,-5
    75d4:	02079793          	slli	a5,a5,0x20
    75d8:	00050713          	mv	a4,a0
    75dc:	0117e533          	or	a0,a5,a7
    75e0:	0005a783          	lw	a5,0(a1)
    75e4:	02080a63          	beqz	a6,7618 <softfloat_roundMToUI64+0x50>
    75e8:	04070063          	beqz	a4,7628 <softfloat_roundMToUI64+0x60>
    75ec:	02079593          	slli	a1,a5,0x20
    75f0:	0205d593          	srli	a1,a1,0x20
    75f4:	00a5e5b3          	or	a1,a1,a0
    75f8:	06058263          	beqz	a1,765c <softfloat_roundMToUI64+0x94>
    75fc:	00200593          	li	a1,2
    7600:	04b60463          	beq	a2,a1,7648 <softfloat_roundMToUI64+0x80>
    7604:	04051263          	bnez	a0,7648 <softfloat_roundMToUI64+0x80>
    7608:	04078863          	beqz	a5,7658 <softfloat_roundMToUI64+0x90>
    760c:	04068663          	beqz	a3,7658 <softfloat_roundMToUI64+0x90>
    7610:	00126213          	ori	tp,tp,1
    7614:	00008067          	ret
    7618:	0007ce63          	bltz	a5,7634 <softfloat_roundMToUI64+0x6c>
    761c:	fe0706e3          	beqz	a4,7608 <softfloat_roundMToUI64+0x40>
    7620:	fe0504e3          	beqz	a0,7608 <softfloat_roundMToUI64+0x40>
    7624:	0240006f          	j	7648 <softfloat_roundMToUI64+0x80>
    7628:	00300593          	li	a1,3
    762c:	fcb61ee3          	bne	a2,a1,7608 <softfloat_roundMToUI64+0x40>
    7630:	02078463          	beqz	a5,7658 <softfloat_roundMToUI64+0x90>
    7634:	00150513          	addi	a0,a0,1 # fff001 <_end+0xdfe961>
    7638:	00050863          	beqz	a0,7648 <softfloat_roundMToUI64+0x80>
    763c:	800005b7          	lui	a1,0x80000
    7640:	02b78263          	beq	a5,a1,7664 <softfloat_roundMToUI64+0x9c>
    7644:	fc0702e3          	beqz	a4,7608 <softfloat_roundMToUI64+0x40>
    7648:	01026213          	ori	tp,tp,16
    764c:	00174513          	xori	a0,a4,1
    7650:	40a00533          	neg	a0,a0
    7654:	00008067          	ret
    7658:	00008067          	ret
    765c:	00000513          	li	a0,0
    7660:	00008067          	ret
    7664:	00061c63          	bnez	a2,767c <softfloat_roundMToUI64+0xb4>
    7668:	ffe57513          	andi	a0,a0,-2
    766c:	fa0700e3          	beqz	a4,760c <softfloat_roundMToUI64+0x44>
    7670:	fc051ce3          	bnez	a0,7648 <softfloat_roundMToUI64+0x80>
    7674:	fe0682e3          	beqz	a3,7658 <softfloat_roundMToUI64+0x90>
    7678:	f99ff06f          	j	7610 <softfloat_roundMToUI64+0x48>
    767c:	fc0716e3          	bnez	a4,7648 <softfloat_roundMToUI64+0x80>
    7680:	f8dff06f          	j	760c <softfloat_roundMToUI64+0x44>

0000000000007684 <softfloat_roundPackToF32>:
    7684:	fe010113          	addi	sp,sp,-32
    7688:	00913423          	sd	s1,8(sp)
    768c:	40d2549b          	sraiw	s1,tp,0xd
    7690:	00813823          	sd	s0,16(sp)
    7694:	01213023          	sd	s2,0(sp)
    7698:	00113c23          	sd	ra,24(sp)
    769c:	ffb4f793          	andi	a5,s1,-5
    76a0:	00050413          	mv	s0,a0
    76a4:	04000913          	li	s2,64
    76a8:	00078c63          	beqz	a5,76c0 <softfloat_roundPackToF32+0x3c>
    76ac:	00153793          	seqz	a5,a0
    76b0:	00278793          	addi	a5,a5,2 # 40000002 <_end+0x3fdff962>
    76b4:	07f00913          	li	s2,127
    76b8:	00978463          	beq	a5,s1,76c0 <softfloat_roundPackToF32+0x3c>
    76bc:	00000913          	li	s2,0
    76c0:	0fc00713          	li	a4,252
    76c4:	07f67793          	andi	a5,a2,127
    76c8:	04b77463          	bleu	a1,a4,7710 <softfloat_roundPackToF32+0x8c>
    76cc:	0a05c663          	bltz	a1,7778 <softfloat_roundPackToF32+0xf4>
    76d0:	0fd00713          	li	a4,253
    76d4:	00e59663          	bne	a1,a4,76e0 <softfloat_roundPackToF32+0x5c>
    76d8:	00c9063b          	addw	a2,s2,a2
    76dc:	02065c63          	bgez	a2,7714 <softfloat_roundPackToF32+0x90>
    76e0:	00526213          	ori	tp,tp,5
    76e4:	01f4151b          	slliw	a0,s0,0x1f
    76e8:	7f800437          	lui	s0,0x7f800
    76ec:	0085053b          	addw	a0,a0,s0
    76f0:	01813083          	ld	ra,24(sp)
    76f4:	01013403          	ld	s0,16(sp)
    76f8:	00193913          	seqz	s2,s2
    76fc:	4125053b          	subw	a0,a0,s2
    7700:	00813483          	ld	s1,8(sp)
    7704:	00013903          	ld	s2,0(sp)
    7708:	02010113          	addi	sp,sp,32
    770c:	00008067          	ret
    7710:	00c9063b          	addw	a2,s2,a2
    7714:	0076561b          	srliw	a2,a2,0x7
    7718:	0006061b          	sext.w	a2,a2
    771c:	fff00513          	li	a0,-1
    7720:	02078063          	beqz	a5,7740 <softfloat_roundPackToF32+0xbc>
    7724:	00126213          	ori	tp,tp,1
    7728:	fc078513          	addi	a0,a5,-64
    772c:	0014b493          	seqz	s1,s1
    7730:	00153513          	seqz	a0,a0
    7734:	00a4f533          	and	a0,s1,a0
    7738:	fff54513          	not	a0,a0
    773c:	0005051b          	sext.w	a0,a0
    7740:	00c57633          	and	a2,a0,a2
    7744:	00000793          	li	a5,0
    7748:	02061463          	bnez	a2,7770 <softfloat_roundPackToF32+0xec>
    774c:	01f4151b          	slliw	a0,s0,0x1f
    7750:	01813083          	ld	ra,24(sp)
    7754:	01013403          	ld	s0,16(sp)
    7758:	00c5053b          	addw	a0,a0,a2
    775c:	00813483          	ld	s1,8(sp)
    7760:	00013903          	ld	s2,0(sp)
    7764:	00f5053b          	addw	a0,a0,a5
    7768:	02010113          	addi	sp,sp,32
    776c:	00008067          	ret
    7770:	0175979b          	slliw	a5,a1,0x17
    7774:	fd9ff06f          	j	774c <softfloat_roundPackToF32+0xc8>
    7778:	fff00793          	li	a5,-1
    777c:	00f59663          	bne	a1,a5,7788 <softfloat_roundPackToF32+0x104>
    7780:	00c907bb          	addw	a5,s2,a2
    7784:	0407c663          	bltz	a5,77d0 <softfloat_roundPackToF32+0x14c>
    7788:	40b005bb          	negw	a1,a1
    778c:	00060513          	mv	a0,a2
    7790:	29c000ef          	jal	ra,7a2c <softfloat_shiftRightJam32>
    7794:	0005051b          	sext.w	a0,a0
    7798:	07f57793          	andi	a5,a0,127
    779c:	00078e63          	beqz	a5,77b8 <softfloat_roundPackToF32+0x134>
    77a0:	00226213          	ori	tp,tp,2
    77a4:	00a9063b          	addw	a2,s2,a0
    77a8:	0076561b          	srliw	a2,a2,0x7
    77ac:	0006061b          	sext.w	a2,a2
    77b0:	00000593          	li	a1,0
    77b4:	f71ff06f          	j	7724 <softfloat_roundPackToF32+0xa0>
    77b8:	00a9063b          	addw	a2,s2,a0
    77bc:	0076561b          	srliw	a2,a2,0x7
    77c0:	0006061b          	sext.w	a2,a2
    77c4:	fff00513          	li	a0,-1
    77c8:	00000593          	li	a1,0
    77cc:	f75ff06f          	j	7740 <softfloat_roundPackToF32+0xbc>
    77d0:	00100593          	li	a1,1
    77d4:	00060513          	mv	a0,a2
    77d8:	254000ef          	jal	ra,7a2c <softfloat_shiftRightJam32>
    77dc:	0005061b          	sext.w	a2,a0
    77e0:	07f67793          	andi	a5,a2,127
    77e4:	00000593          	li	a1,0
    77e8:	00c9063b          	addw	a2,s2,a2
    77ec:	f29ff06f          	j	7714 <softfloat_roundPackToF32+0x90>

00000000000077f0 <softfloat_roundPackToF64>:
    77f0:	fe010113          	addi	sp,sp,-32
    77f4:	01213023          	sd	s2,0(sp)
    77f8:	40d2591b          	sraiw	s2,tp,0xd
    77fc:	00813823          	sd	s0,16(sp)
    7800:	00113c23          	sd	ra,24(sp)
    7804:	00913423          	sd	s1,8(sp)
    7808:	ffb97793          	andi	a5,s2,-5
    780c:	00050413          	mv	s0,a0
    7810:	20000693          	li	a3,512
    7814:	00078c63          	beqz	a5,782c <softfloat_roundPackToF64+0x3c>
    7818:	00153793          	seqz	a5,a0
    781c:	00278793          	addi	a5,a5,2
    7820:	3ff00693          	li	a3,1023
    7824:	01278463          	beq	a5,s2,782c <softfloat_roundPackToF64+0x3c>
    7828:	00000693          	li	a3,0
    782c:	03059713          	slli	a4,a1,0x30
    7830:	03075713          	srli	a4,a4,0x30
    7834:	7fc00513          	li	a0,2044
    7838:	3ff67793          	andi	a5,a2,1023
    783c:	04e57663          	bleu	a4,a0,7888 <softfloat_roundPackToF64+0x98>
    7840:	0a05c463          	bltz	a1,78e8 <softfloat_roundPackToF64+0xf8>
    7844:	7fd00713          	li	a4,2045
    7848:	00e59663          	bne	a1,a4,7854 <softfloat_roundPackToF64+0x64>
    784c:	00c68633          	add	a2,a3,a2
    7850:	02065e63          	bgez	a2,788c <softfloat_roundPackToF64+0x9c>
    7854:	00526213          	ori	tp,tp,5
    7858:	7ff00513          	li	a0,2047
    785c:	03f41413          	slli	s0,s0,0x3f
    7860:	03451513          	slli	a0,a0,0x34
    7864:	00a40533          	add	a0,s0,a0
    7868:	01813083          	ld	ra,24(sp)
    786c:	01013403          	ld	s0,16(sp)
    7870:	0016b693          	seqz	a3,a3
    7874:	00813483          	ld	s1,8(sp)
    7878:	00013903          	ld	s2,0(sp)
    787c:	40d50533          	sub	a0,a0,a3
    7880:	02010113          	addi	sp,sp,32
    7884:	00008067          	ret
    7888:	00c68633          	add	a2,a3,a2
    788c:	00a65613          	srli	a2,a2,0xa
    7890:	fff00513          	li	a0,-1
    7894:	00078e63          	beqz	a5,78b0 <softfloat_roundPackToF64+0xc0>
    7898:	00126213          	ori	tp,tp,1
    789c:	e0078513          	addi	a0,a5,-512
    78a0:	00153513          	seqz	a0,a0
    78a4:	00193913          	seqz	s2,s2
    78a8:	01257533          	and	a0,a0,s2
    78ac:	fff54513          	not	a0,a0
    78b0:	00c57633          	and	a2,a0,a2
    78b4:	00000793          	li	a5,0
    78b8:	02061463          	bnez	a2,78e0 <softfloat_roundPackToF64+0xf0>
    78bc:	03f41513          	slli	a0,s0,0x3f
    78c0:	01813083          	ld	ra,24(sp)
    78c4:	01013403          	ld	s0,16(sp)
    78c8:	00c50533          	add	a0,a0,a2
    78cc:	00813483          	ld	s1,8(sp)
    78d0:	00013903          	ld	s2,0(sp)
    78d4:	00f50533          	add	a0,a0,a5
    78d8:	02010113          	addi	sp,sp,32
    78dc:	00008067          	ret
    78e0:	03459793          	slli	a5,a1,0x34
    78e4:	fd9ff06f          	j	78bc <softfloat_roundPackToF64+0xcc>
    78e8:	02069493          	slli	s1,a3,0x20
    78ec:	fff00793          	li	a5,-1
    78f0:	0204d493          	srli	s1,s1,0x20
    78f4:	00f59663          	bne	a1,a5,7900 <softfloat_roundPackToF64+0x110>
    78f8:	009607b3          	add	a5,a2,s1
    78fc:	0407c063          	bltz	a5,793c <softfloat_roundPackToF64+0x14c>
    7900:	40b005bb          	negw	a1,a1
    7904:	00060513          	mv	a0,a2
    7908:	150000ef          	jal	ra,7a58 <softfloat_shiftRightJam64>
    790c:	3ff57793          	andi	a5,a0,1023
    7910:	00078c63          	beqz	a5,7928 <softfloat_roundPackToF64+0x138>
    7914:	00226213          	ori	tp,tp,2
    7918:	00a48633          	add	a2,s1,a0
    791c:	00a65613          	srli	a2,a2,0xa
    7920:	00000593          	li	a1,0
    7924:	f75ff06f          	j	7898 <softfloat_roundPackToF64+0xa8>
    7928:	00a48633          	add	a2,s1,a0
    792c:	00a65613          	srli	a2,a2,0xa
    7930:	fff00513          	li	a0,-1
    7934:	00000593          	li	a1,0
    7938:	f79ff06f          	j	78b0 <softfloat_roundPackToF64+0xc0>
    793c:	00100593          	li	a1,1
    7940:	00060513          	mv	a0,a2
    7944:	114000ef          	jal	ra,7a58 <softfloat_shiftRightJam64>
    7948:	3ff57793          	andi	a5,a0,1023
    794c:	00a48633          	add	a2,s1,a0
    7950:	00000593          	li	a1,0
    7954:	f39ff06f          	j	788c <softfloat_roundPackToF64+0x9c>

0000000000007958 <softfloat_shiftLeftM>:
    7958:	fe010113          	addi	sp,sp,-32
    795c:	0056581b          	srliw	a6,a2,0x5
    7960:	00813823          	sd	s0,16(sp)
    7964:	00913423          	sd	s1,8(sp)
    7968:	00113c23          	sd	ra,24(sp)
    796c:	0008049b          	sext.w	s1,a6
    7970:	00068413          	mv	s0,a3
    7974:	06a4f063          	bleu	a0,s1,79d4 <softfloat_shiftLeftM+0x7c>
    7978:	01f67613          	andi	a2,a2,31
    797c:	410508bb          	subw	a7,a0,a6
    7980:	08061663          	bnez	a2,7a0c <softfloat_shiftLeftM+0xb4>
    7984:	fff8879b          	addiw	a5,a7,-1
    7988:	02079693          	slli	a3,a5,0x20
    798c:	fff5079b          	addiw	a5,a0,-1
    7990:	0206d693          	srli	a3,a3,0x20
    7994:	02079793          	slli	a5,a5,0x20
    7998:	00058713          	mv	a4,a1
    799c:	0207d793          	srli	a5,a5,0x20
    79a0:	00269593          	slli	a1,a3,0x2
    79a4:	fff6c693          	not	a3,a3
    79a8:	00b705b3          	add	a1,a4,a1
    79ac:	00279793          	slli	a5,a5,0x2
    79b0:	00269713          	slli	a4,a3,0x2
    79b4:	00f407b3          	add	a5,s0,a5
    79b8:	00e58733          	add	a4,a1,a4
    79bc:	0005a683          	lw	a3,0(a1) # ffffffff80000000 <_end+0xffffffff7fdff960>
    79c0:	ffc78793          	addi	a5,a5,-4
    79c4:	ffc58593          	addi	a1,a1,-4
    79c8:	00d7a223          	sw	a3,4(a5)
    79cc:	feb718e3          	bne	a4,a1,79bc <softfloat_shiftLeftM+0x64>
    79d0:	00048513          	mv	a0,s1
    79d4:	fff5079b          	addiw	a5,a0,-1
    79d8:	02079793          	slli	a5,a5,0x20
    79dc:	0207d793          	srli	a5,a5,0x20
    79e0:	00178793          	addi	a5,a5,1
    79e4:	00279793          	slli	a5,a5,0x2
    79e8:	00f407b3          	add	a5,s0,a5
    79ec:	00440413          	addi	s0,s0,4 # 7f800004 <_end+0x7f5ff964>
    79f0:	fe042e23          	sw	zero,-4(s0)
    79f4:	fe879ce3          	bne	a5,s0,79ec <softfloat_shiftLeftM+0x94>
    79f8:	01813083          	ld	ra,24(sp)
    79fc:	01013403          	ld	s0,16(sp)
    7a00:	00813483          	ld	s1,8(sp)
    7a04:	02010113          	addi	sp,sp,32
    7a08:	00008067          	ret
    7a0c:	02081693          	slli	a3,a6,0x20
    7a10:	01e6d693          	srli	a3,a3,0x1e
    7a14:	00d406b3          	add	a3,s0,a3
    7a18:	00088513          	mv	a0,a7
    7a1c:	198000ef          	jal	ra,7bb4 <softfloat_shortShiftLeftM>
    7a20:	fc048ce3          	beqz	s1,79f8 <softfloat_shiftLeftM+0xa0>
    7a24:	00048513          	mv	a0,s1
    7a28:	fadff06f          	j	79d4 <softfloat_shiftLeftM+0x7c>

0000000000007a2c <softfloat_shiftRightJam32>:
    7a2c:	01e00793          	li	a5,30
    7a30:	00b7f663          	bleu	a1,a5,7a3c <softfloat_shiftRightJam32+0x10>
    7a34:	00a03533          	snez	a0,a0
    7a38:	00008067          	ret
    7a3c:	40b007bb          	negw	a5,a1
    7a40:	00f517bb          	sllw	a5,a0,a5
    7a44:	00f037b3          	snez	a5,a5
    7a48:	00b5553b          	srlw	a0,a0,a1
    7a4c:	00a7e533          	or	a0,a5,a0
    7a50:	0005051b          	sext.w	a0,a0
    7a54:	00008067          	ret

0000000000007a58 <softfloat_shiftRightJam64>:
    7a58:	03e00793          	li	a5,62
    7a5c:	00b7f663          	bleu	a1,a5,7a68 <softfloat_shiftRightJam64+0x10>
    7a60:	00a03533          	snez	a0,a0
    7a64:	00008067          	ret
    7a68:	40b007bb          	negw	a5,a1
    7a6c:	00f517b3          	sll	a5,a0,a5
    7a70:	00f037b3          	snez	a5,a5
    7a74:	00b55533          	srl	a0,a0,a1
    7a78:	00a7e533          	or	a0,a5,a0
    7a7c:	00008067          	ret

0000000000007a80 <softfloat_shiftRightJamM>:
    7a80:	fd010113          	addi	sp,sp,-48
    7a84:	02813023          	sd	s0,32(sp)
    7a88:	0056541b          	srliw	s0,a2,0x5
    7a8c:	00913c23          	sd	s1,24(sp)
    7a90:	01313423          	sd	s3,8(sp)
    7a94:	02113423          	sd	ra,40(sp)
    7a98:	01213823          	sd	s2,16(sp)
    7a9c:	0004049b          	sext.w	s1,s0
    7aa0:	00068993          	mv	s3,a3
    7aa4:	0e048663          	beqz	s1,7b90 <softfloat_shiftRightJamM+0x110>
    7aa8:	0e956a63          	bltu	a0,s1,7b9c <softfloat_shiftRightJamM+0x11c>
    7aac:	fff4071b          	addiw	a4,s0,-1
    7ab0:	02071713          	slli	a4,a4,0x20
    7ab4:	02075713          	srli	a4,a4,0x20
    7ab8:	00170713          	addi	a4,a4,1 # 7f800001 <_end+0x7f5ff961>
    7abc:	00271713          	slli	a4,a4,0x2
    7ac0:	0004041b          	sext.w	s0,s0
    7ac4:	00e58733          	add	a4,a1,a4
    7ac8:	00058793          	mv	a5,a1
    7acc:	0080006f          	j	7ad4 <softfloat_shiftRightJamM+0x54>
    7ad0:	00e78863          	beq	a5,a4,7ae0 <softfloat_shiftRightJamM+0x60>
    7ad4:	00478793          	addi	a5,a5,4
    7ad8:	ffc7a483          	lw	s1,-4(a5)
    7adc:	fe048ae3          	beqz	s1,7ad0 <softfloat_shiftRightJamM+0x50>
    7ae0:	00098793          	mv	a5,s3
    7ae4:	04a47e63          	bleu	a0,s0,7b40 <softfloat_shiftRightJamM+0xc0>
    7ae8:	02041793          	slli	a5,s0,0x20
    7aec:	01e7d793          	srli	a5,a5,0x1e
    7af0:	4085093b          	subw	s2,a0,s0
    7af4:	01f67613          	andi	a2,a2,31
    7af8:	00f585b3          	add	a1,a1,a5
    7afc:	0009051b          	sext.w	a0,s2
    7b00:	0a061263          	bnez	a2,7ba4 <softfloat_shiftRightJamM+0x124>
    7b04:	fff9071b          	addiw	a4,s2,-1
    7b08:	02071713          	slli	a4,a4,0x20
    7b0c:	02075713          	srli	a4,a4,0x20
    7b10:	00170713          	addi	a4,a4,1
    7b14:	00271713          	slli	a4,a4,0x2
    7b18:	00e58733          	add	a4,a1,a4
    7b1c:	00098793          	mv	a5,s3
    7b20:	0005a683          	lw	a3,0(a1)
    7b24:	00478793          	addi	a5,a5,4
    7b28:	00458593          	addi	a1,a1,4
    7b2c:	fed7ae23          	sw	a3,-4(a5)
    7b30:	feb718e3          	bne	a4,a1,7b20 <softfloat_shiftRightJamM+0xa0>
    7b34:	02091793          	slli	a5,s2,0x20
    7b38:	01e7d793          	srli	a5,a5,0x1e
    7b3c:	00f987b3          	add	a5,s3,a5
    7b40:	fff4071b          	addiw	a4,s0,-1
    7b44:	02071713          	slli	a4,a4,0x20
    7b48:	02075713          	srli	a4,a4,0x20
    7b4c:	00170713          	addi	a4,a4,1
    7b50:	00271713          	slli	a4,a4,0x2
    7b54:	00e78733          	add	a4,a5,a4
    7b58:	00478793          	addi	a5,a5,4
    7b5c:	fe07ae23          	sw	zero,-4(a5)
    7b60:	fef71ce3          	bne	a4,a5,7b58 <softfloat_shiftRightJamM+0xd8>
    7b64:	00048863          	beqz	s1,7b74 <softfloat_shiftRightJamM+0xf4>
    7b68:	0009a783          	lw	a5,0(s3)
    7b6c:	0017e793          	ori	a5,a5,1
    7b70:	00f9a023          	sw	a5,0(s3)
    7b74:	02813083          	ld	ra,40(sp)
    7b78:	02013403          	ld	s0,32(sp)
    7b7c:	01813483          	ld	s1,24(sp)
    7b80:	01013903          	ld	s2,16(sp)
    7b84:	00813983          	ld	s3,8(sp)
    7b88:	03010113          	addi	sp,sp,48
    7b8c:	00008067          	ret
    7b90:	00000413          	li	s0,0
    7b94:	00000793          	li	a5,0
    7b98:	f4dff06f          	j	7ae4 <softfloat_shiftRightJamM+0x64>
    7b9c:	00050413          	mv	s0,a0
    7ba0:	f0dff06f          	j	7aac <softfloat_shiftRightJamM+0x2c>
    7ba4:	00098693          	mv	a3,s3
    7ba8:	0fc000ef          	jal	ra,7ca4 <softfloat_shortShiftRightJamM>
    7bac:	fa040ce3          	beqz	s0,7b64 <softfloat_shiftRightJamM+0xe4>
    7bb0:	f85ff06f          	j	7b34 <softfloat_shiftRightJamM+0xb4>

0000000000007bb4 <softfloat_shortShiftLeftM>:
    7bb4:	fff5079b          	addiw	a5,a0,-1
    7bb8:	02079813          	slli	a6,a5,0x20
    7bbc:	01e85813          	srli	a6,a6,0x1e
    7bc0:	01058733          	add	a4,a1,a6
    7bc4:	00072703          	lw	a4,0(a4)
    7bc8:	40c0033b          	negw	t1,a2
    7bcc:	00c7173b          	sllw	a4,a4,a2
    7bd0:	04078063          	beqz	a5,7c10 <softfloat_shortShiftLeftM+0x5c>
    7bd4:	ffe5079b          	addiw	a5,a0,-2
    7bd8:	02079793          	slli	a5,a5,0x20
    7bdc:	01e7d793          	srli	a5,a5,0x1e
    7be0:	00f587b3          	add	a5,a1,a5
    7be4:	01f37313          	andi	t1,t1,31
    7be8:	01068533          	add	a0,a3,a6
    7bec:	ffc58593          	addi	a1,a1,-4
    7bf0:	0007a803          	lw	a6,0(a5)
    7bf4:	ffc50513          	addi	a0,a0,-4
    7bf8:	ffc78793          	addi	a5,a5,-4
    7bfc:	006858bb          	srlw	a7,a6,t1
    7c00:	01176733          	or	a4,a4,a7
    7c04:	00e52223          	sw	a4,4(a0)
    7c08:	00c8173b          	sllw	a4,a6,a2
    7c0c:	feb792e3          	bne	a5,a1,7bf0 <softfloat_shortShiftLeftM+0x3c>
    7c10:	00e6a023          	sw	a4,0(a3)
    7c14:	00008067          	ret

0000000000007c18 <softfloat_shortShiftRightM>:
    7c18:	0005a783          	lw	a5,0(a1)
    7c1c:	fff50e1b          	addiw	t3,a0,-1
    7c20:	000e071b          	sext.w	a4,t3
    7c24:	40c0033b          	negw	t1,a2
    7c28:	00c7d7bb          	srlw	a5,a5,a2
    7c2c:	04070863          	beqz	a4,7c7c <softfloat_shortShiftRightM+0x64>
    7c30:	ffe5081b          	addiw	a6,a0,-2
    7c34:	02081813          	slli	a6,a6,0x20
    7c38:	00858513          	addi	a0,a1,8
    7c3c:	01e85813          	srli	a6,a6,0x1e
    7c40:	01f37313          	andi	t1,t1,31
    7c44:	00458593          	addi	a1,a1,4
    7c48:	00068713          	mv	a4,a3
    7c4c:	00a80833          	add	a6,a6,a0
    7c50:	0005a503          	lw	a0,0(a1)
    7c54:	00470713          	addi	a4,a4,4
    7c58:	00458593          	addi	a1,a1,4
    7c5c:	006518bb          	sllw	a7,a0,t1
    7c60:	0117e7b3          	or	a5,a5,a7
    7c64:	fef72e23          	sw	a5,-4(a4)
    7c68:	00c557bb          	srlw	a5,a0,a2
    7c6c:	ff0592e3          	bne	a1,a6,7c50 <softfloat_shortShiftRightM+0x38>
    7c70:	020e1e13          	slli	t3,t3,0x20
    7c74:	01ee5e13          	srli	t3,t3,0x1e
    7c78:	01c686b3          	add	a3,a3,t3
    7c7c:	00f6a023          	sw	a5,0(a3)
    7c80:	00008067          	ret

0000000000007c84 <softfloat_shortShiftRightJam64>:
    7c84:	fff00793          	li	a5,-1
    7c88:	00b797b3          	sll	a5,a5,a1
    7c8c:	fff7c793          	not	a5,a5
    7c90:	00a7f7b3          	and	a5,a5,a0
    7c94:	00f037b3          	snez	a5,a5
    7c98:	00b55533          	srl	a0,a0,a1
    7c9c:	00a7e533          	or	a0,a5,a0
    7ca0:	00008067          	ret

0000000000007ca4 <softfloat_shortShiftRightJamM>:
    7ca4:	0005a803          	lw	a6,0(a1)
    7ca8:	fff50e1b          	addiw	t3,a0,-1
    7cac:	40c0033b          	negw	t1,a2
    7cb0:	00c8573b          	srlw	a4,a6,a2
    7cb4:	00c71ebb          	sllw	t4,a4,a2
    7cb8:	000e089b          	sext.w	a7,t3
    7cbc:	0007079b          	sext.w	a5,a4
    7cc0:	010e8663          	beq	t4,a6,7ccc <softfloat_shortShiftRightJamM+0x28>
    7cc4:	00176793          	ori	a5,a4,1
    7cc8:	0007879b          	sext.w	a5,a5
    7ccc:	04088863          	beqz	a7,7d1c <softfloat_shortShiftRightJamM+0x78>
    7cd0:	ffe5081b          	addiw	a6,a0,-2
    7cd4:	02081813          	slli	a6,a6,0x20
    7cd8:	00858513          	addi	a0,a1,8
    7cdc:	01e85813          	srli	a6,a6,0x1e
    7ce0:	01f37313          	andi	t1,t1,31
    7ce4:	00458593          	addi	a1,a1,4
    7ce8:	00068713          	mv	a4,a3
    7cec:	00a80833          	add	a6,a6,a0
    7cf0:	0005a503          	lw	a0,0(a1)
    7cf4:	00470713          	addi	a4,a4,4
    7cf8:	00458593          	addi	a1,a1,4
    7cfc:	006518bb          	sllw	a7,a0,t1
    7d00:	0117e7b3          	or	a5,a5,a7
    7d04:	fef72e23          	sw	a5,-4(a4)
    7d08:	00c557bb          	srlw	a5,a0,a2
    7d0c:	ff0592e3          	bne	a1,a6,7cf0 <softfloat_shortShiftRightJamM+0x4c>
    7d10:	020e1e13          	slli	t3,t3,0x20
    7d14:	01ee5e13          	srli	t3,t3,0x1e
    7d18:	01c686b3          	add	a3,a3,t3
    7d1c:	00f6a023          	sw	a5,0(a3)
    7d20:	00008067          	ret

0000000000007d24 <softfloat_subM>:
    7d24:	0005a803          	lw	a6,0(a1)
    7d28:	00062883          	lw	a7,0(a2) # 20000000 <_end+0x1fdff960>
    7d2c:	411807bb          	subw	a5,a6,a7
    7d30:	00f6a023          	sw	a5,0(a3)
    7d34:	00100793          	li	a5,1
    7d38:	06f50663          	beq	a0,a5,7da4 <softfloat_subM+0x80>
    7d3c:	ffe5051b          	addiw	a0,a0,-2
    7d40:	02051513          	slli	a0,a0,0x20
    7d44:	00858793          	addi	a5,a1,8
    7d48:	01e55513          	srli	a0,a0,0x1e
    7d4c:	00f50533          	add	a0,a0,a5
    7d50:	00458593          	addi	a1,a1,4
    7d54:	00460613          	addi	a2,a2,4
    7d58:	00468693          	addi	a3,a3,4
    7d5c:	00000793          	li	a5,0
    7d60:	0300006f          	j	7d90 <softfloat_subM+0x6c>
    7d64:	0007079b          	sext.w	a5,a4
    7d68:	0005a803          	lw	a6,0(a1)
    7d6c:	00062883          	lw	a7,0(a2)
    7d70:	00458593          	addi	a1,a1,4
    7d74:	00460613          	addi	a2,a2,4
    7d78:	4118073b          	subw	a4,a6,a7
    7d7c:	40f7073b          	subw	a4,a4,a5
    7d80:	00e6a023          	sw	a4,0(a3)
    7d84:	0007879b          	sext.w	a5,a5
    7d88:	00468693          	addi	a3,a3,4
    7d8c:	00a58c63          	beq	a1,a0,7da4 <softfloat_subM+0x80>
    7d90:	0108b733          	sltu	a4,a7,a6
    7d94:	00174713          	xori	a4,a4,1
    7d98:	fc0796e3          	bnez	a5,7d64 <softfloat_subM+0x40>
    7d9c:	011837b3          	sltu	a5,a6,a7
    7da0:	fc9ff06f          	j	7d68 <softfloat_subM+0x44>
    7da4:	00008067          	ret

0000000000007da8 <softfloat_subMagsF32>:
    7da8:	fd010113          	addi	sp,sp,-48
    7dac:	0175561b          	srliw	a2,a0,0x17
    7db0:	0175d71b          	srliw	a4,a1,0x17
    7db4:	01213823          	sd	s2,16(sp)
    7db8:	0ff77713          	andi	a4,a4,255
    7dbc:	0ff67913          	andi	s2,a2,255
    7dc0:	008007b7          	lui	a5,0x800
    7dc4:	fff78793          	addi	a5,a5,-1 # 7fffff <_end+0x5ff95f>
    7dc8:	02113423          	sd	ra,40(sp)
    7dcc:	02813023          	sd	s0,32(sp)
    7dd0:	00913c23          	sd	s1,24(sp)
    7dd4:	01313423          	sd	s3,8(sp)
    7dd8:	40e9083b          	subw	a6,s2,a4
    7ddc:	00f57633          	and	a2,a0,a5
    7de0:	00f5f6b3          	and	a3,a1,a5
    7de4:	08081063          	bnez	a6,7e64 <softfloat_subMagsF32+0xbc>
    7de8:	0ff00713          	li	a4,255
    7dec:	12e90263          	beq	s2,a4,7f10 <softfloat_subMagsF32+0x168>
    7df0:	40d604bb          	subw	s1,a2,a3
    7df4:	00048613          	mv	a2,s1
    7df8:	14048663          	beqz	s1,7f44 <softfloat_subMagsF32+0x19c>
    7dfc:	00090463          	beqz	s2,7e04 <softfloat_subMagsF32+0x5c>
    7e00:	fff9091b          	addiw	s2,s2,-1
    7e04:	0005051b          	sext.w	a0,a0
    7e08:	1804c663          	bltz	s1,7f94 <softfloat_subMagsF32+0x1ec>
    7e0c:	01f5551b          	srliw	a0,a0,0x1f
    7e10:	0ff57413          	andi	s0,a0,255
    7e14:	00048513          	mv	a0,s1
    7e18:	4f8000ef          	jal	ra,8310 <softfloat_countLeadingZeros32>
    7e1c:	ff85051b          	addiw	a0,a0,-8
    7e20:	40a9073b          	subw	a4,s2,a0
    7e24:	02071693          	slli	a3,a4,0x20
    7e28:	00000793          	li	a5,0
    7e2c:	0006c663          	bltz	a3,7e38 <softfloat_subMagsF32+0x90>
    7e30:	0177179b          	slliw	a5,a4,0x17
    7e34:	00050913          	mv	s2,a0
    7e38:	01f4151b          	slliw	a0,s0,0x1f
    7e3c:	02813083          	ld	ra,40(sp)
    7e40:	02013403          	ld	s0,32(sp)
    7e44:	0124963b          	sllw	a2,s1,s2
    7e48:	00f5053b          	addw	a0,a0,a5
    7e4c:	01813483          	ld	s1,24(sp)
    7e50:	01013903          	ld	s2,16(sp)
    7e54:	00813983          	ld	s3,8(sp)
    7e58:	00c5053b          	addw	a0,a0,a2
    7e5c:	03010113          	addi	sp,sp,48
    7e60:	00008067          	ret
    7e64:	0076161b          	slliw	a2,a2,0x7
    7e68:	0076969b          	slliw	a3,a3,0x7
    7e6c:	0005079b          	sext.w	a5,a0
    7e70:	00060e1b          	sext.w	t3,a2
    7e74:	0006831b          	sext.w	t1,a3
    7e78:	04084e63          	bltz	a6,7ed4 <softfloat_subMagsF32+0x12c>
    7e7c:	0ff00893          	li	a7,255
    7e80:	11190663          	beq	s2,a7,7f8c <softfloat_subMagsF32+0x1e4>
    7e84:	40000537          	lui	a0,0x40000
    7e88:	00a66633          	or	a2,a2,a0
    7e8c:	fff9049b          	addiw	s1,s2,-1
    7e90:	0006099b          	sext.w	s3,a2
    7e94:	0c071463          	bnez	a4,7f5c <softfloat_subMagsF32+0x1b4>
    7e98:	01f7d79b          	srliw	a5,a5,0x1f
    7e9c:	0ff7f413          	andi	s0,a5,255
    7ea0:	0066853b          	addw	a0,a3,t1
    7ea4:	00080593          	mv	a1,a6
    7ea8:	b85ff0ef          	jal	ra,7a2c <softfloat_shiftRightJam32>
    7eac:	40a9863b          	subw	a2,s3,a0
    7eb0:	00040513          	mv	a0,s0
    7eb4:	02013403          	ld	s0,32(sp)
    7eb8:	02813083          	ld	ra,40(sp)
    7ebc:	01013903          	ld	s2,16(sp)
    7ec0:	00813983          	ld	s3,8(sp)
    7ec4:	00048593          	mv	a1,s1
    7ec8:	01813483          	ld	s1,24(sp)
    7ecc:	03010113          	addi	sp,sp,48
    7ed0:	4e80006f          	j	83b8 <softfloat_normRoundPackToF32>
    7ed4:	fff7c413          	not	s0,a5
    7ed8:	01f4541b          	srliw	s0,s0,0x1f
    7edc:	0ff00793          	li	a5,255
    7ee0:	0ff47413          	andi	s0,s0,255
    7ee4:	08f70063          	beq	a4,a5,7f64 <softfloat_subMagsF32+0x1bc>
    7ee8:	400007b7          	lui	a5,0x40000
    7eec:	00f6e7b3          	or	a5,a3,a5
    7ef0:	00080893          	mv	a7,a6
    7ef4:	fff7049b          	addiw	s1,a4,-1
    7ef8:	0007899b          	sext.w	s3,a5
    7efc:	00090463          	beqz	s2,7f04 <softfloat_subMagsF32+0x15c>
    7f00:	40000e37          	lui	t3,0x40000
    7f04:	4110083b          	negw	a6,a7
    7f08:	01c6053b          	addw	a0,a2,t3
    7f0c:	f99ff06f          	j	7ea4 <softfloat_subMagsF32+0xfc>
    7f10:	00050313          	mv	t1,a0
    7f14:	0065e333          	or	t1,a1,t1
    7f18:	00f377b3          	and	a5,t1,a5
    7f1c:	04079663          	bnez	a5,7f68 <softfloat_subMagsF32+0x1c0>
    7f20:	01026213          	ori	tp,tp,16
    7f24:	7fc00537          	lui	a0,0x7fc00
    7f28:	02813083          	ld	ra,40(sp)
    7f2c:	02013403          	ld	s0,32(sp)
    7f30:	01813483          	ld	s1,24(sp)
    7f34:	01013903          	ld	s2,16(sp)
    7f38:	00813983          	ld	s3,8(sp)
    7f3c:	03010113          	addi	sp,sp,48
    7f40:	00008067          	ret
    7f44:	40d2571b          	sraiw	a4,tp,0xd
    7f48:	00200793          	li	a5,2
    7f4c:	00000513          	li	a0,0
    7f50:	fcf71ce3          	bne	a4,a5,7f28 <softfloat_subMagsF32+0x180>
    7f54:	80000537          	lui	a0,0x80000
    7f58:	fd1ff06f          	j	7f28 <softfloat_subMagsF32+0x180>
    7f5c:	40000337          	lui	t1,0x40000
    7f60:	f39ff06f          	j	7e98 <softfloat_subMagsF32+0xf0>
    7f64:	04030263          	beqz	t1,7fa8 <softfloat_subMagsF32+0x200>
    7f68:	28c000ef          	jal	ra,81f4 <softfloat_propagateNaNF32UI>
    7f6c:	02813083          	ld	ra,40(sp)
    7f70:	02013403          	ld	s0,32(sp)
    7f74:	01813483          	ld	s1,24(sp)
    7f78:	01013903          	ld	s2,16(sp)
    7f7c:	00813983          	ld	s3,8(sp)
    7f80:	0005051b          	sext.w	a0,a0
    7f84:	03010113          	addi	sp,sp,48
    7f88:	00008067          	ret
    7f8c:	fc0e1ee3          	bnez	t3,7f68 <softfloat_subMagsF32+0x1c0>
    7f90:	f99ff06f          	j	7f28 <softfloat_subMagsF32+0x180>
    7f94:	fff54513          	not	a0,a0
    7f98:	01f5551b          	srliw	a0,a0,0x1f
    7f9c:	40c004bb          	negw	s1,a2
    7fa0:	0ff57413          	andi	s0,a0,255
    7fa4:	e71ff06f          	j	7e14 <softfloat_subMagsF32+0x6c>
    7fa8:	01f4141b          	slliw	s0,s0,0x1f
    7fac:	7f800537          	lui	a0,0x7f800
    7fb0:	00a4053b          	addw	a0,s0,a0
    7fb4:	f75ff06f          	j	7f28 <softfloat_subMagsF32+0x180>

0000000000007fb8 <softfloat_subMagsF64>:
    7fb8:	fd010113          	addi	sp,sp,-48
    7fbc:	02813023          	sd	s0,32(sp)
    7fc0:	01313423          	sd	s3,8(sp)
    7fc4:	03455413          	srli	s0,a0,0x34
    7fc8:	0345d993          	srli	s3,a1,0x34
    7fcc:	7ff47413          	andi	s0,s0,2047
    7fd0:	7ff9f993          	andi	s3,s3,2047
    7fd4:	fff00893          	li	a7,-1
    7fd8:	00c8d713          	srli	a4,a7,0xc
    7fdc:	00913c23          	sd	s1,24(sp)
    7fe0:	01413023          	sd	s4,0(sp)
    7fe4:	02113423          	sd	ra,40(sp)
    7fe8:	01213823          	sd	s2,16(sp)
    7fec:	413406bb          	subw	a3,s0,s3
    7ff0:	00060a13          	mv	s4,a2
    7ff4:	00e577b3          	and	a5,a0,a4
    7ff8:	00e5f4b3          	and	s1,a1,a4
    7ffc:	02069663          	bnez	a3,8028 <softfloat_subMagsF64+0x70>
    8000:	7ff00693          	li	a3,2047
    8004:	0cd40263          	beq	s0,a3,80c8 <softfloat_subMagsF64+0x110>
    8008:	409784b3          	sub	s1,a5,s1
    800c:	0e049a63          	bnez	s1,8100 <softfloat_subMagsF64+0x148>
    8010:	40d2571b          	sraiw	a4,tp,0xd
    8014:	00200793          	li	a5,2
    8018:	00000513          	li	a0,0
    801c:	0cf71263          	bne	a4,a5,80e0 <softfloat_subMagsF64+0x128>
    8020:	03f89513          	slli	a0,a7,0x3f
    8024:	0bc0006f          	j	80e0 <softfloat_subMagsF64+0x128>
    8028:	00a79913          	slli	s2,a5,0xa
    802c:	00a49493          	slli	s1,s1,0xa
    8030:	7ff00793          	li	a5,2047
    8034:	0406ca63          	bltz	a3,8088 <softfloat_subMagsF64+0xd0>
    8038:	16f40063          	beq	s0,a5,8198 <softfloat_subMagsF64+0x1e0>
    803c:	00048513          	mv	a0,s1
    8040:	12099263          	bnez	s3,8164 <softfloat_subMagsF64+0x1ac>
    8044:	00068593          	mv	a1,a3
    8048:	00950533          	add	a0,a0,s1
    804c:	a0dff0ef          	jal	ra,7a58 <softfloat_shiftRightJam64>
    8050:	00100793          	li	a5,1
    8054:	03e79793          	slli	a5,a5,0x3e
    8058:	00f967b3          	or	a5,s2,a5
    805c:	40a78633          	sub	a2,a5,a0
    8060:	fff4059b          	addiw	a1,s0,-1
    8064:	02013403          	ld	s0,32(sp)
    8068:	02813083          	ld	ra,40(sp)
    806c:	01813483          	ld	s1,24(sp)
    8070:	01013903          	ld	s2,16(sp)
    8074:	00813983          	ld	s3,8(sp)
    8078:	000a0513          	mv	a0,s4
    807c:	00013a03          	ld	s4,0(sp)
    8080:	03010113          	addi	sp,sp,48
    8084:	3d00006f          	j	8454 <softfloat_normRoundPackToF64>
    8088:	00164a13          	xori	s4,a2,1
    808c:	0ef98263          	beq	s3,a5,8170 <softfloat_subMagsF64+0x1b8>
    8090:	00068813          	mv	a6,a3
    8094:	00090513          	mv	a0,s2
    8098:	00040663          	beqz	s0,80a4 <softfloat_subMagsF64+0xec>
    809c:	00100513          	li	a0,1
    80a0:	03e51513          	slli	a0,a0,0x3e
    80a4:	410005bb          	negw	a1,a6
    80a8:	01250533          	add	a0,a0,s2
    80ac:	9adff0ef          	jal	ra,7a58 <softfloat_shiftRightJam64>
    80b0:	00100613          	li	a2,1
    80b4:	03e61613          	slli	a2,a2,0x3e
    80b8:	00c4e4b3          	or	s1,s1,a2
    80bc:	40a48633          	sub	a2,s1,a0
    80c0:	00098413          	mv	s0,s3
    80c4:	f9dff06f          	j	8060 <softfloat_subMagsF64+0xa8>
    80c8:	00b567b3          	or	a5,a0,a1
    80cc:	00e7f733          	and	a4,a5,a4
    80d0:	0a071263          	bnez	a4,8174 <softfloat_subMagsF64+0x1bc>
    80d4:	01026213          	ori	tp,tp,16
    80d8:	00fff537          	lui	a0,0xfff
    80dc:	02751513          	slli	a0,a0,0x27
    80e0:	02813083          	ld	ra,40(sp)
    80e4:	02013403          	ld	s0,32(sp)
    80e8:	01813483          	ld	s1,24(sp)
    80ec:	01013903          	ld	s2,16(sp)
    80f0:	00813983          	ld	s3,8(sp)
    80f4:	00013a03          	ld	s4,0(sp)
    80f8:	03010113          	addi	sp,sp,48
    80fc:	00008067          	ret
    8100:	00040463          	beqz	s0,8108 <softfloat_subMagsF64+0x150>
    8104:	fff4041b          	addiw	s0,s0,-1
    8108:	0004d663          	bgez	s1,8114 <softfloat_subMagsF64+0x15c>
    810c:	001a4a13          	xori	s4,s4,1
    8110:	409004b3          	neg	s1,s1
    8114:	00048513          	mv	a0,s1
    8118:	240000ef          	jal	ra,8358 <softfloat_countLeadingZeros64>
    811c:	ff55051b          	addiw	a0,a0,-11
    8120:	40a4073b          	subw	a4,s0,a0
    8124:	00000793          	li	a5,0
    8128:	00074663          	bltz	a4,8134 <softfloat_subMagsF64+0x17c>
    812c:	03471793          	slli	a5,a4,0x34
    8130:	00050413          	mv	s0,a0
    8134:	03fa1513          	slli	a0,s4,0x3f
    8138:	00849433          	sll	s0,s1,s0
    813c:	00f50533          	add	a0,a0,a5
    8140:	00850533          	add	a0,a0,s0
    8144:	02813083          	ld	ra,40(sp)
    8148:	02013403          	ld	s0,32(sp)
    814c:	01813483          	ld	s1,24(sp)
    8150:	01013903          	ld	s2,16(sp)
    8154:	00813983          	ld	s3,8(sp)
    8158:	00013a03          	ld	s4,0(sp)
    815c:	03010113          	addi	sp,sp,48
    8160:	00008067          	ret
    8164:	00100513          	li	a0,1
    8168:	03e51513          	slli	a0,a0,0x3e
    816c:	ed9ff06f          	j	8044 <softfloat_subMagsF64+0x8c>
    8170:	02048863          	beqz	s1,81a0 <softfloat_subMagsF64+0x1e8>
    8174:	0cc000ef          	jal	ra,8240 <softfloat_propagateNaNF64UI>
    8178:	02813083          	ld	ra,40(sp)
    817c:	02013403          	ld	s0,32(sp)
    8180:	01813483          	ld	s1,24(sp)
    8184:	01013903          	ld	s2,16(sp)
    8188:	00813983          	ld	s3,8(sp)
    818c:	00013a03          	ld	s4,0(sp)
    8190:	03010113          	addi	sp,sp,48
    8194:	00008067          	ret
    8198:	fc091ee3          	bnez	s2,8174 <softfloat_subMagsF64+0x1bc>
    819c:	f45ff06f          	j	80e0 <softfloat_subMagsF64+0x128>
    81a0:	03fa1513          	slli	a0,s4,0x3f
    81a4:	03499993          	slli	s3,s3,0x34
    81a8:	01350533          	add	a0,a0,s3
    81ac:	f35ff06f          	j	80e0 <softfloat_subMagsF64+0x128>

00000000000081b0 <ui64_to_f64>:
    81b0:	00050c63          	beqz	a0,81c8 <ui64_to_f64+0x18>
    81b4:	00050613          	mv	a2,a0
    81b8:	00054a63          	bltz	a0,81cc <ui64_to_f64+0x1c>
    81bc:	43c00593          	li	a1,1084
    81c0:	00000513          	li	a0,0
    81c4:	2900006f          	j	8454 <softfloat_normRoundPackToF64>
    81c8:	00008067          	ret
    81cc:	ff010113          	addi	sp,sp,-16
    81d0:	00100593          	li	a1,1
    81d4:	00113423          	sd	ra,8(sp)
    81d8:	aadff0ef          	jal	ra,7c84 <softfloat_shortShiftRightJam64>
    81dc:	00813083          	ld	ra,8(sp)
    81e0:	00050613          	mv	a2,a0
    81e4:	43d00593          	li	a1,1085
    81e8:	00000513          	li	a0,0
    81ec:	01010113          	addi	sp,sp,16
    81f0:	e00ff06f          	j	77f0 <softfloat_roundPackToF64>

00000000000081f4 <softfloat_propagateNaNF32UI>:
    81f4:	7fc007b7          	lui	a5,0x7fc00
    81f8:	00f577b3          	and	a5,a0,a5
    81fc:	7f800737          	lui	a4,0x7f800
    8200:	00e78e63          	beq	a5,a4,821c <softfloat_propagateNaNF32UI+0x28>
    8204:	7fc007b7          	lui	a5,0x7fc00
    8208:	00f5f7b3          	and	a5,a1,a5
    820c:	7f800737          	lui	a4,0x7f800
    8210:	02e78063          	beq	a5,a4,8230 <softfloat_propagateNaNF32UI+0x3c>
    8214:	7fc00537          	lui	a0,0x7fc00
    8218:	00008067          	ret
    821c:	02a51793          	slli	a5,a0,0x2a
    8220:	fe0782e3          	beqz	a5,8204 <softfloat_propagateNaNF32UI+0x10>
    8224:	01026213          	ori	tp,tp,16
    8228:	7fc00537          	lui	a0,0x7fc00
    822c:	00008067          	ret
    8230:	02a59793          	slli	a5,a1,0x2a
    8234:	fe0780e3          	beqz	a5,8214 <softfloat_propagateNaNF32UI+0x20>
    8238:	01026213          	ori	tp,tp,16
    823c:	fedff06f          	j	8228 <softfloat_propagateNaNF32UI+0x34>

0000000000008240 <softfloat_propagateNaNF64UI>:
    8240:	00fff7b7          	lui	a5,0xfff
    8244:	02779793          	slli	a5,a5,0x27
    8248:	7ff00713          	li	a4,2047
    824c:	00f577b3          	and	a5,a0,a5
    8250:	03471713          	slli	a4,a4,0x34
    8254:	02e78463          	beq	a5,a4,827c <softfloat_propagateNaNF64UI+0x3c>
    8258:	00fff7b7          	lui	a5,0xfff
    825c:	02779793          	slli	a5,a5,0x27
    8260:	7ff00713          	li	a4,2047
    8264:	00f5f7b3          	and	a5,a1,a5
    8268:	03471713          	slli	a4,a4,0x34
    826c:	02e78463          	beq	a5,a4,8294 <softfloat_propagateNaNF64UI+0x54>
    8270:	00fff537          	lui	a0,0xfff
    8274:	02751513          	slli	a0,a0,0x27
    8278:	00008067          	ret
    827c:	00d51793          	slli	a5,a0,0xd
    8280:	fc078ce3          	beqz	a5,8258 <softfloat_propagateNaNF64UI+0x18>
    8284:	01026213          	ori	tp,tp,16
    8288:	00fff537          	lui	a0,0xfff
    828c:	02751513          	slli	a0,a0,0x27
    8290:	00008067          	ret
    8294:	00d59793          	slli	a5,a1,0xd
    8298:	fc078ce3          	beqz	a5,8270 <softfloat_propagateNaNF64UI+0x30>
    829c:	01026213          	ori	tp,tp,16
    82a0:	fe9ff06f          	j	8288 <softfloat_propagateNaNF64UI+0x48>

00000000000082a4 <softfloat_addM>:
    82a4:	0005a703          	lw	a4,0(a1)
    82a8:	00062783          	lw	a5,0(a2)
    82ac:	00100813          	li	a6,1
    82b0:	00e787bb          	addw	a5,a5,a4
    82b4:	00f6a023          	sw	a5,0(a3)
    82b8:	05050a63          	beq	a0,a6,830c <softfloat_addM+0x68>
    82bc:	ffe5051b          	addiw	a0,a0,-2
    82c0:	02051513          	slli	a0,a0,0x20
    82c4:	00858813          	addi	a6,a1,8
    82c8:	01e55513          	srli	a0,a0,0x1e
    82cc:	01050533          	add	a0,a0,a6
    82d0:	00458593          	addi	a1,a1,4
    82d4:	00460613          	addi	a2,a2,4
    82d8:	00468693          	addi	a3,a3,4
    82dc:	00000813          	li	a6,0
    82e0:	00f70463          	beq	a4,a5,82e8 <softfloat_addM+0x44>
    82e4:	00e7b833          	sltu	a6,a5,a4
    82e8:	0005a703          	lw	a4,0(a1)
    82ec:	00062783          	lw	a5,0(a2)
    82f0:	00458593          	addi	a1,a1,4
    82f4:	00460613          	addi	a2,a2,4
    82f8:	00e787bb          	addw	a5,a5,a4
    82fc:	010787bb          	addw	a5,a5,a6
    8300:	00f6a023          	sw	a5,0(a3)
    8304:	00468693          	addi	a3,a3,4
    8308:	fca59ce3          	bne	a1,a0,82e0 <softfloat_addM+0x3c>
    830c:	00008067          	ret

0000000000008310 <softfloat_countLeadingZeros32>:
    8310:	000107b7          	lui	a5,0x10
    8314:	00000693          	li	a3,0
    8318:	00f57663          	bleu	a5,a0,8324 <softfloat_countLeadingZeros32+0x14>
    831c:	0105151b          	slliw	a0,a0,0x10
    8320:	01000693          	li	a3,16
    8324:	010007b7          	lui	a5,0x1000
    8328:	00f57663          	bleu	a5,a0,8334 <softfloat_countLeadingZeros32+0x24>
    832c:	0085151b          	slliw	a0,a0,0x8
    8330:	0086869b          	addiw	a3,a3,8
    8334:	0185579b          	srliw	a5,a0,0x18
    8338:	02079793          	slli	a5,a5,0x20
    833c:	00001717          	auipc	a4,0x1
    8340:	a1470713          	addi	a4,a4,-1516 # 8d50 <softfloat_countLeadingZeros8>
    8344:	0207d793          	srli	a5,a5,0x20
    8348:	00f707b3          	add	a5,a4,a5
    834c:	0007c503          	lbu	a0,0(a5) # 1000000 <_end+0xdff960>
    8350:	00d5053b          	addw	a0,a0,a3
    8354:	00008067          	ret

0000000000008358 <softfloat_countLeadingZeros64>:
    8358:	02055793          	srli	a5,a0,0x20
    835c:	04078863          	beqz	a5,83ac <softfloat_countLeadingZeros64+0x54>
    8360:	0007879b          	sext.w	a5,a5
    8364:	00000713          	li	a4,0
    8368:	000106b7          	lui	a3,0x10
    836c:	00d7f663          	bleu	a3,a5,8378 <softfloat_countLeadingZeros64+0x20>
    8370:	0107979b          	slliw	a5,a5,0x10
    8374:	0107071b          	addiw	a4,a4,16
    8378:	010006b7          	lui	a3,0x1000
    837c:	00d7f663          	bleu	a3,a5,8388 <softfloat_countLeadingZeros64+0x30>
    8380:	0087979b          	slliw	a5,a5,0x8
    8384:	0087071b          	addiw	a4,a4,8
    8388:	0187d79b          	srliw	a5,a5,0x18
    838c:	02079793          	slli	a5,a5,0x20
    8390:	00001697          	auipc	a3,0x1
    8394:	9c068693          	addi	a3,a3,-1600 # 8d50 <softfloat_countLeadingZeros8>
    8398:	0207d793          	srli	a5,a5,0x20
    839c:	00f687b3          	add	a5,a3,a5
    83a0:	0007c503          	lbu	a0,0(a5)
    83a4:	00e5053b          	addw	a0,a0,a4
    83a8:	00008067          	ret
    83ac:	0005079b          	sext.w	a5,a0
    83b0:	02000713          	li	a4,32
    83b4:	fb5ff06f          	j	8368 <softfloat_countLeadingZeros64+0x10>

00000000000083b8 <softfloat_normRoundPackToF32>:
    83b8:	fe010113          	addi	sp,sp,-32
    83bc:	01213023          	sd	s2,0(sp)
    83c0:	00050913          	mv	s2,a0
    83c4:	00060513          	mv	a0,a2
    83c8:	00813823          	sd	s0,16(sp)
    83cc:	00913423          	sd	s1,8(sp)
    83d0:	00113c23          	sd	ra,24(sp)
    83d4:	00058493          	mv	s1,a1
    83d8:	00060413          	mv	s0,a2
    83dc:	f35ff0ef          	jal	ra,8310 <softfloat_countLeadingZeros32>
    83e0:	fff5069b          	addiw	a3,a0,-1
    83e4:	00600713          	li	a4,6
    83e8:	00068513          	mv	a0,a3
    83ec:	40d485bb          	subw	a1,s1,a3
    83f0:	04d75263          	ble	a3,a4,8434 <softfloat_normRoundPackToF32+0x7c>
    83f4:	0fc00713          	li	a4,252
    83f8:	02b76e63          	bltu	a4,a1,8434 <softfloat_normRoundPackToF32+0x7c>
    83fc:	01f9191b          	slliw	s2,s2,0x1f
    8400:	00000613          	li	a2,0
    8404:	00040463          	beqz	s0,840c <softfloat_normRoundPackToF32+0x54>
    8408:	0175961b          	slliw	a2,a1,0x17
    840c:	ff95051b          	addiw	a0,a0,-7
    8410:	00a4153b          	sllw	a0,s0,a0
    8414:	01813083          	ld	ra,24(sp)
    8418:	01013403          	ld	s0,16(sp)
    841c:	0125053b          	addw	a0,a0,s2
    8420:	00813483          	ld	s1,8(sp)
    8424:	00013903          	ld	s2,0(sp)
    8428:	00c5053b          	addw	a0,a0,a2
    842c:	02010113          	addi	sp,sp,32
    8430:	00008067          	ret
    8434:	00a4163b          	sllw	a2,s0,a0
    8438:	01013403          	ld	s0,16(sp)
    843c:	01813083          	ld	ra,24(sp)
    8440:	00813483          	ld	s1,8(sp)
    8444:	00090513          	mv	a0,s2
    8448:	00013903          	ld	s2,0(sp)
    844c:	02010113          	addi	sp,sp,32
    8450:	a34ff06f          	j	7684 <softfloat_roundPackToF32>

0000000000008454 <softfloat_normRoundPackToF64>:
    8454:	fe010113          	addi	sp,sp,-32
    8458:	01213023          	sd	s2,0(sp)
    845c:	00050913          	mv	s2,a0
    8460:	00060513          	mv	a0,a2
    8464:	00813823          	sd	s0,16(sp)
    8468:	00913423          	sd	s1,8(sp)
    846c:	00060413          	mv	s0,a2
    8470:	00058493          	mv	s1,a1
    8474:	00113c23          	sd	ra,24(sp)
    8478:	ee1ff0ef          	jal	ra,8358 <softfloat_countLeadingZeros64>
    847c:	fff5061b          	addiw	a2,a0,-1
    8480:	00900793          	li	a5,9
    8484:	40c485bb          	subw	a1,s1,a2
    8488:	04c7d463          	ble	a2,a5,84d0 <softfloat_normRoundPackToF64+0x7c>
    848c:	7fc00793          	li	a5,2044
    8490:	04b7e063          	bltu	a5,a1,84d0 <softfloat_normRoundPackToF64+0x7c>
    8494:	00060513          	mv	a0,a2
    8498:	03f91913          	slli	s2,s2,0x3f
    849c:	00000613          	li	a2,0
    84a0:	00040463          	beqz	s0,84a8 <softfloat_normRoundPackToF64+0x54>
    84a4:	03459613          	slli	a2,a1,0x34
    84a8:	ff65051b          	addiw	a0,a0,-10
    84ac:	00a41533          	sll	a0,s0,a0
    84b0:	01813083          	ld	ra,24(sp)
    84b4:	01013403          	ld	s0,16(sp)
    84b8:	01250533          	add	a0,a0,s2
    84bc:	00813483          	ld	s1,8(sp)
    84c0:	00013903          	ld	s2,0(sp)
    84c4:	00c50533          	add	a0,a0,a2
    84c8:	02010113          	addi	sp,sp,32
    84cc:	00008067          	ret
    84d0:	00c41633          	sll	a2,s0,a2
    84d4:	01013403          	ld	s0,16(sp)
    84d8:	01813083          	ld	ra,24(sp)
    84dc:	00813483          	ld	s1,8(sp)
    84e0:	00090513          	mv	a0,s2
    84e4:	00013903          	ld	s2,0(sp)
    84e8:	02010113          	addi	sp,sp,32
    84ec:	b04ff06f          	j	77f0 <softfloat_roundPackToF64>

00000000000084f0 <vsnprintf>:
    84f0:	00064783          	lbu	a5,0(a2)
    84f4:	00050313          	mv	t1,a0
    84f8:	30078e63          	beqz	a5,8814 <vsnprintf+0x324>
    84fc:	fd010113          	addi	sp,sp,-48
    8500:	02813423          	sd	s0,40(sp)
    8504:	02913023          	sd	s1,32(sp)
    8508:	01213c23          	sd	s2,24(sp)
    850c:	01313823          	sd	s3,16(sp)
    8510:	01413423          	sd	s4,8(sp)
    8514:	01513023          	sd	s5,0(sp)
    8518:	00000713          	li	a4,0
    851c:	00000913          	li	s2,0
    8520:	00000813          	li	a6,0
    8524:	02500293          	li	t0,37
    8528:	01500f93          	li	t6,21
    852c:	00001e97          	auipc	t4,0x1
    8530:	924e8e93          	addi	t4,t4,-1756 # 8e50 <softfloat_countLeadingZeros8+0x100>
    8534:	00a00e13          	li	t3,10
    8538:	02d00493          	li	s1,45
    853c:	00900393          	li	t2,9
    8540:	ffc00f13          	li	t5,-4
    8544:	07800413          	li	s0,120
    8548:	03000513          	li	a0,48
    854c:	02080263          	beqz	a6,8570 <vsnprintf+0x80>
    8550:	f9d7879b          	addiw	a5,a5,-99
    8554:	0ff7f793          	andi	a5,a5,255
    8558:	02ffe863          	bltu	t6,a5,8588 <vsnprintf+0x98>
    855c:	00279793          	slli	a5,a5,0x2
    8560:	01d787b3          	add	a5,a5,t4
    8564:	0007a783          	lw	a5,0(a5)
    8568:	01d787b3          	add	a5,a5,t4
    856c:	00078067          	jr	a5
    8570:	04578c63          	beq	a5,t0,85c8 <vsnprintf+0xd8>
    8574:	00170893          	addi	a7,a4,1
    8578:	06b8f263          	bleu	a1,a7,85dc <vsnprintf+0xec>
    857c:	00e30733          	add	a4,t1,a4
    8580:	00f70023          	sb	a5,0(a4)
    8584:	00088713          	mv	a4,a7
    8588:	00160613          	addi	a2,a2,1
    858c:	00064783          	lbu	a5,0(a2)
    8590:	fa079ee3          	bnez	a5,854c <vsnprintf+0x5c>
    8594:	0007051b          	sext.w	a0,a4
    8598:	20b76263          	bltu	a4,a1,879c <vsnprintf+0x2ac>
    859c:	00058663          	beqz	a1,85a8 <vsnprintf+0xb8>
    85a0:	00b30733          	add	a4,t1,a1
    85a4:	fe070fa3          	sb	zero,-1(a4)
    85a8:	02813403          	ld	s0,40(sp)
    85ac:	02013483          	ld	s1,32(sp)
    85b0:	01813903          	ld	s2,24(sp)
    85b4:	01013983          	ld	s3,16(sp)
    85b8:	00813a03          	ld	s4,8(sp)
    85bc:	00013a83          	ld	s5,0(sp)
    85c0:	03010113          	addi	sp,sp,48
    85c4:	00008067          	ret
    85c8:	00160613          	addi	a2,a2,1
    85cc:	00064783          	lbu	a5,0(a2)
    85d0:	00100813          	li	a6,1
    85d4:	f6079ce3          	bnez	a5,854c <vsnprintf+0x5c>
    85d8:	fbdff06f          	j	8594 <vsnprintf+0xa4>
    85dc:	00160613          	addi	a2,a2,1
    85e0:	00064783          	lbu	a5,0(a2)
    85e4:	00088713          	mv	a4,a7
    85e8:	f60792e3          	bnez	a5,854c <vsnprintf+0x5c>
    85ec:	fa9ff06f          	j	8594 <vsnprintf+0xa4>
    85f0:	00160613          	addi	a2,a2,1
    85f4:	00064783          	lbu	a5,0(a2)
    85f8:	00080913          	mv	s2,a6
    85fc:	f40798e3          	bnez	a5,854c <vsnprintf+0x5c>
    8600:	f95ff06f          	j	8594 <vsnprintf+0xa4>
    8604:	00868993          	addi	s3,a3,8
    8608:	1e090463          	beqz	s2,87f0 <vsnprintf+0x300>
    860c:	0006b683          	ld	a3,0(a3)
    8610:	1e06c463          	bltz	a3,87f8 <vsnprintf+0x308>
    8614:	03c6c7b3          	div	a5,a3,t3
    8618:	22078863          	beqz	a5,8848 <vsnprintf+0x358>
    861c:	00100813          	li	a6,1
    8620:	03c7c7b3          	div	a5,a5,t3
    8624:	00180813          	addi	a6,a6,1
    8628:	fe079ce3          	bnez	a5,8620 <vsnprintf+0x130>
    862c:	fff8079b          	addiw	a5,a6,-1
    8630:	00080893          	mv	a7,a6
    8634:	0207ca63          	bltz	a5,8668 <vsnprintf+0x178>
    8638:	00170a13          	addi	s4,a4,1
    863c:	00fa0833          	add	a6,s4,a5
    8640:	00b87c63          	bleu	a1,a6,8658 <vsnprintf+0x168>
    8644:	03c6e833          	rem	a6,a3,t3
    8648:	00f70933          	add	s2,a4,a5
    864c:	01230933          	add	s2,t1,s2
    8650:	0308081b          	addiw	a6,a6,48
    8654:	01090023          	sb	a6,0(s2)
    8658:	fff78793          	addi	a5,a5,-1
    865c:	02079813          	slli	a6,a5,0x20
    8660:	03c6c6b3          	div	a3,a3,t3
    8664:	fc085ce3          	bgez	a6,863c <vsnprintf+0x14c>
    8668:	00160613          	addi	a2,a2,1
    866c:	00064783          	lbu	a5,0(a2)
    8670:	01170733          	add	a4,a4,a7
    8674:	00098693          	mv	a3,s3
    8678:	00000913          	li	s2,0
    867c:	00000813          	li	a6,0
    8680:	ec0796e3          	bnez	a5,854c <vsnprintf+0x5c>
    8684:	f11ff06f          	j	8594 <vsnprintf+0xa4>
    8688:	00170793          	addi	a5,a4,1
    868c:	14b7f463          	bleu	a1,a5,87d4 <vsnprintf+0x2e4>
    8690:	0006a803          	lw	a6,0(a3)
    8694:	00e30733          	add	a4,t1,a4
    8698:	00160613          	addi	a2,a2,1
    869c:	01070023          	sb	a6,0(a4)
    86a0:	00078713          	mv	a4,a5
    86a4:	00064783          	lbu	a5,0(a2)
    86a8:	00868693          	addi	a3,a3,8
    86ac:	00000913          	li	s2,0
    86b0:	00000813          	li	a6,0
    86b4:	e8079ce3          	bnez	a5,854c <vsnprintf+0x5c>
    86b8:	eddff06f          	j	8594 <vsnprintf+0xa4>
    86bc:	00868793          	addi	a5,a3,8
    86c0:	10090263          	beqz	s2,87c4 <vsnprintf+0x2d4>
    86c4:	0006ba03          	ld	s4,0(a3)
    86c8:	00f00a93          	li	s5,15
    86cc:	00078693          	mv	a3,a5
    86d0:	002a9813          	slli	a6,s5,0x2
    86d4:	00070793          	mv	a5,a4
    86d8:	00178793          	addi	a5,a5,1
    86dc:	02b7f263          	bleu	a1,a5,8700 <vsnprintf+0x210>
    86e0:	410a58b3          	sra	a7,s4,a6
    86e4:	00f8f893          	andi	a7,a7,15
    86e8:	0ff8f993          	andi	s3,a7,255
    86ec:	05798913          	addi	s2,s3,87
    86f0:	0113c463          	blt	t2,a7,86f8 <vsnprintf+0x208>
    86f4:	03098913          	addi	s2,s3,48
    86f8:	00f308b3          	add	a7,t1,a5
    86fc:	ff288fa3          	sb	s2,-1(a7) # 1ffff <finisher+0x12f7f>
    8700:	ffc8081b          	addiw	a6,a6,-4
    8704:	fde81ae3          	bne	a6,t5,86d8 <vsnprintf+0x1e8>
    8708:	00160613          	addi	a2,a2,1
    870c:	00064783          	lbu	a5,0(a2)
    8710:	00170713          	addi	a4,a4,1
    8714:	00ea8733          	add	a4,s5,a4
    8718:	00000913          	li	s2,0
    871c:	00000813          	li	a6,0
    8720:	e20796e3          	bnez	a5,854c <vsnprintf+0x5c>
    8724:	e71ff06f          	j	8594 <vsnprintf+0xa4>
    8728:	0006b783          	ld	a5,0(a3)
    872c:	00868693          	addi	a3,a3,8
    8730:	0007c803          	lbu	a6,0(a5)
    8734:	0a080263          	beqz	a6,87d8 <vsnprintf+0x2e8>
    8738:	00170713          	addi	a4,a4,1
    873c:	00b77663          	bleu	a1,a4,8748 <vsnprintf+0x258>
    8740:	00e308b3          	add	a7,t1,a4
    8744:	ff088fa3          	sb	a6,-1(a7)
    8748:	00178793          	addi	a5,a5,1
    874c:	0007c803          	lbu	a6,0(a5)
    8750:	fe0814e3          	bnez	a6,8738 <vsnprintf+0x248>
    8754:	00160613          	addi	a2,a2,1
    8758:	00064783          	lbu	a5,0(a2)
    875c:	00000913          	li	s2,0
    8760:	de0796e3          	bnez	a5,854c <vsnprintf+0x5c>
    8764:	e31ff06f          	j	8594 <vsnprintf+0xa4>
    8768:	00170793          	addi	a5,a4,1
    876c:	00b7f663          	bleu	a1,a5,8778 <vsnprintf+0x288>
    8770:	00e30833          	add	a6,t1,a4
    8774:	00a80023          	sb	a0,0(a6)
    8778:	00270713          	addi	a4,a4,2
    877c:	00868813          	addi	a6,a3,8
    8780:	00b77663          	bleu	a1,a4,878c <vsnprintf+0x29c>
    8784:	00f307b3          	add	a5,t1,a5
    8788:	00878023          	sb	s0,0(a5)
    878c:	0006ba03          	ld	s4,0(a3)
    8790:	00f00a93          	li	s5,15
    8794:	00080693          	mv	a3,a6
    8798:	f39ff06f          	j	86d0 <vsnprintf+0x1e0>
    879c:	00e30733          	add	a4,t1,a4
    87a0:	00070023          	sb	zero,0(a4)
    87a4:	02813403          	ld	s0,40(sp)
    87a8:	02013483          	ld	s1,32(sp)
    87ac:	01813903          	ld	s2,24(sp)
    87b0:	01013983          	ld	s3,16(sp)
    87b4:	00813a03          	ld	s4,8(sp)
    87b8:	00013a83          	ld	s5,0(sp)
    87bc:	03010113          	addi	sp,sp,48
    87c0:	00008067          	ret
    87c4:	0006aa03          	lw	s4,0(a3)
    87c8:	00700a93          	li	s5,7
    87cc:	00078693          	mv	a3,a5
    87d0:	f01ff06f          	j	86d0 <vsnprintf+0x1e0>
    87d4:	00078713          	mv	a4,a5
    87d8:	00160613          	addi	a2,a2,1
    87dc:	00064783          	lbu	a5,0(a2)
    87e0:	00000913          	li	s2,0
    87e4:	00000813          	li	a6,0
    87e8:	d60792e3          	bnez	a5,854c <vsnprintf+0x5c>
    87ec:	da9ff06f          	j	8594 <vsnprintf+0xa4>
    87f0:	0006a683          	lw	a3,0(a3)
    87f4:	e206d0e3          	bgez	a3,8614 <vsnprintf+0x124>
    87f8:	00170793          	addi	a5,a4,1
    87fc:	40d006b3          	neg	a3,a3
    8800:	02b7fa63          	bleu	a1,a5,8834 <vsnprintf+0x344>
    8804:	00e30733          	add	a4,t1,a4
    8808:	00970023          	sb	s1,0(a4)
    880c:	00078713          	mv	a4,a5
    8810:	e05ff06f          	j	8614 <vsnprintf+0x124>
    8814:	00000713          	li	a4,0
    8818:	00000513          	li	a0,0
    881c:	02b76063          	bltu	a4,a1,883c <vsnprintf+0x34c>
    8820:	00058863          	beqz	a1,8830 <vsnprintf+0x340>
    8824:	00b30733          	add	a4,t1,a1
    8828:	fe070fa3          	sb	zero,-1(a4)
    882c:	00008067          	ret
    8830:	00008067          	ret
    8834:	00078713          	mv	a4,a5
    8838:	dddff06f          	j	8614 <vsnprintf+0x124>
    883c:	00e30733          	add	a4,t1,a4
    8840:	00070023          	sb	zero,0(a4)
    8844:	00008067          	ret
    8848:	00100893          	li	a7,1
    884c:	00000793          	li	a5,0
    8850:	de9ff06f          	j	8638 <vsnprintf+0x148>

0000000000008854 <snprintf>:
    8854:	fb010113          	addi	sp,sp,-80
    8858:	02810313          	addi	t1,sp,40
    885c:	02d13423          	sd	a3,40(sp)
    8860:	00030693          	mv	a3,t1
    8864:	00113c23          	sd	ra,24(sp)
    8868:	02e13823          	sd	a4,48(sp)
    886c:	02f13c23          	sd	a5,56(sp)
    8870:	05013023          	sd	a6,64(sp)
    8874:	05113423          	sd	a7,72(sp)
    8878:	00613423          	sd	t1,8(sp)
    887c:	c75ff0ef          	jal	ra,84f0 <vsnprintf>
    8880:	01813083          	ld	ra,24(sp)
    8884:	05010113          	addi	sp,sp,80
    8888:	00008067          	ret

000000000000888c <memcpy>:
    888c:	00b56733          	or	a4,a0,a1
    8890:	00777713          	andi	a4,a4,7
    8894:	00050793          	mv	a5,a0
    8898:	04071263          	bnez	a4,88dc <memcpy+0x50>
    889c:	ff960793          	addi	a5,a2,-7
    88a0:	00f508b3          	add	a7,a0,a5
    88a4:	00050713          	mv	a4,a0
    88a8:	00058693          	mv	a3,a1
    88ac:	05157c63          	bleu	a7,a0,8904 <memcpy+0x78>
    88b0:	0006b803          	ld	a6,0(a3)
    88b4:	00870713          	addi	a4,a4,8
    88b8:	00868693          	addi	a3,a3,8
    88bc:	ff073c23          	sd	a6,-8(a4)
    88c0:	ff1768e3          	bltu	a4,a7,88b0 <memcpy+0x24>
    88c4:	fff54793          	not	a5,a0
    88c8:	011787b3          	add	a5,a5,a7
    88cc:	ff87f793          	andi	a5,a5,-8
    88d0:	00878793          	addi	a5,a5,8
    88d4:	00f585b3          	add	a1,a1,a5
    88d8:	00f507b3          	add	a5,a0,a5
    88dc:	00c50633          	add	a2,a0,a2
    88e0:	40f606b3          	sub	a3,a2,a5
    88e4:	00d586b3          	add	a3,a1,a3
    88e8:	02c7f263          	bleu	a2,a5,890c <memcpy+0x80>
    88ec:	00158593          	addi	a1,a1,1
    88f0:	fff5c703          	lbu	a4,-1(a1)
    88f4:	00178793          	addi	a5,a5,1
    88f8:	fee78fa3          	sb	a4,-1(a5)
    88fc:	fed598e3          	bne	a1,a3,88ec <memcpy+0x60>
    8900:	00008067          	ret
    8904:	00050793          	mv	a5,a0
    8908:	fd5ff06f          	j	88dc <memcpy+0x50>
    890c:	00008067          	ret

0000000000008910 <memset>:
    8910:	00c567b3          	or	a5,a0,a2
    8914:	0077f793          	andi	a5,a5,7
    8918:	00c50633          	add	a2,a0,a2
    891c:	0ff5f593          	andi	a1,a1,255
    8920:	00078e63          	beqz	a5,893c <memset+0x2c>
    8924:	00050793          	mv	a5,a0
    8928:	04c57263          	bleu	a2,a0,896c <memset+0x5c>
    892c:	00178793          	addi	a5,a5,1
    8930:	feb78fa3          	sb	a1,-1(a5)
    8934:	fef61ce3          	bne	a2,a5,892c <memset+0x1c>
    8938:	00008067          	ret
    893c:	00859793          	slli	a5,a1,0x8
    8940:	00b7e5b3          	or	a1,a5,a1
    8944:	01059793          	slli	a5,a1,0x10
    8948:	00b7e7b3          	or	a5,a5,a1
    894c:	02079593          	slli	a1,a5,0x20
    8950:	00f5e5b3          	or	a1,a1,a5
    8954:	fec572e3          	bleu	a2,a0,8938 <memset+0x28>
    8958:	00050793          	mv	a5,a0
    895c:	00878793          	addi	a5,a5,8
    8960:	feb7bc23          	sd	a1,-8(a5)
    8964:	fec7ece3          	bltu	a5,a2,895c <memset+0x4c>
    8968:	00008067          	ret
    896c:	00008067          	ret

0000000000008970 <strlen>:
    8970:	00054783          	lbu	a5,0(a0) # fff000 <_end+0xdfe960>
    8974:	00050713          	mv	a4,a0
    8978:	00078c63          	beqz	a5,8990 <strlen+0x20>
    897c:	00150513          	addi	a0,a0,1
    8980:	00054783          	lbu	a5,0(a0)
    8984:	fe079ce3          	bnez	a5,897c <strlen+0xc>
    8988:	40e50533          	sub	a0,a0,a4
    898c:	00008067          	ret
    8990:	00000513          	li	a0,0
    8994:	00008067          	ret

0000000000008998 <strcmp>:
    8998:	00150513          	addi	a0,a0,1
    899c:	fff54783          	lbu	a5,-1(a0)
    89a0:	00158593          	addi	a1,a1,1
    89a4:	fff5c703          	lbu	a4,-1(a1)
    89a8:	00078a63          	beqz	a5,89bc <strcmp+0x24>
    89ac:	fee786e3          	beq	a5,a4,8998 <strcmp>
    89b0:	0007851b          	sext.w	a0,a5
    89b4:	40e5053b          	subw	a0,a0,a4
    89b8:	00008067          	ret
    89bc:	00000513          	li	a0,0
    89c0:	ff5ff06f          	j	89b4 <strcmp+0x1c>

00000000000089c4 <strcpy>:
    89c4:	00050793          	mv	a5,a0
    89c8:	00158593          	addi	a1,a1,1
    89cc:	fff5c703          	lbu	a4,-1(a1)
    89d0:	00178793          	addi	a5,a5,1
    89d4:	fee78fa3          	sb	a4,-1(a5)
    89d8:	fe0718e3          	bnez	a4,89c8 <strcpy+0x4>
    89dc:	00008067          	ret

00000000000089e0 <atol>:
    89e0:	00054783          	lbu	a5,0(a0)
    89e4:	02000713          	li	a4,32
    89e8:	00e79863          	bne	a5,a4,89f8 <atol+0x18>
    89ec:	00150513          	addi	a0,a0,1
    89f0:	00054783          	lbu	a5,0(a0)
    89f4:	fee78ce3          	beq	a5,a4,89ec <atol+0xc>
    89f8:	fd57871b          	addiw	a4,a5,-43
    89fc:	0fd77713          	andi	a4,a4,253
    8a00:	04070263          	beqz	a4,8a44 <atol+0x64>
    8a04:	00054683          	lbu	a3,0(a0)
    8a08:	00050793          	mv	a5,a0
    8a0c:	00000613          	li	a2,0
    8a10:	04068863          	beqz	a3,8a60 <atol+0x80>
    8a14:	00000513          	li	a0,0
    8a18:	00178793          	addi	a5,a5,1
    8a1c:	fd06859b          	addiw	a1,a3,-48
    8a20:	00251713          	slli	a4,a0,0x2
    8a24:	0007c683          	lbu	a3,0(a5)
    8a28:	00a70533          	add	a0,a4,a0
    8a2c:	00151513          	slli	a0,a0,0x1
    8a30:	00a58533          	add	a0,a1,a0
    8a34:	fe0692e3          	bnez	a3,8a18 <atol+0x38>
    8a38:	00060463          	beqz	a2,8a40 <atol+0x60>
    8a3c:	40a00533          	neg	a0,a0
    8a40:	00008067          	ret
    8a44:	00154683          	lbu	a3,1(a0)
    8a48:	fd378793          	addi	a5,a5,-45
    8a4c:	0017b613          	seqz	a2,a5
    8a50:	00150793          	addi	a5,a0,1
    8a54:	fc0690e3          	bnez	a3,8a14 <atol+0x34>
    8a58:	00000513          	li	a0,0
    8a5c:	fddff06f          	j	8a38 <atol+0x58>
    8a60:	00000513          	li	a0,0
    8a64:	00008067          	ret

Disassembly of section .rodata:

0000000000008a68 <illegal_insn_trap_table-0x24>:
    8a68:	a2bc                	fsd	fa5,64(a3)
    8a6a:	ffff                	0xffff
    8a6c:	a2f8                	fsd	fa4,192(a3)
    8a6e:	ffff                	0xffff
    8a70:	a278                	fsd	fa4,192(a2)
    8a72:	ffff                	0xffff
    8a74:	a2a0                	fsd	fs0,64(a3)
    8a76:	ffff                	0xffff
    8a78:	a260                	fsd	fs0,192(a2)
    8a7a:	ffff                	0xffff
    8a7c:	a26c                	fsd	fa1,192(a2)
    8a7e:	ffff                	0xffff
    8a80:	a0c4                	fsd	fs1,128(s1)
    8a82:	ffff                	0xffff
    8a84:	a0c4                	fsd	fs1,128(s1)
    8a86:	ffff                	0xffff
    8a88:	a36c                	fsd	fa1,192(a4)
    8a8a:	ffff                	0xffff

0000000000008a8c <illegal_insn_trap_table>:
    8a8c:	3b8c                	fld	fa1,48(a5)
    8a8e:	0000                	unimp
    8a90:	4dd8                	lw	a4,28(a1)
    8a92:	0000                	unimp
    8a94:	3b8c                	fld	fa1,48(a5)
    8a96:	0000                	unimp
    8a98:	3b8c                	fld	fa1,48(a5)
    8a9a:	0000                	unimp
    8a9c:	3b8c                	fld	fa1,48(a5)
    8a9e:	0000                	unimp
    8aa0:	3b8c                	fld	fa1,48(a5)
    8aa2:	0000                	unimp
    8aa4:	3b8c                	fld	fa1,48(a5)
    8aa6:	0000                	unimp
    8aa8:	3b8c                	fld	fa1,48(a5)
    8aaa:	0000                	unimp
    8aac:	3b8c                	fld	fa1,48(a5)
    8aae:	0000                	unimp
    8ab0:	4e90                	lw	a2,24(a3)
    8ab2:	0000                	unimp
    8ab4:	3b8c                	fld	fa1,48(a5)
    8ab6:	0000                	unimp
    8ab8:	3b8c                	fld	fa1,48(a5)
    8aba:	0000                	unimp
    8abc:	3b8c                	fld	fa1,48(a5)
    8abe:	0000                	unimp
    8ac0:	3b8c                	fld	fa1,48(a5)
    8ac2:	0000                	unimp
    8ac4:	3b8c                	fld	fa1,48(a5)
    8ac6:	0000                	unimp
    8ac8:	3b8c                	fld	fa1,48(a5)
    8aca:	0000                	unimp
    8acc:	4c34                	lw	a3,88(s0)
    8ace:	0000                	unimp
    8ad0:	4c34                	lw	a3,88(s0)
    8ad2:	0000                	unimp
    8ad4:	4c34                	lw	a3,88(s0)
    8ad6:	0000                	unimp
    8ad8:	4c34                	lw	a3,88(s0)
    8ada:	0000                	unimp
    8adc:	3f74                	fld	fa3,248(a4)
    8ade:	0000                	unimp
    8ae0:	3b8c                	fld	fa1,48(a5)
    8ae2:	0000                	unimp
    8ae4:	3b8c                	fld	fa1,48(a5)
    8ae6:	0000                	unimp
    8ae8:	3b8c                	fld	fa1,48(a5)
    8aea:	0000                	unimp
    8aec:	3b8c                	fld	fa1,48(a5)
    8aee:	0000                	unimp
    8af0:	3b8c                	fld	fa1,48(a5)
    8af2:	0000                	unimp
    8af4:	3b8c                	fld	fa1,48(a5)
    8af6:	0000                	unimp
    8af8:	3b8c                	fld	fa1,48(a5)
    8afa:	0000                	unimp
    8afc:	3b9c                	fld	fa5,48(a5)
    8afe:	0000                	unimp
    8b00:	3b8c                	fld	fa1,48(a5)
    8b02:	0000                	unimp
    8b04:	3b8c                	fld	fa1,48(a5)
    8b06:	0000                	unimp
    8b08:	3b8c                	fld	fa1,48(a5)
    8b0a:	0000                	unimp
    8b0c:	b150                	fsd	fa2,160(a0)
    8b0e:	ffff                	0xffff
    8b10:	b278                	fsd	fa4,224(a2)
    8b12:	ffff                	0xffff
    8b14:	b2a4                	fsd	fs1,96(a3)
    8b16:	ffff                	0xffff
    8b18:	b290                	fsd	fa2,32(a3)
    8b1a:	ffff                	0xffff
    8b1c:	b150                	fsd	fa2,160(a0)
    8b1e:	ffff                	0xffff
    8b20:	b29c                	fsd	fa5,32(a3)
    8b22:	ffff                	0xffff
    8b24:	b244                	fsd	fs1,160(a2)
    8b26:	ffff                	0xffff
    8b28:	b2ac                	fsd	fa1,96(a3)
    8b2a:	ffff                	0xffff
    8b2c:	b130                	fsd	fa2,96(a0)
    8b2e:	ffff                	0xffff
    8b30:	b3b8                	fsd	fa4,96(a5)
    8b32:	ffff                	0xffff
    8b34:	b284                	fsd	fs1,32(a3)
    8b36:	ffff                	0xffff
    8b38:	b270                	fsd	fa2,224(a2)
    8b3a:	ffff                	0xffff
    8b3c:	b130                	fsd	fa2,96(a0)
    8b3e:	ffff                	0xffff
    8b40:	b27c                	fsd	fa5,224(a2)
    8b42:	ffff                	0xffff
    8b44:	b224                	fsd	fs1,96(a2)
    8b46:	ffff                	0xffff
    8b48:	b28c                	fsd	fa1,32(a3)
    8b4a:	ffff                	0xffff
    8b4c:	b110                	fsd	fa2,32(a0)
    8b4e:	ffff                	0xffff
    8b50:	b420                	fsd	fs0,104(s0)
    8b52:	ffff                	0xffff
    8b54:	b264                	fsd	fs1,224(a2)
    8b56:	ffff                	0xffff
    8b58:	b250                	fsd	fa2,160(a2)
    8b5a:	ffff                	0xffff
    8b5c:	b110                	fsd	fa2,32(a0)
    8b5e:	ffff                	0xffff
    8b60:	b25c                	fsd	fa5,160(a2)
    8b62:	ffff                	0xffff
    8b64:	b204                	fsd	fs1,32(a2)
    8b66:	ffff                	0xffff
    8b68:	b26c                	fsd	fa1,224(a2)
    8b6a:	ffff                	0xffff
    8b6c:	b0f0                	fsd	fa2,224(s1)
    8b6e:	ffff                	0xffff
    8b70:	b3d4                	fsd	fa3,160(a5)
    8b72:	ffff                	0xffff
    8b74:	b244                	fsd	fs1,160(a2)
    8b76:	ffff                	0xffff
    8b78:	b230                	fsd	fa2,96(a2)
    8b7a:	ffff                	0xffff
    8b7c:	b0f0                	fsd	fa2,224(s1)
    8b7e:	ffff                	0xffff
    8b80:	b23c                	fsd	fa5,96(a2)
    8b82:	ffff                	0xffff
    8b84:	b1e4                	fsd	fs1,224(a1)
    8b86:	ffff                	0xffff
    8b88:	b24c                	fsd	fa1,160(a2)
    8b8a:	ffff                	0xffff
    8b8c:	b0d0                	fsd	fa2,160(s1)
    8b8e:	ffff                	0xffff
    8b90:	b3c8                	fsd	fa0,160(a5)
    8b92:	ffff                	0xffff
    8b94:	b224                	fsd	fs1,96(a2)
    8b96:	ffff                	0xffff
    8b98:	b210                	fsd	fa2,32(a2)
    8b9a:	ffff                	0xffff
    8b9c:	b0d0                	fsd	fa2,160(s1)
    8b9e:	ffff                	0xffff
    8ba0:	b21c                	fsd	fa5,32(a2)
    8ba2:	ffff                	0xffff
    8ba4:	b1c4                	fsd	fs1,160(a1)
    8ba6:	ffff                	0xffff
    8ba8:	b22c                	fsd	fa1,96(a2)
    8baa:	ffff                	0xffff
    8bac:	b0b0                	fsd	fa2,96(s1)
    8bae:	ffff                	0xffff
    8bb0:	b370                	fsd	fa2,224(a4)
    8bb2:	ffff                	0xffff
    8bb4:	b204                	fsd	fs1,32(a2)
    8bb6:	ffff                	0xffff
    8bb8:	b1f0                	fsd	fa2,224(a1)
    8bba:	ffff                	0xffff
    8bbc:	b0b0                	fsd	fa2,96(s1)
    8bbe:	ffff                	0xffff
    8bc0:	b1fc                	fsd	fa5,224(a1)
    8bc2:	ffff                	0xffff
    8bc4:	b1a4                	fsd	fs1,96(a1)
    8bc6:	ffff                	0xffff
    8bc8:	b20c                	fsd	fa1,32(a2)
    8bca:	ffff                	0xffff
    8bcc:	b090                	fsd	fa2,32(s1)
    8bce:	ffff                	0xffff
    8bd0:	b324                	fsd	fs1,96(a4)
    8bd2:	ffff                	0xffff
    8bd4:	b1e4                	fsd	fs1,224(a1)
    8bd6:	ffff                	0xffff
    8bd8:	b1d0                	fsd	fa2,160(a1)
    8bda:	ffff                	0xffff
    8bdc:	b090                	fsd	fa2,32(s1)
    8bde:	ffff                	0xffff
    8be0:	b1dc                	fsd	fa5,160(a1)
    8be2:	ffff                	0xffff
    8be4:	b184                	fsd	fs1,32(a1)
    8be6:	ffff                	0xffff
    8be8:	b1ec                	fsd	fa1,224(a1)
    8bea:	ffff                	0xffff
    8bec:	b070                	fsd	fa2,224(s0)
    8bee:	ffff                	0xffff
    8bf0:	b378                	fsd	fa4,224(a4)
    8bf2:	ffff                	0xffff
    8bf4:	b1c4                	fsd	fs1,160(a1)
    8bf6:	ffff                	0xffff
    8bf8:	b1b0                	fsd	fa2,96(a1)
    8bfa:	ffff                	0xffff
    8bfc:	b070                	fsd	fa2,224(s0)
    8bfe:	ffff                	0xffff
    8c00:	b1bc                	fsd	fa5,96(a1)
    8c02:	ffff                	0xffff
    8c04:	b164                	fsd	fs1,224(a0)
    8c06:	ffff                	0xffff
    8c08:	b1cc                	fsd	fa1,160(a1)
    8c0a:	ffff                	0xffff
    8c0c:	b050                	fsd	fa2,160(s0)
    8c0e:	ffff                	0xffff
    8c10:	b32c                	fsd	fa1,96(a4)
    8c12:	ffff                	0xffff
    8c14:	b1a4                	fsd	fs1,96(a1)
    8c16:	ffff                	0xffff
    8c18:	b190                	fsd	fa2,32(a1)
    8c1a:	ffff                	0xffff
    8c1c:	b050                	fsd	fa2,160(s0)
    8c1e:	ffff                	0xffff
    8c20:	b19c                	fsd	fa5,32(a1)
    8c22:	ffff                	0xffff
    8c24:	b144                	fsd	fs1,160(a0)
    8c26:	ffff                	0xffff
    8c28:	b1ac                	fsd	fa1,96(a1)
    8c2a:	ffff                	0xffff
    8c2c:	b030                	fsd	fa2,96(s0)
    8c2e:	ffff                	0xffff
    8c30:	b030                	fsd	fa2,96(s0)
    8c32:	ffff                	0xffff
    8c34:	b184                	fsd	fs1,32(a1)
    8c36:	ffff                	0xffff
    8c38:	b170                	fsd	fa2,224(a0)
    8c3a:	ffff                	0xffff
    8c3c:	b030                	fsd	fa2,96(s0)
    8c3e:	ffff                	0xffff
    8c40:	b17c                	fsd	fa5,224(a0)
    8c42:	ffff                	0xffff
    8c44:	b124                	fsd	fs1,96(a0)
    8c46:	ffff                	0xffff
    8c48:	b18c                	fsd	fa1,32(a1)
    8c4a:	ffff                	0xffff

0000000000008c4c <fp_emulation_table>:
    8c4c:	40c8                	lw	a0,4(s1)
    8c4e:	0000                	unimp
    8c50:	40d0                	lw	a2,4(s1)
    8c52:	0000                	unimp
    8c54:	40d8                	lw	a4,4(s1)
    8c56:	0000                	unimp
    8c58:	41b8                	lw	a4,64(a1)
    8c5a:	0000                	unimp
    8c5c:	4368                	lw	a0,68(a4)
    8c5e:	0000                	unimp
    8c60:	4458                	lw	a4,12(s0)
    8c62:	0000                	unimp
    8c64:	3b8c                	fld	fa1,48(a5)
    8c66:	0000                	unimp
    8c68:	3b8c                	fld	fa1,48(a5)
    8c6a:	0000                	unimp
    8c6c:	45e0                	lw	s0,76(a1)
    8c6e:	0000                	unimp
    8c70:	3b8c                	fld	fa1,48(a5)
    8c72:	0000                	unimp
    8c74:	3b8c                	fld	fa1,48(a5)
    8c76:	0000                	unimp
    8c78:	4298                	lw	a4,0(a3)
    8c7a:	0000                	unimp
    8c7c:	3b8c                	fld	fa1,48(a5)
    8c7e:	0000                	unimp
    8c80:	3b8c                	fld	fa1,48(a5)
    8c82:	0000                	unimp
    8c84:	3b8c                	fld	fa1,48(a5)
    8c86:	0000                	unimp
    8c88:	3b8c                	fld	fa1,48(a5)
    8c8a:	0000                	unimp
    8c8c:	3b8c                	fld	fa1,48(a5)
    8c8e:	0000                	unimp
    8c90:	3b8c                	fld	fa1,48(a5)
    8c92:	0000                	unimp
    8c94:	3b8c                	fld	fa1,48(a5)
    8c96:	0000                	unimp
    8c98:	3b8c                	fld	fa1,48(a5)
    8c9a:	0000                	unimp
    8c9c:	4990                	lw	a2,16(a1)
    8c9e:	0000                	unimp
    8ca0:	3b8c                	fld	fa1,48(a5)
    8ca2:	0000                	unimp
    8ca4:	3b8c                	fld	fa1,48(a5)
    8ca6:	0000                	unimp
    8ca8:	3b8c                	fld	fa1,48(a5)
    8caa:	0000                	unimp
    8cac:	47e4                	lw	s1,76(a5)
    8cae:	0000                	unimp
    8cb0:	3b8c                	fld	fa1,48(a5)
    8cb2:	0000                	unimp
    8cb4:	46b4                	lw	a3,72(a3)
    8cb6:	0000                	unimp
    8cb8:	3b8c                	fld	fa1,48(a5)
    8cba:	0000                	unimp
    8cbc:	4ac8                	lw	a0,20(a3)
    8cbe:	0000                	unimp
    8cc0:	3b8c                	fld	fa1,48(a5)
    8cc2:	0000                	unimp
    8cc4:	4bb8                	lw	a4,80(a5)
    8cc6:	0000                	unimp
    8cc8:	3b8c                	fld	fa1,48(a5)
    8cca:	0000                	unimp
    8ccc:	0000                	unimp
	...

0000000000008cd0 <softfloat_approxRecip_1k1s>:
    8cd0:	f0f1                	bnez	s1,8c94 <fp_emulation_table+0x48>
    8cd2:	d62c                	sw	a1,104(a2)
    8cd4:	bfa1                	j	8c2c <illegal_insn_trap_table+0x1a0>
    8cd6:	9c0aac77          	0x9c0aac77
    8cda:	81858ddb          	0x81858ddb
    8cde:	76ba                	ld	a3,424(sp)
    8ce0:	64d46d3b          	0x64d46d3b
    8ce4:	5d5c                	lw	a5,60(a0)
    8ce6:	56b1                	li	a3,-20
    8ce8:	50b6                	lw	ra,108(sp)
    8cea:	4b55                	li	s6,21
    8cec:	4679                	li	a2,30
    8cee:	4211                	li	tp,4

0000000000008cf0 <softfloat_approxRecip_1k0s>:
    8cf0:	ffc4                	sd	s1,184(a5)
    8cf2:	f0be                	sd	a5,96(sp)
    8cf4:	d76fe363          	bltu	t6,s6,825a <softfloat_propagateNaNF64UI+0x1a>
    8cf8:	ccad                	beqz	s1,8d72 <softfloat_countLeadingZeros8+0x22>
    8cfa:	c2f0                	sw	a2,68(a3)
    8cfc:	ba16                	fsd	ft5,304(sp)
    8cfe:	b201                	j	85fe <vsnprintf+0x10e>
    8d00:	a3c6aa97          	auipc	s5,0xa3c6a
    8d04:	9d7a                	add	s10,s10,t5
    8d06:	97a6                	add	a5,a5,s1
    8d08:	923c                	0x923c
    8d0a:	8d32                	mv	s10,a2
    8d0c:	887e                	mv	a6,t6
    8d0e:	a5a58417          	auipc	s0,0xa5a58

0000000000008d10 <softfloat_approxRecipSqrt_1k1s>:
    8d10:	a5a5                	j	9378 <softfloat_countLeadingZeros8+0x628>
    8d12:	ea42                	sd	a6,272(sp)
    8d14:	8c21                	xor	s0,s0,s0
    8d16:	c62d                	beqz	a2,8d80 <softfloat_countLeadingZeros8+0x30>
    8d18:	aa7f788f          	0xaa7f788f
    8d1c:	6928                	ld	a0,80(a0)
    8d1e:	94b6                	add	s1,s1,a3
    8d20:	83355cc7          	fmsub.d	fs9,fa0,fs3,fa6,unknown
    8d24:	52a6                	lw	t0,104(sp)
    8d26:	74e2                	ld	s1,56(sp)
    8d28:	4a3e                	lw	s4,204(sp)
    8d2a:	68fe                	ld	a7,472(sp)
    8d2c:	5efd432b          	0x5efd432b

0000000000008d30 <softfloat_approxRecipSqrt_1k0s>:
    8d30:	b4c9                	j	87f2 <vsnprintf+0x302>
    8d32:	aa7dffab          	0xaa7dffab
    8d36:	f11c                	sd	a5,32(a0)
    8d38:	a1c5                	j	9218 <softfloat_countLeadingZeros8+0x4c8>
    8d3a:	9a43e4c7          	fmsub.d	fs1,ft7,ft4,fs3,unknown
    8d3e:	da29                	beqz	a2,8c90 <fp_emulation_table+0x44>
    8d40:	93b5                	srli	a5,a5,0x2d
    8d42:	d0e5                	beqz	s1,8d22 <softfloat_approxRecipSqrt_1k1s+0x12>
    8d44:	8ded                	and	a1,a1,a1
    8d46:	88c6c8b7          	lui	a7,0x88c6c
    8d4a:	c16d                	beqz	a0,8e2c <softfloat_countLeadingZeros8+0xdc>
    8d4c:	8424                	0x8424
    8d4e:	bae1                	j	8726 <vsnprintf+0x236>

0000000000008d50 <softfloat_countLeadingZeros8>:
    8d50:	0708                	addi	a0,sp,896
    8d52:	0606                	slli	a2,a2,0x1
    8d54:	0505                	addi	a0,a0,1
    8d56:	0505                	addi	a0,a0,1
    8d58:	0404                	addi	s1,sp,512
    8d5a:	0404                	addi	s1,sp,512
    8d5c:	0404                	addi	s1,sp,512
    8d5e:	0404                	addi	s1,sp,512
    8d60:	03030303          	lb	t1,48(t1) # 40000030 <_end+0x3fdff990>
    8d64:	03030303          	lb	t1,48(t1)
    8d68:	03030303          	lb	t1,48(t1)
    8d6c:	03030303          	lb	t1,48(t1)
    8d70:	0202                	slli	tp,tp,0x0
    8d72:	0202                	slli	tp,tp,0x0
    8d74:	0202                	slli	tp,tp,0x0
    8d76:	0202                	slli	tp,tp,0x0
    8d78:	0202                	slli	tp,tp,0x0
    8d7a:	0202                	slli	tp,tp,0x0
    8d7c:	0202                	slli	tp,tp,0x0
    8d7e:	0202                	slli	tp,tp,0x0
    8d80:	0202                	slli	tp,tp,0x0
    8d82:	0202                	slli	tp,tp,0x0
    8d84:	0202                	slli	tp,tp,0x0
    8d86:	0202                	slli	tp,tp,0x0
    8d88:	0202                	slli	tp,tp,0x0
    8d8a:	0202                	slli	tp,tp,0x0
    8d8c:	0202                	slli	tp,tp,0x0
    8d8e:	0202                	slli	tp,tp,0x0
    8d90:	0101                	addi	sp,sp,0
    8d92:	0101                	addi	sp,sp,0
    8d94:	0101                	addi	sp,sp,0
    8d96:	0101                	addi	sp,sp,0
    8d98:	0101                	addi	sp,sp,0
    8d9a:	0101                	addi	sp,sp,0
    8d9c:	0101                	addi	sp,sp,0
    8d9e:	0101                	addi	sp,sp,0
    8da0:	0101                	addi	sp,sp,0
    8da2:	0101                	addi	sp,sp,0
    8da4:	0101                	addi	sp,sp,0
    8da6:	0101                	addi	sp,sp,0
    8da8:	0101                	addi	sp,sp,0
    8daa:	0101                	addi	sp,sp,0
    8dac:	0101                	addi	sp,sp,0
    8dae:	0101                	addi	sp,sp,0
    8db0:	0101                	addi	sp,sp,0
    8db2:	0101                	addi	sp,sp,0
    8db4:	0101                	addi	sp,sp,0
    8db6:	0101                	addi	sp,sp,0
    8db8:	0101                	addi	sp,sp,0
    8dba:	0101                	addi	sp,sp,0
    8dbc:	0101                	addi	sp,sp,0
    8dbe:	0101                	addi	sp,sp,0
    8dc0:	0101                	addi	sp,sp,0
    8dc2:	0101                	addi	sp,sp,0
    8dc4:	0101                	addi	sp,sp,0
    8dc6:	0101                	addi	sp,sp,0
    8dc8:	0101                	addi	sp,sp,0
    8dca:	0101                	addi	sp,sp,0
    8dcc:	0101                	addi	sp,sp,0
    8dce:	0101                	addi	sp,sp,0
	...
    8e50:	f838                	sd	a4,112(s0)
    8e52:	ffff                	0xffff
    8e54:	f7b4                	sd	a3,104(a5)
    8e56:	ffff                	0xffff
    8e58:	f738                	sd	a4,104(a4)
    8e5a:	ffff                	0xffff
    8e5c:	f738                	sd	a4,104(a4)
    8e5e:	ffff                	0xffff
    8e60:	f738                	sd	a4,104(a4)
    8e62:	ffff                	0xffff
    8e64:	f738                	sd	a4,104(a4)
    8e66:	ffff                	0xffff
    8e68:	f738                	sd	a4,104(a4)
    8e6a:	ffff                	0xffff
    8e6c:	f738                	sd	a4,104(a4)
    8e6e:	ffff                	0xffff
    8e70:	f738                	sd	a4,104(a4)
    8e72:	ffff                	0xffff
    8e74:	f7a0                	sd	s0,104(a5)
    8e76:	ffff                	0xffff
    8e78:	f738                	sd	a4,104(a4)
    8e7a:	ffff                	0xffff
    8e7c:	f738                	sd	a4,104(a4)
    8e7e:	ffff                	0xffff
    8e80:	f738                	sd	a4,104(a4)
    8e82:	ffff                	0xffff
    8e84:	f918                	sd	a4,48(a0)
    8e86:	ffff                	0xffff
    8e88:	f738                	sd	a4,104(a4)
    8e8a:	ffff                	0xffff
    8e8c:	f738                	sd	a4,104(a4)
    8e8e:	ffff                	0xffff
    8e90:	f8d8                	sd	a4,176(s1)
    8e92:	ffff                	0xffff
    8e94:	f738                	sd	a4,104(a4)
    8e96:	ffff                	0xffff
    8e98:	f738                	sd	a4,104(a4)
    8e9a:	ffff                	0xffff
    8e9c:	f738                	sd	a4,104(a4)
    8e9e:	ffff                	0xffff
    8ea0:	f738                	sd	a4,104(a4)
    8ea2:	ffff                	0xffff
    8ea4:	f86c                	sd	a1,240(s0)
    8ea6:	ffff                	0xffff
    8ea8:	6972                	ld	s2,280(sp)
    8eaa:	2c766373          	csrrsi	t1,0x2c7,12
    8eae:	6e696c63          	bltu	s2,t1,95a6 <_etext+0xe6>
    8eb2:	3074                	fld	fa3,224(s0)
    8eb4:	0000                	unimp
    8eb6:	0000                	unimp
    8eb8:	6972                	ld	s2,280(sp)
    8eba:	2c766373          	csrrsi	t1,0x2c7,12
    8ebe:	6564                	ld	s1,200(a0)
    8ec0:	7562                	ld	a0,56(sp)
    8ec2:	31302d67          	0x31302d67
    8ec6:	54530033          	0x54530033
    8eca:	5241                	li	tp,-16
    8ecc:	0a54                	addi	a3,sp,276
    8ece:	0000                	unimp
    8ed0:	4e45                	li	t3,17
    8ed2:	0a44                	addi	s1,sp,276
    8ed4:	0000                	unimp
    8ed6:	0000                	unimp
    8ed8:	52415453          	0x52415453
    8edc:	3154                	fld	fa3,160(a0)
    8ede:	000a                	0xa
    8ee0:	52415453          	0x52415453
    8ee4:	3254                	fld	fa3,160(a2)
    8ee6:	2520                	fld	fs0,72(a0)
    8ee8:	0a78                	addi	a4,sp,284
    8eea:	0000                	unimp
    8eec:	0000                	unimp
    8eee:	0000                	unimp
    8ef0:	6e616373          	csrrsi	t1,0x6e6,2
    8ef4:	3e2d                	addiw	t3,t3,-21
    8ef6:	6572                	ld	a0,280(sp)
    8ef8:	3d212067          	0x3d212067
    8efc:	3020                	fld	fs0,96(s0)
    8efe:	0000                	unimp
    8f00:	2e2e                	fld	ft8,200(sp)
    8f02:	63616d2f          	0x63616d2f
    8f06:	6968                	ld	a0,208(a0)
    8f08:	656e                	ld	a0,216(sp)
    8f0a:	7464662f          	0x7464662f
    8f0e:	632e                	ld	t1,200(sp)
	...
    8f18:	7325                	lui	t1,0xfffe9
    8f1a:	253a                	fld	fa0,392(sp)
    8f1c:	3a64                	fld	fs1,240(a2)
    8f1e:	6120                	ld	s0,64(a0)
    8f20:	72657373          	csrrci	t1,0x726,10
    8f24:	6974                	ld	a3,208(a0)
    8f26:	66206e6f          	jal	t3,f588 <finisher+0x2508>
    8f2a:	6961                	lui	s2,0x18
    8f2c:	656c                	ld	a1,200(a0)
    8f2e:	3a64                	fld	fs1,240(a2)
    8f30:	2520                	fld	fs0,72(a0)
    8f32:	00000a73          	0xa73
    8f36:	0000                	unimp
    8f38:	6e616373          	csrrsi	t1,0x6e6,2
    8f3c:	3e2d                	addiw	t3,t3,-21
    8f3e:	6e69                	lui	t3,0x1a
    8f40:	5f74                	lw	a3,124(a4)
    8f42:	6176                	ld	sp,344(sp)
    8f44:	756c                	ld	a1,232(a0)
    8f46:	2065                	0x2065
    8f48:	2626                	fld	fa2,72(sp)
    8f4a:	7320                	ld	s0,96(a4)
    8f4c:	2d6e6163          	bltu	t3,s6,920e <softfloat_countLeadingZeros8+0x4be>
    8f50:	693e                	ld	s2,456(sp)
    8f52:	746e                	ld	s0,248(sp)
    8f54:	6c5f 6e65 2520      	0x25206e656c5f
    8f5a:	3120                	fld	fs0,96(a0)
    8f5c:	2036                	fld	ft0,328(sp)
    8f5e:	3d3d                	addiw	s10,s10,-17
    8f60:	3020                	fld	fs0,96(s0)
    8f62:	0000                	unimp
    8f64:	0000                	unimp
    8f66:	0000                	unimp
    8f68:	7321                	lui	t1,0xfffe8
    8f6a:	2d6e6163          	bltu	t3,s6,922c <softfloat_countLeadingZeros8+0x4dc>
    8f6e:	643e                	ld	s0,456(sp)
    8f70:	00656e6f          	jal	t3,5ef76 <finisher+0x51ef6>
    8f74:	0000                	unimp
    8f76:	0000                	unimp
    8f78:	6e616373          	csrrsi	t1,0x6e6,2
    8f7c:	3e2d                	addiw	t3,t3,-21
    8f7e:	6e69                	lui	t3,0x1a
    8f80:	5f74                	lw	a3,124(a4)
    8f82:	6176                	ld	sp,344(sp)
    8f84:	756c                	ld	a1,232(a0)
    8f86:	2065                	0x2065
    8f88:	2626                	fld	fa2,72(sp)
    8f8a:	7320                	ld	s0,96(a4)
    8f8c:	2d6e6163          	bltu	t3,s6,924e <softfloat_countLeadingZeros8+0x4fe>
    8f90:	693e                	ld	s2,456(sp)
    8f92:	746e                	ld	s0,248(sp)
    8f94:	6c5f 6e65 2520      	0x25206e656c5f
    8f9a:	3820                	fld	fs0,112(s0)
    8f9c:	3d20                	fld	fs0,120(a0)
    8f9e:	203d                	0x203d
    8fa0:	0030                	addi	a2,sp,8
    8fa2:	0000                	unimp
    8fa4:	0000                	unimp
    8fa6:	0000                	unimp
    8fa8:	6e616373          	csrrsi	t1,0x6e6,2
    8fac:	3e2d                	addiw	t3,t3,-21
    8fae:	646e                	ld	s0,216(sp)
    8fb0:	7665                	lui	a2,0xffff9
    8fb2:	3e20                	fld	fs0,120(a2)
    8fb4:	203d                	0x203d
    8fb6:	2030                	fld	fa2,64(s0)
    8fb8:	2626                	fld	fa2,72(sp)
    8fba:	7320                	ld	s0,96(a4)
    8fbc:	2d6e6163          	bltu	t3,s6,927e <softfloat_countLeadingZeros8+0x52e>
    8fc0:	6e3e                	ld	t3,456(sp)
    8fc2:	6564                	ld	s1,200(a0)
    8fc4:	2076                	fld	ft0,344(sp)
    8fc6:	203c                	fld	fa5,64(s0)
    8fc8:	3031                	0x3031
    8fca:	3432                	fld	fs0,296(sp)
    8fcc:	0000                	unimp
    8fce:	0000                	unimp
    8fd0:	4c50                	lw	a2,28(s0)
    8fd2:	4349                	li	t1,18
    8fd4:	7720                	ld	s0,104(a4)
    8fd6:	7269                	lui	tp,0xffffa
    8fd8:	6465                	lui	s0,0x19
    8fda:	6820                	ld	s0,80(s0)
    8fdc:	7261                	lui	tp,0xffff8
    8fde:	2074                	fld	fa3,192(s0)
    8fe0:	6425                	lui	s0,0x9
    8fe2:	7420                	ld	s0,104(s0)
    8fe4:	7277206f          	j	7bf0a <finisher+0x6ee8a>
    8fe8:	20676e6f          	jal	t3,7f1ee <finisher+0x7216e>
    8fec:	6e69                	lui	t3,0x1a
    8fee:	6574                	ld	a3,200(a0)
    8ff0:	7272                	ld	tp,312(sp)
    8ff2:	7075                	0x7075
    8ff4:	2074                	fld	fa3,192(s0)
    8ff6:	6425                	lui	s0,0x9
	...
    9000:	656d                	lui	a0,0x1b
    9002:	5f6d                	li	t5,-5
    9004:	6f64                	ld	s1,216(a4)
    9006:	656e                	ld	a0,216(sp)
    9008:	7620                	ld	s0,104(a2)
    900a:	6c61                	lui	s8,0x18
    900c:	6575                	lui	a0,0x1d
    900e:	3a20                	fld	fs0,112(a2)
    9010:	2520                	fld	fs0,72(a0)
    9012:	2078                	fld	fa4,192(s0)
    9014:	000a                	0xa
    9016:	0000                	unimp
    9018:	656d                	lui	a0,0x1b
    901a:	5f6d                	li	t5,-5
    901c:	6f64                	ld	s1,216(a4)
    901e:	656e                	ld	a0,216(sp)
    9020:	6520                	ld	s0,72(a0)
    9022:	646e                	ld	s0,216(sp)
    9024:	3a20                	fld	fs0,112(a2)
    9026:	2520                	fld	fs0,72(a0)
    9028:	2078                	fld	fa4,192(s0)
    902a:	000a                	0xa
    902c:	0000                	unimp
    902e:	0000                	unimp
    9030:	6e616373          	csrrsi	t1,0x6e6,2
    9034:	3e2d                	addiw	t3,t3,-21
    9036:	6572                	ld	a0,280(sp)
    9038:	61765f67          	0x61765f67
    903c:	756c                	ld	a1,232(a0)
    903e:	2065                	0x2065
    9040:	2626                	fld	fa2,72(sp)
    9042:	7320                	ld	s0,96(a4)
    9044:	2d6e6163          	bltu	t3,s6,9306 <softfloat_countLeadingZeros8+0x5b6>
    9048:	723e                	ld	tp,488(sp)
    904a:	6765                	lui	a4,0x19
    904c:	6c5f 6e65 2520      	0x25206e656c5f
    9052:	3420                	fld	fs0,104(s0)
    9054:	3d20                	fld	fs0,120(a0)
    9056:	203d                	0x203d
    9058:	0030                	addi	a2,sp,8
    905a:	0000                	unimp
    905c:	0000                	unimp
    905e:	0000                	unimp
    9060:	6e65                	lui	t3,0x19
    9062:	2064                	fld	fs1,192(s0)
    9064:	3d3d                	addiw	s10,s10,-17
    9066:	7620                	ld	s0,104(a2)
    9068:	6c61                	lui	s8,0x18
    906a:	6575                	lui	a0,0x1d
    906c:	0000                	unimp
    906e:	0000                	unimp
    9070:	736f6863          	bltu	t5,s6,97a0 <_etext+0x2e0>
    9074:	6e65                	lui	t3,0x19
    9076:	0000                	unimp
    9078:	6564                	ld	s1,200(a0)
    907a:	6976                	ld	s2,344(sp)
    907c:	745f6563          	bltu	t5,t0,97c6 <_etext+0x306>
    9080:	7079                	0x7079
    9082:	0065                	c.addi	zero,25
    9084:	0000                	unimp
    9086:	0000                	unimp
    9088:	00757063          	bleu	t2,a0,9088 <softfloat_countLeadingZeros8+0x338>
    908c:	0000                	unimp
    908e:	0000                	unimp
    9090:	7321                	lui	t1,0xfffe8
    9092:	2d6e6163          	bltu	t3,s6,9354 <softfloat_countLeadingZeros8+0x604>
    9096:	633e                	ld	t1,456(sp)
    9098:	7570                	ld	a2,232(a0)
    909a:	0000                	unimp
    909c:	0000                	unimp
    909e:	0000                	unimp
    90a0:	6e69                	lui	t3,0x1a
    90a2:	6574                	ld	a3,200(a0)
    90a4:	7272                	ld	tp,312(sp)
    90a6:	7075                	0x7075
    90a8:	2d74                	fld	fa3,216(a0)
    90aa:	746e6f63          	bltu	t3,t1,9808 <_etext+0x348>
    90ae:	6f72                	ld	t5,280(sp)
    90b0:	6c6c                	ld	a1,216(s0)
    90b2:	7265                	lui	tp,0xffff9
    90b4:	0000                	unimp
    90b6:	0000                	unimp
    90b8:	7321                	lui	t1,0xfffe8
    90ba:	2d6e6163          	bltu	t3,s6,937c <softfloat_countLeadingZeros8+0x62c>
    90be:	633e                	ld	t1,456(sp)
    90c0:	72746e6f          	jal	t3,4ffe6 <finisher+0x42f66>
    90c4:	656c6c6f          	jal	s8,cf71a <finisher+0xc269a>
    90c8:	0072                	0x72
    90ca:	0000                	unimp
    90cc:	0000                	unimp
    90ce:	0000                	unimp
    90d0:	746e6923          	0x746e6923
    90d4:	7265                	lui	tp,0xffff9
    90d6:	7572                	ld	a0,312(sp)
    90d8:	7470                	ld	a2,232(s0)
    90da:	632d                	lui	t1,0xb
    90dc:	6c65                	lui	s8,0x19
    90de:	736c                	ld	a1,224(a4)
	...
    90e8:	6870                	ld	a2,208(s0)
    90ea:	6e61                	lui	t3,0x18
    90ec:	6c64                	ld	s1,216(s0)
    90ee:	0065                	c.addi	zero,25
    90f0:	6572                	ld	a0,280(sp)
    90f2:	00000067          	jr	zero
    90f6:	0000                	unimp
    90f8:	6d6d                	lui	s10,0x1b
    90fa:	2d75                	addiw	s10,s10,29
    90fc:	7974                	ld	a3,240(a0)
    90fe:	6570                	ld	a2,200(a0)
	...
    9108:	6c21                	lui	s8,0x8
    910a:	7361                	lui	t1,0xffff8
    910c:	0074                	addi	a3,sp,12
    910e:	0000                	unimp
    9110:	64646123          	0x64646123
    9114:	6572                	ld	a0,280(sp)
    9116:	632d7373          	csrrci	t1,0x632,26
    911a:	6c65                	lui	s8,0x19
    911c:	736c                	ld	a1,224(a4)
    911e:	0000                	unimp
    9120:	7a697323          	0x7a697323
    9124:	2d65                	addiw	s10,s10,25
    9126:	6c6c6563          	bltu	s8,t1,97f0 <_etext+0x330>
    912a:	00000073          	ecall
    912e:	0000                	unimp
    9130:	656d                	lui	a0,0x1b
    9132:	6f6d                	lui	t5,0x1b
    9134:	7972                	ld	s2,312(sp)
    9136:	0000                	unimp
    9138:	656d                	lui	a0,0x1b
    913a:	5f6d                	li	t5,-5
    913c:	6f64                	ld	s1,216(a4)
    913e:	656e                	ld	a0,216(sp)
    9140:	7620                	ld	s0,104(a2)
    9142:	6c61                	lui	s8,0x18
    9144:	6575                	lui	a0,0x1d
    9146:	2031                	0x2031
    9148:	203a                	fld	ft0,392(sp)
    914a:	7825                	lui	a6,0xfffe9
    914c:	0a20                	addi	s0,sp,280
    914e:	0000                	unimp
    9150:	6e616373          	csrrsi	t1,0x6e6,2
    9154:	3e2d                	addiw	t3,t3,-21
    9156:	6168                	ld	a0,192(a0)
    9158:	7472                	ld	s0,312(sp)
    915a:	3e20                	fld	fs0,120(a2)
    915c:	203d                	0x203d
    915e:	0030                	addi	a2,sp,8
    9160:	6e616373          	csrrsi	t1,0x6e6,2
    9164:	3e2d                	addiw	t3,t3,-21
    9166:	6870                	ld	a2,208(s0)
    9168:	6e61                	lui	t3,0x18
    916a:	6c64                	ld	s1,216(s0)
    916c:	2065                	0x2065
    916e:	203e                	fld	ft0,456(sp)
    9170:	0030                	addi	a2,sp,8
    9172:	0000                	unimp
    9174:	0000                	unimp
    9176:	0000                	unimp
    9178:	6e616373          	csrrsi	t1,0x6e6,2
    917c:	3e2d                	addiw	t3,t3,-21
    917e:	6c6c6563          	bltu	s8,t1,9848 <_etext+0x388>
    9182:	3d3d2073          	csrs	0x3d3,s10
    9186:	3120                	fld	fs0,96(a0)
	...
    9190:	6966                	ld	s2,88(sp)
    9192:	746c                	ld	a1,232(s0)
    9194:	7265                	lui	tp,0xffff9
    9196:	3e2d                	addiw	t3,t3,-21
    9198:	74617473          	csrrci	s0,0x746,2
    919c:	7375                	lui	t1,0xffffd
    919e:	0000                	unimp
    91a0:	6966                	ld	s2,88(sp)
    91a2:	746c                	ld	a1,232(s0)
    91a4:	7265                	lui	tp,0xffff9
    91a6:	3e2d                	addiw	t3,t3,-21
    91a8:	6168                	ld	a0,192(a0)
    91aa:	7472                	ld	s0,312(sp)
    91ac:	3e20                	fld	fs0,120(a2)
    91ae:	203d                	0x203d
    91b0:	0030                	addi	a2,sp,8
    91b2:	0000                	unimp
    91b4:	0000                	unimp
    91b6:	0000                	unimp
    91b8:	79616b6f          	jal	s6,1f94e <finisher+0x128ce>
    91bc:	0000                	unimp
    91be:	0000                	unimp
    91c0:	6972                	ld	s2,280(sp)
    91c2:	2c766373          	csrrsi	t1,0x2c7,12
    91c6:	39337673          	csrrci	a2,0x393,6
    91ca:	0000                	unimp
    91cc:	0000                	unimp
    91ce:	0000                	unimp
    91d0:	6972                	ld	s2,280(sp)
    91d2:	2c766373          	csrrsi	t1,0x2c7,12
    91d6:	38347673          	csrrci	a2,0x383,8
    91da:	0000                	unimp
    91dc:	0000                	unimp
    91de:	0000                	unimp
    91e0:	6168                	ld	a0,192(a0)
    91e2:	7472                	ld	s0,312(sp)
    91e4:	665f 6c69 6574      	0x65746c69665f
    91ea:	5f72                	lw	t5,60(sp)
    91ec:	616d                	addi	sp,sp,240
    91ee:	73206b73          	csrrsi	s6,0x732,0
    91f2:	7761                	lui	a4,0xffff8
    91f4:	7520                	ld	s0,104(a0)
    91f6:	6b6e                	ld	s6,216(sp)
    91f8:	6f6e                	ld	t5,216(sp)
    91fa:	68206e77          	0x68206e77
    91fe:	7261                	lui	tp,0xffff8
    9200:	2074                	fld	fa3,192(s0)
    9202:	7974                	ld	a3,240(a0)
    9204:	6570                	ld	a2,200(a0)
    9206:	203a                	fld	ft0,392(sp)
    9208:	74617473          	csrrci	s0,0x746,2
    920c:	7375                	lui	t1,0xffffd
    920e:	223d                	addiw	tp,tp,15
    9210:	7325                	lui	t1,0xfffe9
    9212:	2c22                	fld	fs8,8(sp)
    9214:	6d20                	ld	s0,88(a0)
    9216:	756d                	lui	a0,0xffffb
    9218:	745f 7079 3d65      	0x3d657079745f
    921e:	2522                	fld	fa0,8(sp)
    9220:	000a2273          	csrrs	tp,0x0,s4
    9224:	0000                	unimp
    9226:	0000                	unimp
    9228:	6972                	ld	s2,280(sp)
    922a:	2c766373          	csrrsi	t1,0x2c7,12
    922e:	6e72656b          	0x6e72656b
    9232:	6c65                	lui	s8,0x19
    9234:	732d                	lui	t1,0xfffeb
    9236:	6174                	ld	a3,192(a0)
    9238:	7472                	ld	s0,312(sp)
    923a:	0000                	unimp
    923c:	0000                	unimp
    923e:	0000                	unimp
    9240:	6972                	ld	s2,280(sp)
    9242:	2c766373          	csrrsi	t1,0x2c7,12
    9246:	6e72656b          	0x6e72656b
    924a:	6c65                	lui	s8,0x19
    924c:	652d                	lui	a0,0xb
    924e:	646e                	ld	s0,216(sp)
	...
    9258:	706d6f63          	bltu	s10,t1,9976 <_etext+0x4b6>
    925c:	7461                	lui	s0,0xffff8
    925e:	6269                	lui	tp,0x1a
    9260:	656c                	ld	a1,200(a0)
    9262:	0000                	unimp
    9264:	0000                	unimp
    9266:	0000                	unimp
    9268:	6e69                	lui	t3,0x1a
    926a:	6574                	ld	a3,200(a0)
    926c:	7272                	ld	tp,312(sp)
    926e:	7075                	0x7075
    9270:	7374                	ld	a3,224(a4)
    9272:	652d                	lui	a0,0xb
    9274:	7478                	ld	a4,232(s0)
    9276:	6e65                	lui	t3,0x19
    9278:	6564                	ld	s1,200(a0)
    927a:	0064                	addi	s1,sp,12
    927c:	0000                	unimp
    927e:	0000                	unimp
    9280:	6972                	ld	s2,280(sp)
    9282:	2c766373          	csrrsi	t1,0x2c7,12
    9286:	6c70                	ld	a2,216(s0)
    9288:	6369                	lui	t1,0x1a
    928a:	0030                	addi	a2,sp,8
    928c:	0000                	unimp
    928e:	0000                	unimp
    9290:	6972                	ld	s2,280(sp)
    9292:	2c766373          	csrrsi	t1,0x2c7,12
    9296:	646e                	ld	s0,216(sp)
    9298:	7665                	lui	a2,0xffff9
    929a:	0000                	unimp
    929c:	0000                	unimp
    929e:	0000                	unimp
    92a0:	656d                	lui	a0,0x1b
    92a2:	5f6d                	li	t5,-5
    92a4:	657a6973          	csrrsi	s2,0x657,20
    92a8:	203d                	0x203d
    92aa:	7825                	lui	a6,0xfffe9
    92ac:	000a                	0xa
    92ae:	0000                	unimp
    92b0:	656d                	lui	a0,0x1b
    92b2:	5f6d                	li	t5,-5
    92b4:	657a6973          	csrrsi	s2,0x657,20
    92b8:	3e20                	fld	fs0,120(a2)
    92ba:	3020                	fld	fs0,96(s0)
    92bc:	0000                	unimp
    92be:	0000                	unimp
    92c0:	6828                	ld	a0,80(s0)
    92c2:	7261                	lui	tp,0xffff8
    92c4:	5f74                	lw	a3,124(a4)
    92c6:	616d                	addi	sp,sp,240
    92c8:	3e206b73          	csrrsi	s6,0x3e2,0
    92cc:	203e                	fld	ft0,456(sp)
    92ce:	6572                	ld	a0,280(sp)
    92d0:	6461                	lui	s0,0x18
    92d2:	635f 7273 6d28      	0x6d287273635f
    92d8:	6168                	ld	a0,192(a0)
    92da:	7472                	ld	s0,312(sp)
    92dc:	6469                	lui	s0,0x1a
    92de:	2929                	addiw	s2,s2,10
    92e0:	2120                	fld	fs0,64(a0)
    92e2:	203d                	0x203d
    92e4:	0030                	addi	a2,sp,8
    92e6:	0000                	unimp
    92e8:	6e616373          	csrrsi	t1,0x6e6,2
    92ec:	642e                	ld	s0,200(sp)
    92ee:	00656e6f          	jal	t3,5f2f4 <finisher+0x52274>
    92f2:	0000                	unimp
    92f4:	0000                	unimp
    92f6:	0000                	unimp
    92f8:	2020                	fld	fs0,64(s0)
    92fa:	0000                	unimp
    92fc:	0000                	unimp
    92fe:	0000                	unimp
    9300:	7325                	lui	t1,0xfffe9
    9302:	0000                	unimp
    9304:	0000                	unimp
    9306:	0000                	unimp
    9308:	000a0d3b          	addw	s10,s4,zero
    930c:	0000                	unimp
    930e:	0000                	unimp
    9310:	3d20                	fld	fs0,120(a0)
    9312:	0020                	addi	s0,sp,8
    9314:	0000                	unimp
    9316:	0000                	unimp
    9318:	202c                	fld	fa1,64(s0)
    931a:	0000                	unimp
    931c:	0000                	unimp
    931e:	0000                	unimp
    9320:	2522                	fld	fa0,8(sp)
    9322:	00002273          	csrr	tp,0x0
    9326:	0000                	unimp
    9328:	003c                	addi	a5,sp,8
    932a:	0000                	unimp
    932c:	0000                	unimp
    932e:	0000                	unimp
    9330:	003e                	0x3e
    9332:	0000                	unimp
    9334:	0000                	unimp
    9336:	0000                	unimp
    9338:	0020                	addi	s0,sp,8
    933a:	0000                	unimp
    933c:	0000                	unimp
    933e:	0000                	unimp
    9340:	7830                	ld	a2,112(s0)
    9342:	3025                	0x3025
    9344:	7838                	ld	a4,112(s0)
    9346:	0000                	unimp
    9348:	0d7d                	addi	s10,s10,31
    934a:	000a                	0xa
    934c:	0000                	unimp
    934e:	0000                	unimp
    9350:	7325                	lui	t1,0xfffe9
    9352:	7b20                	ld	s0,112(a4)
    9354:	0a0d                	addi	s4,s4,3
    9356:	0000                	unimp
    9358:	2e2e                	fld	ft8,200(sp)
    935a:	63616d2f          	0x63616d2f
    935e:	6968                	ld	a0,208(a0)
    9360:	656e                	ld	a0,216(sp)
    9362:	72746d2f          	0x72746d2f
    9366:	7061                	0x7061
    9368:	632e                	ld	t1,200(sp)
    936a:	0000                	unimp
    936c:	0000                	unimp
    936e:	0000                	unimp
    9370:	7325                	lui	t1,0xfffe9
    9372:	253a                	fld	fa0,392(sp)
    9374:	3a64                	fld	fs1,240(a2)
    9376:	6d20                	ld	s0,88(a0)
    9378:	6361                	lui	t1,0x18
    937a:	6968                	ld	a0,208(a0)
    937c:	656e                	ld	a0,216(sp)
    937e:	6d20                	ld	s0,88(a0)
    9380:	3a65646f          	jal	s0,5f726 <finisher+0x526a6>
    9384:	7520                	ld	s0,104(a0)
    9386:	686e                	ld	a6,216(sp)
    9388:	6e61                	lui	t3,0x18
    938a:	6c64                	ld	s1,216(s0)
    938c:	6261                	lui	tp,0x18
    938e:	656c                	ld	a1,200(a0)
    9390:	7420                	ld	s0,104(s0)
    9392:	6172                	ld	sp,280(sp)
    9394:	2070                	fld	fa2,192(s0)
    9396:	6425                	lui	s0,0x9
    9398:	4020                	lw	s0,64(s0)
    939a:	2520                	fld	fs0,72(a0)
    939c:	0a70                	addi	a2,sp,284
    939e:	0000                	unimp
    93a0:	6f50                	ld	a2,152(a4)
    93a2:	20726577          	0x20726577
    93a6:	0d66666f          	jal	a2,6f47c <finisher+0x623fc>
    93aa:	000a                	0xa
    93ac:	0000                	unimp
    93ae:	0000                	unimp
    93b0:	6572                	ld	a0,280(sp)
    93b2:	6461                	lui	s0,0x18
    93b4:	635f 7273 6d28      	0x6d287273635f
    93ba:	74617473          	csrrci	s0,0x746,2
    93be:	7375                	lui	t1,0xffffd
    93c0:	2029                	0x2029
    93c2:	2026                	fld	ft0,72(sp)
    93c4:	534d                	li	t1,-13
    93c6:	4154                	lw	a3,4(a0)
    93c8:	5554                	lw	a3,44(a0)
    93ca:	53465f53          	0x53465f53
    93ce:	0000                	unimp
    93d0:	2e2e                	fld	ft8,200(sp)
    93d2:	63616d2f          	0x63616d2f
    93d6:	6968                	ld	a0,208(a0)
    93d8:	656e                	ld	a0,216(sp)
    93da:	6e696d2f          	0x6e696d2f
    93de:	7469                	lui	s0,0xffffa
    93e0:	632e                	ld	t1,200(sp)
    93e2:	0000                	unimp
    93e4:	0000                	unimp
    93e6:	0000                	unimp
    93e8:	2821                	addiw	a6,a6,8
    93ea:	6572                	ld	a0,280(sp)
    93ec:	6461                	lui	s0,0x18
    93ee:	635f 7273 6d28      	0x6d287273635f
    93f4:	7369                	lui	t1,0xffffa
    93f6:	2961                	addiw	s2,s2,24
    93f8:	2620                	fld	fs0,72(a2)
    93fa:	6620                	ld	s0,72(a2)
    93fc:	5f64                	lw	s1,124(a4)
    93fe:	616d                	addi	sp,sp,240
    9400:	00296b73          	csrrsi	s6,frm,18
    9404:	0000                	unimp
    9406:	0000                	unimp
    9408:	5444                	lw	s1,44(s0)
    940a:	2042                	fld	ft0,16(sp)
    940c:	6f70                	ld	a2,216(a4)
    940e:	6e69                	lui	t3,0x1a
    9410:	6574                	ld	a3,200(a0)
    9412:	2072                	fld	ft0,280(sp)
    9414:	6176                	ld	sp,344(sp)
    9416:	756c                	ld	a1,232(a0)
    9418:	2065                	0x2065
    941a:	203a                	fld	ft0,392(sp)
    941c:	7825                	lui	a6,0xfffe9
    941e:	0000                	unimp
    9420:	6262                	ld	tp,24(sp)
    9422:	206c                	fld	fa1,192(s0)
    9424:	6f6c                	ld	a1,216(a4)
    9426:	6461                	lui	s0,0x18
    9428:	7265                	lui	tp,0xffff9
    942a:	0a0d                	addi	s4,s4,3
    942c:	0000                	unimp
    942e:	0000                	unimp
    9430:	654d                	lui	a0,0x13
    9432:	6f6d                	lui	t5,0x1b
    9434:	7972                	ld	s2,312(sp)
    9436:	6420                	ld	s0,72(s0)
    9438:	0a656e6f          	jal	t3,5f4de <finisher+0x5245e>
    943c:	0000                	unimp
    943e:	0000                	unimp
    9440:	5246                	lw	tp,112(sp)
    9442:	4f484d4f          	0x4f484d4f
    9446:	445f5453          	0x445f5453
    944a:	5645                	li	a2,-15
    944c:	6628                	ld	a0,72(a2)
    944e:	2968                	fld	fa0,208(a0)
    9450:	3d20                	fld	fs0,120(a0)
    9452:	203d                	0x203d
    9454:	0031                	c.addi	zero,12
    9456:	0000                	unimp
    9458:	2e2e                	fld	ft8,200(sp)
    945a:	63616d2f          	0x63616d2f
    945e:	6968                	ld	a0,208(a0)
    9460:	656e                	ld	a0,216(sp)
    9462:	6974682f          	0x6974682f
    9466:	2e66                	fld	ft8,88(sp)
    9468:	00000063          	beqz	zero,9468 <softfloat_countLeadingZeros8+0x718>
    946c:	0000                	unimp
    946e:	0000                	unimp
    9470:	6375                	lui	t1,0x1d
    9472:	2c62                	fld	fs8,24(sp)
    9474:	7468                	ld	a0,232(s0)
    9476:	6669                	lui	a2,0x1a
    9478:	0030                	addi	a2,sp,8
    947a:	0000                	unimp
    947c:	0000                	unimp
    947e:	0000                	unimp
    9480:	69666973          	csrrsi	s2,0x696,12
    9484:	6576                	ld	a0,344(sp)
    9486:	752c                	ld	a1,104(a0)
    9488:	7261                	lui	tp,0xffff8
    948a:	3074                	fld	fa3,224(s0)
    948c:	0000                	unimp
    948e:	0000                	unimp
    9490:	736e                	ld	t1,248(sp)
    9492:	3631                	addiw	a2,a2,-20
    9494:	3535                	addiw	a0,a0,-19
    9496:	6130                	ld	a2,64(a0)
	...
    94a0:	69666973          	csrrsi	s2,0x696,12
    94a4:	6576                	ld	a0,344(sp)
    94a6:	742c                	ld	a1,104(s0)
    94a8:	7365                	lui	t1,0xffff9
    94aa:	3074                	fld	fa3,224(s0)
    94ac:	0000                	unimp
    94ae:	0000                	unimp
    94b0:	6d65                	lui	s10,0x19
    94b2:	6c75                	lui	s8,0x1d
    94b4:	7461                	lui	s0,0xffff8
    94b6:	6e69                	lui	t3,0x1a
    94b8:	000a2067          	0xa2067
    94bc:	0000                	unimp
	...

Disassembly of section .htif:

000000000000a000 <fromhost>:
	...

000000000000a008 <tohost>:
	...

Disassembly of section .data:

000000000000b000 <_fdata>:
    b000:	2ab0                	fld	fa2,80(a3)
    b002:	0000                	unimp
    b004:	2e34                	fld	fa3,88(a2)
    b006:	0000                	unimp
    b008:	3ac0                	fld	fs0,176(a3)
    b00a:	0000                	unimp
    b00c:	2ab0                	fld	fa2,80(a3)
    b00e:	0000                	unimp
    b010:	4f48                	lw	a0,28(a4)
    b012:	0000                	unimp
    b014:	2e34                	fld	fa3,88(a2)
    b016:	0000                	unimp
    b018:	513c                	lw	a5,96(a0)
    b01a:	0000                	unimp
    b01c:	2e34                	fld	fa3,88(a2)
    b01e:	0000                	unimp
    b020:	2ab0                	fld	fa2,80(a3)
    b022:	0000                	unimp
    b024:	2ae8                	fld	fa0,208(a3)
    b026:	0000                	unimp
    b028:	2ab0                	fld	fa2,80(a3)
    b02a:	0000                	unimp
    b02c:	2ae8                	fld	fa0,208(a3)
    b02e:	0000                	unimp
    b030:	2ab0                	fld	fa2,80(a3)
    b032:	0000                	unimp
    b034:	01f8                	addi	a4,sp,204
    b036:	0000                	unimp
    b038:	2ab0                	fld	fa2,80(a3)
    b03a:	0000                	unimp
    b03c:	2ab0                	fld	fa2,80(a3)
    b03e:	0000                	unimp
    b040:	707f                	0x707f
    b042:	fff0                	sd	a2,248(a5)
    b044:	0000                	unimp
    b046:	0000                	unimp
    b048:	3a434347          	fmsub.d	ft6,ft6,ft4,ft7,rmm
    b04c:	2820                	fld	fs0,80(s0)
    b04e:	29554e47          	fmsub.s	ft8,fa0,fs5,ft5,rmm
    b052:	3720                	fld	fs0,104(a4)
    b054:	312e                	fld	ft2,232(sp)
    b056:	312e                	fld	ft2,232(sp)
    b058:	3220                	fld	fs0,96(a2)
    b05a:	3130                	fld	fa2,96(a0)
    b05c:	30353037          	lui	zero,0x30353
    b060:	0039                	c.addi	zero,14

Disassembly of section .bss:

000000000000c000 <stacks>:
	...

000000000000d000 <entry_point>:
	...

000000000000d008 <hart_phandles>:
	...

000000000000d010 <htif_lock>:
	...

000000000000d018 <disabled_hart_mask>:
	...

000000000000d020 <hart_mask>:
	...

000000000000d028 <plic_ndevs>:
	...

000000000000d030 <plic_priorities>:
	...

000000000000d038 <mem_size>:
	...

000000000000d040 <kernel_end>:
	...

000000000000d048 <mtime>:
	...

000000000000d050 <root_page_table>:
	...

000000000000d058 <kernel_start>:
	...

000000000000d060 <htif>:
	...

000000000000d068 <htif_console_buf>:
	...

000000000000d070 <uart>:
	...

000000000000d078 <uart16550>:
	...

000000000000d080 <finisher>:
	...

Disassembly of section .payload:

0000000000200000 <_payload_start>:
  200000:	fe010113          	addi	sp,sp,-32
  200004:	00113c23          	sd	ra,24(sp)
  200008:	00813823          	sd	s0,16(sp)
  20000c:	02010413          	addi	s0,sp,32
  200010:	00000797          	auipc	a5,0x0
  200014:	68478793          	addi	a5,a5,1668 # 200694 <_payload_start+0x694>
  200018:	0007a787          	flw	fa5,0(a5)
  20001c:	fef42627          	fsw	fa5,-20(s0) # ffffffffffff7fec <_end+0xffffffffffdf794c>
  200020:	00000797          	auipc	a5,0x0
  200024:	67878793          	addi	a5,a5,1656 # 200698 <_payload_start+0x698>
  200028:	0007a787          	flw	fa5,0(a5)
  20002c:	fef42427          	fsw	fa5,-24(s0)
  200030:	fec42707          	flw	fa4,-20(s0)
  200034:	fe842787          	flw	fa5,-24(s0)
  200038:	10f77753          	fmul.s	fa4,fa4,fa5
  20003c:	00000797          	auipc	a5,0x0
  200040:	66078793          	addi	a5,a5,1632 # 20069c <_payload_start+0x69c>
  200044:	0007a787          	flw	fa5,0(a5)
  200048:	10f777d3          	fmul.s	fa5,fa4,fa5
  20004c:	c00797d3          	fcvt.w.s	a5,fa5,rtz
  200050:	fef42223          	sw	a5,-28(s0)
  200054:	fe442783          	lw	a5,-28(s0)
  200058:	00078593          	mv	a1,a5
  20005c:	00000517          	auipc	a0,0x0
  200060:	60450513          	addi	a0,a0,1540 # 200660 <_payload_start+0x660>
  200064:	248000ef          	jal	ra,2002ac <_payload_start+0x2ac>
  200068:	0000006f          	j	200068 <_payload_start+0x68>
  20006c:	fd010113          	addi	sp,sp,-48
  200070:	02813423          	sd	s0,40(sp)
  200074:	03010413          	addi	s0,sp,48
  200078:	00050793          	mv	a5,a0
  20007c:	fcf42e23          	sw	a5,-36(s0)
  200080:	380007b7          	lui	a5,0x38000
  200084:	40b78793          	addi	a5,a5,1035 # 3800040b <_end+0x37dffd6b>
  200088:	00279793          	slli	a5,a5,0x2
  20008c:	fef43423          	sd	a5,-24(s0)
  200090:	00000013          	nop
  200094:	fe843783          	ld	a5,-24(s0)
  200098:	0007a783          	lw	a5,0(a5)
  20009c:	0007879b          	sext.w	a5,a5
  2000a0:	0107f793          	andi	a5,a5,16
  2000a4:	0007879b          	sext.w	a5,a5
  2000a8:	00078713          	mv	a4,a5
  2000ac:	01000793          	li	a5,16
  2000b0:	fef702e3          	beq	a4,a5,200094 <_payload_start+0x94>
  2000b4:	0e0007b7          	lui	a5,0xe000
  2000b8:	10378793          	addi	a5,a5,259 # e000103 <_end+0xddffa63>
  2000bc:	00479793          	slli	a5,a5,0x4
  2000c0:	fdc42703          	lw	a4,-36(s0)
  2000c4:	00e7a023          	sw	a4,0(a5)
  2000c8:	00000013          	nop
  2000cc:	02813403          	ld	s0,40(sp)
  2000d0:	03010113          	addi	sp,sp,48
  2000d4:	00008067          	ret
  2000d8:	fe010113          	addi	sp,sp,-32
  2000dc:	00113c23          	sd	ra,24(sp)
  2000e0:	00813823          	sd	s0,16(sp)
  2000e4:	02010413          	addi	s0,sp,32
  2000e8:	fea43423          	sd	a0,-24(s0)
  2000ec:	0200006f          	j	20010c <_payload_start+0x10c>
  2000f0:	fe843783          	ld	a5,-24(s0)
  2000f4:	00178713          	addi	a4,a5,1
  2000f8:	fee43423          	sd	a4,-24(s0)
  2000fc:	0007c783          	lbu	a5,0(a5)
  200100:	0007879b          	sext.w	a5,a5
  200104:	00078513          	mv	a0,a5
  200108:	f65ff0ef          	jal	ra,20006c <_payload_start+0x6c>
  20010c:	fe843783          	ld	a5,-24(s0)
  200110:	0007c783          	lbu	a5,0(a5)
  200114:	fc079ee3          	bnez	a5,2000f0 <_payload_start+0xf0>
  200118:	00000013          	nop
  20011c:	01813083          	ld	ra,24(sp)
  200120:	01013403          	ld	s0,16(sp)
  200124:	02010113          	addi	sp,sp,32
  200128:	00008067          	ret
  20012c:	fb010113          	addi	sp,sp,-80
  200130:	04113423          	sd	ra,72(sp)
  200134:	04813023          	sd	s0,64(sp)
  200138:	05010413          	addi	s0,sp,80
  20013c:	00050793          	mv	a5,a0
  200140:	faf42e23          	sw	a5,-68(s0)
  200144:	fc840793          	addi	a5,s0,-56
  200148:	fef43423          	sd	a5,-24(s0)
  20014c:	fbc42783          	lw	a5,-68(s0)
  200150:	0007879b          	sext.w	a5,a5
  200154:	0407dc63          	bgez	a5,2001ac <_payload_start+0x1ac>
  200158:	02d00513          	li	a0,45
  20015c:	f11ff0ef          	jal	ra,20006c <_payload_start+0x6c>
  200160:	fbc42783          	lw	a5,-68(s0)
  200164:	40f007bb          	negw	a5,a5
  200168:	faf42e23          	sw	a5,-68(s0)
  20016c:	0400006f          	j	2001ac <_payload_start+0x1ac>
  200170:	fbc42703          	lw	a4,-68(s0)
  200174:	00a00793          	li	a5,10
  200178:	02f767bb          	remw	a5,a4,a5
  20017c:	0007879b          	sext.w	a5,a5
  200180:	0ff7f713          	andi	a4,a5,255
  200184:	fe843783          	ld	a5,-24(s0)
  200188:	00178693          	addi	a3,a5,1
  20018c:	fed43423          	sd	a3,-24(s0)
  200190:	0307071b          	addiw	a4,a4,48
  200194:	0ff77713          	andi	a4,a4,255
  200198:	00e78023          	sb	a4,0(a5)
  20019c:	fbc42703          	lw	a4,-68(s0)
  2001a0:	00a00793          	li	a5,10
  2001a4:	02f747bb          	divw	a5,a4,a5
  2001a8:	faf42e23          	sw	a5,-68(s0)
  2001ac:	fbc42783          	lw	a5,-68(s0)
  2001b0:	0007879b          	sext.w	a5,a5
  2001b4:	fa079ee3          	bnez	a5,200170 <_payload_start+0x170>
  2001b8:	fc840793          	addi	a5,s0,-56
  2001bc:	fe843703          	ld	a4,-24(s0)
  2001c0:	faf708e3          	beq	a4,a5,200170 <_payload_start+0x170>
  2001c4:	0240006f          	j	2001e8 <_payload_start+0x1e8>
  2001c8:	fe843783          	ld	a5,-24(s0)
  2001cc:	fff78793          	addi	a5,a5,-1
  2001d0:	fef43423          	sd	a5,-24(s0)
  2001d4:	fe843783          	ld	a5,-24(s0)
  2001d8:	0007c783          	lbu	a5,0(a5)
  2001dc:	0007879b          	sext.w	a5,a5
  2001e0:	00078513          	mv	a0,a5
  2001e4:	e89ff0ef          	jal	ra,20006c <_payload_start+0x6c>
  2001e8:	fc840793          	addi	a5,s0,-56
  2001ec:	fe843703          	ld	a4,-24(s0)
  2001f0:	fcf71ce3          	bne	a4,a5,2001c8 <_payload_start+0x1c8>
  2001f4:	00000013          	nop
  2001f8:	04813083          	ld	ra,72(sp)
  2001fc:	04013403          	ld	s0,64(sp)
  200200:	05010113          	addi	sp,sp,80
  200204:	00008067          	ret
  200208:	fd010113          	addi	sp,sp,-48
  20020c:	02113423          	sd	ra,40(sp)
  200210:	02813023          	sd	s0,32(sp)
  200214:	03010413          	addi	s0,sp,48
  200218:	00050793          	mv	a5,a0
  20021c:	00058713          	mv	a4,a1
  200220:	fcf42e23          	sw	a5,-36(s0)
  200224:	00070793          	mv	a5,a4
  200228:	fcf42c23          	sw	a5,-40(s0)
  20022c:	fd842783          	lw	a5,-40(s0)
  200230:	fff7879b          	addiw	a5,a5,-1
  200234:	0007879b          	sext.w	a5,a5
  200238:	0027979b          	slliw	a5,a5,0x2
  20023c:	fef42623          	sw	a5,-20(s0)
  200240:	04c0006f          	j	20028c <_payload_start+0x28c>
  200244:	fdc42703          	lw	a4,-36(s0)
  200248:	fec42783          	lw	a5,-20(s0)
  20024c:	00f757bb          	srlw	a5,a4,a5
  200250:	0007879b          	sext.w	a5,a5
  200254:	00f7f793          	andi	a5,a5,15
  200258:	0007879b          	sext.w	a5,a5
  20025c:	00000717          	auipc	a4,0x0
  200260:	41c70713          	addi	a4,a4,1052 # 200678 <_payload_start+0x678>
  200264:	02079793          	slli	a5,a5,0x20
  200268:	0207d793          	srli	a5,a5,0x20
  20026c:	00f707b3          	add	a5,a4,a5
  200270:	0007c783          	lbu	a5,0(a5)
  200274:	0007879b          	sext.w	a5,a5
  200278:	00078513          	mv	a0,a5
  20027c:	df1ff0ef          	jal	ra,20006c <_payload_start+0x6c>
  200280:	fec42783          	lw	a5,-20(s0)
  200284:	ffc7879b          	addiw	a5,a5,-4
  200288:	fef42623          	sw	a5,-20(s0)
  20028c:	fec42783          	lw	a5,-20(s0)
  200290:	0007879b          	sext.w	a5,a5
  200294:	fa07d8e3          	bgez	a5,200244 <_payload_start+0x244>
  200298:	00000013          	nop
  20029c:	02813083          	ld	ra,40(sp)
  2002a0:	02013403          	ld	s0,32(sp)
  2002a4:	03010113          	addi	sp,sp,48
  2002a8:	00008067          	ret
  2002ac:	f9010113          	addi	sp,sp,-112
  2002b0:	02113423          	sd	ra,40(sp)
  2002b4:	02813023          	sd	s0,32(sp)
  2002b8:	03010413          	addi	s0,sp,48
  2002bc:	fca43c23          	sd	a0,-40(s0)
  2002c0:	00b43423          	sd	a1,8(s0)
  2002c4:	00c43823          	sd	a2,16(s0)
  2002c8:	00d43c23          	sd	a3,24(s0)
  2002cc:	02e43023          	sd	a4,32(s0)
  2002d0:	02f43423          	sd	a5,40(s0)
  2002d4:	03043823          	sd	a6,48(s0)
  2002d8:	03143c23          	sd	a7,56(s0)
  2002dc:	04040793          	addi	a5,s0,64
  2002e0:	fc878793          	addi	a5,a5,-56
  2002e4:	fef43023          	sd	a5,-32(s0)
  2002e8:	fe042623          	sw	zero,-20(s0)
  2002ec:	2440006f          	j	200530 <_payload_start+0x530>
  2002f0:	fec42783          	lw	a5,-20(s0)
  2002f4:	fd843703          	ld	a4,-40(s0)
  2002f8:	00f707b3          	add	a5,a4,a5
  2002fc:	0007c783          	lbu	a5,0(a5)
  200300:	00078713          	mv	a4,a5
  200304:	02500793          	li	a5,37
  200308:	20f71063          	bne	a4,a5,200508 <_payload_start+0x508>
  20030c:	1d80006f          	j	2004e4 <_payload_start+0x4e4>
  200310:	fec42783          	lw	a5,-20(s0)
  200314:	fd843703          	ld	a4,-40(s0)
  200318:	00f707b3          	add	a5,a4,a5
  20031c:	0007c783          	lbu	a5,0(a5)
  200320:	00078713          	mv	a4,a5
  200324:	06300793          	li	a5,99
  200328:	02f71063          	bne	a4,a5,200348 <_payload_start+0x348>
  20032c:	fe043783          	ld	a5,-32(s0)
  200330:	00878713          	addi	a4,a5,8
  200334:	fee43023          	sd	a4,-32(s0)
  200338:	0007a783          	lw	a5,0(a5)
  20033c:	00078513          	mv	a0,a5
  200340:	d2dff0ef          	jal	ra,20006c <_payload_start+0x6c>
  200344:	1e00006f          	j	200524 <_payload_start+0x524>
  200348:	fec42783          	lw	a5,-20(s0)
  20034c:	fd843703          	ld	a4,-40(s0)
  200350:	00f707b3          	add	a5,a4,a5
  200354:	0007c783          	lbu	a5,0(a5)
  200358:	00078713          	mv	a4,a5
  20035c:	07300793          	li	a5,115
  200360:	02f71063          	bne	a4,a5,200380 <_payload_start+0x380>
  200364:	fe043783          	ld	a5,-32(s0)
  200368:	00878713          	addi	a4,a5,8
  20036c:	fee43023          	sd	a4,-32(s0)
  200370:	0007b783          	ld	a5,0(a5)
  200374:	00078513          	mv	a0,a5
  200378:	d61ff0ef          	jal	ra,2000d8 <_payload_start+0xd8>
  20037c:	1a80006f          	j	200524 <_payload_start+0x524>
  200380:	fec42783          	lw	a5,-20(s0)
  200384:	fd843703          	ld	a4,-40(s0)
  200388:	00f707b3          	add	a5,a4,a5
  20038c:	0007c783          	lbu	a5,0(a5)
  200390:	00078713          	mv	a4,a5
  200394:	06400793          	li	a5,100
  200398:	02f71063          	bne	a4,a5,2003b8 <_payload_start+0x3b8>
  20039c:	fe043783          	ld	a5,-32(s0)
  2003a0:	00878713          	addi	a4,a5,8
  2003a4:	fee43023          	sd	a4,-32(s0)
  2003a8:	0007a783          	lw	a5,0(a5)
  2003ac:	00078513          	mv	a0,a5
  2003b0:	d7dff0ef          	jal	ra,20012c <_payload_start+0x12c>
  2003b4:	1700006f          	j	200524 <_payload_start+0x524>
  2003b8:	fec42783          	lw	a5,-20(s0)
  2003bc:	fd843703          	ld	a4,-40(s0)
  2003c0:	00f707b3          	add	a5,a4,a5
  2003c4:	0007c783          	lbu	a5,0(a5)
  2003c8:	00078713          	mv	a4,a5
  2003cc:	07500793          	li	a5,117
  2003d0:	02f71263          	bne	a4,a5,2003f4 <_payload_start+0x3f4>
  2003d4:	fe043783          	ld	a5,-32(s0)
  2003d8:	00878713          	addi	a4,a5,8
  2003dc:	fee43023          	sd	a4,-32(s0)
  2003e0:	0007a783          	lw	a5,0(a5)
  2003e4:	0007879b          	sext.w	a5,a5
  2003e8:	00078513          	mv	a0,a5
  2003ec:	d41ff0ef          	jal	ra,20012c <_payload_start+0x12c>
  2003f0:	1340006f          	j	200524 <_payload_start+0x524>
  2003f4:	fec42783          	lw	a5,-20(s0)
  2003f8:	fd843703          	ld	a4,-40(s0)
  2003fc:	00f707b3          	add	a5,a4,a5
  200400:	0007c783          	lbu	a5,0(a5)
  200404:	00078713          	mv	a4,a5
  200408:	06c00793          	li	a5,108
  20040c:	06f71863          	bne	a4,a5,20047c <_payload_start+0x47c>
  200410:	fec42783          	lw	a5,-20(s0)
  200414:	00178793          	addi	a5,a5,1
  200418:	fd843703          	ld	a4,-40(s0)
  20041c:	00f707b3          	add	a5,a4,a5
  200420:	0007c783          	lbu	a5,0(a5)
  200424:	00078713          	mv	a4,a5
  200428:	07500793          	li	a5,117
  20042c:	02f71863          	bne	a4,a5,20045c <_payload_start+0x45c>
  200430:	fec42783          	lw	a5,-20(s0)
  200434:	0017879b          	addiw	a5,a5,1
  200438:	fef42623          	sw	a5,-20(s0)
  20043c:	fe043783          	ld	a5,-32(s0)
  200440:	00878713          	addi	a4,a5,8
  200444:	fee43023          	sd	a4,-32(s0)
  200448:	0007b783          	ld	a5,0(a5)
  20044c:	0007879b          	sext.w	a5,a5
  200450:	00078513          	mv	a0,a5
  200454:	cd9ff0ef          	jal	ra,20012c <_payload_start+0x12c>
  200458:	0cc0006f          	j	200524 <_payload_start+0x524>
  20045c:	fe043783          	ld	a5,-32(s0)
  200460:	00878713          	addi	a4,a5,8
  200464:	fee43023          	sd	a4,-32(s0)
  200468:	0007b783          	ld	a5,0(a5)
  20046c:	0007879b          	sext.w	a5,a5
  200470:	00078513          	mv	a0,a5
  200474:	cb9ff0ef          	jal	ra,20012c <_payload_start+0x12c>
  200478:	0ac0006f          	j	200524 <_payload_start+0x524>
  20047c:	fec42783          	lw	a5,-20(s0)
  200480:	fd843703          	ld	a4,-40(s0)
  200484:	00f707b3          	add	a5,a4,a5
  200488:	0007c783          	lbu	a5,0(a5)
  20048c:	00078713          	mv	a4,a5
  200490:	03000793          	li	a5,48
  200494:	04f71863          	bne	a4,a5,2004e4 <_payload_start+0x4e4>
  200498:	fe043783          	ld	a5,-32(s0)
  20049c:	00878713          	addi	a4,a5,8
  2004a0:	fee43023          	sd	a4,-32(s0)
  2004a4:	0007a683          	lw	a3,0(a5)
  2004a8:	fec42783          	lw	a5,-20(s0)
  2004ac:	00178793          	addi	a5,a5,1
  2004b0:	fd843703          	ld	a4,-40(s0)
  2004b4:	00f707b3          	add	a5,a4,a5
  2004b8:	0007c783          	lbu	a5,0(a5)
  2004bc:	0007879b          	sext.w	a5,a5
  2004c0:	fd07879b          	addiw	a5,a5,-48
  2004c4:	0007879b          	sext.w	a5,a5
  2004c8:	00078593          	mv	a1,a5
  2004cc:	00068513          	mv	a0,a3
  2004d0:	d39ff0ef          	jal	ra,200208 <_payload_start+0x208>
  2004d4:	fec42783          	lw	a5,-20(s0)
  2004d8:	0027879b          	addiw	a5,a5,2
  2004dc:	fef42623          	sw	a5,-20(s0)
  2004e0:	0440006f          	j	200524 <_payload_start+0x524>
  2004e4:	fec42783          	lw	a5,-20(s0)
  2004e8:	0017879b          	addiw	a5,a5,1
  2004ec:	fef42623          	sw	a5,-20(s0)
  2004f0:	fec42783          	lw	a5,-20(s0)
  2004f4:	fd843703          	ld	a4,-40(s0)
  2004f8:	00f707b3          	add	a5,a4,a5
  2004fc:	0007c783          	lbu	a5,0(a5)
  200500:	e00798e3          	bnez	a5,200310 <_payload_start+0x310>
  200504:	0200006f          	j	200524 <_payload_start+0x524>
  200508:	fec42783          	lw	a5,-20(s0)
  20050c:	fd843703          	ld	a4,-40(s0)
  200510:	00f707b3          	add	a5,a4,a5
  200514:	0007c783          	lbu	a5,0(a5)
  200518:	0007879b          	sext.w	a5,a5
  20051c:	00078513          	mv	a0,a5
  200520:	b4dff0ef          	jal	ra,20006c <_payload_start+0x6c>
  200524:	fec42783          	lw	a5,-20(s0)
  200528:	0017879b          	addiw	a5,a5,1
  20052c:	fef42623          	sw	a5,-20(s0)
  200530:	fec42783          	lw	a5,-20(s0)
  200534:	fd843703          	ld	a4,-40(s0)
  200538:	00f707b3          	add	a5,a4,a5
  20053c:	0007c783          	lbu	a5,0(a5)
  200540:	da0798e3          	bnez	a5,2002f0 <_payload_start+0x2f0>
  200544:	00000013          	nop
  200548:	02813083          	ld	ra,40(sp)
  20054c:	02013403          	ld	s0,32(sp)
  200550:	07010113          	addi	sp,sp,112
  200554:	00008067          	ret
  200558:	fe010113          	addi	sp,sp,-32
  20055c:	00113c23          	sd	ra,24(sp)
  200560:	00813823          	sd	s0,16(sp)
  200564:	02010413          	addi	s0,sp,32
  200568:	380007b7          	lui	a5,0x38000
  20056c:	40b78793          	addi	a5,a5,1035 # 3800040b <_end+0x37dffd6b>
  200570:	00279793          	slli	a5,a5,0x2
  200574:	fef43423          	sd	a5,-24(s0)
  200578:	00000013          	nop
  20057c:	fe843783          	ld	a5,-24(s0)
  200580:	0007a783          	lw	a5,0(a5)
  200584:	0007879b          	sext.w	a5,a5
  200588:	0027f793          	andi	a5,a5,2
  20058c:	0007879b          	sext.w	a5,a5
  200590:	00078713          	mv	a4,a5
  200594:	00200793          	li	a5,2
  200598:	fef702e3          	beq	a4,a5,20057c <_payload_start+0x57c>
  20059c:	0e0007b7          	lui	a5,0xe000
  2005a0:	10378793          	addi	a5,a5,259 # e000103 <_end+0xddffa63>
  2005a4:	00479793          	slli	a5,a5,0x4
  2005a8:	0007a783          	lw	a5,0(a5)
  2005ac:	0ff7f793          	andi	a5,a5,255
  2005b0:	fef403a3          	sb	a5,-25(s0)
  2005b4:	fe744783          	lbu	a5,-25(s0)
  2005b8:	0ff7f793          	andi	a5,a5,255
  2005bc:	0007879b          	sext.w	a5,a5
  2005c0:	00078513          	mv	a0,a5
  2005c4:	aa9ff0ef          	jal	ra,20006c <_payload_start+0x6c>
  2005c8:	fe744783          	lbu	a5,-25(s0)
  2005cc:	0ff7f793          	andi	a5,a5,255
  2005d0:	00078513          	mv	a0,a5
  2005d4:	01813083          	ld	ra,24(sp)
  2005d8:	01013403          	ld	s0,16(sp)
  2005dc:	02010113          	addi	sp,sp,32
  2005e0:	00008067          	ret
  2005e4:	fd010113          	addi	sp,sp,-48
  2005e8:	02113423          	sd	ra,40(sp)
  2005ec:	02813023          	sd	s0,32(sp)
  2005f0:	03010413          	addi	s0,sp,48
  2005f4:	00000797          	auipc	a5,0x0
  2005f8:	09c78793          	addi	a5,a5,156 # 200690 <_payload_start+0x690>
  2005fc:	fef43423          	sd	a5,-24(s0)
  200600:	fe843783          	ld	a5,-24(s0)
  200604:	fef43023          	sd	a5,-32(s0)
  200608:	f51ff0ef          	jal	ra,200558 <_payload_start+0x558>
  20060c:	00050793          	mv	a5,a0
  200610:	fcf40fa3          	sb	a5,-33(s0)
  200614:	01c0006f          	j	200630 <_payload_start+0x630>
  200618:	fe843783          	ld	a5,-24(s0)
  20061c:	00178713          	addi	a4,a5,1
  200620:	fee43423          	sd	a4,-24(s0)
  200624:	fdf44703          	lbu	a4,-33(s0)
  200628:	0ff77713          	andi	a4,a4,255
  20062c:	00e78023          	sb	a4,0(a5)
  200630:	fdf44783          	lbu	a5,-33(s0)
  200634:	0ff7f793          	andi	a5,a5,255
  200638:	00078713          	mv	a4,a5
  20063c:	06e00793          	li	a5,110
  200640:	fcf71ce3          	bne	a4,a5,200618 <_payload_start+0x618>
  200644:	fe043783          	ld	a5,-32(s0)
  200648:	00078513          	mv	a0,a5
  20064c:	02813083          	ld	ra,40(sp)
  200650:	02013403          	ld	s0,32(sp)
  200654:	03010113          	addi	sp,sp,48
  200658:	00008067          	ret
  20065c:	0000                	unimp
  20065e:	0000                	unimp
  200660:	6568                	ld	a0,200(a0)
  200662:	6c6c                	ld	a1,216(s0)
  200664:	6f775f6f          	jal	t5,27655a <_end+0x75eba>
  200668:	6c72                	ld	s8,280(sp)
  20066a:	2064                	fld	fs1,192(s0)
  20066c:	2520                	fld	fs0,72(a0)
  20066e:	0a64                	addi	s1,sp,284
	...
  200678:	3130                	fld	fa2,96(a0)
  20067a:	3332                	fld	ft6,296(sp)
  20067c:	3534                	fld	fa3,104(a0)
  20067e:	3736                	fld	fa4,360(sp)
  200680:	3938                	fld	fa4,112(a0)
  200682:	4241                	li	tp,16
  200684:	46454443          	0x46454443
	...
  200694:	f3b6                	sd	a3,480(sp)
  200696:	3f9d                	addiw	t6,t6,-25
  200698:	3fb74bc7          	0x3fb74bc7
  20069c:	0000                	unimp
  20069e:	447a                	lw	s0,156(sp)
