
vmtest/main:     file format elf64-littleriscv


Disassembly of section .text.init:

0000000000000000 <_start>:
   0:	00c0006f          	j	c <handle_reset>

0000000000000004 <nmi_vector>:
   4:	3dc2306f          	j	233e0 <wtf>

0000000000000008 <trap_vector>:
   8:	3d82306f          	j	233e0 <wtf>

000000000000000c <handle_reset>:
   c:	00000297          	auipc	t0,0x0
  10:	ffc28293          	addi	t0,t0,-4 # 8 <trap_vector>
  14:	30529073          	csrw	mtvec,t0
  18:	0002b117          	auipc	sp,0x2b
  1c:	6b810113          	addi	sp,sp,1720 # 2b6d0 <_end+0xee0>
  20:	f14022f3          	csrr	t0,mhartid
  24:	00c29293          	slli	t0,t0,0xc
  28:	00510133          	add	sp,sp,t0
  2c:	34011073          	csrw	mscratch,sp
  30:	00023517          	auipc	a0,0x23
  34:	8b050513          	addi	a0,a0,-1872 # 228e0 <userstart>
  38:	2392306f          	j	23a70 <vm_boot>

000000000000003c <pop_tf>:
  3c:	10853283          	ld	t0,264(a0)
  40:	14129073          	csrw	sepc,t0
  44:	00853083          	ld	ra,8(a0)
  48:	01053103          	ld	sp,16(a0)
  4c:	01853183          	ld	gp,24(a0)
  50:	02053203          	ld	tp,32(a0)
  54:	02853283          	ld	t0,40(a0)
  58:	03053303          	ld	t1,48(a0)
  5c:	03853383          	ld	t2,56(a0)
  60:	04053403          	ld	s0,64(a0)
  64:	04853483          	ld	s1,72(a0)
  68:	05853583          	ld	a1,88(a0)
  6c:	06053603          	ld	a2,96(a0)
  70:	06853683          	ld	a3,104(a0)
  74:	07053703          	ld	a4,112(a0)
  78:	07853783          	ld	a5,120(a0)
  7c:	08053803          	ld	a6,128(a0)
  80:	08853883          	ld	a7,136(a0)
  84:	09053903          	ld	s2,144(a0)
  88:	09853983          	ld	s3,152(a0)
  8c:	0a053a03          	ld	s4,160(a0)
  90:	0a853a83          	ld	s5,168(a0)
  94:	0b053b03          	ld	s6,176(a0)
  98:	0b853b83          	ld	s7,184(a0)
  9c:	0c053c03          	ld	s8,192(a0)
  a0:	0c853c83          	ld	s9,200(a0)
  a4:	0d053d03          	ld	s10,208(a0)
  a8:	0d853d83          	ld	s11,216(a0)
  ac:	0e053e03          	ld	t3,224(a0)
  b0:	0e853e83          	ld	t4,232(a0)
  b4:	0f053f03          	ld	t5,240(a0)
  b8:	0f853f83          	ld	t6,248(a0)
  bc:	05053503          	ld	a0,80(a0)
  c0:	10200073          	sret

00000000000000c4 <trap_entry>:
  c4:	14011173          	csrrw	sp,sscratch,sp
  c8:	00113423          	sd	ra,8(sp)
  cc:	00313c23          	sd	gp,24(sp)
  d0:	02413023          	sd	tp,32(sp)
  d4:	02513423          	sd	t0,40(sp)
  d8:	02613823          	sd	t1,48(sp)
  dc:	02713c23          	sd	t2,56(sp)
  e0:	04813023          	sd	s0,64(sp)
  e4:	04913423          	sd	s1,72(sp)
  e8:	04a13823          	sd	a0,80(sp)
  ec:	04b13c23          	sd	a1,88(sp)
  f0:	06c13023          	sd	a2,96(sp)
  f4:	06d13423          	sd	a3,104(sp)
  f8:	06e13823          	sd	a4,112(sp)
  fc:	06f13c23          	sd	a5,120(sp)
 100:	09013023          	sd	a6,128(sp)
 104:	09113423          	sd	a7,136(sp)
 108:	09213823          	sd	s2,144(sp)
 10c:	09313c23          	sd	s3,152(sp)
 110:	0b413023          	sd	s4,160(sp)
 114:	0b513423          	sd	s5,168(sp)
 118:	0b613823          	sd	s6,176(sp)
 11c:	0b713c23          	sd	s7,184(sp)
 120:	0d813023          	sd	s8,192(sp)
 124:	0d913423          	sd	s9,200(sp)
 128:	0da13823          	sd	s10,208(sp)
 12c:	0db13c23          	sd	s11,216(sp)
 130:	0fc13023          	sd	t3,224(sp)
 134:	0fd13423          	sd	t4,232(sp)
 138:	0fe13823          	sd	t5,240(sp)
 13c:	0ff13c23          	sd	t6,248(sp)
 140:	140112f3          	csrrw	t0,sscratch,sp
 144:	00513823          	sd	t0,16(sp)
 148:	100022f3          	csrr	t0,sstatus
 14c:	10513023          	sd	t0,256(sp)
 150:	141022f3          	csrr	t0,sepc
 154:	10513423          	sd	t0,264(sp)
 158:	143022f3          	csrr	t0,stval
 15c:	10513823          	sd	t0,272(sp)
 160:	142022f3          	csrr	t0,scause
 164:	10513c23          	sd	t0,280(sp)
 168:	00010513          	mv	a0,sp
 16c:	5ec2306f          	j	23758 <handle_trap>

Disassembly of section .text:

0000000000020000 <cmp_idx>:
   20000:	00060a63          	beqz	a2,20014 <cmp_idx+0x14>
   20004:	00251503          	lh	a0,2(a0)
   20008:	00259783          	lh	a5,2(a1)
   2000c:	40f5053b          	subw	a0,a0,a5
   20010:	00008067          	ret
   20014:	00051783          	lh	a5,0(a0)
   20018:	0087d713          	srli	a4,a5,0x8
   2001c:	0ff77713          	andi	a4,a4,255
   20020:	f007f793          	andi	a5,a5,-256
   20024:	00e7e7b3          	or	a5,a5,a4
   20028:	00f51023          	sh	a5,0(a0)
   2002c:	00059783          	lh	a5,0(a1)
   20030:	00251503          	lh	a0,2(a0)
   20034:	0087d713          	srli	a4,a5,0x8
   20038:	0ff77713          	andi	a4,a4,255
   2003c:	f007f793          	andi	a5,a5,-256
   20040:	00e7e7b3          	or	a5,a5,a4
   20044:	00f59023          	sh	a5,0(a1)
   20048:	00259783          	lh	a5,2(a1)
   2004c:	40f5053b          	subw	a0,a0,a5
   20050:	00008067          	ret

0000000000020054 <calc_func>:
   20054:	fd010113          	addi	sp,sp,-48
   20058:	02813023          	sd	s0,32(sp)
   2005c:	00051403          	lh	s0,0(a0)
   20060:	01213823          	sd	s2,16(sp)
   20064:	02113423          	sd	ra,40(sp)
   20068:	4074579b          	sraiw	a5,s0,0x7
   2006c:	00913c23          	sd	s1,24(sp)
   20070:	01313423          	sd	s3,8(sp)
   20074:	0017f793          	andi	a5,a5,1
   20078:	07f47913          	andi	s2,s0,127
   2007c:	04079e63          	bnez	a5,200d8 <calc_func+0x84>
   20080:	00058493          	mv	s1,a1
   20084:	4034559b          	sraiw	a1,s0,0x3
   20088:	00f5f593          	andi	a1,a1,15
   2008c:	00459793          	slli	a5,a1,0x4
   20090:	00747713          	andi	a4,s0,7
   20094:	00b7e5b3          	or	a1,a5,a1
   20098:	00050993          	mv	s3,a0
   2009c:	0604d783          	lhu	a5,96(s1)
   200a0:	04070c63          	beqz	a4,200f8 <calc_func+0xa4>
   200a4:	00100693          	li	a3,1
   200a8:	08d70a63          	beq	a4,a3,2013c <calc_func+0xe8>
   200ac:	03041513          	slli	a0,s0,0x30
   200b0:	03055513          	srli	a0,a0,0x30
   200b4:	00040913          	mv	s2,s0
   200b8:	00078593          	mv	a1,a5
   200bc:	07f97913          	andi	s2,s2,127
   200c0:	f0047413          	andi	s0,s0,-256
   200c4:	754020ef          	jal	ra,22818 <crcu16>
   200c8:	00896433          	or	s0,s2,s0
   200cc:	06a49023          	sh	a0,96(s1)
   200d0:	08046413          	ori	s0,s0,128
   200d4:	00899023          	sh	s0,0(s3)
   200d8:	02813083          	ld	ra,40(sp)
   200dc:	02013403          	ld	s0,32(sp)
   200e0:	00090513          	mv	a0,s2
   200e4:	01813483          	ld	s1,24(sp)
   200e8:	01013903          	ld	s2,16(sp)
   200ec:	00813983          	ld	s3,8(sp)
   200f0:	03010113          	addi	sp,sp,48
   200f4:	00008067          	ret
   200f8:	02200693          	li	a3,34
   200fc:	00058713          	mv	a4,a1
   20100:	00d5d463          	bge	a1,a3,20108 <calc_func+0xb4>
   20104:	02200713          	li	a4,34
   20108:	00249683          	lh	a3,2(s1)
   2010c:	00049603          	lh	a2,0(s1)
   20110:	0204b583          	ld	a1,32(s1)
   20114:	0284a503          	lw	a0,40(s1)
   20118:	0ff77713          	andi	a4,a4,255
   2011c:	3d0020ef          	jal	ra,224ec <core_bench_state>
   20120:	0664d783          	lhu	a5,102(s1)
   20124:	0105191b          	slliw	s2,a0,0x10
   20128:	4109591b          	sraiw	s2,s2,0x10
   2012c:	00079463          	bnez	a5,20134 <calc_func+0xe0>
   20130:	06a49323          	sh	a0,102(s1)
   20134:	0604d783          	lhu	a5,96(s1)
   20138:	f81ff06f          	j	200b8 <calc_func+0x64>
   2013c:	00078613          	mv	a2,a5
   20140:	04048513          	addi	a0,s1,64
   20144:	609010ef          	jal	ra,21f4c <core_bench_matrix>
   20148:	0644d783          	lhu	a5,100(s1)
   2014c:	0105191b          	slliw	s2,a0,0x10
   20150:	4109591b          	sraiw	s2,s2,0x10
   20154:	fe0790e3          	bnez	a5,20134 <calc_func+0xe0>
   20158:	0604d783          	lhu	a5,96(s1)
   2015c:	06a49223          	sh	a0,100(s1)
   20160:	f59ff06f          	j	200b8 <calc_func+0x64>

0000000000020164 <cmp_complex>:
   20164:	fe010113          	addi	sp,sp,-32
   20168:	01213023          	sd	s2,0(sp)
   2016c:	00058913          	mv	s2,a1
   20170:	00060593          	mv	a1,a2
   20174:	00113c23          	sd	ra,24(sp)
   20178:	00813823          	sd	s0,16(sp)
   2017c:	00913423          	sd	s1,8(sp)
   20180:	00060413          	mv	s0,a2
   20184:	ed1ff0ef          	jal	ra,20054 <calc_func>
   20188:	00050493          	mv	s1,a0
   2018c:	00040593          	mv	a1,s0
   20190:	00090513          	mv	a0,s2
   20194:	ec1ff0ef          	jal	ra,20054 <calc_func>
   20198:	01813083          	ld	ra,24(sp)
   2019c:	01013403          	ld	s0,16(sp)
   201a0:	40a4853b          	subw	a0,s1,a0
   201a4:	00013903          	ld	s2,0(sp)
   201a8:	00813483          	ld	s1,8(sp)
   201ac:	02010113          	addi	sp,sp,32
   201b0:	00008067          	ret

00000000000201b4 <copy_info>:
   201b4:	00059703          	lh	a4,0(a1)
   201b8:	00259783          	lh	a5,2(a1)
   201bc:	00e51023          	sh	a4,0(a0)
   201c0:	00f51123          	sh	a5,2(a0)
   201c4:	00008067          	ret

00000000000201c8 <core_list_insert_new>:
   201c8:	00063803          	ld	a6,0(a2)
   201cc:	01080893          	addi	a7,a6,16
   201d0:	04e8f663          	bgeu	a7,a4,2021c <core_list_insert_new+0x54>
   201d4:	0006b703          	ld	a4,0(a3)
   201d8:	00470313          	addi	t1,a4,4
   201dc:	04f37063          	bgeu	t1,a5,2021c <core_list_insert_new+0x54>
   201e0:	01163023          	sd	a7,0(a2)
   201e4:	00053783          	ld	a5,0(a0)
   201e8:	00059883          	lh	a7,0(a1)
   201ec:	00259603          	lh	a2,2(a1)
   201f0:	00f83023          	sd	a5,0(a6)
   201f4:	01053023          	sd	a6,0(a0)
   201f8:	00e83423          	sd	a4,8(a6)
   201fc:	0006b783          	ld	a5,0(a3)
   20200:	00080513          	mv	a0,a6
   20204:	00478793          	addi	a5,a5,4
   20208:	00f6b023          	sd	a5,0(a3)
   2020c:	00883783          	ld	a5,8(a6)
   20210:	01179023          	sh	a7,0(a5)
   20214:	00c79123          	sh	a2,2(a5)
   20218:	00008067          	ret
   2021c:	00000813          	li	a6,0
   20220:	00080513          	mv	a0,a6
   20224:	00008067          	ret

0000000000020228 <core_list_remove>:
   20228:	00053783          	ld	a5,0(a0)
   2022c:	00853603          	ld	a2,8(a0)
   20230:	00050713          	mv	a4,a0
   20234:	0087b583          	ld	a1,8(a5)
   20238:	0007b683          	ld	a3,0(a5)
   2023c:	00078513          	mv	a0,a5
   20240:	00b73423          	sd	a1,8(a4)
   20244:	00c7b423          	sd	a2,8(a5)
   20248:	00d73023          	sd	a3,0(a4)
   2024c:	0007b023          	sd	zero,0(a5)
   20250:	00008067          	ret

0000000000020254 <core_list_undo_remove>:
   20254:	0085b603          	ld	a2,8(a1)
   20258:	00853683          	ld	a3,8(a0)
   2025c:	0005b703          	ld	a4,0(a1)
   20260:	00c53423          	sd	a2,8(a0)
   20264:	00d5b423          	sd	a3,8(a1)
   20268:	00e53023          	sd	a4,0(a0)
   2026c:	00a5b023          	sd	a0,0(a1)
   20270:	00008067          	ret

0000000000020274 <core_list_find>:
   20274:	00259703          	lh	a4,2(a1)
   20278:	02074863          	bltz	a4,202a8 <core_list_find+0x34>
   2027c:	02050463          	beqz	a0,202a4 <core_list_find+0x30>
   20280:	00853783          	ld	a5,8(a0)
   20284:	00279783          	lh	a5,2(a5)
   20288:	00e79a63          	bne	a5,a4,2029c <core_list_find+0x28>
   2028c:	0500006f          	j	202dc <core_list_find+0x68>
   20290:	00853783          	ld	a5,8(a0)
   20294:	00279783          	lh	a5,2(a5)
   20298:	00e78663          	beq	a5,a4,202a4 <core_list_find+0x30>
   2029c:	00053503          	ld	a0,0(a0)
   202a0:	fe0518e3          	bnez	a0,20290 <core_list_find+0x1c>
   202a4:	00008067          	ret
   202a8:	fe050ee3          	beqz	a0,202a4 <core_list_find+0x30>
   202ac:	00853783          	ld	a5,8(a0)
   202b0:	00059703          	lh	a4,0(a1)
   202b4:	0007c783          	lbu	a5,0(a5)
   202b8:	00e79a63          	bne	a5,a4,202cc <core_list_find+0x58>
   202bc:	0240006f          	j	202e0 <core_list_find+0x6c>
   202c0:	00853783          	ld	a5,8(a0)
   202c4:	0007c783          	lbu	a5,0(a5)
   202c8:	00e78863          	beq	a5,a4,202d8 <core_list_find+0x64>
   202cc:	00053503          	ld	a0,0(a0)
   202d0:	fe0518e3          	bnez	a0,202c0 <core_list_find+0x4c>
   202d4:	fd1ff06f          	j	202a4 <core_list_find+0x30>
   202d8:	00008067          	ret
   202dc:	00008067          	ret
   202e0:	00008067          	ret

00000000000202e4 <core_list_reverse>:
   202e4:	02050063          	beqz	a0,20304 <core_list_reverse+0x20>
   202e8:	00000713          	li	a4,0
   202ec:	0080006f          	j	202f4 <core_list_reverse+0x10>
   202f0:	00078513          	mv	a0,a5
   202f4:	00053783          	ld	a5,0(a0)
   202f8:	00e53023          	sd	a4,0(a0)
   202fc:	00050713          	mv	a4,a0
   20300:	fe0798e3          	bnez	a5,202f0 <core_list_reverse+0xc>
   20304:	00008067          	ret

0000000000020308 <core_list_mergesort>:
   20308:	fa010113          	addi	sp,sp,-96
   2030c:	03413823          	sd	s4,48(sp)
   20310:	03513423          	sd	s5,40(sp)
   20314:	01713c23          	sd	s7,24(sp)
   20318:	01813823          	sd	s8,16(sp)
   2031c:	01913423          	sd	s9,8(sp)
   20320:	04113c23          	sd	ra,88(sp)
   20324:	04813823          	sd	s0,80(sp)
   20328:	04913423          	sd	s1,72(sp)
   2032c:	05213023          	sd	s2,64(sp)
   20330:	03313c23          	sd	s3,56(sp)
   20334:	03613023          	sd	s6,32(sp)
   20338:	01a13023          	sd	s10,0(sp)
   2033c:	00050a13          	mv	s4,a0
   20340:	00058c13          	mv	s8,a1
   20344:	00060b93          	mv	s7,a2
   20348:	00100a93          	li	s5,1
   2034c:	00100c93          	li	s9,1
   20350:	0a0a0e63          	beqz	s4,2040c <core_list_mergesort+0x104>
   20354:	00000d13          	li	s10,0
   20358:	00000913          	li	s2,0
   2035c:	00000b13          	li	s6,0
   20360:	001d0d1b          	addiw	s10,s10,1
   20364:	000a0413          	mv	s0,s4
   20368:	00000493          	li	s1,0
   2036c:	00043403          	ld	s0,0(s0)
   20370:	0014849b          	addiw	s1,s1,1
   20374:	00040463          	beqz	s0,2037c <core_list_mergesort+0x74>
   20378:	fe9a9ae3          	bne	s5,s1,2036c <core_list_mergesort+0x64>
   2037c:	000a8993          	mv	s3,s5
   20380:	02048e63          	beqz	s1,203bc <core_list_mergesort+0xb4>
   20384:	04098e63          	beqz	s3,203e0 <core_list_mergesort+0xd8>
   20388:	04040c63          	beqz	s0,203e0 <core_list_mergesort+0xd8>
   2038c:	00843583          	ld	a1,8(s0)
   20390:	008a3503          	ld	a0,8(s4)
   20394:	000b8613          	mv	a2,s7
   20398:	000c00e7          	jalr	s8
   2039c:	04a05263          	blez	a0,203e0 <core_list_mergesort+0xd8>
   203a0:	00040793          	mv	a5,s0
   203a4:	00043403          	ld	s0,0(s0)
   203a8:	fff9899b          	addiw	s3,s3,-1
   203ac:	02090463          	beqz	s2,203d4 <core_list_mergesort+0xcc>
   203b0:	00f93023          	sd	a5,0(s2)
   203b4:	00078913          	mv	s2,a5
   203b8:	fc0496e3          	bnez	s1,20384 <core_list_mergesort+0x7c>
   203bc:	02098a63          	beqz	s3,203f0 <core_list_mergesort+0xe8>
   203c0:	02040c63          	beqz	s0,203f8 <core_list_mergesort+0xf0>
   203c4:	00040793          	mv	a5,s0
   203c8:	fff9899b          	addiw	s3,s3,-1
   203cc:	00043403          	ld	s0,0(s0)
   203d0:	fe0910e3          	bnez	s2,203b0 <core_list_mergesort+0xa8>
   203d4:	00078b13          	mv	s6,a5
   203d8:	00078913          	mv	s2,a5
   203dc:	fddff06f          	j	203b8 <core_list_mergesort+0xb0>
   203e0:	000a0793          	mv	a5,s4
   203e4:	fff4849b          	addiw	s1,s1,-1
   203e8:	000a3a03          	ld	s4,0(s4)
   203ec:	fc1ff06f          	j	203ac <core_list_mergesort+0xa4>
   203f0:	00040a13          	mv	s4,s0
   203f4:	f60416e3          	bnez	s0,20360 <core_list_mergesort+0x58>
   203f8:	00093023          	sd	zero,0(s2)
   203fc:	019d0c63          	beq	s10,s9,20414 <core_list_mergesort+0x10c>
   20400:	001a9a9b          	slliw	s5,s5,0x1
   20404:	000b0a13          	mv	s4,s6
   20408:	f49ff06f          	j	20350 <core_list_mergesort+0x48>
   2040c:	00003023          	sd	zero,0(zero) # 0 <_start>
   20410:	00100073          	ebreak
   20414:	05813083          	ld	ra,88(sp)
   20418:	05013403          	ld	s0,80(sp)
   2041c:	000b0513          	mv	a0,s6
   20420:	04813483          	ld	s1,72(sp)
   20424:	04013903          	ld	s2,64(sp)
   20428:	03813983          	ld	s3,56(sp)
   2042c:	03013a03          	ld	s4,48(sp)
   20430:	02813a83          	ld	s5,40(sp)
   20434:	02013b03          	ld	s6,32(sp)
   20438:	01813b83          	ld	s7,24(sp)
   2043c:	01013c03          	ld	s8,16(sp)
   20440:	00813c83          	ld	s9,8(sp)
   20444:	00013d03          	ld	s10,0(sp)
   20448:	06010113          	addi	sp,sp,96
   2044c:	00008067          	ret

0000000000020450 <core_bench_list>:
   20450:	f9010113          	addi	sp,sp,-112
   20454:	03813023          	sd	s8,32(sp)
   20458:	00451c03          	lh	s8,4(a0)
   2045c:	06813023          	sd	s0,96(sp)
   20460:	05413023          	sd	s4,64(sp)
   20464:	03513c23          	sd	s5,56(sp)
   20468:	06113423          	sd	ra,104(sp)
   2046c:	04913c23          	sd	s1,88(sp)
   20470:	05213823          	sd	s2,80(sp)
   20474:	05313423          	sd	s3,72(sp)
   20478:	03613823          	sd	s6,48(sp)
   2047c:	03713423          	sd	s7,40(sp)
   20480:	01913c23          	sd	s9,24(sp)
   20484:	01a13823          	sd	s10,16(sp)
   20488:	00b11523          	sh	a1,10(sp)
   2048c:	00050a93          	mv	s5,a0
   20490:	00058a13          	mv	s4,a1
   20494:	03853403          	ld	s0,56(a0)
   20498:	27805063          	blez	s8,206f8 <core_bench_list+0x2a8>
   2049c:	00058d13          	mv	s10,a1
   204a0:	00000913          	li	s2,0
   204a4:	00000b93          	li	s7,0
   204a8:	00000493          	li	s1,0
   204ac:	00000b13          	li	s6,0
   204b0:	00810993          	addi	s3,sp,8
   204b4:	00003c97          	auipc	s9,0x3
   204b8:	774c8c93          	addi	s9,s9,1908 # 23c28 <vm_boot+0x1b8>
   204bc:	0ff97793          	andi	a5,s2,255
   204c0:	00098593          	mv	a1,s3
   204c4:	00040513          	mv	a0,s0
   204c8:	00f11423          	sh	a5,8(sp)
   204cc:	da9ff0ef          	jal	ra,20274 <core_list_find>
   204d0:	02040063          	beqz	s0,204f0 <core_bench_list+0xa0>
   204d4:	00000713          	li	a4,0
   204d8:	0080006f          	j	204e0 <core_bench_list+0x90>
   204dc:	00078413          	mv	s0,a5
   204e0:	00043783          	ld	a5,0(s0)
   204e4:	00e43023          	sd	a4,0(s0)
   204e8:	00040713          	mv	a4,s0
   204ec:	fe0798e3          	bnez	a5,204dc <core_bench_list+0x8c>
   204f0:	08050663          	beqz	a0,2057c <core_bench_list+0x12c>
   204f4:	00853783          	ld	a5,8(a0)
   204f8:	0014849b          	addiw	s1,s1,1
   204fc:	03049493          	slli	s1,s1,0x30
   20500:	00079783          	lh	a5,0(a5)
   20504:	0304d493          	srli	s1,s1,0x30
   20508:	0017f713          	andi	a4,a5,1
   2050c:	00070c63          	beqz	a4,20524 <core_bench_list+0xd4>
   20510:	4097d79b          	sraiw	a5,a5,0x9
   20514:	0017f793          	andi	a5,a5,1
   20518:	01678b3b          	addw	s6,a5,s6
   2051c:	030b1b13          	slli	s6,s6,0x30
   20520:	030b5b13          	srli	s6,s6,0x30
   20524:	00053783          	ld	a5,0(a0)
   20528:	00078c63          	beqz	a5,20540 <core_bench_list+0xf0>
   2052c:	0007b703          	ld	a4,0(a5)
   20530:	00e53023          	sd	a4,0(a0)
   20534:	00043703          	ld	a4,0(s0)
   20538:	00e7b023          	sd	a4,0(a5)
   2053c:	00f43023          	sd	a5,0(s0)
   20540:	000d4663          	bltz	s10,2054c <core_bench_list+0xfc>
   20544:	001d0d1b          	addiw	s10,s10,1
   20548:	01a11523          	sh	s10,10(sp)
   2054c:	00090593          	mv	a1,s2
   20550:	00048713          	mv	a4,s1
   20554:	000b8693          	mv	a3,s7
   20558:	000b0613          	mv	a2,s6
   2055c:	000c8513          	mv	a0,s9
   20560:	0019091b          	addiw	s2,s2,1
   20564:	5b8020ef          	jal	ra,22b1c <printf>
   20568:	0109179b          	slliw	a5,s2,0x10
   2056c:	4107d79b          	sraiw	a5,a5,0x10
   20570:	0387dc63          	bge	a5,s8,205a8 <core_bench_list+0x158>
   20574:	00a11d03          	lh	s10,10(sp)
   20578:	f45ff06f          	j	204bc <core_bench_list+0x6c>
   2057c:	00043783          	ld	a5,0(s0)
   20580:	001b8b9b          	addiw	s7,s7,1
   20584:	030b9b93          	slli	s7,s7,0x30
   20588:	0087b783          	ld	a5,8(a5)
   2058c:	030bdb93          	srli	s7,s7,0x30
   20590:	00178783          	lb	a5,1(a5)
   20594:	0017f793          	andi	a5,a5,1
   20598:	01678b3b          	addw	s6,a5,s6
   2059c:	030b1b13          	slli	s6,s6,0x30
   205a0:	030b5b13          	srli	s6,s6,0x30
   205a4:	f9dff06f          	j	20540 <core_bench_list+0xf0>
   205a8:	0024949b          	slliw	s1,s1,0x2
   205ac:	417484bb          	subw	s1,s1,s7
   205b0:	016484bb          	addw	s1,s1,s6
   205b4:	03049493          	slli	s1,s1,0x30
   205b8:	0304d493          	srli	s1,s1,0x30
   205bc:	01405e63          	blez	s4,205d8 <core_bench_list+0x188>
   205c0:	00040513          	mv	a0,s0
   205c4:	000a8613          	mv	a2,s5
   205c8:	00000597          	auipc	a1,0x0
   205cc:	b9c58593          	addi	a1,a1,-1124 # 20164 <cmp_complex>
   205d0:	d39ff0ef          	jal	ra,20308 <core_list_mergesort>
   205d4:	00050413          	mv	s0,a0
   205d8:	00043783          	ld	a5,0(s0)
   205dc:	00098593          	mv	a1,s3
   205e0:	00040513          	mv	a0,s0
   205e4:	0007b983          	ld	s3,0(a5)
   205e8:	0087b683          	ld	a3,8(a5)
   205ec:	0089b603          	ld	a2,8(s3)
   205f0:	0009b703          	ld	a4,0(s3)
   205f4:	00c7b423          	sd	a2,8(a5)
   205f8:	00d9b423          	sd	a3,8(s3)
   205fc:	00e7b023          	sd	a4,0(a5)
   20600:	0009b023          	sd	zero,0(s3)
   20604:	c71ff0ef          	jal	ra,20274 <core_list_find>
   20608:	00050913          	mv	s2,a0
   2060c:	0e050063          	beqz	a0,206ec <core_bench_list+0x29c>
   20610:	00843783          	ld	a5,8(s0)
   20614:	00048593          	mv	a1,s1
   20618:	00079503          	lh	a0,0(a5)
   2061c:	2b0020ef          	jal	ra,228cc <crc16>
   20620:	00093903          	ld	s2,0(s2)
   20624:	00050493          	mv	s1,a0
   20628:	fe0914e3          	bnez	s2,20610 <core_bench_list+0x1c0>
   2062c:	00048a1b          	sext.w	s4,s1
   20630:	000a0593          	mv	a1,s4
   20634:	00003517          	auipc	a0,0x3
   20638:	61450513          	addi	a0,a0,1556 # 23c48 <vm_boot+0x1d8>
   2063c:	4e0020ef          	jal	ra,22b1c <printf>
   20640:	00043783          	ld	a5,0(s0)
   20644:	0089b683          	ld	a3,8(s3)
   20648:	00000613          	li	a2,0
   2064c:	0087b503          	ld	a0,8(a5)
   20650:	0007b703          	ld	a4,0(a5)
   20654:	00000597          	auipc	a1,0x0
   20658:	9ac58593          	addi	a1,a1,-1620 # 20000 <cmp_idx>
   2065c:	00a9b423          	sd	a0,8(s3)
   20660:	00d7b423          	sd	a3,8(a5)
   20664:	00e9b023          	sd	a4,0(s3)
   20668:	00040513          	mv	a0,s0
   2066c:	0137b023          	sd	s3,0(a5)
   20670:	c99ff0ef          	jal	ra,20308 <core_list_mergesort>
   20674:	00053403          	ld	s0,0(a0)
   20678:	00050913          	mv	s2,a0
   2067c:	02040263          	beqz	s0,206a0 <core_bench_list+0x250>
   20680:	00893783          	ld	a5,8(s2)
   20684:	00048593          	mv	a1,s1
   20688:	00079503          	lh	a0,0(a5)
   2068c:	240020ef          	jal	ra,228cc <crc16>
   20690:	00043403          	ld	s0,0(s0)
   20694:	00050493          	mv	s1,a0
   20698:	fe0414e3          	bnez	s0,20680 <core_bench_list+0x230>
   2069c:	00050a1b          	sext.w	s4,a0
   206a0:	000a0593          	mv	a1,s4
   206a4:	00003517          	auipc	a0,0x3
   206a8:	5bc50513          	addi	a0,a0,1468 # 23c60 <vm_boot+0x1f0>
   206ac:	470020ef          	jal	ra,22b1c <printf>
   206b0:	06813083          	ld	ra,104(sp)
   206b4:	06013403          	ld	s0,96(sp)
   206b8:	00048513          	mv	a0,s1
   206bc:	05013903          	ld	s2,80(sp)
   206c0:	05813483          	ld	s1,88(sp)
   206c4:	04813983          	ld	s3,72(sp)
   206c8:	04013a03          	ld	s4,64(sp)
   206cc:	03813a83          	ld	s5,56(sp)
   206d0:	03013b03          	ld	s6,48(sp)
   206d4:	02813b83          	ld	s7,40(sp)
   206d8:	02013c03          	ld	s8,32(sp)
   206dc:	01813c83          	ld	s9,24(sp)
   206e0:	01013d03          	ld	s10,16(sp)
   206e4:	07010113          	addi	sp,sp,112
   206e8:	00008067          	ret
   206ec:	00043903          	ld	s2,0(s0)
   206f0:	f20910e3          	bnez	s2,20610 <core_bench_list+0x1c0>
   206f4:	f39ff06f          	j	2062c <core_bench_list+0x1dc>
   206f8:	00000493          	li	s1,0
   206fc:	00810993          	addi	s3,sp,8
   20700:	ebdff06f          	j	205bc <core_bench_list+0x16c>

0000000000020704 <core_list_init>:
   20704:	01400813          	li	a6,20
   20708:	0305583b          	divuw	a6,a0,a6
   2070c:	fe010113          	addi	sp,sp,-32
   20710:	00113c23          	sd	ra,24(sp)
   20714:	00813823          	sd	s0,16(sp)
   20718:	00913423          	sd	s1,8(sp)
   2071c:	01213023          	sd	s2,0(sp)
   20720:	00058513          	mv	a0,a1
   20724:	0005b023          	sd	zero,0(a1)
   20728:	ffff87b7          	lui	a5,0xffff8
   2072c:	0807869b          	addiw	a3,a5,128
   20730:	02058593          	addi	a1,a1,32
   20734:	01050713          	addi	a4,a0,16
   20738:	ffe80f9b          	addiw	t6,a6,-2
   2073c:	020f9f13          	slli	t5,t6,0x20
   20740:	020f5f13          	srli	t5,t5,0x20
   20744:	004f1e13          	slli	t3,t5,0x4
   20748:	01c50e33          	add	t3,a0,t3
   2074c:	01c53423          	sd	t3,8(a0)
   20750:	002f1f13          	slli	t5,t5,0x2
   20754:	00de1023          	sh	a3,0(t3)
   20758:	000e1123          	sh	zero,2(t3)
   2075c:	000f829b          	sext.w	t0,t6
   20760:	01ee0f33          	add	t5,t3,t5
   20764:	004e0693          	addi	a3,t3,4
   20768:	19c5f063          	bgeu	a1,t3,208e8 <core_list_init+0x1e4>
   2076c:	008e0893          	addi	a7,t3,8
   20770:	17e8fc63          	bgeu	a7,t5,208e8 <core_list_init+0x1e4>
   20774:	00d53c23          	sd	a3,24(a0)
   20778:	00053823          	sd	zero,16(a0)
   2077c:	00e53023          	sd	a4,0(a0)
   20780:	fff7c793          	not	a5,a5
   20784:	fff00693          	li	a3,-1
   20788:	00de1223          	sh	a3,4(t3)
   2078c:	00fe1323          	sh	a5,6(t3)
   20790:	06028a63          	beqz	t0,20804 <core_list_init+0x100>
   20794:	03061393          	slli	t2,a2,0x30
   20798:	ffff8437          	lui	s0,0xffff8
   2079c:	0303d393          	srli	t2,t2,0x30
   207a0:	00000813          	li	a6,0
   207a4:	fff44413          	not	s0,s0
   207a8:	03081693          	slli	a3,a6,0x30
   207ac:	0306d693          	srli	a3,a3,0x30
   207b0:	0076c7b3          	xor	a5,a3,t2
   207b4:	00379793          	slli	a5,a5,0x3
   207b8:	0076f693          	andi	a3,a3,7
   207bc:	0787f793          	andi	a5,a5,120
   207c0:	00d7e7b3          	or	a5,a5,a3
   207c4:	00879e93          	slli	t4,a5,0x8
   207c8:	01058693          	addi	a3,a1,16
   207cc:	0018081b          	addiw	a6,a6,1
   207d0:	00488313          	addi	t1,a7,4
   207d4:	01d7e7b3          	or	a5,a5,t4
   207d8:	03c6f463          	bgeu	a3,t3,20800 <core_list_init+0xfc>
   207dc:	03e37263          	bgeu	t1,t5,20800 <core_list_init+0xfc>
   207e0:	00e5b023          	sd	a4,0(a1)
   207e4:	00b53023          	sd	a1,0(a0)
   207e8:	0115b423          	sd	a7,8(a1)
   207ec:	00f89023          	sh	a5,0(a7)
   207f0:	00889123          	sh	s0,2(a7)
   207f4:	00058713          	mv	a4,a1
   207f8:	00030893          	mv	a7,t1
   207fc:	00068593          	mv	a1,a3
   20800:	fb0294e3          	bne	t0,a6,207a8 <core_list_init+0xa4>
   20804:	00073783          	ld	a5,0(a4)
   20808:	06078663          	beqz	a5,20874 <core_list_init+0x170>
   2080c:	00500813          	li	a6,5
   20810:	000048b7          	lui	a7,0x4
   20814:	030fd83b          	divuw	a6,t6,a6
   20818:	00100593          	li	a1,1
   2081c:	fff88893          	addi	a7,a7,-1 # 3fff <trap_entry+0x3f3b>
   20820:	0180006f          	j	20838 <core_list_init+0x134>
   20824:	00073703          	ld	a4,0(a4)
   20828:	00b69123          	sh	a1,2(a3)
   2082c:	0015859b          	addiw	a1,a1,1
   20830:	00073783          	ld	a5,0(a4)
   20834:	04078063          	beqz	a5,20874 <core_list_init+0x170>
   20838:	03059693          	slli	a3,a1,0x30
   2083c:	0306d693          	srli	a3,a3,0x30
   20840:	0016879b          	addiw	a5,a3,1
   20844:	0087979b          	slliw	a5,a5,0x8
   20848:	00c6c6b3          	xor	a3,a3,a2
   2084c:	7007f793          	andi	a5,a5,1792
   20850:	00d7e7b3          	or	a5,a5,a3
   20854:	0117f7b3          	and	a5,a5,a7
   20858:	00873683          	ld	a3,8(a4)
   2085c:	fd05e4e3          	bltu	a1,a6,20824 <core_list_init+0x120>
   20860:	00073703          	ld	a4,0(a4)
   20864:	00f69123          	sh	a5,2(a3)
   20868:	0015859b          	addiw	a1,a1,1
   2086c:	00073783          	ld	a5,0(a4)
   20870:	fc0794e3          	bnez	a5,20838 <core_list_init+0x134>
   20874:	00000613          	li	a2,0
   20878:	fffff597          	auipc	a1,0xfffff
   2087c:	78858593          	addi	a1,a1,1928 # 20000 <cmp_idx>
   20880:	a89ff0ef          	jal	ra,20308 <core_list_mergesort>
   20884:	00050913          	mv	s2,a0
   20888:	00003517          	auipc	a0,0x3
   2088c:	3f050513          	addi	a0,a0,1008 # 23c78 <vm_boot+0x208>
   20890:	28c020ef          	jal	ra,22b1c <printf>
   20894:	00090413          	mv	s0,s2
   20898:	00003497          	auipc	s1,0x3
   2089c:	3f848493          	addi	s1,s1,1016 # 23c90 <vm_boot+0x220>
   208a0:	02090063          	beqz	s2,208c0 <core_list_init+0x1bc>
   208a4:	00843783          	ld	a5,8(s0) # ffffffffffff8008 <_end+0xfffffffffffcd818>
   208a8:	00048513          	mv	a0,s1
   208ac:	0007d603          	lhu	a2,0(a5) # ffffffffffff8000 <_end+0xfffffffffffcd810>
   208b0:	00279583          	lh	a1,2(a5)
   208b4:	268020ef          	jal	ra,22b1c <printf>
   208b8:	00043403          	ld	s0,0(s0)
   208bc:	fe0414e3          	bnez	s0,208a4 <core_list_init+0x1a0>
   208c0:	00004517          	auipc	a0,0x4
   208c4:	c6050513          	addi	a0,a0,-928 # 24520 <vm_boot+0xab0>
   208c8:	254020ef          	jal	ra,22b1c <printf>
   208cc:	01813083          	ld	ra,24(sp)
   208d0:	01013403          	ld	s0,16(sp)
   208d4:	00090513          	mv	a0,s2
   208d8:	00813483          	ld	s1,8(sp)
   208dc:	00013903          	ld	s2,0(sp)
   208e0:	02010113          	addi	sp,sp,32
   208e4:	00008067          	ret
   208e8:	00070593          	mv	a1,a4
   208ec:	00068893          	mv	a7,a3
   208f0:	00000713          	li	a4,0
   208f4:	e9dff06f          	j	20790 <core_list_init+0x8c>
   208f8:	00040137          	lui	sp,0x40

00000000000208fc <iterate>:
   208fc:	fe010113          	addi	sp,sp,-32 # 3ffe0 <_end+0x157f0>
   20900:	01213023          	sd	s2,0(sp)
   20904:	02c52903          	lw	s2,44(a0)
   20908:	00113c23          	sd	ra,24(sp)
   2090c:	00813823          	sd	s0,16(sp)
   20910:	00913423          	sd	s1,8(sp)
   20914:	06053023          	sd	zero,96(a0)
   20918:	04090663          	beqz	s2,20964 <iterate+0x68>
   2091c:	00050413          	mv	s0,a0
   20920:	00000493          	li	s1,0
   20924:	00100593          	li	a1,1
   20928:	00040513          	mv	a0,s0
   2092c:	b25ff0ef          	jal	ra,20450 <core_bench_list>
   20930:	06045583          	lhu	a1,96(s0)
   20934:	6e5010ef          	jal	ra,22818 <crcu16>
   20938:	06a41023          	sh	a0,96(s0)
   2093c:	fff00593          	li	a1,-1
   20940:	00040513          	mv	a0,s0
   20944:	b0dff0ef          	jal	ra,20450 <core_bench_list>
   20948:	06045583          	lhu	a1,96(s0)
   2094c:	6cd010ef          	jal	ra,22818 <crcu16>
   20950:	06a41023          	sh	a0,96(s0)
   20954:	00049463          	bnez	s1,2095c <iterate+0x60>
   20958:	06a41123          	sh	a0,98(s0)
   2095c:	0014849b          	addiw	s1,s1,1
   20960:	fc9912e3          	bne	s2,s1,20924 <iterate+0x28>
   20964:	01813083          	ld	ra,24(sp)
   20968:	01013403          	ld	s0,16(sp)
   2096c:	00813483          	ld	s1,8(sp)
   20970:	00013903          	ld	s2,0(sp)
   20974:	00000513          	li	a0,0
   20978:	02010113          	addi	sp,sp,32
   2097c:	00008067          	ret

0000000000020980 <COREMARK>:
   20980:	81010113          	addi	sp,sp,-2032
   20984:	7e113423          	sd	ra,2024(sp)
   20988:	7e813023          	sd	s0,2016(sp)
   2098c:	7b813023          	sd	s8,1952(sp)
   20990:	7c913c23          	sd	s1,2008(sp)
   20994:	7d213823          	sd	s2,2000(sp)
   20998:	7d313423          	sd	s3,1992(sp)
   2099c:	7d413023          	sd	s4,1984(sp)
   209a0:	7b513c23          	sd	s5,1976(sp)
   209a4:	7b613823          	sd	s6,1968(sp)
   209a8:	7b713423          	sd	s7,1960(sp)
   209ac:	79913c23          	sd	s9,1944(sp)
   209b0:	79a13823          	sd	s10,1936(sp)
   209b4:	79b13423          	sd	s11,1928(sp)
   209b8:	000016b7          	lui	a3,0x1
   209bc:	f2010113          	addi	sp,sp,-224
   209c0:	85068713          	addi	a4,a3,-1968 # 850 <trap_entry+0x78c>
   209c4:	01010613          	addi	a2,sp,16
   209c8:	00c70733          	add	a4,a4,a2
   209cc:	fffff7b7          	lui	a5,0xfffff
   209d0:	00f70433          	add	s0,a4,a5
   209d4:	85068713          	addi	a4,a3,-1968
   209d8:	01010693          	addi	a3,sp,16
   209dc:	7bc78793          	addi	a5,a5,1980 # fffffffffffff7bc <_end+0xfffffffffffd4fcc>
   209e0:	00d70733          	add	a4,a4,a3
   209e4:	08a10c13          	addi	s8,sp,138
   209e8:	00058613          	mv	a2,a1
   209ec:	7aa42e23          	sw	a0,1980(s0)
   209f0:	00f705b3          	add	a1,a4,a5
   209f4:	000c0513          	mv	a0,s8
   209f8:	5f8010ef          	jal	ra,21ff0 <portable_init>
   209fc:	00100513          	li	a0,1
   20a00:	549010ef          	jal	ra,22748 <get_seed_32>
   20a04:	7ca41023          	sh	a0,1984(s0)
   20a08:	00200513          	li	a0,2
   20a0c:	53d010ef          	jal	ra,22748 <get_seed_32>
   20a10:	7ca41123          	sh	a0,1986(s0)
   20a14:	00300513          	li	a0,3
   20a18:	531010ef          	jal	ra,22748 <get_seed_32>
   20a1c:	7ca41223          	sh	a0,1988(s0)
   20a20:	00400513          	li	a0,4
   20a24:	525010ef          	jal	ra,22748 <get_seed_32>
   20a28:	00100793          	li	a5,1
   20a2c:	00500513          	li	a0,5
   20a30:	7ef42623          	sw	a5,2028(s0)
   20a34:	515010ef          	jal	ra,22748 <get_seed_32>
   20a38:	0005051b          	sext.w	a0,a0
   20a3c:	020504e3          	beqz	a0,21264 <COREMARK+0x8e4>
   20a40:	7ea42823          	sw	a0,2032(s0)
   20a44:	00001737          	lui	a4,0x1
   20a48:	01010693          	addi	a3,sp,16
   20a4c:	85070713          	addi	a4,a4,-1968 # 850 <trap_entry+0x78c>
   20a50:	00d70733          	add	a4,a4,a3
   20a54:	fffff7b7          	lui	a5,0xfffff
   20a58:	00f707b3          	add	a5,a4,a5
   20a5c:	7c07b703          	ld	a4,1984(a5) # fffffffffffff7c0 <_end+0xfffffffffffd4fd0>
   20a60:	01071693          	slli	a3,a4,0x10
   20a64:	00069863          	bnez	a3,20a74 <COREMARK+0xf4>
   20a68:	06600713          	li	a4,102
   20a6c:	7c07a023          	sw	zero,1984(a5)
   20a70:	7ce79223          	sh	a4,1988(a5)
   20a74:	00001737          	lui	a4,0x1
   20a78:	01010693          	addi	a3,sp,16
   20a7c:	85070713          	addi	a4,a4,-1968 # 850 <trap_entry+0x78c>
   20a80:	00d70733          	add	a4,a4,a3
   20a84:	fffff7b7          	lui	a5,0xfffff
   20a88:	00f707b3          	add	a5,a4,a5
   20a8c:	7c07b703          	ld	a4,1984(a5) # fffffffffffff7c0 <_end+0xfffffffffffd4fd0>
   20a90:	00100693          	li	a3,1
   20a94:	01071713          	slli	a4,a4,0x10
   20a98:	01075713          	srli	a4,a4,0x10
   20a9c:	00d71c63          	bne	a4,a3,20ab4 <COREMARK+0x134>
   20aa0:	34153737          	lui	a4,0x34153
   20aa4:	4157071b          	addiw	a4,a4,1045
   20aa8:	7ce7a023          	sw	a4,1984(a5)
   20aac:	06600713          	li	a4,102
   20ab0:	7ce79223          	sh	a4,1988(a5)
   20ab4:	000017b7          	lui	a5,0x1
   20ab8:	01010693          	addi	a3,sp,16
   20abc:	85078793          	addi	a5,a5,-1968 # 850 <trap_entry+0x78c>
   20ac0:	00d787b3          	add	a5,a5,a3
   20ac4:	fffff737          	lui	a4,0xfffff
   20ac8:	00e78733          	add	a4,a5,a4
   20acc:	7f072783          	lw	a5,2032(a4) # fffffffffffff7f0 <_end+0xfffffffffffd5000>
   20ad0:	09010693          	addi	a3,sp,144
   20ad4:	7cd73423          	sd	a3,1992(a4)
   20ad8:	0017f313          	andi	t1,a5,1
   20adc:	08011423          	sh	zero,136(sp)
   20ae0:	0027f813          	andi	a6,a5,2
   20ae4:	00030713          	mv	a4,t1
   20ae8:	00080863          	beqz	a6,20af8 <COREMARK+0x178>
   20aec:	0013071b          	addiw	a4,t1,1
   20af0:	03071713          	slli	a4,a4,0x30
   20af4:	03075713          	srli	a4,a4,0x30
   20af8:	0047f693          	andi	a3,a5,4
   20afc:	00068863          	beqz	a3,20b0c <COREMARK+0x18c>
   20b00:	0017071b          	addiw	a4,a4,1
   20b04:	03071713          	slli	a4,a4,0x30
   20b08:	03075713          	srli	a4,a4,0x30
   20b0c:	7d000593          	li	a1,2000
   20b10:	02e5d5bb          	divuw	a1,a1,a4
   20b14:	00001537          	lui	a0,0x1
   20b18:	85050693          	addi	a3,a0,-1968 # 850 <trap_entry+0x78c>
   20b1c:	01010613          	addi	a2,sp,16
   20b20:	00c686b3          	add	a3,a3,a2
   20b24:	fffff737          	lui	a4,0xfffff
   20b28:	01010e13          	addi	t3,sp,16
   20b2c:	85050513          	addi	a0,a0,-1968
   20b30:	00e688b3          	add	a7,a3,a4
   20b34:	01c50533          	add	a0,a0,t3
   20b38:	7c070713          	addi	a4,a4,1984 # fffffffffffff7c0 <_end+0xfffffffffffd4fd0>
   20b3c:	00e50733          	add	a4,a0,a4
   20b40:	00000613          	li	a2,0
   20b44:	00000693          	li	a3,0
   20b48:	00100f13          	li	t5,1
   20b4c:	00088e93          	mv	t4,a7
   20b50:	00300e13          	li	t3,3
   20b54:	0005851b          	sext.w	a0,a1
   20b58:	7eb8a423          	sw	a1,2024(a7)
   20b5c:	00cf15bb          	sllw	a1,t5,a2
   20b60:	00b7f5b3          	and	a1,a5,a1
   20b64:	0005859b          	sext.w	a1,a1
   20b68:	34059a63          	bnez	a1,20ebc <COREMARK+0x53c>
   20b6c:	00160613          	addi	a2,a2,1
   20b70:	ffc616e3          	bne	a2,t3,20b5c <COREMARK+0x1dc>
   20b74:	2c031863          	bnez	t1,20e44 <COREMARK+0x4c4>
   20b78:	30081063          	bnez	a6,20e78 <COREMARK+0x4f8>
   20b7c:	0047f793          	andi	a5,a5,4
   20b80:	02078663          	beqz	a5,20bac <COREMARK+0x22c>
   20b84:	00001737          	lui	a4,0x1
   20b88:	85070713          	addi	a4,a4,-1968 # 850 <trap_entry+0x78c>
   20b8c:	01010693          	addi	a3,sp,16
   20b90:	fffff7b7          	lui	a5,0xfffff
   20b94:	00d70733          	add	a4,a4,a3
   20b98:	00f707b3          	add	a5,a4,a5
   20b9c:	7e07b603          	ld	a2,2016(a5) # fffffffffffff7e0 <_end+0xfffffffffffd4ff0>
   20ba0:	7c079583          	lh	a1,1984(a5)
   20ba4:	7e87a503          	lw	a0,2024(a5)
   20ba8:	45c010ef          	jal	ra,22004 <core_init_state>
   20bac:	000016b7          	lui	a3,0x1
   20bb0:	85068713          	addi	a4,a3,-1968 # 850 <trap_entry+0x78c>
   20bb4:	01010613          	addi	a2,sp,16
   20bb8:	00c70733          	add	a4,a4,a2
   20bbc:	fffff7b7          	lui	a5,0xfffff
   20bc0:	00f70433          	add	s0,a4,a5
   20bc4:	7ec42703          	lw	a4,2028(s0)
   20bc8:	06071463          	bnez	a4,20c30 <COREMARK+0x2b0>
   20bcc:	00100713          	li	a4,1
   20bd0:	7ee42623          	sw	a4,2028(s0)
   20bd4:	85068713          	addi	a4,a3,-1968
   20bd8:	7c078793          	addi	a5,a5,1984 # fffffffffffff7c0 <_end+0xfffffffffffd4fd0>
   20bdc:	00c70733          	add	a4,a4,a2
   20be0:	00f704b3          	add	s1,a4,a5
   20be4:	7ec42703          	lw	a4,2028(s0)
   20be8:	0027179b          	slliw	a5,a4,0x2
   20bec:	00e787bb          	addw	a5,a5,a4
   20bf0:	0017979b          	slliw	a5,a5,0x1
   20bf4:	7ef42623          	sw	a5,2028(s0)
   20bf8:	390010ef          	jal	ra,21f88 <start_time>
   20bfc:	00048513          	mv	a0,s1
   20c00:	cfdff0ef          	jal	ra,208fc <iterate>
   20c04:	3a4010ef          	jal	ra,21fa8 <stop_time>
   20c08:	3c0010ef          	jal	ra,21fc8 <get_time>
   20c0c:	3d4010ef          	jal	ra,21fe0 <time_in_secs>
   20c10:	0005051b          	sext.w	a0,a0
   20c14:	fc0508e3          	beqz	a0,20be4 <COREMARK+0x264>
   20c18:	00a00793          	li	a5,10
   20c1c:	02a7d7bb          	divuw	a5,a5,a0
   20c20:	7ec42703          	lw	a4,2028(s0)
   20c24:	0017879b          	addiw	a5,a5,1
   20c28:	02e787bb          	mulw	a5,a5,a4
   20c2c:	7ef42623          	sw	a5,2028(s0)
   20c30:	358010ef          	jal	ra,21f88 <start_time>
   20c34:	000014b7          	lui	s1,0x1
   20c38:	01010713          	addi	a4,sp,16
   20c3c:	fffff437          	lui	s0,0xfffff
   20c40:	85048793          	addi	a5,s1,-1968 # 850 <trap_entry+0x78c>
   20c44:	00e787b3          	add	a5,a5,a4
   20c48:	7c040513          	addi	a0,s0,1984 # fffffffffffff7c0 <_end+0xfffffffffffd4fd0>
   20c4c:	00a78533          	add	a0,a5,a0
   20c50:	cadff0ef          	jal	ra,208fc <iterate>
   20c54:	354010ef          	jal	ra,21fa8 <stop_time>
   20c58:	370010ef          	jal	ra,21fc8 <get_time>
   20c5c:	01010713          	addi	a4,sp,16
   20c60:	85048793          	addi	a5,s1,-1968
   20c64:	00e787b3          	add	a5,a5,a4
   20c68:	00878433          	add	s0,a5,s0
   20c6c:	00050993          	mv	s3,a0
   20c70:	7c041503          	lh	a0,1984(s0)
   20c74:	00000593          	li	a1,0
   20c78:	455010ef          	jal	ra,228cc <crc16>
   20c7c:	00050593          	mv	a1,a0
   20c80:	7c241503          	lh	a0,1986(s0)
   20c84:	449010ef          	jal	ra,228cc <crc16>
   20c88:	00050593          	mv	a1,a0
   20c8c:	7c441503          	lh	a0,1988(s0)
   20c90:	43d010ef          	jal	ra,228cc <crc16>
   20c94:	00050593          	mv	a1,a0
   20c98:	7e841503          	lh	a0,2024(s0)
   20c9c:	431010ef          	jal	ra,228cc <crc16>
   20ca0:	000087b7          	lui	a5,0x8
   20ca4:	0005091b          	sext.w	s2,a0
   20ca8:	b0578793          	addi	a5,a5,-1275 # 7b05 <trap_entry+0x7a41>
   20cac:	6ef90063          	beq	s2,a5,2138c <COREMARK+0xa0c>
   20cb0:	5927f463          	bgeu	a5,s2,21238 <COREMARK+0x8b8>
   20cb4:	000097b7          	lui	a5,0x9
   20cb8:	a0278793          	addi	a5,a5,-1534 # 8a02 <trap_entry+0x893e>
   20cbc:	6ef90263          	beq	s2,a5,213a0 <COREMARK+0xa20>
   20cc0:	0000f7b7          	lui	a5,0xf
   20cc4:	9f578793          	addi	a5,a5,-1547 # e9f5 <trap_entry+0xe931>
   20cc8:	24f91663          	bne	s2,a5,20f14 <COREMARK+0x594>
   20ccc:	00003517          	auipc	a0,0x3
   20cd0:	06c50513          	addi	a0,a0,108 # 23d38 <vm_boot+0x2c8>
   20cd4:	649010ef          	jal	ra,22b1c <printf>
   20cd8:	00300493          	li	s1,3
   20cdc:	00004417          	auipc	s0,0x4
   20ce0:	91443403          	ld	s0,-1772(s0) # 245f0 <_GLOBAL_OFFSET_TABLE_+0x38>
   20ce4:	00042783          	lw	a5,0(s0)
   20ce8:	0004849b          	sext.w	s1,s1
   20cec:	22078e63          	beqz	a5,20f28 <COREMARK+0x5a8>
   20cf0:	00001737          	lui	a4,0x1
   20cf4:	85070713          	addi	a4,a4,-1968 # 850 <trap_entry+0x78c>
   20cf8:	01010693          	addi	a3,sp,16
   20cfc:	00149793          	slli	a5,s1,0x1
   20d00:	fffffa37          	lui	s4,0xfffff
   20d04:	00d70733          	add	a4,a4,a3
   20d08:	00004a97          	auipc	s5,0x4
   20d0c:	850a8a93          	addi	s5,s5,-1968 # 24558 <list_known_crc>
   20d10:	00000c93          	li	s9,0
   20d14:	00000b13          	li	s6,0
   20d18:	00000d13          	li	s10,0
   20d1c:	01470a33          	add	s4,a4,s4
   20d20:	00001bb7          	lui	s7,0x1
   20d24:	00fa8ab3          	add	s5,s5,a5
   20d28:	0440006f          	j	20d6c <COREMARK+0x3ec>
   20d2c:	41ad87b3          	sub	a5,s11,s10
   20d30:	00479793          	slli	a5,a5,0x4
   20d34:	00fa07b3          	add	a5,s4,a5
   20d38:	00fb87b3          	add	a5,s7,a5
   20d3c:	8287d783          	lhu	a5,-2008(a5)
   20d40:	00fc87bb          	addw	a5,s9,a5
   20d44:	001b0b1b          	addiw	s6,s6,1
   20d48:	030b1b13          	slli	s6,s6,0x30
   20d4c:	03079793          	slli	a5,a5,0x30
   20d50:	00042703          	lw	a4,0(s0)
   20d54:	030b5b13          	srli	s6,s6,0x30
   20d58:	0307d793          	srli	a5,a5,0x30
   20d5c:	01079c9b          	slliw	s9,a5,0x10
   20d60:	000b0d1b          	sext.w	s10,s6
   20d64:	410cdc9b          	sraiw	s9,s9,0x10
   20d68:	1ced7063          	bgeu	s10,a4,20f28 <COREMARK+0x5a8>
   20d6c:	003d1d93          	slli	s11,s10,0x3
   20d70:	41ad8733          	sub	a4,s11,s10
   20d74:	00471713          	slli	a4,a4,0x4
   20d78:	00ea0733          	add	a4,s4,a4
   20d7c:	7f072683          	lw	a3,2032(a4)
   20d80:	00eb8733          	add	a4,s7,a4
   20d84:	82071423          	sh	zero,-2008(a4)
   20d88:	0016f693          	andi	a3,a3,1
   20d8c:	02068a63          	beqz	a3,20dc0 <COREMARK+0x440>
   20d90:	82275603          	lhu	a2,-2014(a4)
   20d94:	000ad683          	lhu	a3,0(s5)
   20d98:	00e13423          	sd	a4,8(sp)
   20d9c:	02d60263          	beq	a2,a3,20dc0 <COREMARK+0x440>
   20da0:	000d0593          	mv	a1,s10
   20da4:	00003517          	auipc	a0,0x3
   20da8:	ff450513          	addi	a0,a0,-12 # 23d98 <vm_boot+0x328>
   20dac:	571010ef          	jal	ra,22b1c <printf>
   20db0:	00813703          	ld	a4,8(sp)
   20db4:	82875683          	lhu	a3,-2008(a4)
   20db8:	0016869b          	addiw	a3,a3,1
   20dbc:	82d71423          	sh	a3,-2008(a4)
   20dc0:	41ad8733          	sub	a4,s11,s10
   20dc4:	00471713          	slli	a4,a4,0x4
   20dc8:	00ea0733          	add	a4,s4,a4
   20dcc:	7f072583          	lw	a1,2032(a4)
   20dd0:	0025f693          	andi	a3,a1,2
   20dd4:	04068263          	beqz	a3,20e18 <COREMARK+0x498>
   20dd8:	00eb88b3          	add	a7,s7,a4
   20ddc:	8248d603          	lhu	a2,-2012(a7)
   20de0:	010ad683          	lhu	a3,16(s5)
   20de4:	00e13823          	sd	a4,16(sp)
   20de8:	01113423          	sd	a7,8(sp)
   20dec:	02d60663          	beq	a2,a3,20e18 <COREMARK+0x498>
   20df0:	000d0593          	mv	a1,s10
   20df4:	00003517          	auipc	a0,0x3
   20df8:	fd450513          	addi	a0,a0,-44 # 23dc8 <vm_boot+0x358>
   20dfc:	521010ef          	jal	ra,22b1c <printf>
   20e00:	00813883          	ld	a7,8(sp)
   20e04:	01013703          	ld	a4,16(sp)
   20e08:	8288d683          	lhu	a3,-2008(a7)
   20e0c:	7f072583          	lw	a1,2032(a4)
   20e10:	0016871b          	addiw	a4,a3,1
   20e14:	82e89423          	sh	a4,-2008(a7)
   20e18:	0045f593          	andi	a1,a1,4
   20e1c:	f00588e3          	beqz	a1,20d2c <COREMARK+0x3ac>
   20e20:	41ad8733          	sub	a4,s11,s10
   20e24:	00471713          	slli	a4,a4,0x4
   20e28:	00ea0733          	add	a4,s4,a4
   20e2c:	00eb8733          	add	a4,s7,a4
   20e30:	82675603          	lhu	a2,-2010(a4)
   20e34:	020ad683          	lhu	a3,32(s5)
   20e38:	0ad61663          	bne	a2,a3,20ee4 <COREMARK+0x564>
   20e3c:	82875783          	lhu	a5,-2008(a4)
   20e40:	f01ff06f          	j	20d40 <COREMARK+0x3c0>
   20e44:	000017b7          	lui	a5,0x1
   20e48:	01010713          	addi	a4,sp,16
   20e4c:	85078793          	addi	a5,a5,-1968 # 850 <trap_entry+0x78c>
   20e50:	00e787b3          	add	a5,a5,a4
   20e54:	fffff437          	lui	s0,0xfffff
   20e58:	00878433          	add	s0,a5,s0
   20e5c:	7c041603          	lh	a2,1984(s0) # fffffffffffff7c0 <_end+0xfffffffffffd4fd0>
   20e60:	7d043583          	ld	a1,2000(s0)
   20e64:	8a1ff0ef          	jal	ra,20704 <core_list_init>
   20e68:	7f042783          	lw	a5,2032(s0)
   20e6c:	7ea43c23          	sd	a0,2040(s0)
   20e70:	0027f813          	andi	a6,a5,2
   20e74:	d00804e3          	beqz	a6,20b7c <COREMARK+0x1fc>
   20e78:	000017b7          	lui	a5,0x1
   20e7c:	01010713          	addi	a4,sp,16
   20e80:	85078793          	addi	a5,a5,-1968 # 850 <trap_entry+0x78c>
   20e84:	00e787b3          	add	a5,a5,a4
   20e88:	fffff437          	lui	s0,0xfffff
   20e8c:	00878433          	add	s0,a5,s0
   20e90:	7c241603          	lh	a2,1986(s0) # fffffffffffff7c2 <_end+0xfffffffffffd4fd2>
   20e94:	7c041783          	lh	a5,1984(s0)
   20e98:	7d843583          	ld	a1,2008(s0)
   20e9c:	0106161b          	slliw	a2,a2,0x10
   20ea0:	7e842503          	lw	a0,2024(s0)
   20ea4:	00f66633          	or	a2,a2,a5
   20ea8:	06010693          	addi	a3,sp,96
   20eac:	0006061b          	sext.w	a2,a2
   20eb0:	6fc000ef          	jal	ra,215ac <core_init_matrix>
   20eb4:	7f042783          	lw	a5,2032(s0)
   20eb8:	cc5ff06f          	j	20b7c <COREMARK+0x1fc>
   20ebc:	02a68fb3          	mul	t6,a3,a0
   20ec0:	7c8eb883          	ld	a7,1992(t4)
   20ec4:	00361593          	slli	a1,a2,0x3
   20ec8:	0016869b          	addiw	a3,a3,1
   20ecc:	00b705b3          	add	a1,a4,a1
   20ed0:	03069693          	slli	a3,a3,0x30
   20ed4:	0306d693          	srli	a3,a3,0x30
   20ed8:	01f888b3          	add	a7,a7,t6
   20edc:	0115b823          	sd	a7,16(a1)
   20ee0:	c8dff06f          	j	20b6c <COREMARK+0x1ec>
   20ee4:	000d0593          	mv	a1,s10
   20ee8:	00003517          	auipc	a0,0x3
   20eec:	f1850513          	addi	a0,a0,-232 # 23e00 <vm_boot+0x390>
   20ef0:	00e13423          	sd	a4,8(sp)
   20ef4:	429010ef          	jal	ra,22b1c <printf>
   20ef8:	00813703          	ld	a4,8(sp)
   20efc:	82875783          	lhu	a5,-2008(a4)
   20f00:	0017879b          	addiw	a5,a5,1
   20f04:	03079793          	slli	a5,a5,0x30
   20f08:	0307d793          	srli	a5,a5,0x30
   20f0c:	82f71423          	sh	a5,-2008(a4)
   20f10:	e31ff06f          	j	20d40 <COREMARK+0x3c0>
   20f14:	000107b7          	lui	a5,0x10
   20f18:	fff78793          	addi	a5,a5,-1 # ffff <trap_entry+0xff3b>
   20f1c:	fff00493          	li	s1,-1
   20f20:	00003417          	auipc	s0,0x3
   20f24:	6d043403          	ld	s0,1744(s0) # 245f0 <_GLOBAL_OFFSET_TABLE_+0x38>
   20f28:	00f13423          	sd	a5,8(sp)
   20f2c:	1ad010ef          	jal	ra,228d8 <check_data_types>
   20f30:	000017b7          	lui	a5,0x1
   20f34:	01010713          	addi	a4,sp,16
   20f38:	85078793          	addi	a5,a5,-1968 # 850 <trap_entry+0x78c>
   20f3c:	00e787b3          	add	a5,a5,a4
   20f40:	fffffab7          	lui	s5,0xfffff
   20f44:	01578ab3          	add	s5,a5,s5
   20f48:	00813783          	ld	a5,8(sp)
   20f4c:	7e8aa583          	lw	a1,2024(s5) # fffffffffffff7e8 <_end+0xfffffffffffd4ff8>
   20f50:	3e800c93          	li	s9,1000
   20f54:	00f50a3b          	addw	s4,a0,a5
   20f58:	00003517          	auipc	a0,0x3
   20f5c:	ed850513          	addi	a0,a0,-296 # 23e30 <vm_boot+0x3c0>
   20f60:	3bd010ef          	jal	ra,22b1c <printf>
   20f64:	0009859b          	sext.w	a1,s3
   20f68:	00003517          	auipc	a0,0x3
   20f6c:	ee050513          	addi	a0,a0,-288 # 23e48 <vm_boot+0x3d8>
   20f70:	3ad010ef          	jal	ra,22b1c <printf>
   20f74:	00098513          	mv	a0,s3
   20f78:	068010ef          	jal	ra,21fe0 <time_in_secs>
   20f7c:	039505bb          	mulw	a1,a0,s9
   20f80:	00a00b13          	li	s6,10
   20f84:	06400b93          	li	s7,100
   20f88:	00003517          	auipc	a0,0x3
   20f8c:	ed850513          	addi	a0,a0,-296 # 23e60 <vm_boot+0x3f0>
   20f90:	030a1a13          	slli	s4,s4,0x30
   20f94:	030a5a13          	srli	s4,s4,0x30
   20f98:	0365c6bb          	divw	a3,a1,s6
   20f9c:	0375c63b          	divw	a2,a1,s7
   20fa0:	0365e73b          	remw	a4,a1,s6
   20fa4:	0366e6bb          	remw	a3,a3,s6
   20fa8:	0366663b          	remw	a2,a2,s6
   20fac:	0395c5bb          	divw	a1,a1,s9
   20fb0:	36d010ef          	jal	ra,22b1c <printf>
   20fb4:	00098513          	mv	a0,s3
   20fb8:	028010ef          	jal	ra,21fe0 <time_in_secs>
   20fbc:	0005051b          	sext.w	a0,a0
   20fc0:	38051463          	bnez	a0,21348 <COREMARK+0x9c8>
   20fc4:	00098513          	mv	a0,s3
   20fc8:	018010ef          	jal	ra,21fe0 <time_in_secs>
   20fcc:	0005051b          	sext.w	a0,a0
   20fd0:	00900793          	li	a5,9
   20fd4:	36a7f063          	bgeu	a5,a0,21334 <COREMARK+0x9b4>
   20fd8:	000017b7          	lui	a5,0x1
   20fdc:	01010713          	addi	a4,sp,16
   20fe0:	85078793          	addi	a5,a5,-1968 # 850 <trap_entry+0x78c>
   20fe4:	00e787b3          	add	a5,a5,a4
   20fe8:	fffffab7          	lui	s5,0xfffff
   20fec:	01578ab3          	add	s5,a5,s5
   20ff0:	7ecaa583          	lw	a1,2028(s5) # fffffffffffff7ec <_end+0xfffffffffffd4ffc>
   20ff4:	00042783          	lw	a5,0(s0)
   20ff8:	00003517          	auipc	a0,0x3
   20ffc:	ee850513          	addi	a0,a0,-280 # 23ee0 <vm_boot+0x470>
   21000:	010a1a1b          	slliw	s4,s4,0x10
   21004:	02f585bb          	mulw	a1,a1,a5
   21008:	410a5a1b          	sraiw	s4,s4,0x10
   2100c:	311010ef          	jal	ra,22b1c <printf>
   21010:	00003597          	auipc	a1,0x3
   21014:	ee858593          	addi	a1,a1,-280 # 23ef8 <vm_boot+0x488>
   21018:	00003517          	auipc	a0,0x3
   2101c:	f0050513          	addi	a0,a0,-256 # 23f18 <vm_boot+0x4a8>
   21020:	2fd010ef          	jal	ra,22b1c <printf>
   21024:	00003597          	auipc	a1,0x3
   21028:	f0c58593          	addi	a1,a1,-244 # 23f30 <vm_boot+0x4c0>
   2102c:	00003517          	auipc	a0,0x3
   21030:	f0c50513          	addi	a0,a0,-244 # 23f38 <vm_boot+0x4c8>
   21034:	2e9010ef          	jal	ra,22b1c <printf>
   21038:	00003517          	auipc	a0,0x3
   2103c:	f2050513          	addi	a0,a0,-224 # 23f58 <vm_boot+0x4e8>
   21040:	00003597          	auipc	a1,0x3
   21044:	f1058593          	addi	a1,a1,-240 # 23f50 <vm_boot+0x4e0>
   21048:	2d5010ef          	jal	ra,22b1c <printf>
   2104c:	00090593          	mv	a1,s2
   21050:	00003517          	auipc	a0,0x3
   21054:	f2050513          	addi	a0,a0,-224 # 23f70 <vm_boot+0x500>
   21058:	2c5010ef          	jal	ra,22b1c <printf>
   2105c:	7f0aa783          	lw	a5,2032(s5)
   21060:	0017f793          	andi	a5,a5,1
   21064:	04078c63          	beqz	a5,210bc <COREMARK+0x73c>
   21068:	00042783          	lw	a5,0(s0)
   2106c:	04078863          	beqz	a5,210bc <COREMARK+0x73c>
   21070:	00000913          	li	s2,0
   21074:	00000593          	li	a1,0
   21078:	00001bb7          	lui	s7,0x1
   2107c:	00003b17          	auipc	s6,0x3
   21080:	f14b0b13          	addi	s6,s6,-236 # 23f90 <vm_boot+0x520>
   21084:	00359793          	slli	a5,a1,0x3
   21088:	40b787b3          	sub	a5,a5,a1
   2108c:	00479793          	slli	a5,a5,0x4
   21090:	00fa87b3          	add	a5,s5,a5
   21094:	00fb87b3          	add	a5,s7,a5
   21098:	8227d603          	lhu	a2,-2014(a5)
   2109c:	000b0513          	mv	a0,s6
   210a0:	0019091b          	addiw	s2,s2,1
   210a4:	279010ef          	jal	ra,22b1c <printf>
   210a8:	03091913          	slli	s2,s2,0x30
   210ac:	00042783          	lw	a5,0(s0)
   210b0:	03095913          	srli	s2,s2,0x30
   210b4:	0009059b          	sext.w	a1,s2
   210b8:	fcf5e6e3          	bltu	a1,a5,21084 <COREMARK+0x704>
   210bc:	00001737          	lui	a4,0x1
   210c0:	01010693          	addi	a3,sp,16
   210c4:	85070713          	addi	a4,a4,-1968 # 850 <trap_entry+0x78c>
   210c8:	00d70733          	add	a4,a4,a3
   210cc:	fffff7b7          	lui	a5,0xfffff
   210d0:	00f707b3          	add	a5,a4,a5
   210d4:	7f07a703          	lw	a4,2032(a5) # fffffffffffff7f0 <_end+0xfffffffffffd5000>
   210d8:	00277693          	andi	a3,a4,2
   210dc:	04068e63          	beqz	a3,21138 <COREMARK+0x7b8>
   210e0:	00042683          	lw	a3,0(s0)
   210e4:	2e068263          	beqz	a3,213c8 <COREMARK+0xa48>
   210e8:	00000a93          	li	s5,0
   210ec:	00000593          	li	a1,0
   210f0:	00078913          	mv	s2,a5
   210f4:	00001bb7          	lui	s7,0x1
   210f8:	00003b17          	auipc	s6,0x3
   210fc:	eb8b0b13          	addi	s6,s6,-328 # 23fb0 <vm_boot+0x540>
   21100:	00359793          	slli	a5,a1,0x3
   21104:	40b787b3          	sub	a5,a5,a1
   21108:	00479793          	slli	a5,a5,0x4
   2110c:	00f907b3          	add	a5,s2,a5
   21110:	00fb87b3          	add	a5,s7,a5
   21114:	8247d603          	lhu	a2,-2012(a5)
   21118:	000b0513          	mv	a0,s6
   2111c:	001a8a9b          	addiw	s5,s5,1
   21120:	1fd010ef          	jal	ra,22b1c <printf>
   21124:	030a9a93          	slli	s5,s5,0x30
   21128:	00042783          	lw	a5,0(s0)
   2112c:	030ada93          	srli	s5,s5,0x30
   21130:	000a859b          	sext.w	a1,s5
   21134:	fcf5e6e3          	bltu	a1,a5,21100 <COREMARK+0x780>
   21138:	00001737          	lui	a4,0x1
   2113c:	85070713          	addi	a4,a4,-1968 # 850 <trap_entry+0x78c>
   21140:	01010693          	addi	a3,sp,16
   21144:	00d70733          	add	a4,a4,a3
   21148:	fffff7b7          	lui	a5,0xfffff
   2114c:	00f707b3          	add	a5,a4,a5
   21150:	7f07a703          	lw	a4,2032(a5) # fffffffffffff7f0 <_end+0xfffffffffffd5000>
   21154:	00477713          	andi	a4,a4,4
   21158:	04070e63          	beqz	a4,211b4 <COREMARK+0x834>
   2115c:	00042703          	lw	a4,0(s0)
   21160:	00000a93          	li	s5,0
   21164:	00000593          	li	a1,0
   21168:	0a070c63          	beqz	a4,21220 <COREMARK+0x8a0>
   2116c:	00078913          	mv	s2,a5
   21170:	00001bb7          	lui	s7,0x1
   21174:	00003b17          	auipc	s6,0x3
   21178:	e5cb0b13          	addi	s6,s6,-420 # 23fd0 <vm_boot+0x560>
   2117c:	00359793          	slli	a5,a1,0x3
   21180:	40b787b3          	sub	a5,a5,a1
   21184:	00479793          	slli	a5,a5,0x4
   21188:	00f907b3          	add	a5,s2,a5
   2118c:	00fb87b3          	add	a5,s7,a5
   21190:	8267d603          	lhu	a2,-2010(a5)
   21194:	000b0513          	mv	a0,s6
   21198:	001a8a9b          	addiw	s5,s5,1
   2119c:	181010ef          	jal	ra,22b1c <printf>
   211a0:	030a9a93          	slli	s5,s5,0x30
   211a4:	00042783          	lw	a5,0(s0)
   211a8:	030ada93          	srli	s5,s5,0x30
   211ac:	000a859b          	sext.w	a1,s5
   211b0:	fcf5e6e3          	bltu	a1,a5,2117c <COREMARK+0x7fc>
   211b4:	00042783          	lw	a5,0(s0)
   211b8:	00000913          	li	s2,0
   211bc:	00000593          	li	a1,0
   211c0:	06078063          	beqz	a5,21220 <COREMARK+0x8a0>
   211c4:	000017b7          	lui	a5,0x1
   211c8:	85078793          	addi	a5,a5,-1968 # 850 <trap_entry+0x78c>
   211cc:	01010713          	addi	a4,sp,16
   211d0:	fffffab7          	lui	s5,0xfffff
   211d4:	00e787b3          	add	a5,a5,a4
   211d8:	01578ab3          	add	s5,a5,s5
   211dc:	00001bb7          	lui	s7,0x1
   211e0:	00003b17          	auipc	s6,0x3
   211e4:	e10b0b13          	addi	s6,s6,-496 # 23ff0 <vm_boot+0x580>
   211e8:	00359793          	slli	a5,a1,0x3
   211ec:	40b787b3          	sub	a5,a5,a1
   211f0:	00479793          	slli	a5,a5,0x4
   211f4:	00fa87b3          	add	a5,s5,a5
   211f8:	00fb87b3          	add	a5,s7,a5
   211fc:	8207d603          	lhu	a2,-2016(a5)
   21200:	000b0513          	mv	a0,s6
   21204:	0019091b          	addiw	s2,s2,1
   21208:	115010ef          	jal	ra,22b1c <printf>
   2120c:	03091913          	slli	s2,s2,0x30
   21210:	00042783          	lw	a5,0(s0)
   21214:	03095913          	srli	s2,s2,0x30
   21218:	0009059b          	sext.w	a1,s2
   2121c:	fcf5e6e3          	bltu	a1,a5,211e8 <COREMARK+0x868>
   21220:	060a0463          	beqz	s4,21288 <COREMARK+0x908>
   21224:	05405663          	blez	s4,21270 <COREMARK+0x8f0>
   21228:	00003517          	auipc	a0,0x3
   2122c:	e6850513          	addi	a0,a0,-408 # 24090 <vm_boot+0x620>
   21230:	0ed010ef          	jal	ra,22b1c <printf>
   21234:	0480006f          	j	2127c <COREMARK+0x8fc>
   21238:	000027b7          	lui	a5,0x2
   2123c:	8f278793          	addi	a5,a5,-1806 # 18f2 <trap_entry+0x182e>
   21240:	16f90a63          	beq	s2,a5,213b4 <COREMARK+0xa34>
   21244:	000057b7          	lui	a5,0x5
   21248:	eaf78793          	addi	a5,a5,-337 # 4eaf <trap_entry+0x4deb>
   2124c:	ccf914e3          	bne	s2,a5,20f14 <COREMARK+0x594>
   21250:	00003517          	auipc	a0,0x3
   21254:	ab050513          	addi	a0,a0,-1360 # 23d00 <vm_boot+0x290>
   21258:	0c5010ef          	jal	ra,22b1c <printf>
   2125c:	00200493          	li	s1,2
   21260:	a7dff06f          	j	20cdc <COREMARK+0x35c>
   21264:	00700793          	li	a5,7
   21268:	7ef42823          	sw	a5,2032(s0)
   2126c:	fd8ff06f          	j	20a44 <COREMARK+0xc4>
   21270:	00003517          	auipc	a0,0x3
   21274:	e3850513          	addi	a0,a0,-456 # 240a8 <vm_boot+0x638>
   21278:	0a5010ef          	jal	ra,22b1c <printf>
   2127c:	000c0513          	mv	a0,s8
   21280:	57d000ef          	jal	ra,21ffc <portable_fini>
   21284:	0000006f          	j	21284 <COREMARK+0x904>
   21288:	00003517          	auipc	a0,0x3
   2128c:	d8850513          	addi	a0,a0,-632 # 24010 <vm_boot+0x5a0>
   21290:	08d010ef          	jal	ra,22b1c <printf>
   21294:	00300793          	li	a5,3
   21298:	fef492e3          	bne	s1,a5,2127c <COREMARK+0x8fc>
   2129c:	00001737          	lui	a4,0x1
   212a0:	01010693          	addi	a3,sp,16
   212a4:	85070713          	addi	a4,a4,-1968 # 850 <trap_entry+0x78c>
   212a8:	00d70733          	add	a4,a4,a3
   212ac:	fffff7b7          	lui	a5,0xfffff
   212b0:	00f707b3          	add	a5,a4,a5
   212b4:	7ec7a783          	lw	a5,2028(a5) # fffffffffffff7ec <_end+0xfffffffffffd4ffc>
   212b8:	00042403          	lw	s0,0(s0)
   212bc:	3e800493          	li	s1,1000
   212c0:	00098513          	mv	a0,s3
   212c4:	0287843b          	mulw	s0,a5,s0
   212c8:	519000ef          	jal	ra,21fe0 <time_in_secs>
   212cc:	00a00613          	li	a2,10
   212d0:	06400893          	li	a7,100
   212d4:	00003817          	auipc	a6,0x3
   212d8:	c5c80813          	addi	a6,a6,-932 # 23f30 <vm_boot+0x4c0>
   212dc:	00003797          	auipc	a5,0x3
   212e0:	c1c78793          	addi	a5,a5,-996 # 23ef8 <vm_boot+0x488>
   212e4:	0294043b          	mulw	s0,s0,s1
   212e8:	02a455bb          	divuw	a1,s0,a0
   212ec:	00003517          	auipc	a0,0x3
   212f0:	d7450513          	addi	a0,a0,-652 # 24060 <vm_boot+0x5f0>
   212f4:	0315c8bb          	divw	a7,a1,a7
   212f8:	02c5c6bb          	divw	a3,a1,a2
   212fc:	02c5e73b          	remw	a4,a1,a2
   21300:	02c6e6bb          	remw	a3,a3,a2
   21304:	0295c5bb          	divw	a1,a1,s1
   21308:	02c8e63b          	remw	a2,a7,a2
   2130c:	011010ef          	jal	ra,22b1c <printf>
   21310:	00003597          	auipc	a1,0x3
   21314:	c4058593          	addi	a1,a1,-960 # 23f50 <vm_boot+0x4e0>
   21318:	00003517          	auipc	a0,0x3
   2131c:	d7050513          	addi	a0,a0,-656 # 24088 <vm_boot+0x618>
   21320:	7fc010ef          	jal	ra,22b1c <printf>
   21324:	00003517          	auipc	a0,0x3
   21328:	1fc50513          	addi	a0,a0,508 # 24520 <vm_boot+0xab0>
   2132c:	7f0010ef          	jal	ra,22b1c <printf>
   21330:	f4dff06f          	j	2127c <COREMARK+0x8fc>
   21334:	00003517          	auipc	a0,0x3
   21338:	b6c50513          	addi	a0,a0,-1172 # 23ea0 <vm_boot+0x430>
   2133c:	7e0010ef          	jal	ra,22b1c <printf>
   21340:	001a0a1b          	addiw	s4,s4,1
   21344:	c95ff06f          	j	20fd8 <COREMARK+0x658>
   21348:	7ecaa583          	lw	a1,2028(s5) # fffffffffffff7ec <_end+0xfffffffffffd4ffc>
   2134c:	00042a83          	lw	s5,0(s0)
   21350:	00098513          	mv	a0,s3
   21354:	035585bb          	mulw	a1,a1,s5
   21358:	03958abb          	mulw	s5,a1,s9
   2135c:	485000ef          	jal	ra,21fe0 <time_in_secs>
   21360:	02aad5bb          	divuw	a1,s5,a0
   21364:	00003517          	auipc	a0,0x3
   21368:	b1c50513          	addi	a0,a0,-1252 # 23e80 <vm_boot+0x410>
   2136c:	0365c6bb          	divw	a3,a1,s6
   21370:	0375c63b          	divw	a2,a1,s7
   21374:	0365e73b          	remw	a4,a1,s6
   21378:	0366e6bb          	remw	a3,a3,s6
   2137c:	0366663b          	remw	a2,a2,s6
   21380:	0395c5bb          	divw	a1,a1,s9
   21384:	798010ef          	jal	ra,22b1c <printf>
   21388:	c3dff06f          	j	20fc4 <COREMARK+0x644>
   2138c:	00003517          	auipc	a0,0x3
   21390:	94450513          	addi	a0,a0,-1724 # 23cd0 <vm_boot+0x260>
   21394:	788010ef          	jal	ra,22b1c <printf>
   21398:	00100493          	li	s1,1
   2139c:	941ff06f          	j	20cdc <COREMARK+0x35c>
   213a0:	00003517          	auipc	a0,0x3
   213a4:	90050513          	addi	a0,a0,-1792 # 23ca0 <vm_boot+0x230>
   213a8:	774010ef          	jal	ra,22b1c <printf>
   213ac:	00000493          	li	s1,0
   213b0:	92dff06f          	j	20cdc <COREMARK+0x35c>
   213b4:	00003517          	auipc	a0,0x3
   213b8:	9b450513          	addi	a0,a0,-1612 # 23d68 <vm_boot+0x2f8>
   213bc:	760010ef          	jal	ra,22b1c <printf>
   213c0:	00400493          	li	s1,4
   213c4:	919ff06f          	j	20cdc <COREMARK+0x35c>
   213c8:	00477713          	andi	a4,a4,4
   213cc:	e4071ae3          	bnez	a4,21220 <COREMARK+0x8a0>
   213d0:	de5ff06f          	j	211b4 <COREMARK+0x834>

00000000000213d4 <printmat>:
   213d4:	fb010113          	addi	sp,sp,-80
   213d8:	01513c23          	sd	s5,24(sp)
   213dc:	00058a93          	mv	s5,a1
   213e0:	03413023          	sd	s4,32(sp)
   213e4:	00060593          	mv	a1,a2
   213e8:	00050a13          	mv	s4,a0
   213ec:	000a8693          	mv	a3,s5
   213f0:	000a8613          	mv	a2,s5
   213f4:	00003517          	auipc	a0,0x3
   213f8:	d3450513          	addi	a0,a0,-716 # 24128 <vm_boot+0x6b8>
   213fc:	04113423          	sd	ra,72(sp)
   21400:	04813023          	sd	s0,64(sp)
   21404:	02913c23          	sd	s1,56(sp)
   21408:	03213823          	sd	s2,48(sp)
   2140c:	03313423          	sd	s3,40(sp)
   21410:	01613823          	sd	s6,16(sp)
   21414:	01713423          	sd	s7,8(sp)
   21418:	01813023          	sd	s8,0(sp)
   2141c:	700010ef          	jal	ra,22b1c <printf>
   21420:	060a8863          	beqz	s5,21490 <printmat+0xbc>
   21424:	000a8493          	mv	s1,s5
   21428:	00000b93          	li	s7,0
   2142c:	00000b13          	li	s6,0
   21430:	00003997          	auipc	s3,0x3
   21434:	d1898993          	addi	s3,s3,-744 # 24148 <vm_boot+0x6d8>
   21438:	00003917          	auipc	s2,0x3
   2143c:	d0890913          	addi	s2,s2,-760 # 24140 <vm_boot+0x6d0>
   21440:	00003c17          	auipc	s8,0x3
   21444:	0e0c0c13          	addi	s8,s8,224 # 24520 <vm_boot+0xab0>
   21448:	000b8413          	mv	s0,s7
   2144c:	0080006f          	j	21454 <printmat+0x80>
   21450:	6cc010ef          	jal	ra,22b1c <printf>
   21454:	02041793          	slli	a5,s0,0x20
   21458:	01f7d793          	srli	a5,a5,0x1f
   2145c:	00fa07b3          	add	a5,s4,a5
   21460:	00079583          	lh	a1,0(a5)
   21464:	00098513          	mv	a0,s3
   21468:	0014041b          	addiw	s0,s0,1
   2146c:	6b0010ef          	jal	ra,22b1c <printf>
   21470:	00090513          	mv	a0,s2
   21474:	fc849ee3          	bne	s1,s0,21450 <printmat+0x7c>
   21478:	000c0513          	mv	a0,s8
   2147c:	001b0b1b          	addiw	s6,s6,1
   21480:	69c010ef          	jal	ra,22b1c <printf>
   21484:	017a8bbb          	addw	s7,s5,s7
   21488:	009a84bb          	addw	s1,s5,s1
   2148c:	fb6a9ee3          	bne	s5,s6,21448 <printmat+0x74>
   21490:	04813083          	ld	ra,72(sp)
   21494:	04013403          	ld	s0,64(sp)
   21498:	03813483          	ld	s1,56(sp)
   2149c:	03013903          	ld	s2,48(sp)
   214a0:	02813983          	ld	s3,40(sp)
   214a4:	02013a03          	ld	s4,32(sp)
   214a8:	01813a83          	ld	s5,24(sp)
   214ac:	01013b03          	ld	s6,16(sp)
   214b0:	00813b83          	ld	s7,8(sp)
   214b4:	00013c03          	ld	s8,0(sp)
   214b8:	05010113          	addi	sp,sp,80
   214bc:	00008067          	ret

00000000000214c0 <printmatC>:
   214c0:	fb010113          	addi	sp,sp,-80
   214c4:	01513c23          	sd	s5,24(sp)
   214c8:	00058a93          	mv	s5,a1
   214cc:	03413023          	sd	s4,32(sp)
   214d0:	00060593          	mv	a1,a2
   214d4:	00050a13          	mv	s4,a0
   214d8:	000a8693          	mv	a3,s5
   214dc:	000a8613          	mv	a2,s5
   214e0:	00003517          	auipc	a0,0x3
   214e4:	c4850513          	addi	a0,a0,-952 # 24128 <vm_boot+0x6b8>
   214e8:	04113423          	sd	ra,72(sp)
   214ec:	04813023          	sd	s0,64(sp)
   214f0:	02913c23          	sd	s1,56(sp)
   214f4:	03213823          	sd	s2,48(sp)
   214f8:	03313423          	sd	s3,40(sp)
   214fc:	01613823          	sd	s6,16(sp)
   21500:	01713423          	sd	s7,8(sp)
   21504:	01813023          	sd	s8,0(sp)
   21508:	614010ef          	jal	ra,22b1c <printf>
   2150c:	060a8863          	beqz	s5,2157c <printmatC+0xbc>
   21510:	000a8493          	mv	s1,s5
   21514:	00000b93          	li	s7,0
   21518:	00000b13          	li	s6,0
   2151c:	00003997          	auipc	s3,0x3
   21520:	c2c98993          	addi	s3,s3,-980 # 24148 <vm_boot+0x6d8>
   21524:	00003917          	auipc	s2,0x3
   21528:	c1c90913          	addi	s2,s2,-996 # 24140 <vm_boot+0x6d0>
   2152c:	00003c17          	auipc	s8,0x3
   21530:	ff4c0c13          	addi	s8,s8,-12 # 24520 <vm_boot+0xab0>
   21534:	000b8413          	mv	s0,s7
   21538:	0080006f          	j	21540 <printmatC+0x80>
   2153c:	5e0010ef          	jal	ra,22b1c <printf>
   21540:	02041793          	slli	a5,s0,0x20
   21544:	01e7d793          	srli	a5,a5,0x1e
   21548:	00fa07b3          	add	a5,s4,a5
   2154c:	0007a583          	lw	a1,0(a5)
   21550:	00098513          	mv	a0,s3
   21554:	0014041b          	addiw	s0,s0,1
   21558:	5c4010ef          	jal	ra,22b1c <printf>
   2155c:	00090513          	mv	a0,s2
   21560:	fc849ee3          	bne	s1,s0,2153c <printmatC+0x7c>
   21564:	000c0513          	mv	a0,s8
   21568:	001b0b1b          	addiw	s6,s6,1
   2156c:	5b0010ef          	jal	ra,22b1c <printf>
   21570:	017a8bbb          	addw	s7,s5,s7
   21574:	009a84bb          	addw	s1,s5,s1
   21578:	fb6a9ee3          	bne	s5,s6,21534 <printmatC+0x74>
   2157c:	04813083          	ld	ra,72(sp)
   21580:	04013403          	ld	s0,64(sp)
   21584:	03813483          	ld	s1,56(sp)
   21588:	03013903          	ld	s2,48(sp)
   2158c:	02813983          	ld	s3,40(sp)
   21590:	02013a03          	ld	s4,32(sp)
   21594:	01813a83          	ld	s5,24(sp)
   21598:	01013b03          	ld	s6,16(sp)
   2159c:	00813b83          	ld	s7,8(sp)
   215a0:	00013c03          	ld	s8,0(sp)
   215a4:	05010113          	addi	sp,sp,80
   215a8:	00008067          	ret

00000000000215ac <core_init_matrix>:
   215ac:	fe010113          	addi	sp,sp,-32
   215b0:	00113c23          	sd	ra,24(sp)
   215b4:	00813823          	sd	s0,16(sp)
   215b8:	00913423          	sd	s1,8(sp)
   215bc:	00061463          	bnez	a2,215c4 <core_init_matrix+0x18>
   215c0:	00100613          	li	a2,1
   215c4:	fff58493          	addi	s1,a1,-1
   215c8:	ffc4f493          	andi	s1,s1,-4
   215cc:	00448893          	addi	a7,s1,4
   215d0:	00000413          	li	s0,0
   215d4:	00051663          	bnez	a0,215e0 <core_init_matrix+0x34>
   215d8:	1140006f          	j	216ec <core_init_matrix+0x140>
   215dc:	00078413          	mv	s0,a5
   215e0:	0014079b          	addiw	a5,s0,1
   215e4:	02f7873b          	mulw	a4,a5,a5
   215e8:	0037171b          	slliw	a4,a4,0x3
   215ec:	fea768e3          	bltu	a4,a0,215dc <core_init_matrix+0x30>
   215f0:	02840fbb          	mulw	t6,s0,s0
   215f4:	00040e9b          	sext.w	t4,s0
   215f8:	020f9f93          	slli	t6,t6,0x20
   215fc:	01ffdf93          	srli	t6,t6,0x1f
   21600:	01f884b3          	add	s1,a7,t6
   21604:	0e040e63          	beqz	s0,21700 <core_init_matrix+0x154>
   21608:	00010337          	lui	t1,0x10
   2160c:	00000f13          	li	t5,0
   21610:	00000e13          	li	t3,0
   21614:	00100593          	li	a1,1
   21618:	fff30313          	addi	t1,t1,-1 # ffff <trap_entry+0xff3b>
   2161c:	00000813          	li	a6,0
   21620:	40bf02bb          	subw	t0,t5,a1
   21624:	02b6063b          	mulw	a2,a2,a1
   21628:	03059713          	slli	a4,a1,0x30
   2162c:	03075713          	srli	a4,a4,0x30
   21630:	00b287bb          	addw	a5,t0,a1
   21634:	02079793          	slli	a5,a5,0x20
   21638:	01f7d793          	srli	a5,a5,0x1f
   2163c:	00f483b3          	add	t2,s1,a5
   21640:	00f887b3          	add	a5,a7,a5
   21644:	0018081b          	addiw	a6,a6,1
   21648:	0015859b          	addiw	a1,a1,1
   2164c:	41f6551b          	sraiw	a0,a2,0x1f
   21650:	0105551b          	srliw	a0,a0,0x10
   21654:	00a6063b          	addw	a2,a2,a0
   21658:	00667633          	and	a2,a2,t1
   2165c:	40a6063b          	subw	a2,a2,a0
   21660:	00e6053b          	addw	a0,a2,a4
   21664:	03051513          	slli	a0,a0,0x30
   21668:	03055513          	srli	a0,a0,0x30
   2166c:	00e5073b          	addw	a4,a0,a4
   21670:	00a39023          	sh	a0,0(t2)
   21674:	0ff77713          	andi	a4,a4,255
   21678:	00e79023          	sh	a4,0(a5)
   2167c:	fa8864e3          	bltu	a6,s0,21624 <core_init_matrix+0x78>
   21680:	001e0e1b          	addiw	t3,t3,1
   21684:	01e40f3b          	addw	t5,s0,t5
   21688:	f88e6ae3          	bltu	t3,s0,2161c <core_init_matrix+0x70>
   2168c:	01f487b3          	add	a5,s1,t6
   21690:	fff78793          	addi	a5,a5,-1
   21694:	ffc7f793          	andi	a5,a5,-4
   21698:	00478793          	addi	a5,a5,4
   2169c:	00040593          	mv	a1,s0
   216a0:	00088513          	mv	a0,a7
   216a4:	0096b823          	sd	s1,16(a3)
   216a8:	0116b423          	sd	a7,8(a3)
   216ac:	00f6bc23          	sd	a5,24(a3)
   216b0:	01d6a023          	sw	t4,0(a3)
   216b4:	00003617          	auipc	a2,0x3
   216b8:	a9c60613          	addi	a2,a2,-1380 # 24150 <vm_boot+0x6e0>
   216bc:	d19ff0ef          	jal	ra,213d4 <printmat>
   216c0:	00048513          	mv	a0,s1
   216c4:	00040593          	mv	a1,s0
   216c8:	00003617          	auipc	a2,0x3
   216cc:	a9060613          	addi	a2,a2,-1392 # 24158 <vm_boot+0x6e8>
   216d0:	d05ff0ef          	jal	ra,213d4 <printmat>
   216d4:	00040513          	mv	a0,s0
   216d8:	01813083          	ld	ra,24(sp)
   216dc:	01013403          	ld	s0,16(sp)
   216e0:	00813483          	ld	s1,8(sp)
   216e4:	02010113          	addi	sp,sp,32
   216e8:	00008067          	ret
   216ec:	00648493          	addi	s1,s1,6
   216f0:	fff00e93          	li	t4,-1
   216f4:	fff00413          	li	s0,-1
   216f8:	00200f93          	li	t6,2
   216fc:	f0dff06f          	j	21608 <core_init_matrix+0x5c>
   21700:	00000e93          	li	t4,0
   21704:	f89ff06f          	j	2168c <core_init_matrix+0xe0>

0000000000021708 <matrix_sum>:
   21708:	00050e13          	mv	t3,a0
   2170c:	08050a63          	beqz	a0,217a0 <matrix_sum+0x98>
   21710:	0006031b          	sext.w	t1,a2
   21714:	00050893          	mv	a7,a0
   21718:	00000f13          	li	t5,0
   2171c:	00000e93          	li	t4,0
   21720:	00000513          	li	a0,0
   21724:	00000713          	li	a4,0
   21728:	00000613          	li	a2,0
   2172c:	000f0693          	mv	a3,t5
   21730:	01c0006f          	j	2174c <matrix_sum+0x44>
   21734:	0108151b          	slliw	a0,a6,0x10
   21738:	0016869b          	addiw	a3,a3,1
   2173c:	4105551b          	sraiw	a0,a0,0x10
   21740:	00000613          	li	a2,0
   21744:	00078713          	mv	a4,a5
   21748:	04d88263          	beq	a7,a3,2178c <matrix_sum+0x84>
   2174c:	02069793          	slli	a5,a3,0x20
   21750:	01e7d793          	srli	a5,a5,0x1e
   21754:	00f587b3          	add	a5,a1,a5
   21758:	0007a783          	lw	a5,0(a5)
   2175c:	03051513          	slli	a0,a0,0x30
   21760:	03055513          	srli	a0,a0,0x30
   21764:	00f72733          	slt	a4,a4,a5
   21768:	00c7863b          	addw	a2,a5,a2
   2176c:	00a5081b          	addiw	a6,a0,10
   21770:	00a7073b          	addw	a4,a4,a0
   21774:	fcc340e3          	blt	t1,a2,21734 <matrix_sum+0x2c>
   21778:	0107151b          	slliw	a0,a4,0x10
   2177c:	0016869b          	addiw	a3,a3,1
   21780:	4105551b          	sraiw	a0,a0,0x10
   21784:	00078713          	mv	a4,a5
   21788:	fcd892e3          	bne	a7,a3,2174c <matrix_sum+0x44>
   2178c:	001e8e9b          	addiw	t4,t4,1
   21790:	01c888bb          	addw	a7,a7,t3
   21794:	01cf0f3b          	addw	t5,t5,t3
   21798:	f9de1ae3          	bne	t3,t4,2172c <matrix_sum+0x24>
   2179c:	00008067          	ret
   217a0:	00000513          	li	a0,0
   217a4:	00008067          	ret

00000000000217a8 <matrix_mul_const>:
   217a8:	04050a63          	beqz	a0,217fc <matrix_mul_const+0x54>
   217ac:	0006889b          	sext.w	a7,a3
   217b0:	00050813          	mv	a6,a0
   217b4:	00000e13          	li	t3,0
   217b8:	00000313          	li	t1,0
   217bc:	000e0713          	mv	a4,t3
   217c0:	02071793          	slli	a5,a4,0x20
   217c4:	0207d793          	srli	a5,a5,0x20
   217c8:	00179693          	slli	a3,a5,0x1
   217cc:	00d606b3          	add	a3,a2,a3
   217d0:	00069683          	lh	a3,0(a3)
   217d4:	00279793          	slli	a5,a5,0x2
   217d8:	00f587b3          	add	a5,a1,a5
   217dc:	031686bb          	mulw	a3,a3,a7
   217e0:	0017071b          	addiw	a4,a4,1
   217e4:	00d7a023          	sw	a3,0(a5)
   217e8:	fce81ce3          	bne	a6,a4,217c0 <matrix_mul_const+0x18>
   217ec:	0013031b          	addiw	t1,t1,1
   217f0:	01c50e3b          	addw	t3,a0,t3
   217f4:	0105083b          	addw	a6,a0,a6
   217f8:	fc6512e3          	bne	a0,t1,217bc <matrix_mul_const+0x14>
   217fc:	00008067          	ret

0000000000021800 <matrix_add_const>:
   21800:	04050663          	beqz	a0,2184c <matrix_add_const+0x4c>
   21804:	03061813          	slli	a6,a2,0x30
   21808:	03085813          	srli	a6,a6,0x30
   2180c:	00050613          	mv	a2,a0
   21810:	00000313          	li	t1,0
   21814:	00000893          	li	a7,0
   21818:	00030713          	mv	a4,t1
   2181c:	02071793          	slli	a5,a4,0x20
   21820:	01f7d793          	srli	a5,a5,0x1f
   21824:	00f587b3          	add	a5,a1,a5
   21828:	0007d683          	lhu	a3,0(a5)
   2182c:	0017071b          	addiw	a4,a4,1
   21830:	010686bb          	addw	a3,a3,a6
   21834:	00d79023          	sh	a3,0(a5)
   21838:	fee612e3          	bne	a2,a4,2181c <matrix_add_const+0x1c>
   2183c:	0018889b          	addiw	a7,a7,1
   21840:	0065033b          	addw	t1,a0,t1
   21844:	00c5063b          	addw	a2,a0,a2
   21848:	fd1518e3          	bne	a0,a7,21818 <matrix_add_const+0x18>
   2184c:	00008067          	ret

0000000000021850 <matrix_mul_vect>:
   21850:	06050463          	beqz	a0,218b8 <matrix_mul_vect+0x68>
   21854:	fff5079b          	addiw	a5,a0,-1
   21858:	02079f13          	slli	t5,a5,0x20
   2185c:	01ef5f13          	srli	t5,t5,0x1e
   21860:	00458793          	addi	a5,a1,4
   21864:	00ff0f33          	add	t5,t5,a5
   21868:	00050e13          	mv	t3,a0
   2186c:	00000e93          	li	t4,0
   21870:	00068813          	mv	a6,a3
   21874:	000e8713          	mv	a4,t4
   21878:	00000893          	li	a7,0
   2187c:	02071793          	slli	a5,a4,0x20
   21880:	01f7d793          	srli	a5,a5,0x1f
   21884:	00f607b3          	add	a5,a2,a5
   21888:	00081303          	lh	t1,0(a6)
   2188c:	00079783          	lh	a5,0(a5)
   21890:	0017071b          	addiw	a4,a4,1
   21894:	00280813          	addi	a6,a6,2
   21898:	026787bb          	mulw	a5,a5,t1
   2189c:	011788bb          	addw	a7,a5,a7
   218a0:	fcee1ee3          	bne	t3,a4,2187c <matrix_mul_vect+0x2c>
   218a4:	0115a023          	sw	a7,0(a1)
   218a8:	00458593          	addi	a1,a1,4
   218ac:	01d50ebb          	addw	t4,a0,t4
   218b0:	01c50e3b          	addw	t3,a0,t3
   218b4:	fabf1ee3          	bne	t5,a1,21870 <matrix_mul_vect+0x20>
   218b8:	00008067          	ret

00000000000218bc <matrix_mul_matrix>:
   218bc:	00050e13          	mv	t3,a0
   218c0:	00000f93          	li	t6,0
   218c4:	00000293          	li	t0,0
   218c8:	08050863          	beqz	a0,21958 <matrix_mul_matrix+0x9c>
   218cc:	00000f13          	li	t5,0
   218d0:	01ff0ebb          	addw	t4,t5,t6
   218d4:	020e9e93          	slli	t4,t4,0x20
   218d8:	01eede93          	srli	t4,t4,0x1e
   218dc:	01d58eb3          	add	t4,a1,t4
   218e0:	000f0893          	mv	a7,t5
   218e4:	000f8813          	mv	a6,t6
   218e8:	00000313          	li	t1,0
   218ec:	02081713          	slli	a4,a6,0x20
   218f0:	02089793          	slli	a5,a7,0x20
   218f4:	02075713          	srli	a4,a4,0x20
   218f8:	0207d793          	srli	a5,a5,0x20
   218fc:	00171713          	slli	a4,a4,0x1
   21900:	00179793          	slli	a5,a5,0x1
   21904:	00e60733          	add	a4,a2,a4
   21908:	00f687b3          	add	a5,a3,a5
   2190c:	00071703          	lh	a4,0(a4)
   21910:	00079783          	lh	a5,0(a5)
   21914:	0018081b          	addiw	a6,a6,1
   21918:	011508bb          	addw	a7,a0,a7
   2191c:	02f707bb          	mulw	a5,a4,a5
   21920:	0067833b          	addw	t1,a5,t1
   21924:	fd0e14e3          	bne	t3,a6,218ec <matrix_mul_matrix+0x30>
   21928:	006ea023          	sw	t1,0(t4)
   2192c:	001f079b          	addiw	a5,t5,1
   21930:	00f50663          	beq	a0,a5,2193c <matrix_mul_matrix+0x80>
   21934:	00078f13          	mv	t5,a5
   21938:	f99ff06f          	j	218d0 <matrix_mul_matrix+0x14>
   2193c:	0012879b          	addiw	a5,t0,1
   21940:	01f50fbb          	addw	t6,a0,t6
   21944:	01c50e3b          	addw	t3,a0,t3
   21948:	01e28663          	beq	t0,t5,21954 <matrix_mul_matrix+0x98>
   2194c:	00078293          	mv	t0,a5
   21950:	f7dff06f          	j	218cc <matrix_mul_matrix+0x10>
   21954:	00008067          	ret
   21958:	00008067          	ret

000000000002195c <matrix_mul_matrix_bitextract>:
   2195c:	00050e13          	mv	t3,a0
   21960:	00000f93          	li	t6,0
   21964:	00000293          	li	t0,0
   21968:	0a050263          	beqz	a0,21a0c <matrix_mul_matrix_bitextract+0xb0>
   2196c:	00000f13          	li	t5,0
   21970:	01ff0ebb          	addw	t4,t5,t6
   21974:	020e9e93          	slli	t4,t4,0x20
   21978:	01eede93          	srli	t4,t4,0x1e
   2197c:	01d58eb3          	add	t4,a1,t4
   21980:	000f0893          	mv	a7,t5
   21984:	000f8813          	mv	a6,t6
   21988:	00000313          	li	t1,0
   2198c:	02081793          	slli	a5,a6,0x20
   21990:	02089713          	slli	a4,a7,0x20
   21994:	0207d793          	srli	a5,a5,0x20
   21998:	02075713          	srli	a4,a4,0x20
   2199c:	00179793          	slli	a5,a5,0x1
   219a0:	00171713          	slli	a4,a4,0x1
   219a4:	00f607b3          	add	a5,a2,a5
   219a8:	00e68733          	add	a4,a3,a4
   219ac:	00071703          	lh	a4,0(a4)
   219b0:	00079783          	lh	a5,0(a5)
   219b4:	0018081b          	addiw	a6,a6,1
   219b8:	011508bb          	addw	a7,a0,a7
   219bc:	02e787bb          	mulw	a5,a5,a4
   219c0:	4027d71b          	sraiw	a4,a5,0x2
   219c4:	4057d79b          	sraiw	a5,a5,0x5
   219c8:	00f77713          	andi	a4,a4,15
   219cc:	07f7f793          	andi	a5,a5,127
   219d0:	02f707bb          	mulw	a5,a4,a5
   219d4:	0067833b          	addw	t1,a5,t1
   219d8:	fb0e1ae3          	bne	t3,a6,2198c <matrix_mul_matrix_bitextract+0x30>
   219dc:	006ea023          	sw	t1,0(t4)
   219e0:	001f079b          	addiw	a5,t5,1
   219e4:	00f50663          	beq	a0,a5,219f0 <matrix_mul_matrix_bitextract+0x94>
   219e8:	00078f13          	mv	t5,a5
   219ec:	f85ff06f          	j	21970 <matrix_mul_matrix_bitextract+0x14>
   219f0:	0012879b          	addiw	a5,t0,1
   219f4:	01f50fbb          	addw	t6,a0,t6
   219f8:	01c50e3b          	addw	t3,a0,t3
   219fc:	01e28663          	beq	t0,t5,21a08 <matrix_mul_matrix_bitextract+0xac>
   21a00:	00078293          	mv	t0,a5
   21a04:	f69ff06f          	j	2196c <matrix_mul_matrix_bitextract+0x10>
   21a08:	00008067          	ret
   21a0c:	00008067          	ret

0000000000021a10 <matrix_test>:
   21a10:	fb010113          	addi	sp,sp,-80
   21a14:	04813023          	sd	s0,64(sp)
   21a18:	02913c23          	sd	s1,56(sp)
   21a1c:	03413023          	sd	s4,32(sp)
   21a20:	01513c23          	sd	s5,24(sp)
   21a24:	04113423          	sd	ra,72(sp)
   21a28:	fffffab7          	lui	s5,0xfffff
   21a2c:	03213823          	sd	s2,48(sp)
   21a30:	03313423          	sd	s3,40(sp)
   21a34:	01613823          	sd	s6,16(sp)
   21a38:	01713423          	sd	s7,8(sp)
   21a3c:	00058a13          	mv	s4,a1
   21a40:	00060493          	mv	s1,a2
   21a44:	00068413          	mv	s0,a3
   21a48:	01576ab3          	or	s5,a4,s5
   21a4c:	40050e63          	beqz	a0,21e68 <matrix_test+0x458>
   21a50:	03071913          	slli	s2,a4,0x30
   21a54:	00070b93          	mv	s7,a4
   21a58:	03095913          	srli	s2,s2,0x30
   21a5c:	00050593          	mv	a1,a0
   21a60:	00000713          	li	a4,0
   21a64:	00000b13          	li	s6,0
   21a68:	00070693          	mv	a3,a4
   21a6c:	02069793          	slli	a5,a3,0x20
   21a70:	01f7d793          	srli	a5,a5,0x1f
   21a74:	00f487b3          	add	a5,s1,a5
   21a78:	0007d603          	lhu	a2,0(a5)
   21a7c:	0016869b          	addiw	a3,a3,1
   21a80:	0126063b          	addw	a2,a2,s2
   21a84:	00c79023          	sh	a2,0(a5)
   21a88:	fed592e3          	bne	a1,a3,21a6c <matrix_test+0x5c>
   21a8c:	001b099b          	addiw	s3,s6,1
   21a90:	00e5073b          	addw	a4,a0,a4
   21a94:	00b505bb          	addw	a1,a0,a1
   21a98:	01350663          	beq	a0,s3,21aa4 <matrix_test+0x94>
   21a9c:	00098b13          	mv	s6,s3
   21aa0:	fc9ff06f          	j	21a68 <matrix_test+0x58>
   21aa4:	00002617          	auipc	a2,0x2
   21aa8:	71c60613          	addi	a2,a2,1820 # 241c0 <vm_boot+0x750>
   21aac:	00098593          	mv	a1,s3
   21ab0:	00048513          	mv	a0,s1
   21ab4:	921ff0ef          	jal	ra,213d4 <printmat>
   21ab8:	000b859b          	sext.w	a1,s7
   21abc:	00098613          	mv	a2,s3
   21ac0:	00000513          	li	a0,0
   21ac4:	00000813          	li	a6,0
   21ac8:	00050713          	mv	a4,a0
   21acc:	02071793          	slli	a5,a4,0x20
   21ad0:	0207d793          	srli	a5,a5,0x20
   21ad4:	00179693          	slli	a3,a5,0x1
   21ad8:	00d486b3          	add	a3,s1,a3
   21adc:	00069683          	lh	a3,0(a3)
   21ae0:	00279793          	slli	a5,a5,0x2
   21ae4:	00fa07b3          	add	a5,s4,a5
   21ae8:	02b686bb          	mulw	a3,a3,a1
   21aec:	0017071b          	addiw	a4,a4,1
   21af0:	00d7a023          	sw	a3,0(a5)
   21af4:	fce61ce3          	bne	a2,a4,21acc <matrix_test+0xbc>
   21af8:	0018079b          	addiw	a5,a6,1
   21afc:	00a9853b          	addw	a0,s3,a0
   21b00:	00c9863b          	addw	a2,s3,a2
   21b04:	01680663          	beq	a6,s6,21b10 <matrix_test+0x100>
   21b08:	00078813          	mv	a6,a5
   21b0c:	fbdff06f          	j	21ac8 <matrix_test+0xb8>
   21b10:	000a8a9b          	sext.w	s5,s5
   21b14:	00098813          	mv	a6,s3
   21b18:	00000893          	li	a7,0
   21b1c:	00000513          	li	a0,0
   21b20:	00000713          	li	a4,0
   21b24:	00000613          	li	a2,0
   21b28:	00000313          	li	t1,0
   21b2c:	00088693          	mv	a3,a7
   21b30:	01c0006f          	j	21b4c <matrix_test+0x13c>
   21b34:	0105951b          	slliw	a0,a1,0x10
   21b38:	0016869b          	addiw	a3,a3,1
   21b3c:	4105551b          	sraiw	a0,a0,0x10
   21b40:	00000613          	li	a2,0
   21b44:	00078713          	mv	a4,a5
   21b48:	04d80263          	beq	a6,a3,21b8c <matrix_test+0x17c>
   21b4c:	02069793          	slli	a5,a3,0x20
   21b50:	01e7d793          	srli	a5,a5,0x1e
   21b54:	00fa07b3          	add	a5,s4,a5
   21b58:	0007a783          	lw	a5,0(a5)
   21b5c:	03051513          	slli	a0,a0,0x30
   21b60:	03055513          	srli	a0,a0,0x30
   21b64:	00f72733          	slt	a4,a4,a5
   21b68:	00c7863b          	addw	a2,a5,a2
   21b6c:	00a5059b          	addiw	a1,a0,10
   21b70:	00a7073b          	addw	a4,a4,a0
   21b74:	fccac0e3          	blt	s5,a2,21b34 <matrix_test+0x124>
   21b78:	0107151b          	slliw	a0,a4,0x10
   21b7c:	0016869b          	addiw	a3,a3,1
   21b80:	4105551b          	sraiw	a0,a0,0x10
   21b84:	00078713          	mv	a4,a5
   21b88:	fcd812e3          	bne	a6,a3,21b4c <matrix_test+0x13c>
   21b8c:	0013079b          	addiw	a5,t1,1
   21b90:	0109883b          	addw	a6,s3,a6
   21b94:	011988bb          	addw	a7,s3,a7
   21b98:	01630663          	beq	t1,s6,21ba4 <matrix_test+0x194>
   21b9c:	00078313          	mv	t1,a5
   21ba0:	f8dff06f          	j	21b2c <matrix_test+0x11c>
   21ba4:	00000593          	li	a1,0
   21ba8:	525000ef          	jal	ra,228cc <crc16>
   21bac:	00002617          	auipc	a2,0x2
   21bb0:	5fc60613          	addi	a2,a2,1532 # 241a8 <vm_boot+0x738>
   21bb4:	00098593          	mv	a1,s3
   21bb8:	00050b93          	mv	s7,a0
   21bbc:	000a0513          	mv	a0,s4
   21bc0:	901ff0ef          	jal	ra,214c0 <printmatC>
   21bc4:	00048613          	mv	a2,s1
   21bc8:	00098513          	mv	a0,s3
   21bcc:	00040693          	mv	a3,s0
   21bd0:	000a0593          	mv	a1,s4
   21bd4:	c7dff0ef          	jal	ra,21850 <matrix_mul_vect>
   21bd8:	00098813          	mv	a6,s3
   21bdc:	00000893          	li	a7,0
   21be0:	00000513          	li	a0,0
   21be4:	00000713          	li	a4,0
   21be8:	00000613          	li	a2,0
   21bec:	00000313          	li	t1,0
   21bf0:	00088693          	mv	a3,a7
   21bf4:	01c0006f          	j	21c10 <matrix_test+0x200>
   21bf8:	0105951b          	slliw	a0,a1,0x10
   21bfc:	0016869b          	addiw	a3,a3,1
   21c00:	4105551b          	sraiw	a0,a0,0x10
   21c04:	00000613          	li	a2,0
   21c08:	00078713          	mv	a4,a5
   21c0c:	04d80263          	beq	a6,a3,21c50 <matrix_test+0x240>
   21c10:	02069793          	slli	a5,a3,0x20
   21c14:	01e7d793          	srli	a5,a5,0x1e
   21c18:	00fa07b3          	add	a5,s4,a5
   21c1c:	0007a783          	lw	a5,0(a5)
   21c20:	03051513          	slli	a0,a0,0x30
   21c24:	03055513          	srli	a0,a0,0x30
   21c28:	00f72733          	slt	a4,a4,a5
   21c2c:	00c7863b          	addw	a2,a5,a2
   21c30:	00a5059b          	addiw	a1,a0,10
   21c34:	00a7073b          	addw	a4,a4,a0
   21c38:	fccac0e3          	blt	s5,a2,21bf8 <matrix_test+0x1e8>
   21c3c:	0107151b          	slliw	a0,a4,0x10
   21c40:	0016869b          	addiw	a3,a3,1
   21c44:	4105551b          	sraiw	a0,a0,0x10
   21c48:	00078713          	mv	a4,a5
   21c4c:	fcd812e3          	bne	a6,a3,21c10 <matrix_test+0x200>
   21c50:	0013079b          	addiw	a5,t1,1
   21c54:	0109883b          	addw	a6,s3,a6
   21c58:	011988bb          	addw	a7,s3,a7
   21c5c:	01630663          	beq	t1,s6,21c68 <matrix_test+0x258>
   21c60:	00078313          	mv	t1,a5
   21c64:	f8dff06f          	j	21bf0 <matrix_test+0x1e0>
   21c68:	000b8593          	mv	a1,s7
   21c6c:	461000ef          	jal	ra,228cc <crc16>
   21c70:	00002617          	auipc	a2,0x2
   21c74:	52860613          	addi	a2,a2,1320 # 24198 <vm_boot+0x728>
   21c78:	00098593          	mv	a1,s3
   21c7c:	00050b13          	mv	s6,a0
   21c80:	000a0513          	mv	a0,s4
   21c84:	83dff0ef          	jal	ra,214c0 <printmatC>
   21c88:	00048613          	mv	a2,s1
   21c8c:	00098513          	mv	a0,s3
   21c90:	00040693          	mv	a3,s0
   21c94:	000a0593          	mv	a1,s4
   21c98:	c25ff0ef          	jal	ra,218bc <matrix_mul_matrix>
   21c9c:	00000813          	li	a6,0
   21ca0:	00000513          	li	a0,0
   21ca4:	00000713          	li	a4,0
   21ca8:	00000613          	li	a2,0
   21cac:	00000893          	li	a7,0
   21cb0:	00000693          	li	a3,0
   21cb4:	01c0006f          	j	21cd0 <matrix_test+0x2c0>
   21cb8:	0105951b          	slliw	a0,a1,0x10
   21cbc:	0016869b          	addiw	a3,a3,1
   21cc0:	4105551b          	sraiw	a0,a0,0x10
   21cc4:	00000613          	li	a2,0
   21cc8:	00078713          	mv	a4,a5
   21ccc:	0536f463          	bgeu	a3,s3,21d14 <matrix_test+0x304>
   21cd0:	010687bb          	addw	a5,a3,a6
   21cd4:	02079793          	slli	a5,a5,0x20
   21cd8:	01e7d793          	srli	a5,a5,0x1e
   21cdc:	00fa07b3          	add	a5,s4,a5
   21ce0:	0007a783          	lw	a5,0(a5)
   21ce4:	03051513          	slli	a0,a0,0x30
   21ce8:	03055513          	srli	a0,a0,0x30
   21cec:	00f72733          	slt	a4,a4,a5
   21cf0:	00c7863b          	addw	a2,a5,a2
   21cf4:	00a5059b          	addiw	a1,a0,10
   21cf8:	00a7073b          	addw	a4,a4,a0
   21cfc:	facacee3          	blt	s5,a2,21cb8 <matrix_test+0x2a8>
   21d00:	0107151b          	slliw	a0,a4,0x10
   21d04:	0016869b          	addiw	a3,a3,1
   21d08:	4105551b          	sraiw	a0,a0,0x10
   21d0c:	00078713          	mv	a4,a5
   21d10:	fd36e0e3          	bltu	a3,s3,21cd0 <matrix_test+0x2c0>
   21d14:	0018889b          	addiw	a7,a7,1
   21d18:	0109883b          	addw	a6,s3,a6
   21d1c:	f938eae3          	bltu	a7,s3,21cb0 <matrix_test+0x2a0>
   21d20:	000b0593          	mv	a1,s6
   21d24:	3a9000ef          	jal	ra,228cc <crc16>
   21d28:	00002617          	auipc	a2,0x2
   21d2c:	45860613          	addi	a2,a2,1112 # 24180 <vm_boot+0x710>
   21d30:	00098593          	mv	a1,s3
   21d34:	00050b13          	mv	s6,a0
   21d38:	000a0513          	mv	a0,s4
   21d3c:	f84ff0ef          	jal	ra,214c0 <printmatC>
   21d40:	00048613          	mv	a2,s1
   21d44:	00098513          	mv	a0,s3
   21d48:	00040693          	mv	a3,s0
   21d4c:	000a0593          	mv	a1,s4
   21d50:	c0dff0ef          	jal	ra,2195c <matrix_mul_matrix_bitextract>
   21d54:	00000813          	li	a6,0
   21d58:	00000513          	li	a0,0
   21d5c:	00000713          	li	a4,0
   21d60:	00000613          	li	a2,0
   21d64:	00000893          	li	a7,0
   21d68:	00000693          	li	a3,0
   21d6c:	01c0006f          	j	21d88 <matrix_test+0x378>
   21d70:	0105951b          	slliw	a0,a1,0x10
   21d74:	0016869b          	addiw	a3,a3,1
   21d78:	4105551b          	sraiw	a0,a0,0x10
   21d7c:	00000613          	li	a2,0
   21d80:	00078713          	mv	a4,a5
   21d84:	0536f463          	bgeu	a3,s3,21dcc <matrix_test+0x3bc>
   21d88:	010687bb          	addw	a5,a3,a6
   21d8c:	02079793          	slli	a5,a5,0x20
   21d90:	01e7d793          	srli	a5,a5,0x1e
   21d94:	00fa07b3          	add	a5,s4,a5
   21d98:	0007a783          	lw	a5,0(a5)
   21d9c:	03051513          	slli	a0,a0,0x30
   21da0:	03055513          	srli	a0,a0,0x30
   21da4:	00f72733          	slt	a4,a4,a5
   21da8:	00c7863b          	addw	a2,a5,a2
   21dac:	00a5059b          	addiw	a1,a0,10
   21db0:	00a7073b          	addw	a4,a4,a0
   21db4:	facacee3          	blt	s5,a2,21d70 <matrix_test+0x360>
   21db8:	0107151b          	slliw	a0,a4,0x10
   21dbc:	0016869b          	addiw	a3,a3,1
   21dc0:	4105551b          	sraiw	a0,a0,0x10
   21dc4:	00078713          	mv	a4,a5
   21dc8:	fd36e0e3          	bltu	a3,s3,21d88 <matrix_test+0x378>
   21dcc:	0018889b          	addiw	a7,a7,1
   21dd0:	0109883b          	addw	a6,s3,a6
   21dd4:	f938eae3          	bltu	a7,s3,21d68 <matrix_test+0x358>
   21dd8:	000b0593          	mv	a1,s6
   21ddc:	2f1000ef          	jal	ra,228cc <crc16>
   21de0:	00002617          	auipc	a2,0x2
   21de4:	38060613          	addi	a2,a2,896 # 24160 <vm_boot+0x6f0>
   21de8:	00098593          	mv	a1,s3
   21dec:	00050413          	mv	s0,a0
   21df0:	000a0513          	mv	a0,s4
   21df4:	eccff0ef          	jal	ra,214c0 <printmatC>
   21df8:	00000613          	li	a2,0
   21dfc:	00000593          	li	a1,0
   21e00:	00000713          	li	a4,0
   21e04:	00c707bb          	addw	a5,a4,a2
   21e08:	02079793          	slli	a5,a5,0x20
   21e0c:	01f7d793          	srli	a5,a5,0x1f
   21e10:	00f487b3          	add	a5,s1,a5
   21e14:	0007d683          	lhu	a3,0(a5)
   21e18:	0017071b          	addiw	a4,a4,1
   21e1c:	412686bb          	subw	a3,a3,s2
   21e20:	00d79023          	sh	a3,0(a5)
   21e24:	ff3760e3          	bltu	a4,s3,21e04 <matrix_test+0x3f4>
   21e28:	0015859b          	addiw	a1,a1,1
   21e2c:	00c9863b          	addw	a2,s3,a2
   21e30:	fd35e8e3          	bltu	a1,s3,21e00 <matrix_test+0x3f0>
   21e34:	0104151b          	slliw	a0,s0,0x10
   21e38:	04813083          	ld	ra,72(sp)
   21e3c:	04013403          	ld	s0,64(sp)
   21e40:	03813483          	ld	s1,56(sp)
   21e44:	03013903          	ld	s2,48(sp)
   21e48:	02813983          	ld	s3,40(sp)
   21e4c:	02013a03          	ld	s4,32(sp)
   21e50:	01813a83          	ld	s5,24(sp)
   21e54:	01013b03          	ld	s6,16(sp)
   21e58:	00813b83          	ld	s7,8(sp)
   21e5c:	4105551b          	sraiw	a0,a0,0x10
   21e60:	05010113          	addi	sp,sp,80
   21e64:	00008067          	ret
   21e68:	00002617          	auipc	a2,0x2
   21e6c:	35860613          	addi	a2,a2,856 # 241c0 <vm_boot+0x750>
   21e70:	00048513          	mv	a0,s1
   21e74:	00000593          	li	a1,0
   21e78:	d5cff0ef          	jal	ra,213d4 <printmat>
   21e7c:	00000593          	li	a1,0
   21e80:	00000513          	li	a0,0
   21e84:	249000ef          	jal	ra,228cc <crc16>
   21e88:	00050913          	mv	s2,a0
   21e8c:	00002617          	auipc	a2,0x2
   21e90:	31c60613          	addi	a2,a2,796 # 241a8 <vm_boot+0x738>
   21e94:	000a0513          	mv	a0,s4
   21e98:	00000593          	li	a1,0
   21e9c:	e24ff0ef          	jal	ra,214c0 <printmatC>
   21ea0:	00040693          	mv	a3,s0
   21ea4:	00048613          	mv	a2,s1
   21ea8:	000a0593          	mv	a1,s4
   21eac:	00000513          	li	a0,0
   21eb0:	9a1ff0ef          	jal	ra,21850 <matrix_mul_vect>
   21eb4:	00090593          	mv	a1,s2
   21eb8:	00000513          	li	a0,0
   21ebc:	211000ef          	jal	ra,228cc <crc16>
   21ec0:	00050913          	mv	s2,a0
   21ec4:	00002617          	auipc	a2,0x2
   21ec8:	2d460613          	addi	a2,a2,724 # 24198 <vm_boot+0x728>
   21ecc:	000a0513          	mv	a0,s4
   21ed0:	00000593          	li	a1,0
   21ed4:	decff0ef          	jal	ra,214c0 <printmatC>
   21ed8:	00040693          	mv	a3,s0
   21edc:	00048613          	mv	a2,s1
   21ee0:	000a0593          	mv	a1,s4
   21ee4:	00000513          	li	a0,0
   21ee8:	9d5ff0ef          	jal	ra,218bc <matrix_mul_matrix>
   21eec:	00090593          	mv	a1,s2
   21ef0:	00000513          	li	a0,0
   21ef4:	1d9000ef          	jal	ra,228cc <crc16>
   21ef8:	00050913          	mv	s2,a0
   21efc:	00002617          	auipc	a2,0x2
   21f00:	28460613          	addi	a2,a2,644 # 24180 <vm_boot+0x710>
   21f04:	000a0513          	mv	a0,s4
   21f08:	00000593          	li	a1,0
   21f0c:	db4ff0ef          	jal	ra,214c0 <printmatC>
   21f10:	00040693          	mv	a3,s0
   21f14:	00048613          	mv	a2,s1
   21f18:	000a0593          	mv	a1,s4
   21f1c:	00000513          	li	a0,0
   21f20:	a3dff0ef          	jal	ra,2195c <matrix_mul_matrix_bitextract>
   21f24:	00090593          	mv	a1,s2
   21f28:	00000513          	li	a0,0
   21f2c:	1a1000ef          	jal	ra,228cc <crc16>
   21f30:	00050413          	mv	s0,a0
   21f34:	00002617          	auipc	a2,0x2
   21f38:	22c60613          	addi	a2,a2,556 # 24160 <vm_boot+0x6f0>
   21f3c:	00000593          	li	a1,0
   21f40:	000a0513          	mv	a0,s4
   21f44:	d7cff0ef          	jal	ra,214c0 <printmatC>
   21f48:	eedff06f          	j	21e34 <matrix_test+0x424>

0000000000021f4c <core_bench_matrix>:
   21f4c:	ff010113          	addi	sp,sp,-16
   21f50:	00813023          	sd	s0,0(sp)
   21f54:	00058713          	mv	a4,a1
   21f58:	00060413          	mv	s0,a2
   21f5c:	01853583          	ld	a1,24(a0)
   21f60:	01053683          	ld	a3,16(a0)
   21f64:	00853603          	ld	a2,8(a0)
   21f68:	00052503          	lw	a0,0(a0)
   21f6c:	00113423          	sd	ra,8(sp)
   21f70:	aa1ff0ef          	jal	ra,21a10 <matrix_test>
   21f74:	00040593          	mv	a1,s0
   21f78:	00013403          	ld	s0,0(sp)
   21f7c:	00813083          	ld	ra,8(sp)
   21f80:	01010113          	addi	sp,sp,16
   21f84:	1490006f          	j	228cc <crc16>

0000000000021f88 <start_time>:
   21f88:	ff010113          	addi	sp,sp,-16
   21f8c:	00113423          	sd	ra,8(sp)
   21f90:	15d000ef          	jal	ra,228ec <time>
   21f94:	00813083          	ld	ra,8(sp)
   21f98:	00003797          	auipc	a5,0x3
   21f9c:	06a7b423          	sd	a0,104(a5) # 25000 <start_time_val>
   21fa0:	01010113          	addi	sp,sp,16
   21fa4:	00008067          	ret

0000000000021fa8 <stop_time>:
   21fa8:	ff010113          	addi	sp,sp,-16
   21fac:	00113423          	sd	ra,8(sp)
   21fb0:	13d000ef          	jal	ra,228ec <time>
   21fb4:	00813083          	ld	ra,8(sp)
   21fb8:	00003797          	auipc	a5,0x3
   21fbc:	04a7b823          	sd	a0,80(a5) # 25008 <stop_time_val>
   21fc0:	01010113          	addi	sp,sp,16
   21fc4:	00008067          	ret

0000000000021fc8 <get_time>:
   21fc8:	00003797          	auipc	a5,0x3
   21fcc:	03878793          	addi	a5,a5,56 # 25000 <start_time_val>
   21fd0:	0087b503          	ld	a0,8(a5)
   21fd4:	0007b783          	ld	a5,0(a5)
   21fd8:	40f50533          	sub	a0,a0,a5
   21fdc:	00008067          	ret

0000000000021fe0 <time_in_secs>:
   21fe0:	000317b7          	lui	a5,0x31
   21fe4:	d407879b          	addiw	a5,a5,-704
   21fe8:	02f5553b          	divuw	a0,a0,a5
   21fec:	00008067          	ret

0000000000021ff0 <portable_init>:
   21ff0:	00100793          	li	a5,1
   21ff4:	00f50023          	sb	a5,0(a0)
   21ff8:	00008067          	ret

0000000000021ffc <portable_fini>:
   21ffc:	00050023          	sb	zero,0(a0)
   22000:	00008067          	ret

0000000000022004 <core_init_state>:
   22004:	fe010113          	addi	sp,sp,-32
   22008:	01213023          	sd	s2,0(sp)
   2200c:	00058913          	mv	s2,a1
   22010:	00813823          	sd	s0,16(sp)
   22014:	00050593          	mv	a1,a0
   22018:	00913423          	sd	s1,8(sp)
   2201c:	00060413          	mv	s0,a2
   22020:	00050493          	mv	s1,a0
   22024:	00090613          	mv	a2,s2
   22028:	00002517          	auipc	a0,0x2
   2202c:	1b050513          	addi	a0,a0,432 # 241d8 <vm_boot+0x768>
   22030:	00113c23          	sd	ra,24(sp)
   22034:	2e9000ef          	jal	ra,22b1c <printf>
   22038:	00000f93          	li	t6,0
   2203c:	00000e13          	li	t3,0
   22040:	0019069b          	addiw	a3,s2,1
   22044:	01fe0ebb          	addw	t4,t3,t6
   22048:	fff4851b          	addiw	a0,s1,-1
   2204c:	03069693          	slli	a3,a3,0x30
   22050:	001e8e9b          	addiw	t4,t4,1
   22054:	00050893          	mv	a7,a0
   22058:	0306d693          	srli	a3,a3,0x30
   2205c:	00000793          	li	a5,0
   22060:	02c00313          	li	t1,44
   22064:	00400593          	li	a1,4
   22068:	00002817          	auipc	a6,0x2
   2206c:	5b880813          	addi	a6,a6,1464 # 24620 <intpat>
   22070:	00002617          	auipc	a2,0x2
   22074:	51460613          	addi	a2,a2,1300 # 24584 <state_known_crc+0xc>
   22078:	06aef063          	bgeu	t4,a0,220d8 <core_init_state+0xd4>
   2207c:	0c0f9663          	bnez	t6,22148 <core_init_state+0x144>
   22080:	0076f793          	andi	a5,a3,7
   22084:	ffd7879b          	addiw	a5,a5,-3
   22088:	03079e93          	slli	t4,a5,0x30
   2208c:	0036d713          	srli	a4,a3,0x3
   22090:	030ede93          	srli	t4,t4,0x30
   22094:	00377713          	andi	a4,a4,3
   22098:	11d5e863          	bltu	a1,t4,221a8 <core_init_state+0x1a4>
   2209c:	002e9793          	slli	a5,t4,0x2
   220a0:	00c787b3          	add	a5,a5,a2
   220a4:	0007a783          	lw	a5,0(a5) # 31000 <_end+0x6810>
   220a8:	00371713          	slli	a4,a4,0x3
   220ac:	00e80733          	add	a4,a6,a4
   220b0:	00c787b3          	add	a5,a5,a2
   220b4:	00078067          	jr	a5
   220b8:	02073783          	ld	a5,32(a4)
   220bc:	00800f93          	li	t6,8
   220c0:	0016869b          	addiw	a3,a3,1
   220c4:	01fe0ebb          	addw	t4,t3,t6
   220c8:	03069693          	slli	a3,a3,0x30
   220cc:	001e8e9b          	addiw	t4,t4,1
   220d0:	0306d693          	srli	a3,a3,0x30
   220d4:	faaee4e3          	bltu	t4,a0,2207c <core_init_state+0x78>
   220d8:	029e7a63          	bgeu	t3,s1,2210c <core_init_state+0x108>
   220dc:	020e1793          	slli	a5,t3,0x20
   220e0:	41c888bb          	subw	a7,a7,t3
   220e4:	0207d793          	srli	a5,a5,0x20
   220e8:	00140713          	addi	a4,s0,1
   220ec:	02089893          	slli	a7,a7,0x20
   220f0:	00f70733          	add	a4,a4,a5
   220f4:	0208d893          	srli	a7,a7,0x20
   220f8:	00f407b3          	add	a5,s0,a5
   220fc:	01170733          	add	a4,a4,a7
   22100:	00078023          	sb	zero,0(a5)
   22104:	00178793          	addi	a5,a5,1
   22108:	fee79ce3          	bne	a5,a4,22100 <core_init_state+0xfc>
   2210c:	00040593          	mv	a1,s0
   22110:	01013403          	ld	s0,16(sp)
   22114:	01813083          	ld	ra,24(sp)
   22118:	00813483          	ld	s1,8(sp)
   2211c:	00013903          	ld	s2,0(sp)
   22120:	00002517          	auipc	a0,0x2
   22124:	0c850513          	addi	a0,a0,200 # 241e8 <vm_boot+0x778>
   22128:	02010113          	addi	sp,sp,32
   2212c:	1f10006f          	j	22b1c <printf>
   22130:	04073783          	ld	a5,64(a4)
   22134:	00800f93          	li	t6,8
   22138:	f89ff06f          	j	220c0 <core_init_state+0xbc>
   2213c:	06073783          	ld	a5,96(a4)
   22140:	00800f93          	li	t6,8
   22144:	f7dff06f          	j	220c0 <core_init_state+0xbc>
   22148:	020e1e13          	slli	t3,t3,0x20
   2214c:	ffff829b          	addiw	t0,t6,-1
   22150:	020e5e13          	srli	t3,t3,0x20
   22154:	02029293          	slli	t0,t0,0x20
   22158:	01c40e33          	add	t3,s0,t3
   2215c:	00178f13          	addi	t5,a5,1
   22160:	0202d293          	srli	t0,t0,0x20
   22164:	000e0713          	mv	a4,t3
   22168:	005f02b3          	add	t0,t5,t0
   2216c:	0007cf03          	lbu	t5,0(a5)
   22170:	00170713          	addi	a4,a4,1
   22174:	00178793          	addi	a5,a5,1
   22178:	ffe70fa3          	sb	t5,-1(a4)
   2217c:	fef298e3          	bne	t0,a5,2216c <core_init_state+0x168>
   22180:	0076f793          	andi	a5,a3,7
   22184:	01fe0e33          	add	t3,t3,t6
   22188:	ffd7879b          	addiw	a5,a5,-3
   2218c:	006e0023          	sb	t1,0(t3)
   22190:	000e8e13          	mv	t3,t4
   22194:	03079e93          	slli	t4,a5,0x30
   22198:	0036d713          	srli	a4,a3,0x3
   2219c:	030ede93          	srli	t4,t4,0x30
   221a0:	00377713          	andi	a4,a4,3
   221a4:	efd5fce3          	bgeu	a1,t4,2209c <core_init_state+0x98>
   221a8:	00371713          	slli	a4,a4,0x3
   221ac:	00e80733          	add	a4,a6,a4
   221b0:	00073783          	ld	a5,0(a4)
   221b4:	00400f93          	li	t6,4
   221b8:	f09ff06f          	j	220c0 <core_init_state+0xbc>

00000000000221bc <core_state_transition>:
   221bc:	00053783          	ld	a5,0(a0)
   221c0:	0007c683          	lbu	a3,0(a5)
   221c4:	2e068863          	beqz	a3,224b4 <core_state_transition+0x2f8>
   221c8:	02c00813          	li	a6,44
   221cc:	00178713          	addi	a4,a5,1
   221d0:	2b068e63          	beq	a3,a6,2248c <core_state_transition+0x2d0>
   221d4:	0005a883          	lw	a7,0(a1)
   221d8:	fd06861b          	addiw	a2,a3,-48
   221dc:	0ff67613          	andi	a2,a2,255
   221e0:	00900313          	li	t1,9
   221e4:	0018889b          	addiw	a7,a7,1
   221e8:	0ac36c63          	bltu	t1,a2,222a0 <core_state_transition+0xe4>
   221ec:	0115a023          	sw	a7,0(a1)
   221f0:	0017c683          	lbu	a3,1(a5)
   221f4:	16068463          	beqz	a3,2235c <core_state_transition+0x1a0>
   221f8:	00278793          	addi	a5,a5,2
   221fc:	15068e63          	beq	a3,a6,22358 <core_state_transition+0x19c>
   22200:	fd06861b          	addiw	a2,a3,-48
   22204:	02e00813          	li	a6,46
   22208:	00900893          	li	a7,9
   2220c:	02c00313          	li	t1,44
   22210:	0ff67613          	andi	a2,a2,255
   22214:	03068663          	beq	a3,a6,22240 <core_state_transition+0x84>
   22218:	0cc8e063          	bltu	a7,a2,222d8 <core_state_transition+0x11c>
   2221c:	00174683          	lbu	a3,1(a4)
   22220:	00178613          	addi	a2,a5,1
   22224:	00078713          	mv	a4,a5
   22228:	12068863          	beqz	a3,22358 <core_state_transition+0x19c>
   2222c:	2a668a63          	beq	a3,t1,224e0 <core_state_transition+0x324>
   22230:	00060793          	mv	a5,a2
   22234:	fd06861b          	addiw	a2,a3,-48
   22238:	0ff67613          	andi	a2,a2,255
   2223c:	fd069ee3          	bne	a3,a6,22218 <core_state_transition+0x5c>
   22240:	0105a683          	lw	a3,16(a1)
   22244:	0016869b          	addiw	a3,a3,1
   22248:	00d5a823          	sw	a3,16(a1)
   2224c:	00174683          	lbu	a3,1(a4)
   22250:	28068263          	beqz	a3,224d4 <core_state_transition+0x318>
   22254:	02c00713          	li	a4,44
   22258:	00178613          	addi	a2,a5,1
   2225c:	22e68263          	beq	a3,a4,22480 <core_state_transition+0x2c4>
   22260:	04500813          	li	a6,69
   22264:	00900893          	li	a7,9
   22268:	02c00313          	li	t1,44
   2226c:	fd06871b          	addiw	a4,a3,-48
   22270:	0df6f693          	andi	a3,a3,223
   22274:	0ff77713          	andi	a4,a4,255
   22278:	0f068663          	beq	a3,a6,22364 <core_state_transition+0x1a8>
   2227c:	1ae8fa63          	bgeu	a7,a4,22430 <core_state_transition+0x274>
   22280:	0145a683          	lw	a3,20(a1)
   22284:	00060713          	mv	a4,a2
   22288:	00100793          	li	a5,1
   2228c:	0016869b          	addiw	a3,a3,1
   22290:	00d5aa23          	sw	a3,20(a1)
   22294:	00e53023          	sd	a4,0(a0)
   22298:	00078513          	mv	a0,a5
   2229c:	00008067          	ret
   222a0:	02b00613          	li	a2,43
   222a4:	04c68a63          	beq	a3,a2,222f8 <core_state_transition+0x13c>
   222a8:	02d00613          	li	a2,45
   222ac:	04c68663          	beq	a3,a2,222f8 <core_state_transition+0x13c>
   222b0:	02e00613          	li	a2,46
   222b4:	18c68c63          	beq	a3,a2,2244c <core_state_transition+0x290>
   222b8:	0045a683          	lw	a3,4(a1)
   222bc:	0115a023          	sw	a7,0(a1)
   222c0:	00100793          	li	a5,1
   222c4:	0016869b          	addiw	a3,a3,1
   222c8:	00d5a223          	sw	a3,4(a1)
   222cc:	00e53023          	sd	a4,0(a0)
   222d0:	00078513          	mv	a0,a5
   222d4:	00008067          	ret
   222d8:	0105a683          	lw	a3,16(a1)
   222dc:	00078713          	mv	a4,a5
   222e0:	00100793          	li	a5,1
   222e4:	0016869b          	addiw	a3,a3,1
   222e8:	00d5a823          	sw	a3,16(a1)
   222ec:	00e53023          	sd	a4,0(a0)
   222f0:	00078513          	mv	a0,a5
   222f4:	00008067          	ret
   222f8:	0115a023          	sw	a7,0(a1)
   222fc:	0017c883          	lbu	a7,1(a5)
   22300:	1c088063          	beqz	a7,224c0 <core_state_transition+0x304>
   22304:	00278713          	addi	a4,a5,2
   22308:	1b088c63          	beq	a7,a6,224c0 <core_state_transition+0x304>
   2230c:	0085a603          	lw	a2,8(a1)
   22310:	fd08869b          	addiw	a3,a7,-48
   22314:	0ff6f693          	andi	a3,a3,255
   22318:	00900813          	li	a6,9
   2231c:	0016061b          	addiw	a2,a2,1
   22320:	02d87063          	bgeu	a6,a3,22340 <core_state_transition+0x184>
   22324:	02e00693          	li	a3,46
   22328:	14d88063          	beq	a7,a3,22468 <core_state_transition+0x2ac>
   2232c:	00c5a423          	sw	a2,8(a1)
   22330:	00100793          	li	a5,1
   22334:	00e53023          	sd	a4,0(a0)
   22338:	00078513          	mv	a0,a5
   2233c:	00008067          	ret
   22340:	00c5a423          	sw	a2,8(a1)
   22344:	0027c683          	lbu	a3,2(a5)
   22348:	00068a63          	beqz	a3,2235c <core_state_transition+0x1a0>
   2234c:	02c00613          	li	a2,44
   22350:	00170793          	addi	a5,a4,1
   22354:	eac696e3          	bne	a3,a2,22200 <core_state_transition+0x44>
   22358:	00078713          	mv	a4,a5
   2235c:	00400793          	li	a5,4
   22360:	f8dff06f          	j	222ec <core_state_transition+0x130>
   22364:	0145a703          	lw	a4,20(a1)
   22368:	0017071b          	addiw	a4,a4,1
   2236c:	00e5aa23          	sw	a4,20(a1)
   22370:	0017c783          	lbu	a5,1(a5)
   22374:	12078a63          	beqz	a5,224a8 <core_state_transition+0x2ec>
   22378:	02c00813          	li	a6,44
   2237c:	00160713          	addi	a4,a2,1
   22380:	13078663          	beq	a5,a6,224ac <core_state_transition+0x2f0>
   22384:	00c5a683          	lw	a3,12(a1)
   22388:	fd57879b          	addiw	a5,a5,-43
   2238c:	0fd7f793          	andi	a5,a5,253
   22390:	0016869b          	addiw	a3,a3,1
   22394:	00d5a623          	sw	a3,12(a1)
   22398:	00078a63          	beqz	a5,223ac <core_state_transition+0x1f0>
   2239c:	00100793          	li	a5,1
   223a0:	00e53023          	sd	a4,0(a0)
   223a4:	00078513          	mv	a0,a5
   223a8:	00008067          	ret
   223ac:	00164783          	lbu	a5,1(a2)
   223b0:	0e078863          	beqz	a5,224a0 <core_state_transition+0x2e4>
   223b4:	00260713          	addi	a4,a2,2
   223b8:	0f078463          	beq	a5,a6,224a0 <core_state_transition+0x2e4>
   223bc:	0185a683          	lw	a3,24(a1)
   223c0:	fd07879b          	addiw	a5,a5,-48
   223c4:	0ff7f793          	andi	a5,a5,255
   223c8:	0016869b          	addiw	a3,a3,1
   223cc:	00900893          	li	a7,9
   223d0:	00d5ac23          	sw	a3,24(a1)
   223d4:	fcf8e4e3          	bltu	a7,a5,2239c <core_state_transition+0x1e0>
   223d8:	00264683          	lbu	a3,2(a2)
   223dc:	0a068e63          	beqz	a3,22498 <core_state_transition+0x2dc>
   223e0:	00360793          	addi	a5,a2,3
   223e4:	0b068863          	beq	a3,a6,22494 <core_state_transition+0x2d8>
   223e8:	00900613          	li	a2,9
   223ec:	02c00893          	li	a7,44
   223f0:	fd06869b          	addiw	a3,a3,-48
   223f4:	0ff6f693          	andi	a3,a3,255
   223f8:	00d67e63          	bgeu	a2,a3,22414 <core_state_transition+0x258>
   223fc:	0045a683          	lw	a3,4(a1)
   22400:	00078713          	mv	a4,a5
   22404:	00100793          	li	a5,1
   22408:	0016869b          	addiw	a3,a3,1
   2240c:	00d5a223          	sw	a3,4(a1)
   22410:	eddff06f          	j	222ec <core_state_transition+0x130>
   22414:	00174683          	lbu	a3,1(a4)
   22418:	00178813          	addi	a6,a5,1
   2241c:	00078713          	mv	a4,a5
   22420:	06068a63          	beqz	a3,22494 <core_state_transition+0x2d8>
   22424:	0b168263          	beq	a3,a7,224c8 <core_state_transition+0x30c>
   22428:	00080793          	mv	a5,a6
   2242c:	fc5ff06f          	j	223f0 <core_state_transition+0x234>
   22430:	0017c683          	lbu	a3,1(a5)
   22434:	00160713          	addi	a4,a2,1
   22438:	00060793          	mv	a5,a2
   2243c:	04068263          	beqz	a3,22480 <core_state_transition+0x2c4>
   22440:	04668263          	beq	a3,t1,22484 <core_state_transition+0x2c8>
   22444:	00070613          	mv	a2,a4
   22448:	e25ff06f          	j	2226c <core_state_transition+0xb0>
   2244c:	0115a023          	sw	a7,0(a1)
   22450:	0017c683          	lbu	a3,1(a5)
   22454:	02068863          	beqz	a3,22484 <core_state_transition+0x2c8>
   22458:	00278613          	addi	a2,a5,2
   2245c:	03068263          	beq	a3,a6,22480 <core_state_transition+0x2c4>
   22460:	00070793          	mv	a5,a4
   22464:	dfdff06f          	j	22260 <core_state_transition+0xa4>
   22468:	00c5a423          	sw	a2,8(a1)
   2246c:	0027c683          	lbu	a3,2(a5)
   22470:	00068a63          	beqz	a3,22484 <core_state_transition+0x2c8>
   22474:	02c00793          	li	a5,44
   22478:	00170613          	addi	a2,a4,1
   2247c:	fef692e3          	bne	a3,a5,22460 <core_state_transition+0x2a4>
   22480:	00060713          	mv	a4,a2
   22484:	00500793          	li	a5,5
   22488:	e65ff06f          	j	222ec <core_state_transition+0x130>
   2248c:	00000793          	li	a5,0
   22490:	e5dff06f          	j	222ec <core_state_transition+0x130>
   22494:	00078713          	mv	a4,a5
   22498:	00700793          	li	a5,7
   2249c:	e51ff06f          	j	222ec <core_state_transition+0x130>
   224a0:	00600793          	li	a5,6
   224a4:	e49ff06f          	j	222ec <core_state_transition+0x130>
   224a8:	00060713          	mv	a4,a2
   224ac:	00300793          	li	a5,3
   224b0:	e3dff06f          	j	222ec <core_state_transition+0x130>
   224b4:	00078713          	mv	a4,a5
   224b8:	00000793          	li	a5,0
   224bc:	e31ff06f          	j	222ec <core_state_transition+0x130>
   224c0:	00200793          	li	a5,2
   224c4:	e29ff06f          	j	222ec <core_state_transition+0x130>
   224c8:	00080713          	mv	a4,a6
   224cc:	00700793          	li	a5,7
   224d0:	e1dff06f          	j	222ec <core_state_transition+0x130>
   224d4:	00078713          	mv	a4,a5
   224d8:	00500793          	li	a5,5
   224dc:	e11ff06f          	j	222ec <core_state_transition+0x130>
   224e0:	00060713          	mv	a4,a2
   224e4:	00400793          	li	a5,4
   224e8:	e05ff06f          	j	222ec <core_state_transition+0x130>

00000000000224ec <core_bench_state>:
   224ec:	f5010113          	addi	sp,sp,-176
   224f0:	09413023          	sd	s4,128(sp)
   224f4:	07713423          	sd	s7,104(sp)
   224f8:	05913c23          	sd	s9,88(sp)
   224fc:	00068b93          	mv	s7,a3
   22500:	00060c93          	mv	s9,a2
   22504:	00070a13          	mv	s4,a4
   22508:	0a813023          	sd	s0,160(sp)
   2250c:	00078713          	mv	a4,a5
   22510:	07813023          	sd	s8,96(sp)
   22514:	00058413          	mv	s0,a1
   22518:	000a0693          	mv	a3,s4
   2251c:	00050c13          	mv	s8,a0
   22520:	000b8613          	mv	a2,s7
   22524:	000c8593          	mv	a1,s9
   22528:	00002517          	auipc	a0,0x2
   2252c:	cd850513          	addi	a0,a0,-808 # 24200 <vm_boot+0x790>
   22530:	08913c23          	sd	s1,152(sp)
   22534:	09213823          	sd	s2,144(sp)
   22538:	09313423          	sd	s3,136(sp)
   2253c:	07613823          	sd	s6,112(sp)
   22540:	03010993          	addi	s3,sp,48
   22544:	00078b13          	mv	s6,a5
   22548:	0a113423          	sd	ra,168(sp)
   2254c:	07513c23          	sd	s5,120(sp)
   22550:	05a13823          	sd	s10,80(sp)
   22554:	01010493          	addi	s1,sp,16
   22558:	00813423          	sd	s0,8(sp)
   2255c:	5c0000ef          	jal	ra,22b1c <printf>
   22560:	00098913          	mv	s2,s3
   22564:	05010693          	addi	a3,sp,80
   22568:	00048713          	mv	a4,s1
   2256c:	00098793          	mv	a5,s3
   22570:	0007a023          	sw	zero,0(a5)
   22574:	00072023          	sw	zero,0(a4)
   22578:	00478793          	addi	a5,a5,4
   2257c:	00470713          	addi	a4,a4,4
   22580:	fed798e3          	bne	a5,a3,22570 <core_bench_state+0x84>
   22584:	00813783          	ld	a5,8(sp)
   22588:	00810a93          	addi	s5,sp,8
   2258c:	00002d17          	auipc	s10,0x2
   22590:	c94d0d13          	addi	s10,s10,-876 # 24220 <vm_boot+0x7b0>
   22594:	0007c783          	lbu	a5,0(a5)
   22598:	04078263          	beqz	a5,225dc <core_bench_state+0xf0>
   2259c:	00098593          	mv	a1,s3
   225a0:	000a8513          	mv	a0,s5
   225a4:	c19ff0ef          	jal	ra,221bc <core_state_transition>
   225a8:	0005059b          	sext.w	a1,a0
   225ac:	02059793          	slli	a5,a1,0x20
   225b0:	05010713          	addi	a4,sp,80
   225b4:	01e7d793          	srli	a5,a5,0x1e
   225b8:	00f707b3          	add	a5,a4,a5
   225bc:	fc07a703          	lw	a4,-64(a5)
   225c0:	000d0513          	mv	a0,s10
   225c4:	0017071b          	addiw	a4,a4,1
   225c8:	fce7a023          	sw	a4,-64(a5)
   225cc:	550000ef          	jal	ra,22b1c <printf>
   225d0:	00813783          	ld	a5,8(sp)
   225d4:	0007c783          	lbu	a5,0(a5)
   225d8:	fc0792e3          	bnez	a5,2259c <core_bench_state+0xb0>
   225dc:	020c1c13          	slli	s8,s8,0x20
   225e0:	00002517          	auipc	a0,0x2
   225e4:	f4050513          	addi	a0,a0,-192 # 24520 <vm_boot+0xab0>
   225e8:	020c5c13          	srli	s8,s8,0x20
   225ec:	530000ef          	jal	ra,22b1c <printf>
   225f0:	01840c33          	add	s8,s0,s8
   225f4:	00813423          	sd	s0,8(sp)
   225f8:	00040793          	mv	a5,s0
   225fc:	02c00613          	li	a2,44
   22600:	11847c63          	bgeu	s0,s8,22718 <core_bench_state+0x22c>
   22604:	0007c703          	lbu	a4,0(a5)
   22608:	019746b3          	xor	a3,a4,s9
   2260c:	00c70463          	beq	a4,a2,22614 <core_bench_state+0x128>
   22610:	00d78023          	sb	a3,0(a5)
   22614:	00813783          	ld	a5,8(sp)
   22618:	014787b3          	add	a5,a5,s4
   2261c:	00f13423          	sd	a5,8(sp)
   22620:	ff87e2e3          	bltu	a5,s8,22604 <core_bench_state+0x118>
   22624:	00044783          	lbu	a5,0(s0)
   22628:	00813423          	sd	s0,8(sp)
   2262c:	10078463          	beqz	a5,22734 <core_bench_state+0x248>
   22630:	00810a93          	addi	s5,sp,8
   22634:	00002c97          	auipc	s9,0x2
   22638:	becc8c93          	addi	s9,s9,-1044 # 24220 <vm_boot+0x7b0>
   2263c:	00098593          	mv	a1,s3
   22640:	000a8513          	mv	a0,s5
   22644:	b79ff0ef          	jal	ra,221bc <core_state_transition>
   22648:	0005059b          	sext.w	a1,a0
   2264c:	02059793          	slli	a5,a1,0x20
   22650:	05010713          	addi	a4,sp,80
   22654:	01e7d793          	srli	a5,a5,0x1e
   22658:	00f707b3          	add	a5,a4,a5
   2265c:	fc07a703          	lw	a4,-64(a5)
   22660:	000c8513          	mv	a0,s9
   22664:	0017071b          	addiw	a4,a4,1
   22668:	fce7a023          	sw	a4,-64(a5)
   2266c:	4b0000ef          	jal	ra,22b1c <printf>
   22670:	00813783          	ld	a5,8(sp)
   22674:	0007c783          	lbu	a5,0(a5)
   22678:	fc0792e3          	bnez	a5,2263c <core_bench_state+0x150>
   2267c:	00002517          	auipc	a0,0x2
   22680:	ea450513          	addi	a0,a0,-348 # 24520 <vm_boot+0xab0>
   22684:	498000ef          	jal	ra,22b1c <printf>
   22688:	00813423          	sd	s0,8(sp)
   2268c:	03847463          	bgeu	s0,s8,226b4 <core_bench_state+0x1c8>
   22690:	02c00693          	li	a3,44
   22694:	00044783          	lbu	a5,0(s0)
   22698:	0177c733          	xor	a4,a5,s7
   2269c:	00d78463          	beq	a5,a3,226a4 <core_bench_state+0x1b8>
   226a0:	00e40023          	sb	a4,0(s0)
   226a4:	00813403          	ld	s0,8(sp)
   226a8:	01440433          	add	s0,s0,s4
   226ac:	00813423          	sd	s0,8(sp)
   226b0:	ff8462e3          	bltu	s0,s8,22694 <core_bench_state+0x1a8>
   226b4:	02048413          	addi	s0,s1,32
   226b8:	0004a503          	lw	a0,0(s1)
   226bc:	000b0593          	mv	a1,s6
   226c0:	00448493          	addi	s1,s1,4
   226c4:	1d4000ef          	jal	ra,22898 <crcu32>
   226c8:	00050593          	mv	a1,a0
   226cc:	00092503          	lw	a0,0(s2)
   226d0:	00490913          	addi	s2,s2,4
   226d4:	1c4000ef          	jal	ra,22898 <crcu32>
   226d8:	00050b13          	mv	s6,a0
   226dc:	fc849ee3          	bne	s1,s0,226b8 <core_bench_state+0x1cc>
   226e0:	0a813083          	ld	ra,168(sp)
   226e4:	0a013403          	ld	s0,160(sp)
   226e8:	09813483          	ld	s1,152(sp)
   226ec:	09013903          	ld	s2,144(sp)
   226f0:	08813983          	ld	s3,136(sp)
   226f4:	08013a03          	ld	s4,128(sp)
   226f8:	07813a83          	ld	s5,120(sp)
   226fc:	07013b03          	ld	s6,112(sp)
   22700:	06813b83          	ld	s7,104(sp)
   22704:	06013c03          	ld	s8,96(sp)
   22708:	05813c83          	ld	s9,88(sp)
   2270c:	05013d03          	ld	s10,80(sp)
   22710:	0b010113          	addi	sp,sp,176
   22714:	00008067          	ret
   22718:	00044783          	lbu	a5,0(s0)
   2271c:	f0079ae3          	bnez	a5,22630 <core_bench_state+0x144>
   22720:	00002517          	auipc	a0,0x2
   22724:	e0050513          	addi	a0,a0,-512 # 24520 <vm_boot+0xab0>
   22728:	3f4000ef          	jal	ra,22b1c <printf>
   2272c:	00813423          	sd	s0,8(sp)
   22730:	f85ff06f          	j	226b4 <core_bench_state+0x1c8>
   22734:	00002517          	auipc	a0,0x2
   22738:	dec50513          	addi	a0,a0,-532 # 24520 <vm_boot+0xab0>
   2273c:	3e0000ef          	jal	ra,22b1c <printf>
   22740:	00813423          	sd	s0,8(sp)
   22744:	f4dff06f          	j	22690 <core_bench_state+0x1a4>

0000000000022748 <get_seed_32>:
   22748:	00500793          	li	a5,5
   2274c:	08a7e263          	bltu	a5,a0,227d0 <get_seed_32+0x88>
   22750:	00002717          	auipc	a4,0x2
   22754:	e4870713          	addi	a4,a4,-440 # 24598 <state_known_crc+0x20>
   22758:	00251513          	slli	a0,a0,0x2
   2275c:	00e50533          	add	a0,a0,a4
   22760:	00052783          	lw	a5,0(a0)
   22764:	00e787b3          	add	a5,a5,a4
   22768:	00078067          	jr	a5
   2276c:	00002797          	auipc	a5,0x2
   22770:	e6c7b783          	ld	a5,-404(a5) # 245d8 <_GLOBAL_OFFSET_TABLE_+0x20>
   22774:	0007a503          	lw	a0,0(a5)
   22778:	0005051b          	sext.w	a0,a0
   2277c:	00008067          	ret
   22780:	00002797          	auipc	a5,0x2
   22784:	e407b783          	ld	a5,-448(a5) # 245c0 <_GLOBAL_OFFSET_TABLE_+0x8>
   22788:	0007a503          	lw	a0,0(a5)
   2278c:	0005051b          	sext.w	a0,a0
   22790:	00008067          	ret
   22794:	00002797          	auipc	a5,0x2
   22798:	e547b783          	ld	a5,-428(a5) # 245e8 <_GLOBAL_OFFSET_TABLE_+0x30>
   2279c:	0007a503          	lw	a0,0(a5)
   227a0:	0005051b          	sext.w	a0,a0
   227a4:	00008067          	ret
   227a8:	00002797          	auipc	a5,0x2
   227ac:	e207b783          	ld	a5,-480(a5) # 245c8 <_GLOBAL_OFFSET_TABLE_+0x10>
   227b0:	0007a503          	lw	a0,0(a5)
   227b4:	0005051b          	sext.w	a0,a0
   227b8:	00008067          	ret
   227bc:	00002797          	auipc	a5,0x2
   227c0:	e147b783          	ld	a5,-492(a5) # 245d0 <_GLOBAL_OFFSET_TABLE_+0x18>
   227c4:	0007a503          	lw	a0,0(a5)
   227c8:	0005051b          	sext.w	a0,a0
   227cc:	00008067          	ret
   227d0:	00000513          	li	a0,0
   227d4:	00008067          	ret

00000000000227d8 <crcu8>:
   227d8:	ffffa637          	lui	a2,0xffffa
   227dc:	00800793          	li	a5,8
   227e0:	00160613          	addi	a2,a2,1 # ffffffffffffa001 <_end+0xfffffffffffcf811>
   227e4:	00a5c733          	xor	a4,a1,a0
   227e8:	fff7879b          	addiw	a5,a5,-1
   227ec:	0015d593          	srli	a1,a1,0x1
   227f0:	00177713          	andi	a4,a4,1
   227f4:	0ff7f793          	andi	a5,a5,255
   227f8:	00c5c6b3          	xor	a3,a1,a2
   227fc:	00155513          	srli	a0,a0,0x1
   22800:	00070663          	beqz	a4,2280c <crcu8+0x34>
   22804:	03069593          	slli	a1,a3,0x30
   22808:	0305d593          	srli	a1,a1,0x30
   2280c:	fc079ce3          	bnez	a5,227e4 <crcu8+0xc>
   22810:	00058513          	mv	a0,a1
   22814:	00008067          	ret

0000000000022818 <crcu16>:
   22818:	ffffa837          	lui	a6,0xffffa
   2281c:	0ff57693          	andi	a3,a0,255
   22820:	00800793          	li	a5,8
   22824:	00180813          	addi	a6,a6,1 # ffffffffffffa001 <_end+0xfffffffffffcf811>
   22828:	00d5c733          	xor	a4,a1,a3
   2282c:	fff7879b          	addiw	a5,a5,-1
   22830:	0015d593          	srli	a1,a1,0x1
   22834:	00177713          	andi	a4,a4,1
   22838:	0ff7f793          	andi	a5,a5,255
   2283c:	0105c633          	xor	a2,a1,a6
   22840:	0016d693          	srli	a3,a3,0x1
   22844:	00070663          	beqz	a4,22850 <crcu16+0x38>
   22848:	03061593          	slli	a1,a2,0x30
   2284c:	0305d593          	srli	a1,a1,0x30
   22850:	fc079ce3          	bnez	a5,22828 <crcu16+0x10>
   22854:	ffffa637          	lui	a2,0xffffa
   22858:	00855513          	srli	a0,a0,0x8
   2285c:	00800793          	li	a5,8
   22860:	00160613          	addi	a2,a2,1 # ffffffffffffa001 <_end+0xfffffffffffcf811>
   22864:	00a5c733          	xor	a4,a1,a0
   22868:	fff7879b          	addiw	a5,a5,-1
   2286c:	0015d593          	srli	a1,a1,0x1
   22870:	00177713          	andi	a4,a4,1
   22874:	0ff7f793          	andi	a5,a5,255
   22878:	00c5c6b3          	xor	a3,a1,a2
   2287c:	00155513          	srli	a0,a0,0x1
   22880:	00070663          	beqz	a4,2288c <crcu16+0x74>
   22884:	03069593          	slli	a1,a3,0x30
   22888:	0305d593          	srli	a1,a1,0x30
   2288c:	fc079ce3          	bnez	a5,22864 <crcu16+0x4c>
   22890:	00058513          	mv	a0,a1
   22894:	00008067          	ret

0000000000022898 <crcu32>:
   22898:	ff010113          	addi	sp,sp,-16
   2289c:	00813023          	sd	s0,0(sp)
   228a0:	00050413          	mv	s0,a0
   228a4:	03051513          	slli	a0,a0,0x30
   228a8:	03055513          	srli	a0,a0,0x30
   228ac:	00113423          	sd	ra,8(sp)
   228b0:	f69ff0ef          	jal	ra,22818 <crcu16>
   228b4:	00050593          	mv	a1,a0
   228b8:	0104551b          	srliw	a0,s0,0x10
   228bc:	00013403          	ld	s0,0(sp)
   228c0:	00813083          	ld	ra,8(sp)
   228c4:	01010113          	addi	sp,sp,16
   228c8:	f51ff06f          	j	22818 <crcu16>

00000000000228cc <crc16>:
   228cc:	03051513          	slli	a0,a0,0x30
   228d0:	03055513          	srli	a0,a0,0x30
   228d4:	f45ff06f          	j	22818 <crcu16>

00000000000228d8 <check_data_types>:
   228d8:	00000513          	li	a0,0
   228dc:	00008067          	ret

00000000000228e0 <userstart>:
   228e0:	8a0fe0ef          	jal	ra,20980 <COREMARK>

00000000000228e4 <end>:
   228e4:	0000006f          	j	228e4 <end>
   228e8:	c0001073          	unimp

00000000000228ec <time>:
   228ec:	c0002573          	rdcycle	a0
   228f0:	00008067          	ret

00000000000228f4 <insn>:
   228f4:	c0202573          	rdinstret	a0
   228f8:	00008067          	ret

00000000000228fc <enableIntr>:
   228fc:	300467f3          	csrrsi	a5,mstatus,8
   22900:	00008067          	ret

0000000000022904 <enableExternalIntr>:
   22904:	000017b7          	lui	a5,0x1
   22908:	8007879b          	addiw	a5,a5,-2048
   2290c:	3047a7f3          	csrrs	a5,mie,a5
   22910:	300467f3          	csrrsi	a5,mstatus,8
   22914:	00008067          	ret

0000000000022918 <enableTimerIntr>:
   22918:	08000793          	li	a5,128
   2291c:	3047a7f3          	csrrs	a5,mie,a5
   22920:	300467f3          	csrrsi	a5,mstatus,8
   22924:	00008067          	ret

0000000000022928 <disableIntr>:
   22928:	300477f3          	csrrci	a5,mstatus,8
   2292c:	00008067          	ret

0000000000022930 <disableExternalIntr>:
   22930:	000017b7          	lui	a5,0x1
   22934:	8007879b          	addiw	a5,a5,-2048
   22938:	3047b7f3          	csrrc	a5,mie,a5
   2293c:	00008067          	ret

0000000000022940 <disableTimerIntr>:
   22940:	08000793          	li	a5,128
   22944:	3047b7f3          	csrrc	a5,mie,a5
   22948:	00008067          	ret

000000000002294c <readMtime>:
   2294c:	100007b7          	lui	a5,0x10000
   22950:	0047a503          	lw	a0,4(a5) # 10000004 <_end+0xffd5814>
   22954:	0005051b          	sext.w	a0,a0
   22958:	00008067          	ret

000000000002295c <readMtimeCmp>:
   2295c:	100007b7          	lui	a5,0x10000
   22960:	00c7a503          	lw	a0,12(a5) # 1000000c <_end+0xffd581c>
   22964:	0005051b          	sext.w	a0,a0
   22968:	00008067          	ret

000000000002296c <writeMtimeCmp>:
   2296c:	100007b7          	lui	a5,0x10000
   22970:	00a7a623          	sw	a0,12(a5) # 1000000c <_end+0xffd581c>
   22974:	00008067          	ret

0000000000022978 <malloc>:
   22978:	00002797          	auipc	a5,0x2
   2297c:	6a878793          	addi	a5,a5,1704 # 25020 <heap_memory_used>
   22980:	0007a783          	lw	a5,0(a5)
   22984:	40000713          	li	a4,1024
   22988:	00f506bb          	addw	a3,a0,a5
   2298c:	00002617          	auipc	a2,0x2
   22990:	68d62a23          	sw	a3,1684(a2) # 25020 <heap_memory_used>
   22994:	00002517          	auipc	a0,0x2
   22998:	c4c53503          	ld	a0,-948(a0) # 245e0 <_GLOBAL_OFFSET_TABLE_+0x28>
   2299c:	00a78533          	add	a0,a5,a0
   229a0:	00d75463          	bge	a4,a3,229a8 <malloc+0x30>
   229a4:	00100073          	ebreak
   229a8:	00008067          	ret

00000000000229ac <printf_c>:
   229ac:	38000737          	lui	a4,0x38000
   229b0:	40b70713          	addi	a4,a4,1035 # 3800040b <_end+0x37fd5c1b>
   229b4:	00271713          	slli	a4,a4,0x2
   229b8:	00072783          	lw	a5,0(a4)
   229bc:	0107f793          	andi	a5,a5,16
   229c0:	fe079ce3          	bnez	a5,229b8 <printf_c+0xc>
   229c4:	0e0007b7          	lui	a5,0xe000
   229c8:	10378793          	addi	a5,a5,259 # e000103 <_end+0xdfd5913>
   229cc:	00479793          	slli	a5,a5,0x4
   229d0:	00a7a023          	sw	a0,0(a5)
   229d4:	00008067          	ret

00000000000229d8 <printf_s>:
   229d8:	00054783          	lbu	a5,0(a0)
   229dc:	02078e63          	beqz	a5,22a18 <printf_s+0x40>
   229e0:	38000737          	lui	a4,0x38000
   229e4:	0e000637          	lui	a2,0xe000
   229e8:	40b70713          	addi	a4,a4,1035 # 3800040b <_end+0x37fd5c1b>
   229ec:	10360613          	addi	a2,a2,259 # e000103 <_end+0xdfd5913>
   229f0:	00271713          	slli	a4,a4,0x2
   229f4:	00461613          	slli	a2,a2,0x4
   229f8:	00150513          	addi	a0,a0,1
   229fc:	0007869b          	sext.w	a3,a5
   22a00:	00072783          	lw	a5,0(a4)
   22a04:	0107f793          	andi	a5,a5,16
   22a08:	fe079ce3          	bnez	a5,22a00 <printf_s+0x28>
   22a0c:	00d62023          	sw	a3,0(a2)
   22a10:	00054783          	lbu	a5,0(a0)
   22a14:	fe0792e3          	bnez	a5,229f8 <printf_s+0x20>
   22a18:	00008067          	ret

0000000000022a1c <printf_d>:
   22a1c:	fe010113          	addi	sp,sp,-32
   22a20:	06054663          	bltz	a0,22a8c <printf_d+0x70>
   22a24:	00010613          	mv	a2,sp
   22a28:	00060713          	mv	a4,a2
   22a2c:	00a00693          	li	a3,10
   22a30:	00051463          	bnez	a0,22a38 <printf_d+0x1c>
   22a34:	00c71e63          	bne	a4,a2,22a50 <printf_d+0x34>
   22a38:	02d567bb          	remw	a5,a0,a3
   22a3c:	00170713          	addi	a4,a4,1
   22a40:	0307879b          	addiw	a5,a5,48
   22a44:	02d5453b          	divw	a0,a0,a3
   22a48:	fef70fa3          	sb	a5,-1(a4)
   22a4c:	fe5ff06f          	j	22a30 <printf_d+0x14>
   22a50:	380006b7          	lui	a3,0x38000
   22a54:	0e000537          	lui	a0,0xe000
   22a58:	40b68693          	addi	a3,a3,1035 # 3800040b <_end+0x37fd5c1b>
   22a5c:	10350513          	addi	a0,a0,259 # e000103 <_end+0xdfd5913>
   22a60:	00269693          	slli	a3,a3,0x2
   22a64:	00451513          	slli	a0,a0,0x4
   22a68:	fff70713          	addi	a4,a4,-1
   22a6c:	00074583          	lbu	a1,0(a4)
   22a70:	0006a783          	lw	a5,0(a3)
   22a74:	0107f793          	andi	a5,a5,16
   22a78:	fe079ce3          	bnez	a5,22a70 <printf_d+0x54>
   22a7c:	00b52023          	sw	a1,0(a0)
   22a80:	fec714e3          	bne	a4,a2,22a68 <printf_d+0x4c>
   22a84:	02010113          	addi	sp,sp,32
   22a88:	00008067          	ret
   22a8c:	38000737          	lui	a4,0x38000
   22a90:	40b70713          	addi	a4,a4,1035 # 3800040b <_end+0x37fd5c1b>
   22a94:	00271713          	slli	a4,a4,0x2
   22a98:	00072783          	lw	a5,0(a4)
   22a9c:	0107f793          	andi	a5,a5,16
   22aa0:	fe079ce3          	bnez	a5,22a98 <printf_d+0x7c>
   22aa4:	0e0007b7          	lui	a5,0xe000
   22aa8:	10378793          	addi	a5,a5,259 # e000103 <_end+0xdfd5913>
   22aac:	00479793          	slli	a5,a5,0x4
   22ab0:	02d00713          	li	a4,45
   22ab4:	00e7a023          	sw	a4,0(a5)
   22ab8:	40a0053b          	negw	a0,a0
   22abc:	f69ff06f          	j	22a24 <printf_d+0x8>

0000000000022ac0 <printf_h>:
   22ac0:	fff5869b          	addiw	a3,a1,-1
   22ac4:	0026969b          	slliw	a3,a3,0x2
   22ac8:	0406c863          	bltz	a3,22b18 <printf_h+0x58>
   22acc:	38000737          	lui	a4,0x38000
   22ad0:	0e0005b7          	lui	a1,0xe000
   22ad4:	40b70713          	addi	a4,a4,1035 # 3800040b <_end+0x37fd5c1b>
   22ad8:	10358593          	addi	a1,a1,259 # e000103 <_end+0xdfd5913>
   22adc:	ffc00893          	li	a7,-4
   22ae0:	00002817          	auipc	a6,0x2
   22ae4:	82880813          	addi	a6,a6,-2008 # 24308 <vm_boot+0x898>
   22ae8:	00271713          	slli	a4,a4,0x2
   22aec:	00459593          	slli	a1,a1,0x4
   22af0:	00d557bb          	srlw	a5,a0,a3
   22af4:	00f7f793          	andi	a5,a5,15
   22af8:	00f807b3          	add	a5,a6,a5
   22afc:	0007c603          	lbu	a2,0(a5)
   22b00:	00072783          	lw	a5,0(a4)
   22b04:	0107f793          	andi	a5,a5,16
   22b08:	fe079ce3          	bnez	a5,22b00 <printf_h+0x40>
   22b0c:	00c5a023          	sw	a2,0(a1)
   22b10:	ffc6869b          	addiw	a3,a3,-4
   22b14:	fd169ee3          	bne	a3,a7,22af0 <printf_h+0x30>
   22b18:	00008067          	ret

0000000000022b1c <printf>:
   22b1c:	f8010113          	addi	sp,sp,-128
   22b20:	02113c23          	sd	ra,56(sp)
   22b24:	02813823          	sd	s0,48(sp)
   22b28:	02913423          	sd	s1,40(sp)
   22b2c:	03213023          	sd	s2,32(sp)
   22b30:	01313c23          	sd	s3,24(sp)
   22b34:	01413823          	sd	s4,16(sp)
   22b38:	00054303          	lbu	t1,0(a0)
   22b3c:	06f13423          	sd	a5,104(sp)
   22b40:	04810793          	addi	a5,sp,72
   22b44:	04b13423          	sd	a1,72(sp)
   22b48:	04c13823          	sd	a2,80(sp)
   22b4c:	04d13c23          	sd	a3,88(sp)
   22b50:	06e13023          	sd	a4,96(sp)
   22b54:	07013823          	sd	a6,112(sp)
   22b58:	07113c23          	sd	a7,120(sp)
   22b5c:	00f13423          	sd	a5,8(sp)
   22b60:	04030a63          	beqz	t1,22bb4 <printf+0x98>
   22b64:	38000437          	lui	s0,0x38000
   22b68:	0e000a37          	lui	s4,0xe000
   22b6c:	40b40413          	addi	s0,s0,1035 # 3800040b <_end+0x37fd5c1b>
   22b70:	103a0a13          	addi	s4,s4,259 # e000103 <_end+0xdfd5913>
   22b74:	00000493          	li	s1,0
   22b78:	00050913          	mv	s2,a0
   22b7c:	00241413          	slli	s0,s0,0x2
   22b80:	004a1a13          	slli	s4,s4,0x4
   22b84:	06300993          	li	s3,99
   22b88:	02500793          	li	a5,37
   22b8c:	04f30463          	beq	t1,a5,22bd4 <printf+0xb8>
   22b90:	0003031b          	sext.w	t1,t1
   22b94:	00042783          	lw	a5,0(s0)
   22b98:	0107f793          	andi	a5,a5,16
   22b9c:	fe079ce3          	bnez	a5,22b94 <printf+0x78>
   22ba0:	006a2023          	sw	t1,0(s4)
   22ba4:	0014849b          	addiw	s1,s1,1
   22ba8:	009907b3          	add	a5,s2,s1
   22bac:	0007c303          	lbu	t1,0(a5)
   22bb0:	fc031ce3          	bnez	t1,22b88 <printf+0x6c>
   22bb4:	03813083          	ld	ra,56(sp)
   22bb8:	03013403          	ld	s0,48(sp)
   22bbc:	02813483          	ld	s1,40(sp)
   22bc0:	02013903          	ld	s2,32(sp)
   22bc4:	01813983          	ld	s3,24(sp)
   22bc8:	01013a03          	ld	s4,16(sp)
   22bcc:	08010113          	addi	sp,sp,128
   22bd0:	00008067          	ret
   22bd4:	0014871b          	addiw	a4,s1,1
   22bd8:	07300613          	li	a2,115
   22bdc:	06400593          	li	a1,100
   22be0:	07500813          	li	a6,117
   22be4:	06c00513          	li	a0,108
   22be8:	03000893          	li	a7,48
   22bec:	0180006f          	j	22c04 <printf+0xe8>
   22bf0:	06c78463          	beq	a5,a2,22c58 <printf+0x13c>
   22bf4:	04b78663          	beq	a5,a1,22c40 <printf+0x124>
   22bf8:	05078463          	beq	a5,a6,22c40 <printf+0x124>
   22bfc:	08a78c63          	beq	a5,a0,22c94 <printf+0x178>
   22c00:	0b178c63          	beq	a5,a7,22cb8 <printf+0x19c>
   22c04:	00e906b3          	add	a3,s2,a4
   22c08:	0006c783          	lbu	a5,0(a3)
   22c0c:	0007049b          	sext.w	s1,a4
   22c10:	00170713          	addi	a4,a4,1
   22c14:	f80788e3          	beqz	a5,22ba4 <printf+0x88>
   22c18:	fd379ce3          	bne	a5,s3,22bf0 <printf+0xd4>
   22c1c:	00813783          	ld	a5,8(sp)
   22c20:	0007a703          	lw	a4,0(a5)
   22c24:	00878793          	addi	a5,a5,8
   22c28:	00f13423          	sd	a5,8(sp)
   22c2c:	00042783          	lw	a5,0(s0)
   22c30:	0107f793          	andi	a5,a5,16
   22c34:	fe079ce3          	bnez	a5,22c2c <printf+0x110>
   22c38:	00ea2023          	sw	a4,0(s4)
   22c3c:	f69ff06f          	j	22ba4 <printf+0x88>
   22c40:	00813783          	ld	a5,8(sp)
   22c44:	0007a503          	lw	a0,0(a5)
   22c48:	00878793          	addi	a5,a5,8
   22c4c:	00f13423          	sd	a5,8(sp)
   22c50:	dcdff0ef          	jal	ra,22a1c <printf_d>
   22c54:	f51ff06f          	j	22ba4 <printf+0x88>
   22c58:	00813783          	ld	a5,8(sp)
   22c5c:	0007b683          	ld	a3,0(a5)
   22c60:	00878793          	addi	a5,a5,8
   22c64:	00f13423          	sd	a5,8(sp)
   22c68:	0006c783          	lbu	a5,0(a3)
   22c6c:	f2078ce3          	beqz	a5,22ba4 <printf+0x88>
   22c70:	00168693          	addi	a3,a3,1
   22c74:	0007871b          	sext.w	a4,a5
   22c78:	00042783          	lw	a5,0(s0)
   22c7c:	0107f793          	andi	a5,a5,16
   22c80:	fe079ce3          	bnez	a5,22c78 <printf+0x15c>
   22c84:	00ea2023          	sw	a4,0(s4)
   22c88:	0006c783          	lbu	a5,0(a3)
   22c8c:	fe0792e3          	bnez	a5,22c70 <printf+0x154>
   22c90:	f15ff06f          	j	22ba4 <printf+0x88>
   22c94:	00813783          	ld	a5,8(sp)
   22c98:	0016c683          	lbu	a3,1(a3)
   22c9c:	0007b503          	ld	a0,0(a5)
   22ca0:	00878713          	addi	a4,a5,8
   22ca4:	0005051b          	sext.w	a0,a0
   22ca8:	07068663          	beq	a3,a6,22d14 <printf+0x1f8>
   22cac:	00e13423          	sd	a4,8(sp)
   22cb0:	d6dff0ef          	jal	ra,22a1c <printf_d>
   22cb4:	ef1ff06f          	j	22ba4 <printf+0x88>
   22cb8:	00813783          	ld	a5,8(sp)
   22cbc:	0016c703          	lbu	a4,1(a3)
   22cc0:	ffc00513          	li	a0,-4
   22cc4:	00878693          	addi	a3,a5,8
   22cc8:	fcf7071b          	addiw	a4,a4,-49
   22ccc:	00d13423          	sd	a3,8(sp)
   22cd0:	0027171b          	slliw	a4,a4,0x2
   22cd4:	0007a583          	lw	a1,0(a5)
   22cd8:	00001617          	auipc	a2,0x1
   22cdc:	63060613          	addi	a2,a2,1584 # 24308 <vm_boot+0x898>
   22ce0:	02074663          	bltz	a4,22d0c <printf+0x1f0>
   22ce4:	00e5d7bb          	srlw	a5,a1,a4
   22ce8:	00f7f793          	andi	a5,a5,15
   22cec:	00f607b3          	add	a5,a2,a5
   22cf0:	0007c683          	lbu	a3,0(a5)
   22cf4:	00042783          	lw	a5,0(s0)
   22cf8:	0107f793          	andi	a5,a5,16
   22cfc:	fe079ce3          	bnez	a5,22cf4 <printf+0x1d8>
   22d00:	00da2023          	sw	a3,0(s4)
   22d04:	ffc7071b          	addiw	a4,a4,-4
   22d08:	fca71ee3          	bne	a4,a0,22ce4 <printf+0x1c8>
   22d0c:	0024849b          	addiw	s1,s1,2
   22d10:	e95ff06f          	j	22ba4 <printf+0x88>
   22d14:	0014849b          	addiw	s1,s1,1
   22d18:	00e13423          	sd	a4,8(sp)
   22d1c:	d01ff0ef          	jal	ra,22a1c <printf_d>
   22d20:	e85ff06f          	j	22ba4 <printf+0x88>

0000000000022d24 <scanf_c>:
   22d24:	38000737          	lui	a4,0x38000
   22d28:	40b70713          	addi	a4,a4,1035 # 3800040b <_end+0x37fd5c1b>
   22d2c:	ff010113          	addi	sp,sp,-16
   22d30:	00271713          	slli	a4,a4,0x2
   22d34:	00072783          	lw	a5,0(a4)
   22d38:	0027f793          	andi	a5,a5,2
   22d3c:	fe079ce3          	bnez	a5,22d34 <scanf_c+0x10>
   22d40:	0e0007b7          	lui	a5,0xe000
   22d44:	10378793          	addi	a5,a5,259 # e000103 <_end+0xdfd5913>
   22d48:	00479793          	slli	a5,a5,0x4
   22d4c:	0007c783          	lbu	a5,0(a5)
   22d50:	38000737          	lui	a4,0x38000
   22d54:	40b70713          	addi	a4,a4,1035 # 3800040b <_end+0x37fd5c1b>
   22d58:	00f107a3          	sb	a5,15(sp)
   22d5c:	00f14683          	lbu	a3,15(sp)
   22d60:	00271713          	slli	a4,a4,0x2
   22d64:	00072783          	lw	a5,0(a4)
   22d68:	0107f793          	andi	a5,a5,16
   22d6c:	fe079ce3          	bnez	a5,22d64 <scanf_c+0x40>
   22d70:	0e0007b7          	lui	a5,0xe000
   22d74:	10378793          	addi	a5,a5,259 # e000103 <_end+0xdfd5913>
   22d78:	00479793          	slli	a5,a5,0x4
   22d7c:	00d7a023          	sw	a3,0(a5)
   22d80:	00f14503          	lbu	a0,15(sp)
   22d84:	01010113          	addi	sp,sp,16
   22d88:	00008067          	ret

0000000000022d8c <scanf>:
   22d8c:	38000737          	lui	a4,0x38000
   22d90:	40b70713          	addi	a4,a4,1035 # 3800040b <_end+0x37fd5c1b>
   22d94:	ff010113          	addi	sp,sp,-16
   22d98:	00271713          	slli	a4,a4,0x2
   22d9c:	00072783          	lw	a5,0(a4)
   22da0:	0027f793          	andi	a5,a5,2
   22da4:	fe079ce3          	bnez	a5,22d9c <scanf+0x10>
   22da8:	0e0007b7          	lui	a5,0xe000
   22dac:	10378793          	addi	a5,a5,259 # e000103 <_end+0xdfd5913>
   22db0:	00479793          	slli	a5,a5,0x4
   22db4:	0007c783          	lbu	a5,0(a5)
   22db8:	38000737          	lui	a4,0x38000
   22dbc:	40b70713          	addi	a4,a4,1035 # 3800040b <_end+0x37fd5c1b>
   22dc0:	00f107a3          	sb	a5,15(sp)
   22dc4:	00f14683          	lbu	a3,15(sp)
   22dc8:	00271713          	slli	a4,a4,0x2
   22dcc:	00072783          	lw	a5,0(a4)
   22dd0:	0107f793          	andi	a5,a5,16
   22dd4:	fe079ce3          	bnez	a5,22dcc <scanf+0x40>
   22dd8:	0e0007b7          	lui	a5,0xe000
   22ddc:	10378793          	addi	a5,a5,259 # e000103 <_end+0xdfd5913>
   22de0:	00479793          	slli	a5,a5,0x4
   22de4:	00d7a023          	sw	a3,0(a5)
   22de8:	00f14783          	lbu	a5,15(sp)
   22dec:	06e00713          	li	a4,110
   22df0:	0ff7f793          	andi	a5,a5,255
   22df4:	00f10723          	sb	a5,14(sp)
   22df8:	00e14783          	lbu	a5,14(sp)
   22dfc:	00f70863          	beq	a4,a5,22e0c <scanf+0x80>
   22e00:	00e14783          	lbu	a5,14(sp)
   22e04:	00e14783          	lbu	a5,14(sp)
   22e08:	fef71ce3          	bne	a4,a5,22e00 <scanf+0x74>
   22e0c:	00001517          	auipc	a0,0x1
   22e10:	f2450513          	addi	a0,a0,-220 # 23d30 <vm_boot+0x2c0>
   22e14:	01010113          	addi	sp,sp,16
   22e18:	00008067          	ret

0000000000022e1c <memcpy>:
   22e1c:	00c5e7b3          	or	a5,a1,a2
   22e20:	00f567b3          	or	a5,a0,a5
   22e24:	0077f793          	andi	a5,a5,7
   22e28:	00c506b3          	add	a3,a0,a2
   22e2c:	02078463          	beqz	a5,22e54 <memcpy+0x38>
   22e30:	00c58633          	add	a2,a1,a2
   22e34:	00050793          	mv	a5,a0
   22e38:	02d57e63          	bgeu	a0,a3,22e74 <memcpy+0x58>
   22e3c:	00158593          	addi	a1,a1,1
   22e40:	fff5c703          	lbu	a4,-1(a1)
   22e44:	00178793          	addi	a5,a5,1
   22e48:	fee78fa3          	sb	a4,-1(a5)
   22e4c:	feb618e3          	bne	a2,a1,22e3c <memcpy+0x20>
   22e50:	00008067          	ret
   22e54:	fed57ee3          	bgeu	a0,a3,22e50 <memcpy+0x34>
   22e58:	00050793          	mv	a5,a0
   22e5c:	00858593          	addi	a1,a1,8
   22e60:	ff85b703          	ld	a4,-8(a1)
   22e64:	00878793          	addi	a5,a5,8
   22e68:	fee7bc23          	sd	a4,-8(a5)
   22e6c:	fed7e8e3          	bltu	a5,a3,22e5c <memcpy+0x40>
   22e70:	00008067          	ret
   22e74:	00008067          	ret

0000000000022e78 <memset>:
   22e78:	00c567b3          	or	a5,a0,a2
   22e7c:	0077f793          	andi	a5,a5,7
   22e80:	00c50633          	add	a2,a0,a2
   22e84:	0ff5f593          	andi	a1,a1,255
   22e88:	00078e63          	beqz	a5,22ea4 <memset+0x2c>
   22e8c:	00050793          	mv	a5,a0
   22e90:	04c57263          	bgeu	a0,a2,22ed4 <memset+0x5c>
   22e94:	00178793          	addi	a5,a5,1
   22e98:	feb78fa3          	sb	a1,-1(a5)
   22e9c:	fef61ce3          	bne	a2,a5,22e94 <memset+0x1c>
   22ea0:	00008067          	ret
   22ea4:	00859793          	slli	a5,a1,0x8
   22ea8:	00b7e5b3          	or	a1,a5,a1
   22eac:	01059793          	slli	a5,a1,0x10
   22eb0:	00b7e7b3          	or	a5,a5,a1
   22eb4:	02079593          	slli	a1,a5,0x20
   22eb8:	00f5e5b3          	or	a1,a1,a5
   22ebc:	fec572e3          	bgeu	a0,a2,22ea0 <memset+0x28>
   22ec0:	00050793          	mv	a5,a0
   22ec4:	00878793          	addi	a5,a5,8
   22ec8:	feb7bc23          	sd	a1,-8(a5)
   22ecc:	fec7ece3          	bltu	a5,a2,22ec4 <memset+0x4c>
   22ed0:	00008067          	ret
   22ed4:	00008067          	ret

0000000000022ed8 <strlen>:
   22ed8:	00054783          	lbu	a5,0(a0)
   22edc:	00078e63          	beqz	a5,22ef8 <strlen+0x20>
   22ee0:	00050793          	mv	a5,a0
   22ee4:	00178793          	addi	a5,a5,1
   22ee8:	0007c703          	lbu	a4,0(a5)
   22eec:	fe071ce3          	bnez	a4,22ee4 <strlen+0xc>
   22ef0:	40a78533          	sub	a0,a5,a0
   22ef4:	00008067          	ret
   22ef8:	00000513          	li	a0,0
   22efc:	00008067          	ret

0000000000022f00 <strcmp>:
   22f00:	00150513          	addi	a0,a0,1
   22f04:	fff54783          	lbu	a5,-1(a0)
   22f08:	00158593          	addi	a1,a1,1
   22f0c:	fff5c703          	lbu	a4,-1(a1)
   22f10:	00078a63          	beqz	a5,22f24 <strcmp+0x24>
   22f14:	fee786e3          	beq	a5,a4,22f00 <strcmp>
   22f18:	0007851b          	sext.w	a0,a5
   22f1c:	40e5053b          	subw	a0,a0,a4
   22f20:	00008067          	ret
   22f24:	00000513          	li	a0,0
   22f28:	ff5ff06f          	j	22f1c <strcmp+0x1c>

0000000000022f2c <memcmp>:
   22f2c:	00b567b3          	or	a5,a0,a1
   22f30:	0077f793          	andi	a5,a5,7
   22f34:	04079463          	bnez	a5,22f7c <memcmp+0x50>
   22f38:	ff867813          	andi	a6,a2,-8
   22f3c:	01050833          	add	a6,a0,a6
   22f40:	03057e63          	bgeu	a0,a6,22f7c <memcmp+0x50>
   22f44:	00053703          	ld	a4,0(a0)
   22f48:	0005b783          	ld	a5,0(a1)
   22f4c:	02f71863          	bne	a4,a5,22f7c <memcmp+0x50>
   22f50:	00050793          	mv	a5,a0
   22f54:	0100006f          	j	22f64 <memcmp+0x38>
   22f58:	0007b683          	ld	a3,0(a5)
   22f5c:	0005b703          	ld	a4,0(a1)
   22f60:	00e69863          	bne	a3,a4,22f70 <memcmp+0x44>
   22f64:	00878793          	addi	a5,a5,8
   22f68:	00858593          	addi	a1,a1,8
   22f6c:	ff07e6e3          	bltu	a5,a6,22f58 <memcmp+0x2c>
   22f70:	40a78533          	sub	a0,a5,a0
   22f74:	40a60633          	sub	a2,a2,a0
   22f78:	00078513          	mv	a0,a5
   22f7c:	00c58633          	add	a2,a1,a2
   22f80:	0140006f          	j	22f94 <memcmp+0x68>
   22f84:	00158593          	addi	a1,a1,1
   22f88:	fff54783          	lbu	a5,-1(a0)
   22f8c:	fff5c703          	lbu	a4,-1(a1)
   22f90:	00e79a63          	bne	a5,a4,22fa4 <memcmp+0x78>
   22f94:	00150513          	addi	a0,a0,1
   22f98:	fec596e3          	bne	a1,a2,22f84 <memcmp+0x58>
   22f9c:	00000513          	li	a0,0
   22fa0:	00008067          	ret
   22fa4:	40e7853b          	subw	a0,a5,a4
   22fa8:	00008067          	ret

0000000000022fac <strcpy>:
   22fac:	00050793          	mv	a5,a0
   22fb0:	00158593          	addi	a1,a1,1
   22fb4:	fff5c703          	lbu	a4,-1(a1)
   22fb8:	00178793          	addi	a5,a5,1
   22fbc:	fee78fa3          	sb	a4,-1(a5)
   22fc0:	fe0718e3          	bnez	a4,22fb0 <strcpy+0x4>
   22fc4:	00008067          	ret

0000000000022fc8 <atol>:
   22fc8:	00054783          	lbu	a5,0(a0)
   22fcc:	02000713          	li	a4,32
   22fd0:	00e79863          	bne	a5,a4,22fe0 <atol+0x18>
   22fd4:	00150513          	addi	a0,a0,1
   22fd8:	00054783          	lbu	a5,0(a0)
   22fdc:	fee78ce3          	beq	a5,a4,22fd4 <atol+0xc>
   22fe0:	fd57871b          	addiw	a4,a5,-43
   22fe4:	0fd77713          	andi	a4,a4,253
   22fe8:	04070263          	beqz	a4,2302c <atol+0x64>
   22fec:	00054683          	lbu	a3,0(a0)
   22ff0:	00050793          	mv	a5,a0
   22ff4:	00000613          	li	a2,0
   22ff8:	04068863          	beqz	a3,23048 <atol+0x80>
   22ffc:	00000513          	li	a0,0
   23000:	00178793          	addi	a5,a5,1
   23004:	fd06859b          	addiw	a1,a3,-48
   23008:	00251713          	slli	a4,a0,0x2
   2300c:	0007c683          	lbu	a3,0(a5)
   23010:	00a70533          	add	a0,a4,a0
   23014:	00151513          	slli	a0,a0,0x1
   23018:	00a58533          	add	a0,a1,a0
   2301c:	fe0692e3          	bnez	a3,23000 <atol+0x38>
   23020:	00060463          	beqz	a2,23028 <atol+0x60>
   23024:	40a00533          	neg	a0,a0
   23028:	00008067          	ret
   2302c:	00154683          	lbu	a3,1(a0)
   23030:	fd378793          	addi	a5,a5,-45
   23034:	0017b613          	seqz	a2,a5
   23038:	00150793          	addi	a5,a0,1
   2303c:	fc0690e3          	bnez	a3,22ffc <atol+0x34>
   23040:	00000513          	li	a0,0
   23044:	fddff06f          	j	23020 <atol+0x58>
   23048:	00000513          	li	a0,0
   2304c:	00008067          	ret

0000000000023050 <terminate>:
   23050:	380007b7          	lui	a5,0x38000
   23054:	40b78793          	addi	a5,a5,1035 # 3800040b <_end+0x37fd5c1b>
   23058:	00279793          	slli	a5,a5,0x2
   2305c:	0007a703          	lw	a4,0(a5)
   23060:	01077713          	andi	a4,a4,16
   23064:	fe071ce3          	bnez	a4,2305c <terminate+0xc>
   23068:	0e0007b7          	lui	a5,0xe000
   2306c:	10378793          	addi	a5,a5,259 # e000103 <_end+0xdfd5913>
   23070:	00479793          	slli	a5,a5,0x4
   23074:	00a7a023          	sw	a0,0(a5)
   23078:	0000006f          	j	23078 <terminate+0x28>

000000000002307c <hprintf_c>:
   2307c:	38000737          	lui	a4,0x38000
   23080:	40b70713          	addi	a4,a4,1035 # 3800040b <_end+0x37fd5c1b>
   23084:	00271713          	slli	a4,a4,0x2
   23088:	00072783          	lw	a5,0(a4)
   2308c:	0107f793          	andi	a5,a5,16
   23090:	fe079ce3          	bnez	a5,23088 <hprintf_c+0xc>
   23094:	0e0007b7          	lui	a5,0xe000
   23098:	10378793          	addi	a5,a5,259 # e000103 <_end+0xdfd5913>
   2309c:	00479793          	slli	a5,a5,0x4
   230a0:	00a7a023          	sw	a0,0(a5)
   230a4:	00008067          	ret

00000000000230a8 <hprintf_s>:
   230a8:	00054783          	lbu	a5,0(a0)
   230ac:	02078e63          	beqz	a5,230e8 <hprintf_s+0x40>
   230b0:	38000737          	lui	a4,0x38000
   230b4:	0e000637          	lui	a2,0xe000
   230b8:	40b70713          	addi	a4,a4,1035 # 3800040b <_end+0x37fd5c1b>
   230bc:	10360613          	addi	a2,a2,259 # e000103 <_end+0xdfd5913>
   230c0:	00271713          	slli	a4,a4,0x2
   230c4:	00461613          	slli	a2,a2,0x4
   230c8:	00150513          	addi	a0,a0,1
   230cc:	0007869b          	sext.w	a3,a5
   230d0:	00072783          	lw	a5,0(a4)
   230d4:	0107f793          	andi	a5,a5,16
   230d8:	fe079ce3          	bnez	a5,230d0 <hprintf_s+0x28>
   230dc:	00d62023          	sw	a3,0(a2)
   230e0:	00054783          	lbu	a5,0(a0)
   230e4:	fe0792e3          	bnez	a5,230c8 <hprintf_s+0x20>
   230e8:	00008067          	ret

00000000000230ec <hprintf_d>:
   230ec:	fe010113          	addi	sp,sp,-32
   230f0:	06054663          	bltz	a0,2315c <hprintf_d+0x70>
   230f4:	00010613          	mv	a2,sp
   230f8:	00060713          	mv	a4,a2
   230fc:	00a00693          	li	a3,10
   23100:	00051463          	bnez	a0,23108 <hprintf_d+0x1c>
   23104:	00c71e63          	bne	a4,a2,23120 <hprintf_d+0x34>
   23108:	02d567bb          	remw	a5,a0,a3
   2310c:	00170713          	addi	a4,a4,1
   23110:	0307879b          	addiw	a5,a5,48
   23114:	02d5453b          	divw	a0,a0,a3
   23118:	fef70fa3          	sb	a5,-1(a4)
   2311c:	fe5ff06f          	j	23100 <hprintf_d+0x14>
   23120:	380006b7          	lui	a3,0x38000
   23124:	0e000537          	lui	a0,0xe000
   23128:	40b68693          	addi	a3,a3,1035 # 3800040b <_end+0x37fd5c1b>
   2312c:	10350513          	addi	a0,a0,259 # e000103 <_end+0xdfd5913>
   23130:	00269693          	slli	a3,a3,0x2
   23134:	00451513          	slli	a0,a0,0x4
   23138:	fff70713          	addi	a4,a4,-1
   2313c:	00074583          	lbu	a1,0(a4)
   23140:	0006a783          	lw	a5,0(a3)
   23144:	0107f793          	andi	a5,a5,16
   23148:	fe079ce3          	bnez	a5,23140 <hprintf_d+0x54>
   2314c:	00b52023          	sw	a1,0(a0)
   23150:	fec714e3          	bne	a4,a2,23138 <hprintf_d+0x4c>
   23154:	02010113          	addi	sp,sp,32
   23158:	00008067          	ret
   2315c:	38000737          	lui	a4,0x38000
   23160:	40b70713          	addi	a4,a4,1035 # 3800040b <_end+0x37fd5c1b>
   23164:	00271713          	slli	a4,a4,0x2
   23168:	00072783          	lw	a5,0(a4)
   2316c:	0107f793          	andi	a5,a5,16
   23170:	fe079ce3          	bnez	a5,23168 <hprintf_d+0x7c>
   23174:	0e0007b7          	lui	a5,0xe000
   23178:	10378793          	addi	a5,a5,259 # e000103 <_end+0xdfd5913>
   2317c:	00479793          	slli	a5,a5,0x4
   23180:	02d00713          	li	a4,45
   23184:	00e7a023          	sw	a4,0(a5)
   23188:	40a0053b          	negw	a0,a0
   2318c:	f69ff06f          	j	230f4 <hprintf_d+0x8>

0000000000023190 <hprintf_h>:
   23190:	380007b7          	lui	a5,0x38000
   23194:	0e000637          	lui	a2,0xe000
   23198:	40b78793          	addi	a5,a5,1035 # 3800040b <_end+0x37fd5c1b>
   2319c:	10360613          	addi	a2,a2,259 # e000103 <_end+0xdfd5913>
   231a0:	01c00693          	li	a3,28
   231a4:	00001897          	auipc	a7,0x1
   231a8:	16488893          	addi	a7,a7,356 # 24308 <vm_boot+0x898>
   231ac:	00279713          	slli	a4,a5,0x2
   231b0:	00461593          	slli	a1,a2,0x4
   231b4:	ffc00813          	li	a6,-4
   231b8:	00d557bb          	srlw	a5,a0,a3
   231bc:	00f7f793          	andi	a5,a5,15
   231c0:	00f887b3          	add	a5,a7,a5
   231c4:	0007c603          	lbu	a2,0(a5)
   231c8:	00072783          	lw	a5,0(a4)
   231cc:	0107f793          	andi	a5,a5,16
   231d0:	fe079ce3          	bnez	a5,231c8 <hprintf_h+0x38>
   231d4:	00c5a023          	sw	a2,0(a1)
   231d8:	ffc6869b          	addiw	a3,a3,-4
   231dc:	fd069ee3          	bne	a3,a6,231b8 <hprintf_h+0x28>
   231e0:	00008067          	ret

00000000000231e4 <hprintf>:
   231e4:	f8010113          	addi	sp,sp,-128
   231e8:	02113c23          	sd	ra,56(sp)
   231ec:	02813823          	sd	s0,48(sp)
   231f0:	02913423          	sd	s1,40(sp)
   231f4:	03213023          	sd	s2,32(sp)
   231f8:	01313c23          	sd	s3,24(sp)
   231fc:	01413823          	sd	s4,16(sp)
   23200:	00054303          	lbu	t1,0(a0)
   23204:	06f13423          	sd	a5,104(sp)
   23208:	04810793          	addi	a5,sp,72
   2320c:	04b13423          	sd	a1,72(sp)
   23210:	04c13823          	sd	a2,80(sp)
   23214:	04d13c23          	sd	a3,88(sp)
   23218:	06e13023          	sd	a4,96(sp)
   2321c:	07013823          	sd	a6,112(sp)
   23220:	07113c23          	sd	a7,120(sp)
   23224:	00f13423          	sd	a5,8(sp)
   23228:	04030a63          	beqz	t1,2327c <hprintf+0x98>
   2322c:	38000437          	lui	s0,0x38000
   23230:	0e000a37          	lui	s4,0xe000
   23234:	40b40413          	addi	s0,s0,1035 # 3800040b <_end+0x37fd5c1b>
   23238:	103a0a13          	addi	s4,s4,259 # e000103 <_end+0xdfd5913>
   2323c:	00000493          	li	s1,0
   23240:	00050913          	mv	s2,a0
   23244:	00241413          	slli	s0,s0,0x2
   23248:	004a1a13          	slli	s4,s4,0x4
   2324c:	06300993          	li	s3,99
   23250:	02500793          	li	a5,37
   23254:	04f30463          	beq	t1,a5,2329c <hprintf+0xb8>
   23258:	0003031b          	sext.w	t1,t1
   2325c:	00042783          	lw	a5,0(s0)
   23260:	0107f793          	andi	a5,a5,16
   23264:	fe079ce3          	bnez	a5,2325c <hprintf+0x78>
   23268:	006a2023          	sw	t1,0(s4)
   2326c:	0014849b          	addiw	s1,s1,1
   23270:	009907b3          	add	a5,s2,s1
   23274:	0007c303          	lbu	t1,0(a5)
   23278:	fc031ce3          	bnez	t1,23250 <hprintf+0x6c>
   2327c:	03813083          	ld	ra,56(sp)
   23280:	03013403          	ld	s0,48(sp)
   23284:	02813483          	ld	s1,40(sp)
   23288:	02013903          	ld	s2,32(sp)
   2328c:	01813983          	ld	s3,24(sp)
   23290:	01013a03          	ld	s4,16(sp)
   23294:	08010113          	addi	sp,sp,128
   23298:	00008067          	ret
   2329c:	0014871b          	addiw	a4,s1,1
   232a0:	07300613          	li	a2,115
   232a4:	06400593          	li	a1,100
   232a8:	07500813          	li	a6,117
   232ac:	06c00513          	li	a0,108
   232b0:	03000893          	li	a7,48
   232b4:	0180006f          	j	232cc <hprintf+0xe8>
   232b8:	06c78463          	beq	a5,a2,23320 <hprintf+0x13c>
   232bc:	04b78663          	beq	a5,a1,23308 <hprintf+0x124>
   232c0:	05078463          	beq	a5,a6,23308 <hprintf+0x124>
   232c4:	08a78c63          	beq	a5,a0,2335c <hprintf+0x178>
   232c8:	0b178c63          	beq	a5,a7,23380 <hprintf+0x19c>
   232cc:	00e906b3          	add	a3,s2,a4
   232d0:	0006c783          	lbu	a5,0(a3)
   232d4:	0007049b          	sext.w	s1,a4
   232d8:	00170713          	addi	a4,a4,1
   232dc:	f80788e3          	beqz	a5,2326c <hprintf+0x88>
   232e0:	fd379ce3          	bne	a5,s3,232b8 <hprintf+0xd4>
   232e4:	00813783          	ld	a5,8(sp)
   232e8:	0007a703          	lw	a4,0(a5)
   232ec:	00878793          	addi	a5,a5,8
   232f0:	00f13423          	sd	a5,8(sp)
   232f4:	00042783          	lw	a5,0(s0)
   232f8:	0107f793          	andi	a5,a5,16
   232fc:	fe079ce3          	bnez	a5,232f4 <hprintf+0x110>
   23300:	00ea2023          	sw	a4,0(s4)
   23304:	f69ff06f          	j	2326c <hprintf+0x88>
   23308:	00813783          	ld	a5,8(sp)
   2330c:	0007a503          	lw	a0,0(a5)
   23310:	00878793          	addi	a5,a5,8
   23314:	00f13423          	sd	a5,8(sp)
   23318:	dd5ff0ef          	jal	ra,230ec <hprintf_d>
   2331c:	f51ff06f          	j	2326c <hprintf+0x88>
   23320:	00813783          	ld	a5,8(sp)
   23324:	0007b683          	ld	a3,0(a5)
   23328:	00878793          	addi	a5,a5,8
   2332c:	00f13423          	sd	a5,8(sp)
   23330:	0006c783          	lbu	a5,0(a3)
   23334:	f2078ce3          	beqz	a5,2326c <hprintf+0x88>
   23338:	00168693          	addi	a3,a3,1
   2333c:	0007871b          	sext.w	a4,a5
   23340:	00042783          	lw	a5,0(s0)
   23344:	0107f793          	andi	a5,a5,16
   23348:	fe079ce3          	bnez	a5,23340 <hprintf+0x15c>
   2334c:	00ea2023          	sw	a4,0(s4)
   23350:	0006c783          	lbu	a5,0(a3)
   23354:	fe0792e3          	bnez	a5,23338 <hprintf+0x154>
   23358:	f15ff06f          	j	2326c <hprintf+0x88>
   2335c:	00813783          	ld	a5,8(sp)
   23360:	0016c683          	lbu	a3,1(a3)
   23364:	0007b503          	ld	a0,0(a5)
   23368:	00878713          	addi	a4,a5,8
   2336c:	0005051b          	sext.w	a0,a0
   23370:	07068063          	beq	a3,a6,233d0 <hprintf+0x1ec>
   23374:	00e13423          	sd	a4,8(sp)
   23378:	d75ff0ef          	jal	ra,230ec <hprintf_d>
   2337c:	ef1ff06f          	j	2326c <hprintf+0x88>
   23380:	00813783          	ld	a5,8(sp)
   23384:	01c00713          	li	a4,28
   23388:	00001517          	auipc	a0,0x1
   2338c:	f8050513          	addi	a0,a0,-128 # 24308 <vm_boot+0x898>
   23390:	0007a583          	lw	a1,0(a5)
   23394:	00878793          	addi	a5,a5,8
   23398:	00f13423          	sd	a5,8(sp)
   2339c:	ffc00613          	li	a2,-4
   233a0:	00e5d7bb          	srlw	a5,a1,a4
   233a4:	00f7f793          	andi	a5,a5,15
   233a8:	00f507b3          	add	a5,a0,a5
   233ac:	0007c683          	lbu	a3,0(a5)
   233b0:	00042783          	lw	a5,0(s0)
   233b4:	0107f793          	andi	a5,a5,16
   233b8:	fe079ce3          	bnez	a5,233b0 <hprintf+0x1cc>
   233bc:	00da2023          	sw	a3,0(s4)
   233c0:	ffc7071b          	addiw	a4,a4,-4
   233c4:	fcc71ee3          	bne	a4,a2,233a0 <hprintf+0x1bc>
   233c8:	0024849b          	addiw	s1,s1,2
   233cc:	ea1ff06f          	j	2326c <hprintf+0x88>
   233d0:	0014849b          	addiw	s1,s1,1
   233d4:	00e13423          	sd	a4,8(sp)
   233d8:	d15ff0ef          	jal	ra,230ec <hprintf_d>
   233dc:	e91ff06f          	j	2326c <hprintf+0x88>

00000000000233e0 <wtf>:
   233e0:	ff010113          	addi	sp,sp,-16
   233e4:	34900513          	li	a0,841
   233e8:	00113423          	sd	ra,8(sp)
   233ec:	c65ff0ef          	jal	ra,23050 <terminate>

00000000000233f0 <printhex>:
   233f0:	fe010113          	addi	sp,sp,-32
   233f4:	00810613          	addi	a2,sp,8
   233f8:	01710713          	addi	a4,sp,23
   233fc:	00900813          	li	a6,9
   23400:	0080006f          	j	23408 <printhex+0x18>
   23404:	00078713          	mv	a4,a5
   23408:	00f57793          	andi	a5,a0,15
   2340c:	03000593          	li	a1,48
   23410:	0ff7f693          	andi	a3,a5,255
   23414:	00f87463          	bgeu	a6,a5,2341c <printhex+0x2c>
   23418:	05700593          	li	a1,87
   2341c:	00b687bb          	addw	a5,a3,a1
   23420:	00f70023          	sb	a5,0(a4)
   23424:	00455513          	srli	a0,a0,0x4
   23428:	fff70793          	addi	a5,a4,-1
   2342c:	fce61ce3          	bne	a2,a4,23404 <printhex+0x14>
   23430:	00814783          	lbu	a5,8(sp)
   23434:	00010c23          	sb	zero,24(sp)
   23438:	04078063          	beqz	a5,23478 <printhex+0x88>
   2343c:	38000737          	lui	a4,0x38000
   23440:	0e0005b7          	lui	a1,0xe000
   23444:	40b70713          	addi	a4,a4,1035 # 3800040b <_end+0x37fd5c1b>
   23448:	10358593          	addi	a1,a1,259 # e000103 <_end+0xdfd5913>
   2344c:	00060693          	mv	a3,a2
   23450:	00271713          	slli	a4,a4,0x2
   23454:	00459593          	slli	a1,a1,0x4
   23458:	00168693          	addi	a3,a3,1
   2345c:	0007861b          	sext.w	a2,a5
   23460:	00072783          	lw	a5,0(a4)
   23464:	0107f793          	andi	a5,a5,16
   23468:	fe079ce3          	bnez	a5,23460 <printhex+0x70>
   2346c:	00c5a023          	sw	a2,0(a1)
   23470:	0006c783          	lbu	a5,0(a3)
   23474:	fe0792e3          	bnez	a5,23458 <printhex+0x68>
   23478:	02010113          	addi	sp,sp,32
   2347c:	00008067          	ret

0000000000023480 <handle_fault>:
   23480:	fe010113          	addi	sp,sp,-32
   23484:	00813823          	sd	s0,16(sp)
   23488:	00050413          	mv	s0,a0
   2348c:	00913423          	sd	s1,8(sp)
   23490:	00001517          	auipc	a0,0x1
   23494:	f7850513          	addi	a0,a0,-136 # 24408 <vm_boot+0x998>
   23498:	00058493          	mv	s1,a1
   2349c:	00040593          	mv	a1,s0
   234a0:	00113c23          	sd	ra,24(sp)
   234a4:	d41ff0ef          	jal	ra,231e4 <hprintf>
   234a8:	fffff6b7          	lui	a3,0xfffff
   234ac:	00d40733          	add	a4,s0,a3
   234b0:	0003e7b7          	lui	a5,0x3e
   234b4:	18f77063          	bgeu	a4,a5,23634 <handle_fault+0x1b4>
   234b8:	00c45513          	srli	a0,s0,0xc
   234bc:	60050593          	addi	a1,a0,1536
   234c0:	00003617          	auipc	a2,0x3
   234c4:	b4060613          	addi	a2,a2,-1216 # 26000 <pt>
   234c8:	00359793          	slli	a5,a1,0x3
   234cc:	00f607b3          	add	a5,a2,a5
   234d0:	0007b703          	ld	a4,0(a5) # 3e000 <_end+0x13810>
   234d4:	00d47433          	and	s0,s0,a3
   234d8:	04070663          	beqz	a4,23524 <handle_fault+0xa4>
   234dc:	04077693          	andi	a3,a4,64
   234e0:	12068e63          	beqz	a3,2361c <handle_fault+0x19c>
   234e4:	08077693          	andi	a3,a4,128
   234e8:	18069c63          	bnez	a3,23680 <handle_fault+0x200>
   234ec:	00f00693          	li	a3,15
   234f0:	18d49863          	bne	s1,a3,23680 <handle_fault+0x200>
   234f4:	08076713          	ori	a4,a4,128
   234f8:	00001517          	auipc	a0,0x1
   234fc:	f5050513          	addi	a0,a0,-176 # 24448 <vm_boot+0x9d8>
   23500:	00e7b023          	sd	a4,0(a5)
   23504:	ce1ff0ef          	jal	ra,231e4 <hprintf>
   23508:	0000100f          	fence.i
   2350c:	12040073          	sfence.vma	s0
   23510:	01813083          	ld	ra,24(sp)
   23514:	01013403          	ld	s0,16(sp)
   23518:	00813483          	ld	s1,8(sp)
   2351c:	02010113          	addi	sp,sp,32
   23520:	00008067          	ret
   23524:	00007797          	auipc	a5,0x7
   23528:	2c478793          	addi	a5,a5,708 # 2a7e8 <freelist_head>
   2352c:	0007b703          	ld	a4,0(a5)
   23530:	1e070063          	beqz	a4,23710 <handle_fault+0x290>
   23534:	00873783          	ld	a5,8(a4)
   23538:	00007697          	auipc	a3,0x7
   2353c:	2a868693          	addi	a3,a3,680 # 2a7e0 <freelist_tail>
   23540:	0006b683          	ld	a3,0(a3)
   23544:	00007817          	auipc	a6,0x7
   23548:	2af83223          	sd	a5,676(a6) # 2a7e8 <freelist_head>
   2354c:	0cd78263          	beq	a5,a3,23610 <handle_fault+0x190>
   23550:	00073783          	ld	a5,0(a4)
   23554:	00359813          	slli	a6,a1,0x3
   23558:	01060833          	add	a6,a2,a6
   2355c:	00c7d793          	srli	a5,a5,0xc
   23560:	00a79793          	slli	a5,a5,0xa
   23564:	0df7e893          	ori	a7,a5,223
   23568:	01f7e693          	ori	a3,a5,31
   2356c:	01183023          	sd	a7,0(a6)
   23570:	12040073          	sfence.vma	s0
   23574:	00007797          	auipc	a5,0x7
   23578:	e7c78793          	addi	a5,a5,-388 # 2a3f0 <user_mapping>
   2357c:	00451513          	slli	a0,a0,0x4
   23580:	00a78533          	add	a0,a5,a0
   23584:	00053783          	ld	a5,0(a0)
   23588:	14079063          	bnez	a5,236c8 <handle_fault+0x248>
   2358c:	00073783          	ld	a5,0(a4)
   23590:	00040837          	lui	a6,0x40
   23594:	00f53023          	sd	a5,0(a0)
   23598:	00873783          	ld	a5,8(a4)
   2359c:	00f53423          	sd	a5,8(a0)
   235a0:	10082873          	csrrs	a6,sstatus,a6
   235a4:	ffe007b7          	lui	a5,0xffe00
   235a8:	00f407b3          	add	a5,s0,a5
   235ac:	00001537          	lui	a0,0x1
   235b0:	00040713          	mv	a4,s0
   235b4:	00a78533          	add	a0,a5,a0
   235b8:	0007be83          	ld	t4,0(a5) # ffffffffffe00000 <_end+0xffffffffffdd5810>
   235bc:	0087be03          	ld	t3,8(a5)
   235c0:	0107b303          	ld	t1,16(a5)
   235c4:	0187b883          	ld	a7,24(a5)
   235c8:	01d73023          	sd	t4,0(a4)
   235cc:	01c73423          	sd	t3,8(a4)
   235d0:	00673823          	sd	t1,16(a4)
   235d4:	01173c23          	sd	a7,24(a4)
   235d8:	02078793          	addi	a5,a5,32
   235dc:	02070713          	addi	a4,a4,32
   235e0:	fca79ce3          	bne	a5,a0,235b8 <handle_fault+0x138>
   235e4:	10081073          	csrw	sstatus,a6
   235e8:	00359593          	slli	a1,a1,0x3
   235ec:	00b60633          	add	a2,a2,a1
   235f0:	00d63023          	sd	a3,0(a2)
   235f4:	12040073          	sfence.vma	s0
   235f8:	0000100f          	fence.i
   235fc:	01813083          	ld	ra,24(sp)
   23600:	01013403          	ld	s0,16(sp)
   23604:	00813483          	ld	s1,8(sp)
   23608:	02010113          	addi	sp,sp,32
   2360c:	00008067          	ret
   23610:	00007797          	auipc	a5,0x7
   23614:	1c07b823          	sd	zero,464(a5) # 2a7e0 <freelist_tail>
   23618:	f39ff06f          	j	23550 <handle_fault+0xd0>
   2361c:	04076713          	ori	a4,a4,64
   23620:	00001517          	auipc	a0,0x1
   23624:	e1050513          	addi	a0,a0,-496 # 24430 <vm_boot+0x9c0>
   23628:	00e7b023          	sd	a4,0(a5)
   2362c:	bb9ff0ef          	jal	ra,231e4 <hprintf>
   23630:	ed9ff06f          	j	23508 <handle_fault+0x88>
   23634:	38000737          	lui	a4,0x38000
   23638:	0e0005b7          	lui	a1,0xe000
   2363c:	40b70713          	addi	a4,a4,1035 # 3800040b <_end+0x37fd5c1b>
   23640:	10358593          	addi	a1,a1,259 # e000103 <_end+0xdfd5913>
   23644:	04100793          	li	a5,65
   23648:	00001617          	auipc	a2,0x1
   2364c:	cd860613          	addi	a2,a2,-808 # 24320 <vm_boot+0x8b0>
   23650:	00271713          	slli	a4,a4,0x2
   23654:	00459593          	slli	a1,a1,0x4
   23658:	00160613          	addi	a2,a2,1
   2365c:	0007869b          	sext.w	a3,a5
   23660:	00072783          	lw	a5,0(a4)
   23664:	0107f793          	andi	a5,a5,16
   23668:	fe079ce3          	bnez	a5,23660 <handle_fault+0x1e0>
   2366c:	00d5a023          	sw	a3,0(a1)
   23670:	00064783          	lbu	a5,0(a2)
   23674:	fe0792e3          	bnez	a5,23658 <handle_fault+0x1d8>
   23678:	00300513          	li	a0,3
   2367c:	9d5ff0ef          	jal	ra,23050 <terminate>
   23680:	38000737          	lui	a4,0x38000
   23684:	0e0005b7          	lui	a1,0xe000
   23688:	40b70713          	addi	a4,a4,1035 # 3800040b <_end+0x37fd5c1b>
   2368c:	10358593          	addi	a1,a1,259 # e000103 <_end+0xdfd5913>
   23690:	04100793          	li	a5,65
   23694:	00001617          	auipc	a2,0x1
   23698:	cd460613          	addi	a2,a2,-812 # 24368 <vm_boot+0x8f8>
   2369c:	00271713          	slli	a4,a4,0x2
   236a0:	00459593          	slli	a1,a1,0x4
   236a4:	00160613          	addi	a2,a2,1
   236a8:	0007869b          	sext.w	a3,a5
   236ac:	00072783          	lw	a5,0(a4)
   236b0:	0107f793          	andi	a5,a5,16
   236b4:	fe079ce3          	bnez	a5,236ac <handle_fault+0x22c>
   236b8:	00d5a023          	sw	a3,0(a1)
   236bc:	00064783          	lbu	a5,0(a2)
   236c0:	fe0792e3          	bnez	a5,236a4 <handle_fault+0x224>
   236c4:	fb5ff06f          	j	23678 <handle_fault+0x1f8>
   236c8:	38000737          	lui	a4,0x38000
   236cc:	0e0006b7          	lui	a3,0xe000
   236d0:	40b70713          	addi	a4,a4,1035 # 3800040b <_end+0x37fd5c1b>
   236d4:	10368693          	addi	a3,a3,259 # e000103 <_end+0xdfd5913>
   236d8:	04100793          	li	a5,65
   236dc:	00001597          	auipc	a1,0x1
   236e0:	cec58593          	addi	a1,a1,-788 # 243c8 <vm_boot+0x958>
   236e4:	00271713          	slli	a4,a4,0x2
   236e8:	00469693          	slli	a3,a3,0x4
   236ec:	00158593          	addi	a1,a1,1
   236f0:	0007861b          	sext.w	a2,a5
   236f4:	00072783          	lw	a5,0(a4)
   236f8:	0107f793          	andi	a5,a5,16
   236fc:	fe079ce3          	bnez	a5,236f4 <handle_fault+0x274>
   23700:	00c6a023          	sw	a2,0(a3)
   23704:	0005c783          	lbu	a5,0(a1)
   23708:	fe0792e3          	bnez	a5,236ec <handle_fault+0x26c>
   2370c:	f6dff06f          	j	23678 <handle_fault+0x1f8>
   23710:	38000737          	lui	a4,0x38000
   23714:	0e0006b7          	lui	a3,0xe000
   23718:	40b70713          	addi	a4,a4,1035 # 3800040b <_end+0x37fd5c1b>
   2371c:	10368693          	addi	a3,a3,259 # e000103 <_end+0xdfd5913>
   23720:	04100793          	li	a5,65
   23724:	00001597          	auipc	a1,0x1
   23728:	c8c58593          	addi	a1,a1,-884 # 243b0 <vm_boot+0x940>
   2372c:	00271713          	slli	a4,a4,0x2
   23730:	00469693          	slli	a3,a3,0x4
   23734:	00158593          	addi	a1,a1,1
   23738:	0007861b          	sext.w	a2,a5
   2373c:	00072783          	lw	a5,0(a4)
   23740:	0107f793          	andi	a5,a5,16
   23744:	fe079ce3          	bnez	a5,2373c <handle_fault+0x2bc>
   23748:	00c6a023          	sw	a2,0(a3)
   2374c:	0005c783          	lbu	a5,0(a1)
   23750:	fe0792e3          	bnez	a5,23734 <handle_fault+0x2b4>
   23754:	f25ff06f          	j	23678 <handle_fault+0x1f8>

0000000000023758 <handle_trap>:
   23758:	11853583          	ld	a1,280(a0)
   2375c:	f9010113          	addi	sp,sp,-112
   23760:	06813023          	sd	s0,96(sp)
   23764:	06113423          	sd	ra,104(sp)
   23768:	04913c23          	sd	s1,88(sp)
   2376c:	05213823          	sd	s2,80(sp)
   23770:	05313423          	sd	s3,72(sp)
   23774:	05413023          	sd	s4,64(sp)
   23778:	03513c23          	sd	s5,56(sp)
   2377c:	03613823          	sd	s6,48(sp)
   23780:	03713423          	sd	s7,40(sp)
   23784:	03813023          	sd	s8,32(sp)
   23788:	01913c23          	sd	s9,24(sp)
   2378c:	01a13823          	sd	s10,16(sp)
   23790:	01b13423          	sd	s11,8(sp)
   23794:	00800793          	li	a5,8
   23798:	00050413          	mv	s0,a0
   2379c:	12f58263          	beq	a1,a5,238c0 <handle_trap+0x168>
   237a0:	00200793          	li	a5,2
   237a4:	06f58063          	beq	a1,a5,23804 <handle_trap+0xac>
   237a8:	ff458793          	addi	a5,a1,-12
   237ac:	00100713          	li	a4,1
   237b0:	00f77663          	bgeu	a4,a5,237bc <handle_trap+0x64>
   237b4:	00f00793          	li	a5,15
   237b8:	1cf59c63          	bne	a1,a5,23990 <handle_trap+0x238>
   237bc:	11043503          	ld	a0,272(s0)
   237c0:	cc1ff0ef          	jal	ra,23480 <handle_fault>
   237c4:	00040513          	mv	a0,s0
   237c8:	06013403          	ld	s0,96(sp)
   237cc:	06813083          	ld	ra,104(sp)
   237d0:	05813483          	ld	s1,88(sp)
   237d4:	05013903          	ld	s2,80(sp)
   237d8:	04813983          	ld	s3,72(sp)
   237dc:	04013a03          	ld	s4,64(sp)
   237e0:	03813a83          	ld	s5,56(sp)
   237e4:	03013b03          	ld	s6,48(sp)
   237e8:	02813b83          	ld	s7,40(sp)
   237ec:	02013c03          	ld	s8,32(sp)
   237f0:	01813c83          	ld	s9,24(sp)
   237f4:	01013d03          	ld	s10,16(sp)
   237f8:	00813d83          	ld	s11,8(sp)
   237fc:	07010113          	addi	sp,sp,112
   23800:	83ddc06f          	j	3c <pop_tf>
   23804:	10853703          	ld	a4,264(a0)
   23808:	00377793          	andi	a5,a4,3
   2380c:	06079663          	bnez	a5,23878 <handle_trap+0x120>
   23810:	008007ef          	jal	a5,23818 <handle_trap+0xc0>
   23814:	00301073          	fssr	zero
   23818:	00072683          	lw	a3,0(a4)
   2381c:	0007a703          	lw	a4,0(a5)
   23820:	00001617          	auipc	a2,0x1
   23824:	cd860613          	addi	a2,a2,-808 # 244f8 <vm_boot+0xa88>
   23828:	04100793          	li	a5,65
   2382c:	04e68263          	beq	a3,a4,23870 <handle_trap+0x118>
   23830:	38000737          	lui	a4,0x38000
   23834:	0e0005b7          	lui	a1,0xe000
   23838:	40b70713          	addi	a4,a4,1035 # 3800040b <_end+0x37fd5c1b>
   2383c:	10358593          	addi	a1,a1,259 # e000103 <_end+0xdfd5913>
   23840:	00271713          	slli	a4,a4,0x2
   23844:	00459593          	slli	a1,a1,0x4
   23848:	00160613          	addi	a2,a2,1
   2384c:	0007869b          	sext.w	a3,a5
   23850:	00072783          	lw	a5,0(a4)
   23854:	0107f793          	andi	a5,a5,16
   23858:	fe079ce3          	bnez	a5,23850 <handle_trap+0xf8>
   2385c:	00d5a023          	sw	a3,0(a1)
   23860:	00064783          	lbu	a5,0(a2)
   23864:	fe0792e3          	bnez	a5,23848 <handle_trap+0xf0>
   23868:	00300513          	li	a0,3
   2386c:	fe4ff0ef          	jal	ra,23050 <terminate>
   23870:	00100513          	li	a0,1
   23874:	fdcff0ef          	jal	ra,23050 <terminate>
   23878:	38000737          	lui	a4,0x38000
   2387c:	0e0007b7          	lui	a5,0xe000
   23880:	40b70713          	addi	a4,a4,1035 # 3800040b <_end+0x37fd5c1b>
   23884:	10378793          	addi	a5,a5,259 # e000103 <_end+0xdfd5913>
   23888:	00001617          	auipc	a2,0x1
   2388c:	c4860613          	addi	a2,a2,-952 # 244d0 <vm_boot+0xa60>
   23890:	04100693          	li	a3,65
   23894:	00271713          	slli	a4,a4,0x2
   23898:	00479793          	slli	a5,a5,0x4
   2389c:	00160613          	addi	a2,a2,1
   238a0:	0006869b          	sext.w	a3,a3
   238a4:	00072583          	lw	a1,0(a4)
   238a8:	0105f593          	andi	a1,a1,16
   238ac:	fe059ce3          	bnez	a1,238a4 <handle_trap+0x14c>
   238b0:	00d7a023          	sw	a3,0(a5)
   238b4:	00064683          	lbu	a3,0(a2)
   238b8:	fe0692e3          	bnez	a3,2389c <handle_trap+0x144>
   238bc:	fadff06f          	j	23868 <handle_trap+0x110>
   238c0:	05052903          	lw	s2,80(a0)
   238c4:	00001c37          	lui	s8,0x1
   238c8:	00007497          	auipc	s1,0x7
   238cc:	b2848493          	addi	s1,s1,-1240 # 2a3f0 <user_mapping>
   238d0:	00002b97          	auipc	s7,0x2
   238d4:	730b8b93          	addi	s7,s7,1840 # 26000 <pt>
   238d8:	00040b37          	lui	s6,0x40
   238dc:	ffe00ab7          	lui	s5,0xffe00
   238e0:	00007a17          	auipc	s4,0x7
   238e4:	f00a0a13          	addi	s4,s4,-256 # 2a7e0 <freelist_tail>
   238e8:	0003f9b7          	lui	s3,0x3f
   238ec:	01c0006f          	j	23908 <handle_trap+0x1b0>
   238f0:	00f73423          	sd	a5,8(a4)
   238f4:	00007717          	auipc	a4,0x7
   238f8:	eef73623          	sd	a5,-276(a4) # 2a7e0 <freelist_tail>
   238fc:	000017b7          	lui	a5,0x1
   23900:	00fc0c33          	add	s8,s8,a5
   23904:	173c0263          	beq	s8,s3,23a68 <handle_trap+0x310>
   23908:	00cc5793          	srli	a5,s8,0xc
   2390c:	00479413          	slli	s0,a5,0x4
   23910:	00848733          	add	a4,s1,s0
   23914:	00073703          	ld	a4,0(a4)
   23918:	fe0702e3          	beqz	a4,238fc <handle_trap+0x1a4>
   2391c:	60078793          	addi	a5,a5,1536 # 1600 <trap_entry+0x153c>
   23920:	00379793          	slli	a5,a5,0x3
   23924:	00fb87b3          	add	a5,s7,a5
   23928:	0007bc83          	ld	s9,0(a5)
   2392c:	040cf793          	andi	a5,s9,64
   23930:	0e078863          	beqz	a5,23a20 <handle_trap+0x2c8>
   23934:	100b2d73          	csrrs	s10,sstatus,s6
   23938:	015c0db3          	add	s11,s8,s5
   2393c:	00001637          	lui	a2,0x1
   23940:	000d8593          	mv	a1,s11
   23944:	000c0513          	mv	a0,s8
   23948:	de4ff0ef          	jal	ra,22f2c <memcmp>
   2394c:	00050e63          	beqz	a0,23968 <handle_trap+0x210>
   23950:	080cfc93          	andi	s9,s9,128
   23954:	080c8263          	beqz	s9,239d8 <handle_trap+0x280>
   23958:	00001637          	lui	a2,0x1
   2395c:	000d8593          	mv	a1,s11
   23960:	000c0513          	mv	a0,s8
   23964:	cb8ff0ef          	jal	ra,22e1c <memcpy>
   23968:	008487b3          	add	a5,s1,s0
   2396c:	100d1073          	csrw	sstatus,s10
   23970:	000a3703          	ld	a4,0(s4)
   23974:	0007b023          	sd	zero,0(a5)
   23978:	f6071ce3          	bnez	a4,238f0 <handle_trap+0x198>
   2397c:	00007717          	auipc	a4,0x7
   23980:	e6f73223          	sd	a5,-412(a4) # 2a7e0 <freelist_tail>
   23984:	00007717          	auipc	a4,0x7
   23988:	e6f73223          	sd	a5,-412(a4) # 2a7e8 <freelist_head>
   2398c:	f71ff06f          	j	238fc <handle_trap+0x1a4>
   23990:	38000737          	lui	a4,0x38000
   23994:	0e0007b7          	lui	a5,0xe000
   23998:	40b70713          	addi	a4,a4,1035 # 3800040b <_end+0x37fd5c1b>
   2399c:	10378793          	addi	a5,a5,259 # e000103 <_end+0xdfd5913>
   239a0:	04100693          	li	a3,65
   239a4:	00001617          	auipc	a2,0x1
   239a8:	b8460613          	addi	a2,a2,-1148 # 24528 <vm_boot+0xab8>
   239ac:	00271713          	slli	a4,a4,0x2
   239b0:	00479793          	slli	a5,a5,0x4
   239b4:	00160613          	addi	a2,a2,1
   239b8:	0006869b          	sext.w	a3,a3
   239bc:	00072583          	lw	a1,0(a4)
   239c0:	0105f593          	andi	a1,a1,16
   239c4:	fe059ce3          	bnez	a1,239bc <handle_trap+0x264>
   239c8:	00d7a023          	sw	a3,0(a5)
   239cc:	00064683          	lbu	a3,0(a2)
   239d0:	fe0692e3          	bnez	a3,239b4 <handle_trap+0x25c>
   239d4:	e95ff06f          	j	23868 <handle_trap+0x110>
   239d8:	38000737          	lui	a4,0x38000
   239dc:	0e0007b7          	lui	a5,0xe000
   239e0:	40b70713          	addi	a4,a4,1035 # 3800040b <_end+0x37fd5c1b>
   239e4:	10378793          	addi	a5,a5,259 # e000103 <_end+0xdfd5913>
   239e8:	04100693          	li	a3,65
   239ec:	00001617          	auipc	a2,0x1
   239f0:	aac60613          	addi	a2,a2,-1364 # 24498 <vm_boot+0xa28>
   239f4:	00271713          	slli	a4,a4,0x2
   239f8:	00479793          	slli	a5,a5,0x4
   239fc:	00160613          	addi	a2,a2,1
   23a00:	0006869b          	sext.w	a3,a3
   23a04:	00072583          	lw	a1,0(a4)
   23a08:	0105f593          	andi	a1,a1,16
   23a0c:	fe059ce3          	bnez	a1,23a04 <handle_trap+0x2ac>
   23a10:	00d7a023          	sw	a3,0(a5)
   23a14:	00064683          	lbu	a3,0(a2)
   23a18:	fe0692e3          	bnez	a3,239fc <handle_trap+0x2a4>
   23a1c:	e4dff06f          	j	23868 <handle_trap+0x110>
   23a20:	38000737          	lui	a4,0x38000
   23a24:	0e0007b7          	lui	a5,0xe000
   23a28:	40b70713          	addi	a4,a4,1035 # 3800040b <_end+0x37fd5c1b>
   23a2c:	10378793          	addi	a5,a5,259 # e000103 <_end+0xdfd5913>
   23a30:	04100693          	li	a3,65
   23a34:	00001617          	auipc	a2,0x1
   23a38:	a2c60613          	addi	a2,a2,-1492 # 24460 <vm_boot+0x9f0>
   23a3c:	00271713          	slli	a4,a4,0x2
   23a40:	00479793          	slli	a5,a5,0x4
   23a44:	00160613          	addi	a2,a2,1
   23a48:	0006869b          	sext.w	a3,a3
   23a4c:	00072583          	lw	a1,0(a4)
   23a50:	0105f593          	andi	a1,a1,16
   23a54:	fe059ce3          	bnez	a1,23a4c <handle_trap+0x2f4>
   23a58:	00d7a023          	sw	a3,0(a5)
   23a5c:	00064683          	lbu	a3,0(a2)
   23a60:	fe0692e3          	bnez	a3,23a44 <handle_trap+0x2ec>
   23a64:	e05ff06f          	j	23868 <handle_trap+0x110>
   23a68:	00090513          	mv	a0,s2
   23a6c:	de4ff0ef          	jal	ra,23050 <terminate>

0000000000023a70 <vm_boot>:
   23a70:	f14027f3          	csrr	a5,mhartid
   23a74:	18079463          	bnez	a5,23bfc <vm_boot+0x18c>
   23a78:	00003697          	auipc	a3,0x3
   23a7c:	58868693          	addi	a3,a3,1416 # 27000 <pt+0x1000>
   23a80:	00004717          	auipc	a4,0x4
   23a84:	58070713          	addi	a4,a4,1408 # 28000 <pt+0x2000>
   23a88:	00005797          	auipc	a5,0x5
   23a8c:	57878793          	addi	a5,a5,1400 # 29000 <pt+0x3000>
   23a90:	00c6d693          	srli	a3,a3,0xc
   23a94:	00c75713          	srli	a4,a4,0xc
   23a98:	00a69693          	slli	a3,a3,0xa
   23a9c:	00a71713          	slli	a4,a4,0xa
   23aa0:	00c7d793          	srli	a5,a5,0xc
   23aa4:	0016e693          	ori	a3,a3,1
   23aa8:	00176713          	ori	a4,a4,1
   23aac:	00a79793          	slli	a5,a5,0xa
   23ab0:	00002897          	auipc	a7,0x2
   23ab4:	54d8b823          	sd	a3,1360(a7) # 26000 <pt>
   23ab8:	fff00593          	li	a1,-1
   23abc:	0017e793          	ori	a5,a5,1
   23ac0:	00002617          	auipc	a2,0x2
   23ac4:	54060613          	addi	a2,a2,1344 # 26000 <pt>
   23ac8:	00003697          	auipc	a3,0x3
   23acc:	52e6b823          	sd	a4,1328(a3) # 26ff8 <pt+0xff8>
   23ad0:	0cf00713          	li	a4,207
   23ad4:	ed010113          	addi	sp,sp,-304
   23ad8:	03f59813          	slli	a6,a1,0x3f
   23adc:	00005697          	auipc	a3,0x5
   23ae0:	50e6be23          	sd	a4,1308(a3) # 28ff8 <pt+0x2ff8>
   23ae4:	00003717          	auipc	a4,0x3
   23ae8:	50f73e23          	sd	a5,1308(a4) # 27000 <pt+0x1000>
   23aec:	00c65793          	srli	a5,a2,0xc
   23af0:	12113423          	sd	ra,296(sp)
   23af4:	12813023          	sd	s0,288(sp)
   23af8:	0107e7b3          	or	a5,a5,a6
   23afc:	18079073          	csrw	satp,a5
   23b00:	01f00793          	li	a5,31
   23b04:	00000297          	auipc	t0,0x0
   23b08:	01428293          	addi	t0,t0,20 # 23b18 <vm_boot+0xa8>
   23b0c:	305292f3          	csrrw	t0,mtvec,t0
   23b10:	3b059073          	csrw	pmpaddr0,a1
   23b14:	3a079073          	csrw	pmpcfg0,a5
   23b18:	ffddc797          	auipc	a5,0xffddc
   23b1c:	5ac78793          	addi	a5,a5,1452 # ffffffffffe000c4 <_end+0xffffffffffdd58d4>
   23b20:	10579073          	csrw	stvec,a5
   23b24:	340027f3          	csrr	a5,mscratch
   23b28:	ffe00837          	lui	a6,0xffe00
   23b2c:	010787b3          	add	a5,a5,a6
   23b30:	14079073          	csrw	sscratch,a5
   23b34:	0000b7b7          	lui	a5,0xb
   23b38:	1007879b          	addiw	a5,a5,256
   23b3c:	30279073          	csrw	medeleg,a5
   23b40:	0001e7b7          	lui	a5,0x1e
   23b44:	30079073          	csrw	mstatus,a5
   23b48:	30405073          	csrwi	mie,0
   23b4c:	ffe06797          	auipc	a5,0xffe06
   23b50:	4b478793          	addi	a5,a5,1204 # ffffffffffe2a000 <_end+0xffffffffffdff810>
   23b54:	00007717          	auipc	a4,0x7
   23b58:	c8f73a23          	sd	a5,-876(a4) # 2a7e8 <freelist_head>
   23b5c:	ffe07797          	auipc	a5,0xffe07
   23b60:	88478793          	addi	a5,a5,-1916 # ffffffffffe2a3e0 <_end+0xffffffffffdffbf0>
   23b64:	00007717          	auipc	a4,0x7
   23b68:	c6f73e23          	sd	a5,-900(a4) # 2a7e0 <freelist_tail>
   23b6c:	00006717          	auipc	a4,0x6
   23b70:	49470713          	addi	a4,a4,1172 # 2a000 <freelist_nodes>
   23b74:	00007897          	auipc	a7,0x7
   23b78:	87c88893          	addi	a7,a7,-1924 # 2a3f0 <user_mapping>
   23b7c:	02200793          	li	a5,34
   23b80:	01080813          	addi	a6,a6,16 # ffffffffffe00010 <_end+0xffffffffffdd5820>
   23b84:	03f7869b          	addiw	a3,a5,63
   23b88:	0017d61b          	srliw	a2,a5,0x1
   23b8c:	02069693          	slli	a3,a3,0x20
   23b90:	00c7c7b3          	xor	a5,a5,a2
   23b94:	0206d693          	srli	a3,a3,0x20
   23b98:	010705b3          	add	a1,a4,a6
   23b9c:	00c69693          	slli	a3,a3,0xc
   23ba0:	0057979b          	slliw	a5,a5,0x5
   23ba4:	00d73023          	sd	a3,0(a4)
   23ba8:	00b73423          	sd	a1,8(a4)
   23bac:	0207f793          	andi	a5,a5,32
   23bb0:	01070713          	addi	a4,a4,16
   23bb4:	00c7e7b3          	or	a5,a5,a2
   23bb8:	fce896e3          	bne	a7,a4,23b84 <vm_boot+0x114>
   23bbc:	00050413          	mv	s0,a0
   23bc0:	12000613          	li	a2,288
   23bc4:	00000593          	li	a1,0
   23bc8:	00010513          	mv	a0,sp
   23bcc:	00007797          	auipc	a5,0x7
   23bd0:	8007be23          	sd	zero,-2020(a5) # 2a3e8 <freelist_nodes+0x3e8>
   23bd4:	aa4ff0ef          	jal	ra,22e78 <memset>
   23bd8:	00010513          	mv	a0,sp
   23bdc:	000307b7          	lui	a5,0x30
   23be0:	10813423          	sd	s0,264(sp)
   23be4:	00f13823          	sd	a5,16(sp)
   23be8:	c54dc0ef          	jal	ra,3c <pop_tf>
   23bec:	12813083          	ld	ra,296(sp)
   23bf0:	12013403          	ld	s0,288(sp)
   23bf4:	13010113          	addi	sp,sp,304
   23bf8:	00008067          	ret
   23bfc:	0f21e7b7          	lui	a5,0xf21e
   23c00:	000806b7          	lui	a3,0x80
   23c04:	02b78793          	addi	a5,a5,43 # f21e02b <_end+0xf1f383b>
   23c08:	ffc68693          	addi	a3,a3,-4 # 7fffc <_end+0x5580c>
   23c0c:	02079713          	slli	a4,a5,0x20
   23c10:	02075713          	srli	a4,a4,0x20
   23c14:	00d7f7b3          	and	a5,a5,a3
   23c18:	0007a003          	lw	zero,0(a5)
   23c1c:	00175793          	srli	a5,a4,0x1
   23c20:	fedff06f          	j	23c0c <vm_boot+0x19c>

Disassembly of section .rodata.str1.8:

0000000000023c28 <.rodata.str1.8>:
   23c28:	694c                	ld	a1,144(a0)
   23c2a:	66207473          	csrrci	s0,0x662,0
   23c2e:	6e69                	lui	t3,0x1a
   23c30:	2064                	fld	fs1,192(s0)
   23c32:	6425                	lui	s0,0x9
   23c34:	203a                	fld	ft0,392(sp)
   23c36:	2c64255b          	0x2c64255b
   23c3a:	6425                	lui	s0,0x9
   23c3c:	252c                	fld	fa1,72(a0)
   23c3e:	5d64                	lw	s1,124(a0)
   23c40:	000a                	c.slli	zero,0x2
   23c42:	0000                	unimp
   23c44:	0000                	unimp
   23c46:	0000                	unimp
   23c48:	694c                	ld	a1,144(a0)
   23c4a:	73207473          	csrrci	s0,0x732,0
   23c4e:	2074726f          	jal	tp,6b654 <_end+0x40e64>
   23c52:	3a31                	addiw	s4,s4,-20
   23c54:	2520                	fld	fs0,72(a0)
   23c56:	3430                	fld	fa2,104(s0)
   23c58:	0a78                	addi	a4,sp,284
   23c5a:	0000                	unimp
   23c5c:	0000                	unimp
   23c5e:	0000                	unimp
   23c60:	694c                	ld	a1,144(a0)
   23c62:	73207473          	csrrci	s0,0x732,0
   23c66:	2074726f          	jal	tp,6b66c <_end+0x40e7c>
   23c6a:	3a32                	fld	fs4,296(sp)
   23c6c:	2520                	fld	fs0,72(a0)
   23c6e:	3430                	fld	fa2,104(s0)
   23c70:	0a78                	addi	a4,sp,284
   23c72:	0000                	unimp
   23c74:	0000                	unimp
   23c76:	0000                	unimp
   23c78:	6e49                	lui	t3,0x12
   23c7a:	7469                	lui	s0,0xffffa
   23c7c:	6169                	addi	sp,sp,208
   23c7e:	696c                	ld	a1,208(a0)
   23c80:	657a                	ld	a0,408(sp)
   23c82:	2064                	fld	fs1,192(s0)
   23c84:	696c                	ld	a1,208(a0)
   23c86:	0a3a7473          	csrrci	s0,0xa3,20
   23c8a:	0000                	unimp
   23c8c:	0000                	unimp
   23c8e:	0000                	unimp
   23c90:	3430255b          	0x3430255b
   23c94:	2c78                	fld	fa4,216(s0)
   23c96:	3025                	0x3025
   23c98:	7834                	ld	a3,112(s0)
   23c9a:	005d                	c.nop	23
   23c9c:	0000                	unimp
   23c9e:	0000                	unimp
   23ca0:	6b36                	ld	s6,328(sp)
   23ca2:	7020                	ld	s0,96(s0)
   23ca4:	7265                	lui	tp,0xffff9
   23ca6:	6f66                	ld	t5,88(sp)
   23ca8:	6d72                	ld	s10,280(sp)
   23caa:	6e61                	lui	t3,0x18
   23cac:	72206563          	bltu	zero,sp,243d6 <vm_boot+0x966>
   23cb0:	6e75                	lui	t3,0x1d
   23cb2:	7020                	ld	s0,96(s0)
   23cb4:	7261                	lui	tp,0xffff8
   23cb6:	6d61                	lui	s10,0x18
   23cb8:	7465                	lui	s0,0xffff9
   23cba:	7265                	lui	tp,0xffff9
   23cbc:	6f662073          	csrs	0x6f6,a2
   23cc0:	2072                	fld	ft0,280(sp)
   23cc2:	65726f63          	bltu	tp,s7,24320 <vm_boot+0x8b0>
   23cc6:	616d                	addi	sp,sp,240
   23cc8:	6b72                	ld	s6,280(sp)
   23cca:	0a2e                	slli	s4,s4,0xb
   23ccc:	0000                	unimp
   23cce:	0000                	unimp
   23cd0:	6b36                	ld	s6,328(sp)
   23cd2:	7620                	ld	s0,104(a2)
   23cd4:	6c61                	lui	s8,0x18
   23cd6:	6469                	lui	s0,0x1a
   23cd8:	7461                	lui	s0,0xffff8
   23cda:	6f69                	lui	t5,0x1a
   23cdc:	206e                	fld	ft0,216(sp)
   23cde:	7572                	ld	a0,312(sp)
   23ce0:	206e                	fld	ft0,216(sp)
   23ce2:	6170                	ld	a2,192(a0)
   23ce4:	6172                	ld	sp,280(sp)
   23ce6:	656d                	lui	a0,0x1b
   23ce8:	6574                	ld	a3,200(a0)
   23cea:	7372                	ld	t1,312(sp)
   23cec:	6620                	ld	s0,72(a2)
   23cee:	6320726f          	jal	tp,2b320 <_end+0xb30>
   23cf2:	6d65726f          	jal	tp,7b3c8 <_end+0x50bd8>
   23cf6:	7261                	lui	tp,0xffff8
   23cf8:	000a2e6b          	0xa2e6b
   23cfc:	0000                	unimp
   23cfe:	0000                	unimp
   23d00:	7250                	ld	a2,160(a2)
   23d02:	6c69666f          	jal	a2,ba3c8 <_end+0x8fbd8>
   23d06:	2065                	0x2065
   23d08:	656e6567          	0x656e6567
   23d0c:	6172                	ld	sp,280(sp)
   23d0e:	6974                	ld	a3,208(a0)
   23d10:	72206e6f          	jal	t3,2a432 <user_mapping+0x42>
   23d14:	6e75                	lui	t3,0x1d
   23d16:	7020                	ld	s0,96(s0)
   23d18:	7261                	lui	tp,0xffff8
   23d1a:	6d61                	lui	s10,0x18
   23d1c:	7465                	lui	s0,0xffff9
   23d1e:	7265                	lui	tp,0xffff9
   23d20:	6f662073          	csrs	0x6f6,a2
   23d24:	2072                	fld	ft0,280(sp)
   23d26:	65726f63          	bltu	tp,s7,24384 <vm_boot+0x914>
   23d2a:	616d                	addi	sp,sp,240
   23d2c:	6b72                	ld	s6,280(sp)
   23d2e:	0a2e                	slli	s4,s4,0xb
	...
   23d38:	4b32                	lw	s6,12(sp)
   23d3a:	7020                	ld	s0,96(s0)
   23d3c:	7265                	lui	tp,0xffff9
   23d3e:	6f66                	ld	t5,88(sp)
   23d40:	6d72                	ld	s10,280(sp)
   23d42:	6e61                	lui	t3,0x18
   23d44:	72206563          	bltu	zero,sp,2446e <vm_boot+0x9fe>
   23d48:	6e75                	lui	t3,0x1d
   23d4a:	7020                	ld	s0,96(s0)
   23d4c:	7261                	lui	tp,0xffff8
   23d4e:	6d61                	lui	s10,0x18
   23d50:	7465                	lui	s0,0xffff9
   23d52:	7265                	lui	tp,0xffff9
   23d54:	6f662073          	csrs	0x6f6,a2
   23d58:	2072                	fld	ft0,280(sp)
   23d5a:	65726f63          	bltu	tp,s7,243b8 <vm_boot+0x948>
   23d5e:	616d                	addi	sp,sp,240
   23d60:	6b72                	ld	s6,280(sp)
   23d62:	0a2e                	slli	s4,s4,0xb
   23d64:	0000                	unimp
   23d66:	0000                	unimp
   23d68:	4b32                	lw	s6,12(sp)
   23d6a:	7620                	ld	s0,104(a2)
   23d6c:	6c61                	lui	s8,0x18
   23d6e:	6469                	lui	s0,0x1a
   23d70:	7461                	lui	s0,0xffff8
   23d72:	6f69                	lui	t5,0x1a
   23d74:	206e                	fld	ft0,216(sp)
   23d76:	7572                	ld	a0,312(sp)
   23d78:	206e                	fld	ft0,216(sp)
   23d7a:	6170                	ld	a2,192(a0)
   23d7c:	6172                	ld	sp,280(sp)
   23d7e:	656d                	lui	a0,0x1b
   23d80:	6574                	ld	a3,200(a0)
   23d82:	7372                	ld	t1,312(sp)
   23d84:	6620                	ld	s0,72(a2)
   23d86:	6320726f          	jal	tp,2b3b8 <_end+0xbc8>
   23d8a:	6d65726f          	jal	tp,7b460 <_end+0x50c70>
   23d8e:	7261                	lui	tp,0xffff8
   23d90:	000a2e6b          	0xa2e6b
   23d94:	0000                	unimp
   23d96:	0000                	unimp
   23d98:	5d75255b          	0x5d75255b
   23d9c:	5245                	li	tp,-15
   23d9e:	4f52                	lw	t5,20(sp)
   23da0:	2152                	fld	ft2,272(sp)
   23da2:	6c20                	ld	s0,88(s0)
   23da4:	7369                	lui	t1,0xffffa
   23da6:	2074                	fld	fa3,192(s0)
   23da8:	20637263          	bgeu	t1,t1,23fac <vm_boot+0x53c>
   23dac:	7830                	ld	a2,112(s0)
   23dae:	3025                	0x3025
   23db0:	7834                	ld	a3,112(s0)
   23db2:	2d20                	fld	fs0,88(a0)
   23db4:	7320                	ld	s0,96(a4)
   23db6:	6f68                	ld	a0,216(a4)
   23db8:	6c75                	lui	s8,0x1d
   23dba:	2064                	fld	fs1,192(s0)
   23dbc:	6562                	ld	a0,24(sp)
   23dbe:	3020                	fld	fs0,96(s0)
   23dc0:	2578                	fld	fa4,200(a0)
   23dc2:	3430                	fld	fa2,104(s0)
   23dc4:	0a78                	addi	a4,sp,284
   23dc6:	0000                	unimp
   23dc8:	5d75255b          	0x5d75255b
   23dcc:	5245                	li	tp,-15
   23dce:	4f52                	lw	t5,20(sp)
   23dd0:	2152                	fld	ft2,272(sp)
   23dd2:	6d20                	ld	s0,88(a0)
   23dd4:	7461                	lui	s0,0xffff8
   23dd6:	6972                	ld	s2,280(sp)
   23dd8:	2078                	fld	fa4,192(s0)
   23dda:	20637263          	bgeu	t1,t1,23fde <vm_boot+0x56e>
   23dde:	7830                	ld	a2,112(s0)
   23de0:	3025                	0x3025
   23de2:	7834                	ld	a3,112(s0)
   23de4:	2d20                	fld	fs0,88(a0)
   23de6:	7320                	ld	s0,96(a4)
   23de8:	6f68                	ld	a0,216(a4)
   23dea:	6c75                	lui	s8,0x1d
   23dec:	2064                	fld	fs1,192(s0)
   23dee:	6562                	ld	a0,24(sp)
   23df0:	3020                	fld	fs0,96(s0)
   23df2:	2578                	fld	fa4,200(a0)
   23df4:	3430                	fld	fa2,104(s0)
   23df6:	0a78                	addi	a4,sp,284
	...
   23e00:	5d75255b          	0x5d75255b
   23e04:	5245                	li	tp,-15
   23e06:	4f52                	lw	t5,20(sp)
   23e08:	2152                	fld	ft2,272(sp)
   23e0a:	7320                	ld	s0,96(a4)
   23e0c:	6174                	ld	a3,192(a0)
   23e0e:	6574                	ld	a3,200(a0)
   23e10:	6320                	ld	s0,64(a4)
   23e12:	6372                	ld	t1,280(sp)
   23e14:	3020                	fld	fs0,96(s0)
   23e16:	2578                	fld	fa4,200(a0)
   23e18:	3430                	fld	fa2,104(s0)
   23e1a:	2078                	fld	fa4,192(s0)
   23e1c:	202d                	0x202d
   23e1e:	756f6873          	csrrsi	a6,0x756,30
   23e22:	646c                	ld	a1,200(s0)
   23e24:	6220                	ld	s0,64(a2)
   23e26:	2065                	0x2065
   23e28:	7830                	ld	a2,112(s0)
   23e2a:	3025                	0x3025
   23e2c:	7834                	ld	a3,112(s0)
   23e2e:	000a                	c.slli	zero,0x2
   23e30:	65726f43          	0x65726f43
   23e34:	614d                	addi	sp,sp,176
   23e36:	6b72                	ld	s6,280(sp)
   23e38:	5320                	lw	s0,96(a4)
   23e3a:	7a69                	lui	s4,0xffffa
   23e3c:	2065                	0x2065
   23e3e:	2020                	fld	fs0,64(s0)
   23e40:	3a20                	fld	fs0,112(a2)
   23e42:	2520                	fld	fs0,72(a0)
   23e44:	756c                	ld	a1,232(a0)
   23e46:	000a                	c.slli	zero,0x2
   23e48:	6f54                	ld	a3,152(a4)
   23e4a:	6174                	ld	a3,192(a0)
   23e4c:	206c                	fld	fa1,192(s0)
   23e4e:	6974                	ld	a3,208(a0)
   23e50:	20736b63          	bltu	t1,t2,24066 <vm_boot+0x5f6>
   23e54:	2020                	fld	fs0,64(s0)
   23e56:	2020                	fld	fs0,64(s0)
   23e58:	3a20                	fld	fs0,112(a2)
   23e5a:	2520                	fld	fs0,72(a0)
   23e5c:	756c                	ld	a1,232(a0)
   23e5e:	000a                	c.slli	zero,0x2
   23e60:	6f54                	ld	a3,152(a4)
   23e62:	6174                	ld	a3,192(a0)
   23e64:	206c                	fld	fa1,192(s0)
   23e66:	6974                	ld	a3,208(a0)
   23e68:	656d                	lui	a0,0x1b
   23e6a:	2820                	fld	fs0,80(s0)
   23e6c:	73636573          	csrrsi	a0,0x736,6
   23e70:	3a29                	addiw	s4,s4,-22
   23e72:	2520                	fld	fs0,72(a0)
   23e74:	2e64                	fld	fs1,216(a2)
   23e76:	6425                	lui	s0,0x9
   23e78:	6425                	lui	s0,0x9
   23e7a:	6425                	lui	s0,0x9
   23e7c:	000a                	c.slli	zero,0x2
   23e7e:	0000                	unimp
   23e80:	7449                	lui	s0,0xffff2
   23e82:	7265                	lui	tp,0xffff9
   23e84:	7461                	lui	s0,0xffff8
   23e86:	6f69                	lui	t5,0x1a
   23e88:	736e                	ld	t1,248(sp)
   23e8a:	6365532f          	0x6365532f
   23e8e:	2020                	fld	fs0,64(s0)
   23e90:	3a20                	fld	fs0,112(a2)
   23e92:	2520                	fld	fs0,72(a0)
   23e94:	2e64                	fld	fs1,216(a2)
   23e96:	6425                	lui	s0,0x9
   23e98:	6425                	lui	s0,0x9
   23e9a:	6425                	lui	s0,0x9
   23e9c:	000a                	c.slli	zero,0x2
   23e9e:	0000                	unimp
   23ea0:	5245                	li	tp,-15
   23ea2:	4f52                	lw	t5,20(sp)
   23ea4:	2152                	fld	ft2,272(sp)
   23ea6:	4d20                	lw	s0,88(a0)
   23ea8:	7375                	lui	t1,0xffffd
   23eaa:	2074                	fld	fa3,192(s0)
   23eac:	7865                	lui	a6,0xffff9
   23eae:	6365                	lui	t1,0x19
   23eb0:	7475                	lui	s0,0xffffd
   23eb2:	2065                	0x2065
   23eb4:	6f66                	ld	t5,88(sp)
   23eb6:	2072                	fld	ft0,280(sp)
   23eb8:	7461                	lui	s0,0xffff8
   23eba:	6c20                	ld	s0,88(s0)
   23ebc:	6165                	addi	sp,sp,112
   23ebe:	31207473          	csrrci	s0,0x312,0
   23ec2:	2030                	fld	fa2,64(s0)
   23ec4:	73636573          	csrrsi	a0,0x736,6
   23ec8:	6620                	ld	s0,72(a2)
   23eca:	6120726f          	jal	tp,2b4dc <_end+0xcec>
   23ece:	7620                	ld	s0,104(a2)
   23ed0:	6c61                	lui	s8,0x18
   23ed2:	6469                	lui	s0,0x1a
   23ed4:	7220                	ld	s0,96(a2)
   23ed6:	7365                	lui	t1,0xffff9
   23ed8:	6c75                	lui	s8,0x1d
   23eda:	2174                	fld	fa3,192(a0)
   23edc:	000a                	c.slli	zero,0x2
   23ede:	0000                	unimp
   23ee0:	7449                	lui	s0,0xffff2
   23ee2:	7265                	lui	tp,0xffff9
   23ee4:	7461                	lui	s0,0xffff8
   23ee6:	6f69                	lui	t5,0x1a
   23ee8:	736e                	ld	t1,248(sp)
   23eea:	2020                	fld	fs0,64(s0)
   23eec:	2020                	fld	fs0,64(s0)
   23eee:	2020                	fld	fs0,64(s0)
   23ef0:	3a20                	fld	fs0,112(a2)
   23ef2:	2520                	fld	fs0,72(a0)
   23ef4:	756c                	ld	a1,232(a0)
   23ef6:	000a                	c.slli	zero,0x2
   23ef8:	6972                	ld	s2,280(sp)
   23efa:	36766373          	csrrsi	t1,0x367,12
   23efe:	2d34                	fld	fa3,88(a0)
   23f00:	6e75                	lui	t3,0x1d
   23f02:	776f6e6b          	0x776f6e6b
   23f06:	2d6e                	fld	fs10,216(sp)
   23f08:	6c65                	lui	s8,0x19
   23f0a:	2d66                	fld	fs10,88(sp)
   23f0c:	20636367          	0x20636367
   23f10:	2e38                	fld	fa4,88(a2)
   23f12:	2e32                	fld	ft8,264(sp)
   23f14:	0030                	addi	a2,sp,8
   23f16:	0000                	unimp
   23f18:	706d6f43          	fmadd.s	ft10,fs10,ft6,fa4,unknown
   23f1c:	6c69                	lui	s8,0x1a
   23f1e:	7265                	lui	tp,0xffff9
   23f20:	7620                	ld	s0,104(a2)
   23f22:	7265                	lui	tp,0xffff9
   23f24:	6e6f6973          	csrrsi	s2,0x6e6,30
   23f28:	3a20                	fld	fs0,112(a2)
   23f2a:	2520                	fld	fs0,72(a0)
   23f2c:	00000a73          	0xa73
   23f30:	4f2d                	li	t5,11
   23f32:	0032                	c.slli	zero,0xc
   23f34:	0000                	unimp
   23f36:	0000                	unimp
   23f38:	706d6f43          	fmadd.s	ft10,fs10,ft6,fa4,unknown
   23f3c:	6c69                	lui	s8,0x1a
   23f3e:	7265                	lui	tp,0xffff9
   23f40:	6620                	ld	s0,72(a2)
   23f42:	616c                	ld	a1,192(a0)
   23f44:	20207367          	0x20207367
   23f48:	3a20                	fld	fs0,112(a2)
   23f4a:	2520                	fld	fs0,72(a0)
   23f4c:	00000a73          	0xa73
   23f50:	43415453          	0x43415453
   23f54:	0000004b          	fnmsub.s	ft0,ft0,ft0,ft0,rne
   23f58:	654d                	lui	a0,0x13
   23f5a:	6f6d                	lui	t5,0x1b
   23f5c:	7972                	ld	s2,312(sp)
   23f5e:	6c20                	ld	s0,88(s0)
   23f60:	7461636f          	jal	t1,3a6a6 <_end+0xfeb6>
   23f64:	6f69                	lui	t5,0x1a
   23f66:	206e                	fld	ft0,216(sp)
   23f68:	3a20                	fld	fs0,112(a2)
   23f6a:	2520                	fld	fs0,72(a0)
   23f6c:	00000a73          	0xa73
   23f70:	64656573          	csrrsi	a0,0x646,10
   23f74:	20637263          	bgeu	t1,t1,24178 <vm_boot+0x708>
   23f78:	2020                	fld	fs0,64(s0)
   23f7a:	2020                	fld	fs0,64(s0)
   23f7c:	2020                	fld	fs0,64(s0)
   23f7e:	2020                	fld	fs0,64(s0)
   23f80:	3a20                	fld	fs0,112(a2)
   23f82:	3020                	fld	fs0,96(s0)
   23f84:	2578                	fld	fa4,200(a0)
   23f86:	3430                	fld	fa2,104(s0)
   23f88:	0a78                	addi	a4,sp,284
   23f8a:	0000                	unimp
   23f8c:	0000                	unimp
   23f8e:	0000                	unimp
   23f90:	5d64255b          	0x5d64255b
   23f94:	6c637263          	bgeu	t1,t1,24658 <floatpat+0x18>
   23f98:	7369                	lui	t1,0xffffa
   23f9a:	2074                	fld	fa3,192(s0)
   23f9c:	2020                	fld	fs0,64(s0)
   23f9e:	2020                	fld	fs0,64(s0)
   23fa0:	2020                	fld	fs0,64(s0)
   23fa2:	203a                	fld	ft0,392(sp)
   23fa4:	7830                	ld	a2,112(s0)
   23fa6:	3025                	0x3025
   23fa8:	7834                	ld	a3,112(s0)
   23faa:	000a                	c.slli	zero,0x2
   23fac:	0000                	unimp
   23fae:	0000                	unimp
   23fb0:	5d64255b          	0x5d64255b
   23fb4:	6d637263          	bgeu	t1,s6,24678 <scipat+0x18>
   23fb8:	7461                	lui	s0,0xffff8
   23fba:	6972                	ld	s2,280(sp)
   23fbc:	2078                	fld	fa4,192(s0)
   23fbe:	2020                	fld	fs0,64(s0)
   23fc0:	2020                	fld	fs0,64(s0)
   23fc2:	203a                	fld	ft0,392(sp)
   23fc4:	7830                	ld	a2,112(s0)
   23fc6:	3025                	0x3025
   23fc8:	7834                	ld	a3,112(s0)
   23fca:	000a                	c.slli	zero,0x2
   23fcc:	0000                	unimp
   23fce:	0000                	unimp
   23fd0:	5d64255b          	0x5d64255b
   23fd4:	73637263          	bgeu	t1,s6,246f8 <errpat+0x78>
   23fd8:	6174                	ld	a3,192(a0)
   23fda:	6574                	ld	a3,200(a0)
   23fdc:	2020                	fld	fs0,64(s0)
   23fde:	2020                	fld	fs0,64(s0)
   23fe0:	2020                	fld	fs0,64(s0)
   23fe2:	203a                	fld	ft0,392(sp)
   23fe4:	7830                	ld	a2,112(s0)
   23fe6:	3025                	0x3025
   23fe8:	7834                	ld	a3,112(s0)
   23fea:	000a                	c.slli	zero,0x2
   23fec:	0000                	unimp
   23fee:	0000                	unimp
   23ff0:	5d64255b          	0x5d64255b
   23ff4:	66637263          	bgeu	t1,t1,24658 <floatpat+0x18>
   23ff8:	6e69                	lui	t3,0x1a
   23ffa:	6c61                	lui	s8,0x18
   23ffc:	2020                	fld	fs0,64(s0)
   23ffe:	2020                	fld	fs0,64(s0)
   24000:	2020                	fld	fs0,64(s0)
   24002:	203a                	fld	ft0,392(sp)
   24004:	7830                	ld	a2,112(s0)
   24006:	3025                	0x3025
   24008:	7834                	ld	a3,112(s0)
   2400a:	000a                	c.slli	zero,0x2
   2400c:	0000                	unimp
   2400e:	0000                	unimp
   24010:	72726f43          	fmadd.d	ft10,ft4,ft7,fa4,unknown
   24014:	6365                	lui	t1,0x19
   24016:	2074                	fld	fa3,192(s0)
   24018:	7265706f          	j	7b73e <_end+0x50f4e>
   2401c:	7461                	lui	s0,0xffff8
   2401e:	6f69                	lui	t5,0x1a
   24020:	206e                	fld	ft0,216(sp)
   24022:	6176                	ld	sp,344(sp)
   24024:	696c                	ld	a1,208(a0)
   24026:	6164                	ld	s1,192(a0)
   24028:	6574                	ld	a3,200(a0)
   2402a:	2e64                	fld	fs1,216(a2)
   2402c:	5320                	lw	s0,96(a4)
   2402e:	6565                	lui	a0,0x19
   24030:	7220                	ld	s0,96(a2)
   24032:	6165                	addi	sp,sp,112
   24034:	6d64                	ld	s1,216(a0)
   24036:	2e65                	addiw	t3,t3,25
   24038:	7874                	ld	a3,240(s0)
   2403a:	2074                	fld	fa3,192(s0)
   2403c:	6f66                	ld	t5,88(sp)
   2403e:	2072                	fld	ft0,280(sp)
   24040:	7572                	ld	a0,312(sp)
   24042:	206e                	fld	ft0,216(sp)
   24044:	6e61                	lui	t3,0x18
   24046:	2064                	fld	fs1,192(s0)
   24048:	6572                	ld	a0,280(sp)
   2404a:	6f70                	ld	a2,216(a4)
   2404c:	7472                	ld	s0,312(sp)
   2404e:	6e69                	lui	t3,0x1a
   24050:	75722067          	0x75722067
   24054:	656c                	ld	a1,200(a0)
   24056:	000a2e73          	csrrs	t3,ustatus,s4
   2405a:	0000                	unimp
   2405c:	0000                	unimp
   2405e:	0000                	unimp
   24060:	65726f43          	0x65726f43
   24064:	614d                	addi	sp,sp,176
   24066:	6b72                	ld	s6,280(sp)
   24068:	3120                	fld	fs0,96(a0)
   2406a:	302e                	fld	ft0,232(sp)
   2406c:	3a20                	fld	fs0,112(a2)
   2406e:	2520                	fld	fs0,72(a0)
   24070:	2e64                	fld	fs1,216(a2)
   24072:	6425                	lui	s0,0x9
   24074:	6425                	lui	s0,0x9
   24076:	6425                	lui	s0,0x9
   24078:	2020                	fld	fs0,64(s0)
   2407a:	7325202f          	0x7325202f
   2407e:	2520                	fld	fs0,72(a0)
   24080:	00000073          	ecall
   24084:	0000                	unimp
   24086:	0000                	unimp
   24088:	2f20                	fld	fs0,88(a4)
   2408a:	2520                	fld	fs0,72(a0)
   2408c:	00000073          	ecall
   24090:	7245                	lui	tp,0xffff1
   24092:	6f72                	ld	t5,280(sp)
   24094:	7372                	ld	t1,312(sp)
   24096:	6420                	ld	s0,72(s0)
   24098:	7465                	lui	s0,0xffff9
   2409a:	6365                	lui	t1,0x19
   2409c:	6574                	ld	a3,200(a0)
   2409e:	0a64                	addi	s1,sp,284
	...
   240a8:	6e6e6143          	fmadd.q	ft2,ft8,ft6,fa3,unknown
   240ac:	7620746f          	jal	s0,2b80e <_end+0x101e>
   240b0:	6c61                	lui	s8,0x18
   240b2:	6469                	lui	s0,0x1a
   240b4:	7461                	lui	s0,0xffff8
   240b6:	2065                	0x2065
   240b8:	7265706f          	j	7b7de <_end+0x50fee>
   240bc:	7461                	lui	s0,0xffff8
   240be:	6f69                	lui	t5,0x1a
   240c0:	206e                	fld	ft0,216(sp)
   240c2:	6f66                	ld	t5,88(sp)
   240c4:	2072                	fld	ft0,280(sp)
   240c6:	6874                	ld	a3,208(s0)
   240c8:	7365                	lui	t1,0xffff9
   240ca:	2065                	0x2065
   240cc:	64656573          	csrrsi	a0,0x646,10
   240d0:	7620                	ld	s0,104(a2)
   240d2:	6c61                	lui	s8,0x18
   240d4:	6575                	lui	a0,0x1d
   240d6:	70202c73          	csrr	s8,0x702
   240da:	656c                	ld	a1,200(a0)
   240dc:	7361                	lui	t1,0xffff8
   240de:	2065                	0x2065
   240e0:	706d6f63          	bltu	s10,t1,247fe <errpat+0x17e>
   240e4:	7261                	lui	tp,0xffff8
   240e6:	2065                	0x2065
   240e8:	68746977          	0x68746977
   240ec:	7220                	ld	s0,96(a2)
   240ee:	7365                	lui	t1,0xffff9
   240f0:	6c75                	lui	s8,0x1d
   240f2:	7374                	ld	a3,224(a4)
   240f4:	6f20                	ld	s0,88(a4)
   240f6:	206e                	fld	ft0,216(sp)
   240f8:	2061                	0x2061
   240fa:	776f6e6b          	0x776f6e6b
   240fe:	206e                	fld	ft0,216(sp)
   24100:	6c70                	ld	a2,216(s0)
   24102:	7461                	lui	s0,0xffff8
   24104:	6f66                	ld	t5,88(sp)
   24106:	6d72                	ld	s10,280(sp)
   24108:	0a2e                	slli	s4,s4,0xb
   2410a:	0000                	unimp
   2410c:	0000                	unimp
   2410e:	0000                	unimp
   24110:	74617453          	0x74617453
   24114:	6369                	lui	t1,0x1a
   24116:	0000                	unimp
   24118:	6548                	ld	a0,136(a0)
   2411a:	7061                	c.lui	zero,0xffff8
   2411c:	0000                	unimp
   2411e:	0000                	unimp
   24120:	63617453          	0x63617453
   24124:	0000006b          	0x6b
   24128:	614d                	addi	sp,sp,176
   2412a:	7274                	ld	a3,224(a2)
   2412c:	7869                	lui	a6,0xffffa
   2412e:	2520                	fld	fs0,72(a0)
   24130:	255b2073          	csrs	0x255,s6
   24134:	7864                	ld	s1,240(s0)
   24136:	6425                	lui	s0,0x9
   24138:	3a5d                	addiw	s4,s4,-9
   2413a:	000a                	c.slli	zero,0x2
   2413c:	0000                	unimp
   2413e:	0000                	unimp
   24140:	002c                	addi	a1,sp,8
   24142:	0000                	unimp
   24144:	0000                	unimp
   24146:	0000                	unimp
   24148:	6425                	lui	s0,0x9
   2414a:	0000                	unimp
   2414c:	0000                	unimp
   2414e:	0000                	unimp
   24150:	0041                	c.nop	16
   24152:	0000                	unimp
   24154:	0000                	unimp
   24156:	0000                	unimp
   24158:	0042                	c.slli	zero,0x10
   2415a:	0000                	unimp
   2415c:	0000                	unimp
   2415e:	0000                	unimp
   24160:	616d                	addi	sp,sp,240
   24162:	7274                	ld	a3,224(a2)
   24164:	7869                	lui	a6,0xffffa
   24166:	6d5f 6c75 6d5f      	0x6d5f6c756d5f
   2416c:	7461                	lui	s0,0xffff8
   2416e:	6972                	ld	s2,280(sp)
   24170:	5f78                	lw	a4,124(a4)
   24172:	6962                	ld	s2,24(sp)
   24174:	6574                	ld	a3,200(a0)
   24176:	7478                	ld	a4,232(s0)
   24178:	6172                	ld	sp,280(sp)
   2417a:	00007463          	bgeu	zero,zero,24182 <vm_boot+0x712>
   2417e:	0000                	unimp
   24180:	616d                	addi	sp,sp,240
   24182:	7274                	ld	a3,224(a2)
   24184:	7869                	lui	a6,0xffffa
   24186:	6d5f 6c75 6d5f      	0x6d5f6c756d5f
   2418c:	7461                	lui	s0,0xffff8
   2418e:	6972                	ld	s2,280(sp)
   24190:	0078                	addi	a4,sp,12
   24192:	0000                	unimp
   24194:	0000                	unimp
   24196:	0000                	unimp
   24198:	616d                	addi	sp,sp,240
   2419a:	7274                	ld	a3,224(a2)
   2419c:	7869                	lui	a6,0xffffa
   2419e:	6d5f 6c75 765f      	0x765f6c756d5f
   241a4:	6365                	lui	t1,0x19
   241a6:	0074                	addi	a3,sp,12
   241a8:	616d                	addi	sp,sp,240
   241aa:	7274                	ld	a3,224(a2)
   241ac:	7869                	lui	a6,0xffffa
   241ae:	6d5f 6c75 635f      	0x635f6c756d5f
   241b4:	74736e6f          	jal	t3,5b0fa <_end+0x3090a>
	...
   241c0:	616d                	addi	sp,sp,240
   241c2:	7274                	ld	a3,224(a2)
   241c4:	7869                	lui	a6,0xffffa
   241c6:	615f 6464 635f      	0x635f6464615f
   241cc:	74736e6f          	jal	t3,5b112 <_end+0x30922>
	...
   241d8:	74617453          	0x74617453
   241dc:	3a65                	addiw	s4,s4,-7
   241de:	2520                	fld	fs0,72(a0)
   241e0:	2c64                	fld	fs1,216(s0)
   241e2:	6425                	lui	s0,0x9
   241e4:	000a                	c.slli	zero,0x2
   241e6:	0000                	unimp
   241e8:	74617453          	0x74617453
   241ec:	2065                	0x2065
   241ee:	6e49                	lui	t3,0x12
   241f0:	7570                	ld	a2,232(a0)
   241f2:	3a74                	fld	fa3,240(a2)
   241f4:	2520                	fld	fs0,72(a0)
   241f6:	00000a73          	0xa73
   241fa:	0000                	unimp
   241fc:	0000                	unimp
   241fe:	0000                	unimp
   24200:	74617453          	0x74617453
   24204:	2065                	0x2065
   24206:	6542                	ld	a0,16(sp)
   24208:	636e                	ld	t1,216(sp)
   2420a:	3a68                	fld	fa0,240(a2)
   2420c:	2520                	fld	fs0,72(a0)
   2420e:	2c64                	fld	fs1,216(s0)
   24210:	6425                	lui	s0,0x9
   24212:	252c                	fld	fa1,72(a0)
   24214:	2c64                	fld	fs1,216(s0)
   24216:	3025                	0x3025
   24218:	7834                	ld	a3,112(s0)
   2421a:	000a                	c.slli	zero,0x2
   2421c:	0000                	unimp
   2421e:	0000                	unimp
   24220:	6425                	lui	s0,0x9
   24222:	002c                	addi	a1,sp,8
   24224:	0000                	unimp
   24226:	0000                	unimp
   24228:	3054                	fld	fa3,160(s0)
   2422a:	332e                	fld	ft6,232(sp)
   2422c:	2d65                	addiw	s10,s10,25
   2422e:	4631                	li	a2,12
	...
   24238:	542d                	li	s0,-21
   2423a:	542e                	lw	s0,232(sp)
   2423c:	71542b2b          	0x71542b2b
	...
   24248:	5431                	li	s0,-20
   2424a:	65342e33          	0x65342e33
   2424e:	7a34                	ld	a3,112(a2)
	...
   24258:	302e3433          	0x302e3433
   2425c:	2d65                	addiw	s10,s10,25
   2425e:	5e54                	lw	a3,60(a2)
	...
   24268:	2e35                	addiw	t3,t3,13
   2426a:	3035                	0x3035
   2426c:	6530                	ld	a2,72(a0)
   2426e:	0000332b          	0x332b
   24272:	0000                	unimp
   24274:	0000                	unimp
   24276:	0000                	unimp
   24278:	2e2d                	addiw	t3,t3,11
   2427a:	3231                	addiw	tp,tp,-20
   2427c:	322d6533          	0x322d6533
	...
   24288:	382d                	addiw	a6,a6,-21
   2428a:	382b6537          	lui	a0,0x382b6
   2428e:	00003233          	snez	tp,zero
   24292:	0000                	unimp
   24294:	0000                	unimp
   24296:	0000                	unimp
   24298:	362e302b          	0x362e302b
   2429c:	2d65                	addiw	s10,s10,25
   2429e:	3231                	addiw	tp,tp,-20
	...
   242a8:	352e3533          	0x352e3533
   242ac:	3434                	fld	fa3,104(s0)
   242ae:	3030                	fld	fa2,96(s0)
	...
   242b8:	312e                	fld	ft2,232(sp)
   242ba:	3332                	fld	ft6,296(sp)
   242bc:	3534                	fld	fa3,104(a0)
   242be:	3030                	fld	fa2,96(s0)
	...
   242c8:	312d                	addiw	sp,sp,-21
   242ca:	3031                	0x3031
   242cc:	372e                	fld	fa4,232(sp)
   242ce:	3030                	fld	fa2,96(s0)
	...
   242d8:	362e302b          	0x362e302b
   242dc:	3434                	fld	fa3,104(s0)
   242de:	3030                	fld	fa2,96(s0)
	...
   242e8:	3035                	0x3035
   242ea:	3231                	addiw	tp,tp,-20
   242ec:	0000                	unimp
   242ee:	0000                	unimp
   242f0:	3231                	addiw	tp,tp,-20
   242f2:	00003433          	snez	s0,zero
   242f6:	0000                	unimp
   242f8:	382d                	addiw	a6,a6,-21
   242fa:	00003437          	lui	s0,0x3
   242fe:	0000                	unimp
   24300:	3232312b          	0x3232312b
   24304:	0000                	unimp
   24306:	0000                	unimp
   24308:	3130                	fld	fa2,96(a0)
   2430a:	3332                	fld	ft6,296(sp)
   2430c:	3534                	fld	fa3,104(a0)
   2430e:	3736                	fld	fa4,360(sp)
   24310:	3938                	fld	fa4,112(a0)
   24312:	4241                	li	tp,16
   24314:	46454443          	fmadd.q	fs0,fa0,ft4,fs0,rmm
	...
   24320:	7341                	lui	t1,0xffff0
   24322:	74726573          	csrrsi	a0,0x747,4
   24326:	6f69                	lui	t5,0x1a
   24328:	206e                	fld	ft0,216(sp)
   2432a:	6166                	ld	sp,88(sp)
   2432c:	6c69                	lui	s8,0x1a
   2432e:	6465                	lui	s0,0x19
   24330:	203a                	fld	ft0,392(sp)
   24332:	6461                	lui	s0,0x18
   24334:	7264                	ld	s1,224(a2)
   24336:	3e20                	fld	fs0,120(a2)
   24338:	203d                	0x203d
   2433a:	3128                	fld	fa0,96(a0)
   2433c:	4c55                	li	s8,21
   2433e:	3c20                	fld	fs0,120(s0)
   24340:	203c                	fld	fa5,64(s0)
   24342:	3231                	addiw	tp,tp,-20
   24344:	2029                	0x2029
   24346:	2626                	fld	fa2,72(sp)
   24348:	6120                	ld	s0,64(a0)
   2434a:	6464                	ld	s1,200(s0)
   2434c:	2072                	fld	ft0,280(sp)
   2434e:	203c                	fld	fa5,64(s0)
   24350:	3336                	fld	ft6,360(sp)
   24352:	2a20                	fld	fs0,80(a2)
   24354:	2820                	fld	fs0,80(s0)
   24356:	5531                	li	a0,-20
   24358:	204c                	fld	fa1,128(s0)
   2435a:	3c3c                	fld	fa5,120(s0)
   2435c:	3120                	fld	fs0,96(a0)
   2435e:	2932                	fld	fs2,264(sp)
   24360:	000a                	c.slli	zero,0x2
   24362:	0000                	unimp
   24364:	0000                	unimp
   24366:	0000                	unimp
   24368:	7341                	lui	t1,0xffff0
   2436a:	74726573          	csrrsi	a0,0x747,4
   2436e:	6f69                	lui	t5,0x1a
   24370:	206e                	fld	ft0,216(sp)
   24372:	6166                	ld	sp,88(sp)
   24374:	6c69                	lui	s8,0x1a
   24376:	6465                	lui	s0,0x19
   24378:	203a                	fld	ft0,392(sp)
   2437a:	2821                	addiw	a6,a6,8
   2437c:	7470                	ld	a2,232(s0)
   2437e:	5b5d335b          	0x5b5d335b
   24382:	6461                	lui	s0,0x18
   24384:	7264                	ld	s1,224(a2)
   24386:	5531282f          	0x5531282f
   2438a:	204c                	fld	fa1,128(s0)
   2438c:	3c3c                	fld	fa5,120(s0)
   2438e:	3120                	fld	fs0,96(a0)
   24390:	2932                	fld	fs2,264(sp)
   24392:	205d                	0x205d
   24394:	2026                	fld	ft0,72(sp)
   24396:	7830                	ld	a2,112(s0)
   24398:	3830                	fld	fa2,112(s0)
   2439a:	2930                	fld	fa2,80(a0)
   2439c:	2620                	fld	fs0,72(a2)
   2439e:	2026                	fld	ft0,72(sp)
   243a0:	73756163          	bltu	a0,s7,24ac2 <errpat+0x442>
   243a4:	2065                	0x2065
   243a6:	3d3d                	addiw	s10,s10,-17
   243a8:	3020                	fld	fs0,96(s0)
   243aa:	6678                	ld	a4,200(a2)
   243ac:	000a                	c.slli	zero,0x2
   243ae:	0000                	unimp
   243b0:	7341                	lui	t1,0xffff0
   243b2:	74726573          	csrrsi	a0,0x747,4
   243b6:	6f69                	lui	t5,0x1a
   243b8:	206e                	fld	ft0,216(sp)
   243ba:	6166                	ld	sp,88(sp)
   243bc:	6c69                	lui	s8,0x1a
   243be:	6465                	lui	s0,0x19
   243c0:	203a                	fld	ft0,392(sp)
   243c2:	6f6e                	ld	t5,216(sp)
   243c4:	6564                	ld	s1,200(a0)
   243c6:	000a                	c.slli	zero,0x2
   243c8:	7341                	lui	t1,0xffff0
   243ca:	74726573          	csrrsi	a0,0x747,4
   243ce:	6f69                	lui	t5,0x1a
   243d0:	206e                	fld	ft0,216(sp)
   243d2:	6166                	ld	sp,88(sp)
   243d4:	6c69                	lui	s8,0x1a
   243d6:	6465                	lui	s0,0x19
   243d8:	203a                	fld	ft0,392(sp)
   243da:	7375                	lui	t1,0xffffd
   243dc:	7265                	lui	tp,0xffff9
   243de:	6d5f 7061 6970      	0x697070616d5f
   243e4:	676e                	ld	a4,216(sp)
   243e6:	6464615b          	0x6464615b
   243ea:	2f72                	fld	ft10,280(sp)
   243ec:	3128                	fld	fa0,96(a0)
   243ee:	4c55                	li	s8,21
   243f0:	3c20                	fld	fs0,120(s0)
   243f2:	203c                	fld	fa5,64(s0)
   243f4:	3231                	addiw	tp,tp,-20
   243f6:	5d29                	li	s10,-22
   243f8:	612e                	ld	sp,200(sp)
   243fa:	6464                	ld	s1,200(s0)
   243fc:	2072                	fld	ft0,280(sp)
   243fe:	3d3d                	addiw	s10,s10,-17
   24400:	3020                	fld	fs0,96(s0)
   24402:	000a                	c.slli	zero,0x2
   24404:	0000                	unimp
   24406:	0000                	unimp
   24408:	6168                	ld	a0,192(a0)
   2440a:	646e                	ld	s0,216(sp)
   2440c:	696c                	ld	a1,208(a0)
   2440e:	676e                	ld	a4,216(sp)
   24410:	6620                	ld	s0,72(a2)
   24412:	7561                	lui	a0,0xffff8
   24414:	746c                	ld	a1,232(s0)
   24416:	6620                	ld	s0,72(a2)
   24418:	6120726f          	jal	tp,2ba2a <_end+0x123a>
   2441c:	6464                	ld	s1,200(s0)
   2441e:	6572                	ld	a0,280(sp)
   24420:	25207373          	csrrci	t1,0x252,0
   24424:	6130                	ld	a2,64(a0)
   24426:	0a20                	addi	s0,sp,280
   24428:	0020                	addi	s0,sp,8
   2442a:	0000                	unimp
   2442c:	0000                	unimp
   2442e:	0000                	unimp
   24430:	74746573          	csrrsi	a0,0x747,8
   24434:	6e69                	lui	t3,0x1a
   24436:	63612067          	0x63612067
   2443a:	73736563          	bltu	t1,s7,24b64 <errpat+0x4e4>
   2443e:	6220                	ld	s0,64(a2)
   24440:	7469                	lui	s0,0xffffa
   24442:	0a20                	addi	s0,sp,280
   24444:	0000                	unimp
   24446:	0000                	unimp
   24448:	74746573          	csrrsi	a0,0x747,8
   2444c:	6e69                	lui	t3,0x1a
   2444e:	69642067          	0x69642067
   24452:	7472                	ld	s0,312(sp)
   24454:	2079                	0x2079
   24456:	6962                	ld	s2,24(sp)
   24458:	2074                	fld	fa3,192(s0)
   2445a:	000a                	c.slli	zero,0x2
   2445c:	0000                	unimp
   2445e:	0000                	unimp
   24460:	7341                	lui	t1,0xffff0
   24462:	74726573          	csrrsi	a0,0x747,4
   24466:	6f69                	lui	t5,0x1a
   24468:	206e                	fld	ft0,216(sp)
   2446a:	6166                	ld	sp,88(sp)
   2446c:	6c69                	lui	s8,0x1a
   2446e:	6465                	lui	s0,0x19
   24470:	203a                	fld	ft0,392(sp)
   24472:	7470                	ld	a2,232(s0)
   24474:	5b5d335b          	0x5b5d335b
   24478:	6461                	lui	s0,0x18
   2447a:	7264                	ld	s1,224(a2)
   2447c:	5531282f          	0x5531282f
   24480:	204c                	fld	fa1,128(s0)
   24482:	3c3c                	fld	fa5,120(s0)
   24484:	3120                	fld	fs0,96(a0)
   24486:	2932                	fld	fs2,264(sp)
   24488:	205d                	0x205d
   2448a:	2026                	fld	ft0,72(sp)
   2448c:	7830                	ld	a2,112(s0)
   2448e:	3430                	fld	fa2,104(s0)
   24490:	0a30                	addi	a2,sp,280
   24492:	0000                	unimp
   24494:	0000                	unimp
   24496:	0000                	unimp
   24498:	7341                	lui	t1,0xffff0
   2449a:	74726573          	csrrsi	a0,0x747,4
   2449e:	6f69                	lui	t5,0x1a
   244a0:	206e                	fld	ft0,216(sp)
   244a2:	6166                	ld	sp,88(sp)
   244a4:	6c69                	lui	s8,0x1a
   244a6:	6465                	lui	s0,0x19
   244a8:	203a                	fld	ft0,392(sp)
   244aa:	7470                	ld	a2,232(s0)
   244ac:	5b5d335b          	0x5b5d335b
   244b0:	6461                	lui	s0,0x18
   244b2:	7264                	ld	s1,224(a2)
   244b4:	5531282f          	0x5531282f
   244b8:	204c                	fld	fa1,128(s0)
   244ba:	3c3c                	fld	fa5,120(s0)
   244bc:	3120                	fld	fs0,96(a0)
   244be:	2932                	fld	fs2,264(sp)
   244c0:	205d                	0x205d
   244c2:	2026                	fld	ft0,72(sp)
   244c4:	7830                	ld	a2,112(s0)
   244c6:	3830                	fld	fa2,112(s0)
   244c8:	0a30                	addi	a2,sp,280
   244ca:	0000                	unimp
   244cc:	0000                	unimp
   244ce:	0000                	unimp
   244d0:	7341                	lui	t1,0xffff0
   244d2:	74726573          	csrrsi	a0,0x747,4
   244d6:	6f69                	lui	t5,0x1a
   244d8:	206e                	fld	ft0,216(sp)
   244da:	6166                	ld	sp,88(sp)
   244dc:	6c69                	lui	s8,0x1a
   244de:	6465                	lui	s0,0x19
   244e0:	203a                	fld	ft0,392(sp)
   244e2:	6674                	ld	a3,200(a2)
   244e4:	3e2d                	addiw	t3,t3,-21
   244e6:	7065                	c.lui	zero,0xffff9
   244e8:	20252063          	0x20252063
   244ec:	2034                	fld	fa3,64(s0)
   244ee:	3d3d                	addiw	s10,s10,-17
   244f0:	3020                	fld	fs0,96(s0)
   244f2:	000a                	c.slli	zero,0x2
   244f4:	0000                	unimp
   244f6:	0000                	unimp
   244f8:	7341                	lui	t1,0xffff0
   244fa:	74726573          	csrrsi	a0,0x747,4
   244fe:	6f69                	lui	t5,0x1a
   24500:	206e                	fld	ft0,216(sp)
   24502:	6166                	ld	sp,88(sp)
   24504:	6c69                	lui	s8,0x1a
   24506:	6465                	lui	s0,0x19
   24508:	203a                	fld	ft0,392(sp)
   2450a:	2221                	addiw	tp,tp,8
   2450c:	6c69                	lui	s8,0x1a
   2450e:	656c                	ld	a1,200(a0)
   24510:	206c6167          	0x206c6167
   24514:	6e69                	lui	t3,0x1a
   24516:	75727473          	csrrci	s0,0x757,4
   2451a:	6f697463          	bgeu	s2,s6,24c02 <errpat+0x582>
   2451e:	226e                	fld	ft4,216(sp)
   24520:	000a                	c.slli	zero,0x2
   24522:	0000                	unimp
   24524:	0000                	unimp
   24526:	0000                	unimp
   24528:	7341                	lui	t1,0xffff0
   2452a:	74726573          	csrrsi	a0,0x747,4
   2452e:	6f69                	lui	t5,0x1a
   24530:	206e                	fld	ft0,216(sp)
   24532:	6166                	ld	sp,88(sp)
   24534:	6c69                	lui	s8,0x1a
   24536:	6465                	lui	s0,0x19
   24538:	203a                	fld	ft0,392(sp)
   2453a:	2221                	addiw	tp,tp,8
   2453c:	6e75                	lui	t3,0x1d
   2453e:	7865                	lui	a6,0xffff9
   24540:	6570                	ld	a2,200(a0)
   24542:	64657463          	bgeu	a0,t1,24b8a <errpat+0x50a>
   24546:	6520                	ld	s0,72(a0)
   24548:	6378                	ld	a4,192(a4)
   2454a:	7065                	c.lui	zero,0xffff9
   2454c:	6974                	ld	a3,208(a0)
   2454e:	0a226e6f          	jal	t3,4a5f0 <_end+0x1fe00>
   24552:	0000                	unimp
   24554:	0000                	unimp
	...

Disassembly of section .rodata:

0000000000024558 <list_known_crc>:
   24558:	d4b0                	sw	a2,104(s1)
   2455a:	3340                	fld	fs0,160(a4)
   2455c:	6a79                	lui	s4,0x1e
   2455e:	e714                	sd	a3,8(a4)
   24560:	e3c1                	bnez	a5,245e0 <_GLOBAL_OFFSET_TABLE_+0x28>
   24562:	0000                	unimp
   24564:	0000                	unimp
	...

0000000000024568 <matrix_known_crc>:
   24568:	be52                	fsd	fs4,312(sp)
   2456a:	1199                	addi	gp,gp,-26
   2456c:	5608                	lw	a0,40(a2)
   2456e:	07471fd7          	0x7471fd7
   24572:	0000                	unimp
   24574:	0000                	unimp
	...

0000000000024578 <state_known_crc>:
   24578:	39bf5e47          	fmsub.s	ft8,ft10,fs11,ft7,unknown
   2457c:	e5a4                	sd	s1,72(a1)
   2457e:	8e3a                	mv	t3,a4
   24580:	8d84                	0x8d84
   24582:	0000                	unimp
   24584:	db34                	sw	a3,112(a4)
   24586:	ffff                	0xffff
   24588:	db34                	sw	a3,112(a4)
   2458a:	ffff                	0xffff
   2458c:	dbac                	sw	a1,112(a5)
   2458e:	ffff                	0xffff
   24590:	dbac                	sw	a1,112(a5)
   24592:	ffff                	0xffff
   24594:	dbb8                	sw	a4,112(a5)
   24596:	ffff                	0xffff
   24598:	e238                	sd	a4,64(a2)
   2459a:	ffff                	0xffff
   2459c:	e1e8                	sd	a0,192(a1)
   2459e:	ffff                	0xffff
   245a0:	e1fc                	sd	a5,192(a1)
   245a2:	ffff                	0xffff
   245a4:	e210                	sd	a2,0(a2)
   245a6:	ffff                	0xffff
   245a8:	e224                	sd	s1,64(a2)
   245aa:	ffff                	0xffff
   245ac:	e1d4                	sd	a3,128(a1)
   245ae:	ffff                	0xffff

Disassembly of section .data:

00000000000245b0 <default_num_contexts>:
   245b0:	0001                	nop
	...

00000000000245b4 <seed3_volatile>:
   245b4:	0066                	c.slli	zero,0x19
	...

Disassembly of section .got:

00000000000245b8 <_GLOBAL_OFFSET_TABLE_>:
	...
   245c0:	501c                	lw	a5,32(s0)
   245c2:	0002                	c.slli64	zero
   245c4:	0000                	unimp
   245c6:	0000                	unimp
   245c8:	45b4                	lw	a3,72(a1)
   245ca:	0002                	c.slli64	zero
   245cc:	0000                	unimp
   245ce:	0000                	unimp
   245d0:	5014                	lw	a3,32(s0)
   245d2:	0002                	c.slli64	zero
   245d4:	0000                	unimp
   245d6:	0000                	unimp
   245d8:	5010                	lw	a2,32(s0)
   245da:	0002                	c.slli64	zero
   245dc:	0000                	unimp
   245de:	0000                	unimp
   245e0:	5028                	lw	a0,96(s0)
   245e2:	0002                	c.slli64	zero
   245e4:	0000                	unimp
   245e6:	0000                	unimp
   245e8:	5018                	lw	a4,32(s0)
   245ea:	0002                	c.slli64	zero
   245ec:	0000                	unimp
   245ee:	0000                	unimp
   245f0:	45b0                	lw	a2,72(a1)
   245f2:	0002                	c.slli64	zero
   245f4:	0000                	unimp
	...

Disassembly of section .got.plt:

00000000000245f8 <.got.plt>:
   245f8:	ffff                	0xffff
   245fa:	ffff                	0xffff
   245fc:	ffff                	0xffff
   245fe:	ffff                	0xffff
	...

Disassembly of section .data.rel.local:

0000000000024608 <mem_name>:
   24608:	4110                	lw	a2,0(a0)
   2460a:	0002                	c.slli64	zero
   2460c:	0000                	unimp
   2460e:	0000                	unimp
   24610:	4118                	lw	a4,0(a0)
   24612:	0002                	c.slli64	zero
   24614:	0000                	unimp
   24616:	0000                	unimp
   24618:	4120                	lw	s0,64(a0)
   2461a:	0002                	c.slli64	zero
   2461c:	0000                	unimp
	...

Disassembly of section .data.rel.ro.local:

0000000000024620 <intpat>:
   24620:	42e8                	lw	a0,68(a3)
   24622:	0002                	c.slli64	zero
   24624:	0000                	unimp
   24626:	0000                	unimp
   24628:	42f0                	lw	a2,68(a3)
   2462a:	0002                	c.slli64	zero
   2462c:	0000                	unimp
   2462e:	0000                	unimp
   24630:	42f8                	lw	a4,68(a3)
   24632:	0002                	c.slli64	zero
   24634:	0000                	unimp
   24636:	0000                	unimp
   24638:	4300                	lw	s0,0(a4)
   2463a:	0002                	c.slli64	zero
   2463c:	0000                	unimp
	...

0000000000024640 <floatpat>:
   24640:	42a8                	lw	a0,64(a3)
   24642:	0002                	c.slli64	zero
   24644:	0000                	unimp
   24646:	0000                	unimp
   24648:	42b8                	lw	a4,64(a3)
   2464a:	0002                	c.slli64	zero
   2464c:	0000                	unimp
   2464e:	0000                	unimp
   24650:	42c8                	lw	a0,4(a3)
   24652:	0002                	c.slli64	zero
   24654:	0000                	unimp
   24656:	0000                	unimp
   24658:	42d8                	lw	a4,4(a3)
   2465a:	0002                	c.slli64	zero
   2465c:	0000                	unimp
	...

0000000000024660 <scipat>:
   24660:	4268                	lw	a0,68(a2)
   24662:	0002                	c.slli64	zero
   24664:	0000                	unimp
   24666:	0000                	unimp
   24668:	4278                	lw	a4,68(a2)
   2466a:	0002                	c.slli64	zero
   2466c:	0000                	unimp
   2466e:	0000                	unimp
   24670:	4288                	lw	a0,0(a3)
   24672:	0002                	c.slli64	zero
   24674:	0000                	unimp
   24676:	0000                	unimp
   24678:	4298                	lw	a4,0(a3)
   2467a:	0002                	c.slli64	zero
   2467c:	0000                	unimp
	...

0000000000024680 <errpat>:
   24680:	4228                	lw	a0,64(a2)
   24682:	0002                	c.slli64	zero
   24684:	0000                	unimp
   24686:	0000                	unimp
   24688:	4238                	lw	a4,64(a2)
   2468a:	0002                	c.slli64	zero
   2468c:	0000                	unimp
   2468e:	0000                	unimp
   24690:	4248                	lw	a0,4(a2)
   24692:	0002                	c.slli64	zero
   24694:	0000                	unimp
   24696:	0000                	unimp
   24698:	4258                	lw	a4,4(a2)
   2469a:	0002                	c.slli64	zero
   2469c:	0000                	unimp
	...

Disassembly of section .bss:

0000000000025000 <start_time_val>:
	...

0000000000025008 <stop_time_val>:
	...

0000000000025010 <seed5_volatile>:
   25010:	0000                	unimp
	...

0000000000025014 <seed4_volatile>:
   25014:	0000                	unimp
	...

0000000000025018 <seed2_volatile>:
   25018:	0000                	unimp
	...

000000000002501c <seed1_volatile>:
   2501c:	0000                	unimp
	...

0000000000025020 <heap_memory_used>:
	...

0000000000025028 <heap_memory>:
	...

0000000000026000 <pt>:
	...

000000000002a000 <freelist_nodes>:
	...

000000000002a3f0 <user_mapping>:
	...

000000000002a7e0 <freelist_tail>:
	...

000000000002a7e8 <freelist_head>:
	...

Disassembly of section .comment:

0000000000000000 <.comment>:
   0:	3a434347          	fmsub.d	ft6,ft6,ft4,ft7,rmm
   4:	2820                	fld	fs0,80(s0)
   6:	29554e47          	fmsub.s	ft8,fa0,fs5,ft5,rmm
   a:	3820                	fld	fs0,112(s0)
   c:	322e                	fld	ft4,232(sp)
   e:	302e                	fld	ft0,232(sp)
	...

Disassembly of section .riscv.attributes:

0000000000000000 <.riscv.attributes>:
   0:	1e41                	addi	t3,t3,-16
   2:	0000                	unimp
   4:	7200                	ld	s0,32(a2)
   6:	7369                	lui	t1,0xffffa
   8:	01007663          	bgeu	zero,a6,14 <handle_reset+0x8>
   c:	0014                	0x14
   e:	0000                	unimp
  10:	7205                	lui	tp,0xfffe1
  12:	3676                	fld	fa2,376(sp)
  14:	6934                	ld	a3,80(a0)
  16:	7032                	0x7032
  18:	5f30                	lw	a2,120(a4)
  1a:	326d                	addiw	tp,tp,-5
  1c:	3070                	fld	fa2,224(s0)
	...
