
main:     file format elf64-littleriscv


Disassembly of section .text:

0000000000000000 <main>:
   0:	fe010113          	addi	sp,sp,-32
   4:	00113c23          	sd	ra,24(sp)
   8:	00813823          	sd	s0,16(sp)
   c:	02010413          	addi	s0,sp,32
  10:	03c000ef          	jal	ra,4c <interrupt_init>
  14:	fe042623          	sw	zero,-20(s0)
  18:	0200006f          	j	38 <main+0x38>
  1c:	fec42783          	lw	a5,-20(s0)
  20:	00078593          	mv	a1,a5
  24:	74000513          	li	a0,1856
  28:	36c000ef          	jal	ra,394 <hprintf>
  2c:	fec42783          	lw	a5,-20(s0)
  30:	0017879b          	addiw	a5,a5,1
  34:	fef42623          	sw	a5,-20(s0)
  38:	fec42783          	lw	a5,-20(s0)
  3c:	0007871b          	sext.w	a4,a5
  40:	06300793          	li	a5,99
  44:	fce7dce3          	ble	a4,a5,1c <main+0x1c>
  48:	0000006f          	j	48 <main+0x48>

000000000000004c <interrupt_init>:
  4c:	000002b7          	lui	t0,0x0
  50:	08c28293          	addi	t0,t0,140 # 8c <interrupt_handler>
  54:	30529073          	csrw	mtvec,t0
  58:	00800513          	li	a0,8
  5c:	30052073          	csrs	mstatus,a0
  60:	008005b7          	lui	a1,0x800
  64:	0005b503          	ld	a0,0(a1) # 800000 <hscanf+0x7ff934>
  68:	000022b7          	lui	t0,0x2
  6c:	7102829b          	addiw	t0,t0,1808
  70:	00550533          	add	a0,a0,t0
  74:	008005b7          	lui	a1,0x800
  78:	0085859b          	addiw	a1,a1,8
  7c:	00a5b023          	sd	a0,0(a1) # 800000 <hscanf+0x7ff934>
  80:	08000513          	li	a0,128
  84:	30452073          	csrs	mie,a0
  88:	00008067          	ret

000000000000008c <interrupt_handler>:
  8c:	fe010113          	addi	sp,sp,-32
  90:	01d13423          	sd	t4,8(sp)
  94:	01e13823          	sd	t5,16(sp)
  98:	01f13c23          	sd	t6,24(sp)
  9c:	000e0f37          	lui	t5,0xe0
  a0:	001f0f1b          	addiw	t5,t5,1
  a4:	00cf1f13          	slli	t5,t5,0xc
  a8:	030f0f13          	addi	t5,t5,48 # e0030 <hscanf+0xdf964>
  ac:	00a00f93          	li	t6,10
  b0:	01ff0023          	sb	t6,0(t5)
  b4:	02d00f93          	li	t6,45
  b8:	01ff0023          	sb	t6,0(t5)
  bc:	02d00f93          	li	t6,45
  c0:	01ff0023          	sb	t6,0(t5)
  c4:	02d00f93          	li	t6,45
  c8:	01ff0023          	sb	t6,0(t5)
  cc:	02d00f93          	li	t6,45
  d0:	01ff0023          	sb	t6,0(t5)
  d4:	04600f93          	li	t6,70
  d8:	01ff0023          	sb	t6,0(t5)
  dc:	04900f93          	li	t6,73
  e0:	01ff0023          	sb	t6,0(t5)
  e4:	05200f93          	li	t6,82
  e8:	01ff0023          	sb	t6,0(t5)
  ec:	04500f93          	li	t6,69
  f0:	01ff0023          	sb	t6,0(t5)
  f4:	04400f93          	li	t6,68
  f8:	01ff0023          	sb	t6,0(t5)
  fc:	02d00f93          	li	t6,45
 100:	01ff0023          	sb	t6,0(t5)
 104:	02d00f93          	li	t6,45
 108:	01ff0023          	sb	t6,0(t5)
 10c:	02d00f93          	li	t6,45
 110:	01ff0023          	sb	t6,0(t5)
 114:	02d00f93          	li	t6,45
 118:	01ff0023          	sb	t6,0(t5)
 11c:	00a00f93          	li	t6,10
 120:	01ff0023          	sb	t6,0(t5)
 124:	00800f37          	lui	t5,0x800
 128:	000f3e83          	ld	t4,0(t5) # 800000 <hscanf+0x7ff934>
 12c:	00002f37          	lui	t5,0x2
 130:	710f0f1b          	addiw	t5,t5,1808
 134:	01ee8eb3          	add	t4,t4,t5
 138:	00800f37          	lui	t5,0x800
 13c:	008f0f1b          	addiw	t5,t5,8
 140:	01df3023          	sd	t4,0(t5) # 800000 <hscanf+0x7ff934>
 144:	00813e83          	ld	t4,8(sp)
 148:	01013f03          	ld	t5,16(sp)
 14c:	01813f83          	ld	t6,24(sp)
 150:	02010113          	addi	sp,sp,32
 154:	30200073          	mret

Disassembly of section .text.hprintf_c:

0000000000000158 <hprintf_c>:
 158:	fd010113          	addi	sp,sp,-48
 15c:	02813423          	sd	s0,40(sp)
 160:	03010413          	addi	s0,sp,48
 164:	00050793          	mv	a5,a0
 168:	fcf42e23          	sw	a5,-36(s0)
 16c:	380007b7          	lui	a5,0x38000
 170:	40b78793          	addi	a5,a5,1035 # 3800040b <hscanf+0x37fffd3f>
 174:	00279793          	slli	a5,a5,0x2
 178:	fef43423          	sd	a5,-24(s0)
 17c:	00000013          	nop
 180:	fe843783          	ld	a5,-24(s0)
 184:	0007a783          	lw	a5,0(a5)
 188:	0007879b          	sext.w	a5,a5
 18c:	0107f793          	andi	a5,a5,16
 190:	0007879b          	sext.w	a5,a5
 194:	00078713          	mv	a4,a5
 198:	01000793          	li	a5,16
 19c:	fef702e3          	beq	a4,a5,180 <hprintf_c+0x28>
 1a0:	0e0007b7          	lui	a5,0xe000
 1a4:	10378793          	addi	a5,a5,259 # e000103 <hscanf+0xdfffa37>
 1a8:	00479793          	slli	a5,a5,0x4
 1ac:	fdc42703          	lw	a4,-36(s0)
 1b0:	00e7a023          	sw	a4,0(a5)
 1b4:	00000013          	nop
 1b8:	02813403          	ld	s0,40(sp)
 1bc:	03010113          	addi	sp,sp,48
 1c0:	00008067          	ret

Disassembly of section .text.hprintf_s:

00000000000001c4 <hprintf_s>:
 1c4:	fe010113          	addi	sp,sp,-32
 1c8:	00113c23          	sd	ra,24(sp)
 1cc:	00813823          	sd	s0,16(sp)
 1d0:	02010413          	addi	s0,sp,32
 1d4:	fea43423          	sd	a0,-24(s0)
 1d8:	0200006f          	j	1f8 <hprintf_s+0x34>
 1dc:	fe843783          	ld	a5,-24(s0)
 1e0:	00178713          	addi	a4,a5,1
 1e4:	fee43423          	sd	a4,-24(s0)
 1e8:	0007c783          	lbu	a5,0(a5)
 1ec:	0007879b          	sext.w	a5,a5
 1f0:	00078513          	mv	a0,a5
 1f4:	f65ff0ef          	jal	ra,158 <hprintf_c>
 1f8:	fe843783          	ld	a5,-24(s0)
 1fc:	0007c783          	lbu	a5,0(a5)
 200:	fc079ee3          	bnez	a5,1dc <hprintf_s+0x18>
 204:	00000013          	nop
 208:	01813083          	ld	ra,24(sp)
 20c:	01013403          	ld	s0,16(sp)
 210:	02010113          	addi	sp,sp,32
 214:	00008067          	ret

Disassembly of section .text.hprintf_d:

0000000000000218 <hprintf_d>:
 218:	fb010113          	addi	sp,sp,-80
 21c:	04113423          	sd	ra,72(sp)
 220:	04813023          	sd	s0,64(sp)
 224:	05010413          	addi	s0,sp,80
 228:	00050793          	mv	a5,a0
 22c:	faf42e23          	sw	a5,-68(s0)
 230:	fc840793          	addi	a5,s0,-56
 234:	fef43423          	sd	a5,-24(s0)
 238:	fbc42783          	lw	a5,-68(s0)
 23c:	0007879b          	sext.w	a5,a5
 240:	0407dc63          	bgez	a5,298 <hprintf_d+0x80>
 244:	02d00513          	li	a0,45
 248:	f11ff0ef          	jal	ra,158 <hprintf_c>
 24c:	fbc42783          	lw	a5,-68(s0)
 250:	40f007bb          	negw	a5,a5
 254:	faf42e23          	sw	a5,-68(s0)
 258:	0400006f          	j	298 <hprintf_d+0x80>
 25c:	fbc42703          	lw	a4,-68(s0)
 260:	00a00793          	li	a5,10
 264:	02f767bb          	remw	a5,a4,a5
 268:	0007879b          	sext.w	a5,a5
 26c:	0ff7f713          	andi	a4,a5,255
 270:	fe843783          	ld	a5,-24(s0)
 274:	00178693          	addi	a3,a5,1
 278:	fed43423          	sd	a3,-24(s0)
 27c:	0307071b          	addiw	a4,a4,48
 280:	0ff77713          	andi	a4,a4,255
 284:	00e78023          	sb	a4,0(a5)
 288:	fbc42703          	lw	a4,-68(s0)
 28c:	00a00793          	li	a5,10
 290:	02f747bb          	divw	a5,a4,a5
 294:	faf42e23          	sw	a5,-68(s0)
 298:	fbc42783          	lw	a5,-68(s0)
 29c:	0007879b          	sext.w	a5,a5
 2a0:	fa079ee3          	bnez	a5,25c <hprintf_d+0x44>
 2a4:	fc840793          	addi	a5,s0,-56
 2a8:	fe843703          	ld	a4,-24(s0)
 2ac:	faf708e3          	beq	a4,a5,25c <hprintf_d+0x44>
 2b0:	0240006f          	j	2d4 <hprintf_d+0xbc>
 2b4:	fe843783          	ld	a5,-24(s0)
 2b8:	fff78793          	addi	a5,a5,-1
 2bc:	fef43423          	sd	a5,-24(s0)
 2c0:	fe843783          	ld	a5,-24(s0)
 2c4:	0007c783          	lbu	a5,0(a5)
 2c8:	0007879b          	sext.w	a5,a5
 2cc:	00078513          	mv	a0,a5
 2d0:	e89ff0ef          	jal	ra,158 <hprintf_c>
 2d4:	fc840793          	addi	a5,s0,-56
 2d8:	fe843703          	ld	a4,-24(s0)
 2dc:	fcf71ce3          	bne	a4,a5,2b4 <hprintf_d+0x9c>
 2e0:	00000013          	nop
 2e4:	04813083          	ld	ra,72(sp)
 2e8:	04013403          	ld	s0,64(sp)
 2ec:	05010113          	addi	sp,sp,80
 2f0:	00008067          	ret

Disassembly of section .text.hprintf_h:

00000000000002f4 <hprintf_h>:
 2f4:	fd010113          	addi	sp,sp,-48
 2f8:	02113423          	sd	ra,40(sp)
 2fc:	02813023          	sd	s0,32(sp)
 300:	03010413          	addi	s0,sp,48
 304:	00050793          	mv	a5,a0
 308:	00058713          	mv	a4,a1
 30c:	fcf42e23          	sw	a5,-36(s0)
 310:	00070793          	mv	a5,a4
 314:	fcf42c23          	sw	a5,-40(s0)
 318:	fd842783          	lw	a5,-40(s0)
 31c:	fff7879b          	addiw	a5,a5,-1
 320:	0007879b          	sext.w	a5,a5
 324:	0027979b          	slliw	a5,a5,0x2
 328:	fef42623          	sw	a5,-20(s0)
 32c:	0480006f          	j	374 <hprintf_h+0x80>
 330:	fdc42703          	lw	a4,-36(s0)
 334:	fec42783          	lw	a5,-20(s0)
 338:	00f757bb          	srlw	a5,a4,a5
 33c:	0007879b          	sext.w	a5,a5
 340:	00f7f793          	andi	a5,a5,15
 344:	0007871b          	sext.w	a4,a5
 348:	02071713          	slli	a4,a4,0x20
 34c:	02075713          	srli	a4,a4,0x20
 350:	75800793          	li	a5,1880
 354:	00f707b3          	add	a5,a4,a5
 358:	0007c783          	lbu	a5,0(a5)
 35c:	0007879b          	sext.w	a5,a5
 360:	00078513          	mv	a0,a5
 364:	df5ff0ef          	jal	ra,158 <hprintf_c>
 368:	fec42783          	lw	a5,-20(s0)
 36c:	ffc7879b          	addiw	a5,a5,-4
 370:	fef42623          	sw	a5,-20(s0)
 374:	fec42783          	lw	a5,-20(s0)
 378:	0007879b          	sext.w	a5,a5
 37c:	fa07dae3          	bgez	a5,330 <hprintf_h+0x3c>
 380:	00000013          	nop
 384:	02813083          	ld	ra,40(sp)
 388:	02013403          	ld	s0,32(sp)
 38c:	03010113          	addi	sp,sp,48
 390:	00008067          	ret

Disassembly of section .text.hprintf:

0000000000000394 <hprintf>:
 394:	f9010113          	addi	sp,sp,-112
 398:	02113423          	sd	ra,40(sp)
 39c:	02813023          	sd	s0,32(sp)
 3a0:	03010413          	addi	s0,sp,48
 3a4:	fca43c23          	sd	a0,-40(s0)
 3a8:	00b43423          	sd	a1,8(s0)
 3ac:	00c43823          	sd	a2,16(s0)
 3b0:	00d43c23          	sd	a3,24(s0)
 3b4:	02e43023          	sd	a4,32(s0)
 3b8:	02f43423          	sd	a5,40(s0)
 3bc:	03043823          	sd	a6,48(s0)
 3c0:	03143c23          	sd	a7,56(s0)
 3c4:	04040793          	addi	a5,s0,64
 3c8:	fc878793          	addi	a5,a5,-56
 3cc:	fef43023          	sd	a5,-32(s0)
 3d0:	fe042623          	sw	zero,-20(s0)
 3d4:	2440006f          	j	618 <hprintf+0x284>
 3d8:	fec42783          	lw	a5,-20(s0)
 3dc:	fd843703          	ld	a4,-40(s0)
 3e0:	00f707b3          	add	a5,a4,a5
 3e4:	0007c783          	lbu	a5,0(a5)
 3e8:	00078713          	mv	a4,a5
 3ec:	02500793          	li	a5,37
 3f0:	20f71063          	bne	a4,a5,5f0 <hprintf+0x25c>
 3f4:	1d80006f          	j	5cc <hprintf+0x238>
 3f8:	fec42783          	lw	a5,-20(s0)
 3fc:	fd843703          	ld	a4,-40(s0)
 400:	00f707b3          	add	a5,a4,a5
 404:	0007c783          	lbu	a5,0(a5)
 408:	00078713          	mv	a4,a5
 40c:	06300793          	li	a5,99
 410:	02f71063          	bne	a4,a5,430 <hprintf+0x9c>
 414:	fe043783          	ld	a5,-32(s0)
 418:	00878713          	addi	a4,a5,8
 41c:	fee43023          	sd	a4,-32(s0)
 420:	0007a783          	lw	a5,0(a5)
 424:	00078513          	mv	a0,a5
 428:	d31ff0ef          	jal	ra,158 <hprintf_c>
 42c:	1e00006f          	j	60c <hprintf+0x278>
 430:	fec42783          	lw	a5,-20(s0)
 434:	fd843703          	ld	a4,-40(s0)
 438:	00f707b3          	add	a5,a4,a5
 43c:	0007c783          	lbu	a5,0(a5)
 440:	00078713          	mv	a4,a5
 444:	07300793          	li	a5,115
 448:	02f71063          	bne	a4,a5,468 <hprintf+0xd4>
 44c:	fe043783          	ld	a5,-32(s0)
 450:	00878713          	addi	a4,a5,8
 454:	fee43023          	sd	a4,-32(s0)
 458:	0007b783          	ld	a5,0(a5)
 45c:	00078513          	mv	a0,a5
 460:	d65ff0ef          	jal	ra,1c4 <hprintf_s>
 464:	1a80006f          	j	60c <hprintf+0x278>
 468:	fec42783          	lw	a5,-20(s0)
 46c:	fd843703          	ld	a4,-40(s0)
 470:	00f707b3          	add	a5,a4,a5
 474:	0007c783          	lbu	a5,0(a5)
 478:	00078713          	mv	a4,a5
 47c:	06400793          	li	a5,100
 480:	02f71063          	bne	a4,a5,4a0 <hprintf+0x10c>
 484:	fe043783          	ld	a5,-32(s0)
 488:	00878713          	addi	a4,a5,8
 48c:	fee43023          	sd	a4,-32(s0)
 490:	0007a783          	lw	a5,0(a5)
 494:	00078513          	mv	a0,a5
 498:	d81ff0ef          	jal	ra,218 <hprintf_d>
 49c:	1700006f          	j	60c <hprintf+0x278>
 4a0:	fec42783          	lw	a5,-20(s0)
 4a4:	fd843703          	ld	a4,-40(s0)
 4a8:	00f707b3          	add	a5,a4,a5
 4ac:	0007c783          	lbu	a5,0(a5)
 4b0:	00078713          	mv	a4,a5
 4b4:	07500793          	li	a5,117
 4b8:	02f71263          	bne	a4,a5,4dc <hprintf+0x148>
 4bc:	fe043783          	ld	a5,-32(s0)
 4c0:	00878713          	addi	a4,a5,8
 4c4:	fee43023          	sd	a4,-32(s0)
 4c8:	0007a783          	lw	a5,0(a5)
 4cc:	0007879b          	sext.w	a5,a5
 4d0:	00078513          	mv	a0,a5
 4d4:	d45ff0ef          	jal	ra,218 <hprintf_d>
 4d8:	1340006f          	j	60c <hprintf+0x278>
 4dc:	fec42783          	lw	a5,-20(s0)
 4e0:	fd843703          	ld	a4,-40(s0)
 4e4:	00f707b3          	add	a5,a4,a5
 4e8:	0007c783          	lbu	a5,0(a5)
 4ec:	00078713          	mv	a4,a5
 4f0:	06c00793          	li	a5,108
 4f4:	06f71863          	bne	a4,a5,564 <hprintf+0x1d0>
 4f8:	fec42783          	lw	a5,-20(s0)
 4fc:	00178793          	addi	a5,a5,1
 500:	fd843703          	ld	a4,-40(s0)
 504:	00f707b3          	add	a5,a4,a5
 508:	0007c783          	lbu	a5,0(a5)
 50c:	00078713          	mv	a4,a5
 510:	07500793          	li	a5,117
 514:	02f71863          	bne	a4,a5,544 <hprintf+0x1b0>
 518:	fec42783          	lw	a5,-20(s0)
 51c:	0017879b          	addiw	a5,a5,1
 520:	fef42623          	sw	a5,-20(s0)
 524:	fe043783          	ld	a5,-32(s0)
 528:	00878713          	addi	a4,a5,8
 52c:	fee43023          	sd	a4,-32(s0)
 530:	0007b783          	ld	a5,0(a5)
 534:	0007879b          	sext.w	a5,a5
 538:	00078513          	mv	a0,a5
 53c:	cddff0ef          	jal	ra,218 <hprintf_d>
 540:	0cc0006f          	j	60c <hprintf+0x278>
 544:	fe043783          	ld	a5,-32(s0)
 548:	00878713          	addi	a4,a5,8
 54c:	fee43023          	sd	a4,-32(s0)
 550:	0007b783          	ld	a5,0(a5)
 554:	0007879b          	sext.w	a5,a5
 558:	00078513          	mv	a0,a5
 55c:	cbdff0ef          	jal	ra,218 <hprintf_d>
 560:	0ac0006f          	j	60c <hprintf+0x278>
 564:	fec42783          	lw	a5,-20(s0)
 568:	fd843703          	ld	a4,-40(s0)
 56c:	00f707b3          	add	a5,a4,a5
 570:	0007c783          	lbu	a5,0(a5)
 574:	00078713          	mv	a4,a5
 578:	03000793          	li	a5,48
 57c:	04f71863          	bne	a4,a5,5cc <hprintf+0x238>
 580:	fe043783          	ld	a5,-32(s0)
 584:	00878713          	addi	a4,a5,8
 588:	fee43023          	sd	a4,-32(s0)
 58c:	0007a683          	lw	a3,0(a5)
 590:	fec42783          	lw	a5,-20(s0)
 594:	00178793          	addi	a5,a5,1
 598:	fd843703          	ld	a4,-40(s0)
 59c:	00f707b3          	add	a5,a4,a5
 5a0:	0007c783          	lbu	a5,0(a5)
 5a4:	0007879b          	sext.w	a5,a5
 5a8:	fd07879b          	addiw	a5,a5,-48
 5ac:	0007879b          	sext.w	a5,a5
 5b0:	00078593          	mv	a1,a5
 5b4:	00068513          	mv	a0,a3
 5b8:	d3dff0ef          	jal	ra,2f4 <hprintf_h>
 5bc:	fec42783          	lw	a5,-20(s0)
 5c0:	0027879b          	addiw	a5,a5,2
 5c4:	fef42623          	sw	a5,-20(s0)
 5c8:	0440006f          	j	60c <hprintf+0x278>
 5cc:	fec42783          	lw	a5,-20(s0)
 5d0:	0017879b          	addiw	a5,a5,1
 5d4:	fef42623          	sw	a5,-20(s0)
 5d8:	fec42783          	lw	a5,-20(s0)
 5dc:	fd843703          	ld	a4,-40(s0)
 5e0:	00f707b3          	add	a5,a4,a5
 5e4:	0007c783          	lbu	a5,0(a5)
 5e8:	e00798e3          	bnez	a5,3f8 <hprintf+0x64>
 5ec:	0200006f          	j	60c <hprintf+0x278>
 5f0:	fec42783          	lw	a5,-20(s0)
 5f4:	fd843703          	ld	a4,-40(s0)
 5f8:	00f707b3          	add	a5,a4,a5
 5fc:	0007c783          	lbu	a5,0(a5)
 600:	0007879b          	sext.w	a5,a5
 604:	00078513          	mv	a0,a5
 608:	b51ff0ef          	jal	ra,158 <hprintf_c>
 60c:	fec42783          	lw	a5,-20(s0)
 610:	0017879b          	addiw	a5,a5,1
 614:	fef42623          	sw	a5,-20(s0)
 618:	fec42783          	lw	a5,-20(s0)
 61c:	fd843703          	ld	a4,-40(s0)
 620:	00f707b3          	add	a5,a4,a5
 624:	0007c783          	lbu	a5,0(a5)
 628:	da0798e3          	bnez	a5,3d8 <hprintf+0x44>
 62c:	00000013          	nop
 630:	02813083          	ld	ra,40(sp)
 634:	02013403          	ld	s0,32(sp)
 638:	07010113          	addi	sp,sp,112
 63c:	00008067          	ret

Disassembly of section .text.hscanf_c:

0000000000000640 <hscanf_c>:
 640:	fe010113          	addi	sp,sp,-32
 644:	00113c23          	sd	ra,24(sp)
 648:	00813823          	sd	s0,16(sp)
 64c:	02010413          	addi	s0,sp,32
 650:	380007b7          	lui	a5,0x38000
 654:	40b78793          	addi	a5,a5,1035 # 3800040b <hscanf+0x37fffd3f>
 658:	00279793          	slli	a5,a5,0x2
 65c:	fef43423          	sd	a5,-24(s0)
 660:	00000013          	nop
 664:	fe843783          	ld	a5,-24(s0)
 668:	0007a783          	lw	a5,0(a5)
 66c:	0007879b          	sext.w	a5,a5
 670:	0027f793          	andi	a5,a5,2
 674:	0007879b          	sext.w	a5,a5
 678:	00078713          	mv	a4,a5
 67c:	00200793          	li	a5,2
 680:	fef702e3          	beq	a4,a5,664 <hscanf_c+0x24>
 684:	0e0007b7          	lui	a5,0xe000
 688:	10378793          	addi	a5,a5,259 # e000103 <hscanf+0xdfffa37>
 68c:	00479793          	slli	a5,a5,0x4
 690:	0007a783          	lw	a5,0(a5)
 694:	0ff7f793          	andi	a5,a5,255
 698:	fef403a3          	sb	a5,-25(s0)
 69c:	fe744783          	lbu	a5,-25(s0)
 6a0:	0ff7f793          	andi	a5,a5,255
 6a4:	0007879b          	sext.w	a5,a5
 6a8:	00078513          	mv	a0,a5
 6ac:	aadff0ef          	jal	ra,158 <hprintf_c>
 6b0:	fe744783          	lbu	a5,-25(s0)
 6b4:	0ff7f793          	andi	a5,a5,255
 6b8:	00078513          	mv	a0,a5
 6bc:	01813083          	ld	ra,24(sp)
 6c0:	01013403          	ld	s0,16(sp)
 6c4:	02010113          	addi	sp,sp,32
 6c8:	00008067          	ret

Disassembly of section .text.hscanf:

00000000000006cc <hscanf>:
 6cc:	fd010113          	addi	sp,sp,-48
 6d0:	02113423          	sd	ra,40(sp)
 6d4:	02813023          	sd	s0,32(sp)
 6d8:	03010413          	addi	s0,sp,48
 6dc:	77000793          	li	a5,1904
 6e0:	fef43423          	sd	a5,-24(s0)
 6e4:	fe843783          	ld	a5,-24(s0)
 6e8:	fef43023          	sd	a5,-32(s0)
 6ec:	f55ff0ef          	jal	ra,640 <hscanf_c>
 6f0:	00050793          	mv	a5,a0
 6f4:	fcf40fa3          	sb	a5,-33(s0)
 6f8:	01c0006f          	j	714 <hscanf+0x48>
 6fc:	fe843783          	ld	a5,-24(s0)
 700:	00178713          	addi	a4,a5,1
 704:	fee43423          	sd	a4,-24(s0)
 708:	fdf44703          	lbu	a4,-33(s0)
 70c:	0ff77713          	andi	a4,a4,255
 710:	00e78023          	sb	a4,0(a5)
 714:	fdf44783          	lbu	a5,-33(s0)
 718:	0ff7f793          	andi	a5,a5,255
 71c:	00078713          	mv	a4,a5
 720:	06e00793          	li	a5,110
 724:	fcf71ce3          	bne	a4,a5,6fc <hscanf+0x30>
 728:	fe043783          	ld	a5,-32(s0)
 72c:	00078513          	mv	a0,a5
 730:	02813083          	ld	ra,40(sp)
 734:	02013403          	ld	s0,32(sp)
 738:	03010113          	addi	sp,sp,48
 73c:	00008067          	ret

Disassembly of section .rodata:

0000000000000740 <.rodata>:
 740:	6568                	ld	a0,200(a0)
 742:	6c6c                	ld	a1,216(s0)
 744:	6f775f6f          	jal	t5,7663a <hscanf+0x75f6e>
 748:	6c72                	ld	s8,280(sp)
 74a:	2064                	fld	fs1,192(s0)
 74c:	2520                	fld	fs0,72(a0)
 74e:	0a64                	addi	s1,sp,284
	...
 758:	3130                	fld	fa2,96(a0)
 75a:	3332                	fld	ft6,296(sp)
 75c:	3534                	fld	fa3,104(a0)
 75e:	3736                	fld	fa4,360(sp)
 760:	3938                	fld	fa4,112(a0)
 762:	4241                	li	tp,16
 764:	46454443          	0x46454443
	...

Disassembly of section .comment:

0000000000000000 <.comment>:
   0:	3a434347          	fmsub.d	ft6,ft6,ft4,ft7,rmm
   4:	2820                	fld	fs0,80(s0)
   6:	29554e47          	fmsub.s	ft8,fa0,fs5,ft5,rmm
   a:	3720                	fld	fs0,104(a4)
   c:	312e                	fld	ft2,232(sp)
   e:	312e                	fld	ft2,232(sp)
  10:	3220                	fld	fs0,96(a2)
  12:	3130                	fld	fa2,96(a0)
  14:	30353037          	lui	zero,0x30353
  18:	0039                	c.addi	zero,14
