
vmtest/main:     file format elf64-littleriscv


Disassembly of section .text.init:

0000000000000000 <_start>:
   0:	00c0006f          	j	c <handle_reset>

0000000000000004 <nmi_vector>:
   4:	2ec2006f          	j	202f0 <wtf>

0000000000000008 <trap_vector>:
   8:	2e82006f          	j	202f0 <wtf>

000000000000000c <handle_reset>:
   c:	00000297          	auipc	t0,0x0
  10:	ffc28293          	addi	t0,t0,-4 # 8 <trap_vector>
  14:	30529073          	csrw	mtvec,t0
  18:	00045117          	auipc	sp,0x45
  1c:	6b810113          	addi	sp,sp,1720 # 456d0 <_end+0xee0>
  20:	f14022f3          	csrr	t0,mhartid
  24:	00c29293          	slli	t0,t0,0xc
  28:	00510133          	add	sp,sp,t0
  2c:	34011073          	csrw	mscratch,sp
  30:	00020517          	auipc	a0,0x20
  34:	fd050513          	addi	a0,a0,-48 # 20000 <userstart>
  38:	0f12006f          	j	20928 <vm_boot>

000000000000003c <pop_tf>:
  3c:	10853283          	ld	t0,264(a0)
  40:	14129073          	csrw	sepc,t0
  44:	00853083          	ld	ra,8(a0)
  48:	01053103          	ld	sp,16(a0)
  4c:	01853183          	ld	gp,24(a0)
  50:	02053203          	ld	tp,32(a0)
  54:	02853283          	ld	t0,40(a0)
  58:	03053303          	ld	t1,48(a0)
  5c:	03853383          	ld	t2,56(a0)
  60:	04053403          	ld	s0,64(a0)
  64:	04853483          	ld	s1,72(a0)
  68:	05853583          	ld	a1,88(a0)
  6c:	06053603          	ld	a2,96(a0)
  70:	06853683          	ld	a3,104(a0)
  74:	07053703          	ld	a4,112(a0)
  78:	07853783          	ld	a5,120(a0)
  7c:	08053803          	ld	a6,128(a0)
  80:	08853883          	ld	a7,136(a0)
  84:	09053903          	ld	s2,144(a0)
  88:	09853983          	ld	s3,152(a0)
  8c:	0a053a03          	ld	s4,160(a0)
  90:	0a853a83          	ld	s5,168(a0)
  94:	0b053b03          	ld	s6,176(a0)
  98:	0b853b83          	ld	s7,184(a0)
  9c:	0c053c03          	ld	s8,192(a0)
  a0:	0c853c83          	ld	s9,200(a0)
  a4:	0d053d03          	ld	s10,208(a0)
  a8:	0d853d83          	ld	s11,216(a0)
  ac:	0e053e03          	ld	t3,224(a0)
  b0:	0e853e83          	ld	t4,232(a0)
  b4:	0f053f03          	ld	t5,240(a0)
  b8:	0f853f83          	ld	t6,248(a0)
  bc:	05053503          	ld	a0,80(a0)
  c0:	10200073          	sret

00000000000000c4 <trap_entry>:
  c4:	14011173          	csrrw	sp,sscratch,sp
  c8:	00113423          	sd	ra,8(sp)
  cc:	00313c23          	sd	gp,24(sp)
  d0:	02413023          	sd	tp,32(sp)
  d4:	02513423          	sd	t0,40(sp)
  d8:	02613823          	sd	t1,48(sp)
  dc:	02713c23          	sd	t2,56(sp)
  e0:	04813023          	sd	s0,64(sp)
  e4:	04913423          	sd	s1,72(sp)
  e8:	04a13823          	sd	a0,80(sp)
  ec:	04b13c23          	sd	a1,88(sp)
  f0:	06c13023          	sd	a2,96(sp)
  f4:	06d13423          	sd	a3,104(sp)
  f8:	06e13823          	sd	a4,112(sp)
  fc:	06f13c23          	sd	a5,120(sp)
 100:	09013023          	sd	a6,128(sp)
 104:	09113423          	sd	a7,136(sp)
 108:	09213823          	sd	s2,144(sp)
 10c:	09313c23          	sd	s3,152(sp)
 110:	0b413023          	sd	s4,160(sp)
 114:	0b513423          	sd	s5,168(sp)
 118:	0b613823          	sd	s6,176(sp)
 11c:	0b713c23          	sd	s7,184(sp)
 120:	0d813023          	sd	s8,192(sp)
 124:	0d913423          	sd	s9,200(sp)
 128:	0da13823          	sd	s10,208(sp)
 12c:	0db13c23          	sd	s11,216(sp)
 130:	0fc13023          	sd	t3,224(sp)
 134:	0fd13423          	sd	t4,232(sp)
 138:	0fe13823          	sd	t5,240(sp)
 13c:	0ff13c23          	sd	t6,248(sp)
 140:	140112f3          	csrrw	t0,sscratch,sp
 144:	00513823          	sd	t0,16(sp)
 148:	100022f3          	csrr	t0,sstatus
 14c:	10513023          	sd	t0,256(sp)
 150:	141022f3          	csrr	t0,sepc
 154:	10513423          	sd	t0,264(sp)
 158:	143022f3          	csrr	t0,sbadaddr
 15c:	10513823          	sd	t0,272(sp)
 160:	142022f3          	csrr	t0,scause
 164:	10513c23          	sd	t0,280(sp)
 168:	00010513          	mv	a0,sp
 16c:	4a42006f          	j	20610 <handle_trap>

Disassembly of section .text:

0000000000020000 <userstart>:
   20000:	000e0f37          	lui	t5,0xe0
   20004:	001f0f1b          	addiw	t5,t5,1
   20008:	00cf1f13          	slli	t5,t5,0xc
   2000c:	030f0f13          	addi	t5,t5,48 # e0030 <_end+0x9b840>
   20010:	00a00f93          	li	t6,10
   20014:	01ff0023          	sb	t6,0(t5)
   20018:	02d00f93          	li	t6,45
   2001c:	01ff0023          	sb	t6,0(t5)
   20020:	02d00f93          	li	t6,45
   20024:	01ff0023          	sb	t6,0(t5)
   20028:	02d00f93          	li	t6,45
   2002c:	01ff0023          	sb	t6,0(t5)
   20030:	02d00f93          	li	t6,45
   20034:	01ff0023          	sb	t6,0(t5)
   20038:	04600f93          	li	t6,70
   2003c:	01ff0023          	sb	t6,0(t5)
   20040:	04900f93          	li	t6,73
   20044:	01ff0023          	sb	t6,0(t5)
   20048:	05200f93          	li	t6,82
   2004c:	01ff0023          	sb	t6,0(t5)
   20050:	04500f93          	li	t6,69
   20054:	01ff0023          	sb	t6,0(t5)
   20058:	04400f93          	li	t6,68
   2005c:	01ff0023          	sb	t6,0(t5)
   20060:	02d00f93          	li	t6,45
   20064:	01ff0023          	sb	t6,0(t5)
   20068:	02d00f93          	li	t6,45
   2006c:	01ff0023          	sb	t6,0(t5)
   20070:	02d00f93          	li	t6,45
   20074:	01ff0023          	sb	t6,0(t5)
   20078:	02d00f93          	li	t6,45
   2007c:	01ff0023          	sb	t6,0(t5)
   20080:	00a00f93          	li	t6,10
   20084:	01ff0023          	sb	t6,0(t5)

0000000000020088 <end>:
   20088:	0000006f          	j	20088 <end>
   2008c:	c0001073          	unimp

0000000000020090 <memcpy>:
   20090:	00c5e7b3          	or	a5,a1,a2
   20094:	00f567b3          	or	a5,a0,a5
   20098:	0077f793          	andi	a5,a5,7
   2009c:	00c506b3          	add	a3,a0,a2
   200a0:	02078463          	beqz	a5,200c8 <memcpy+0x38>
   200a4:	00c58633          	add	a2,a1,a2
   200a8:	00050793          	mv	a5,a0
   200ac:	02d57e63          	bleu	a3,a0,200e8 <memcpy+0x58>
   200b0:	00158593          	addi	a1,a1,1
   200b4:	fff5c703          	lbu	a4,-1(a1)
   200b8:	00178793          	addi	a5,a5,1
   200bc:	fee78fa3          	sb	a4,-1(a5)
   200c0:	feb618e3          	bne	a2,a1,200b0 <memcpy+0x20>
   200c4:	00008067          	ret
   200c8:	fed57ee3          	bleu	a3,a0,200c4 <memcpy+0x34>
   200cc:	00050793          	mv	a5,a0
   200d0:	00858593          	addi	a1,a1,8
   200d4:	ff85b703          	ld	a4,-8(a1)
   200d8:	00878793          	addi	a5,a5,8
   200dc:	fee7bc23          	sd	a4,-8(a5)
   200e0:	fed7e8e3          	bltu	a5,a3,200d0 <memcpy+0x40>
   200e4:	00008067          	ret
   200e8:	00008067          	ret

00000000000200ec <memset>:
   200ec:	00c567b3          	or	a5,a0,a2
   200f0:	0077f793          	andi	a5,a5,7
   200f4:	00c50633          	add	a2,a0,a2
   200f8:	0ff5f593          	andi	a1,a1,255
   200fc:	00078e63          	beqz	a5,20118 <memset+0x2c>
   20100:	00050793          	mv	a5,a0
   20104:	04c57263          	bleu	a2,a0,20148 <memset+0x5c>
   20108:	00178793          	addi	a5,a5,1
   2010c:	feb78fa3          	sb	a1,-1(a5)
   20110:	fef61ce3          	bne	a2,a5,20108 <memset+0x1c>
   20114:	00008067          	ret
   20118:	00859793          	slli	a5,a1,0x8
   2011c:	00b7e5b3          	or	a1,a5,a1
   20120:	01059793          	slli	a5,a1,0x10
   20124:	00b7e7b3          	or	a5,a5,a1
   20128:	02079593          	slli	a1,a5,0x20
   2012c:	00f5e5b3          	or	a1,a1,a5
   20130:	fec572e3          	bleu	a2,a0,20114 <memset+0x28>
   20134:	00050793          	mv	a5,a0
   20138:	00878793          	addi	a5,a5,8
   2013c:	feb7bc23          	sd	a1,-8(a5)
   20140:	fec7ece3          	bltu	a5,a2,20138 <memset+0x4c>
   20144:	00008067          	ret
   20148:	00008067          	ret

000000000002014c <strlen>:
   2014c:	00054783          	lbu	a5,0(a0)
   20150:	00050713          	mv	a4,a0
   20154:	00078c63          	beqz	a5,2016c <strlen+0x20>
   20158:	00150513          	addi	a0,a0,1
   2015c:	00054783          	lbu	a5,0(a0)
   20160:	fe079ce3          	bnez	a5,20158 <strlen+0xc>
   20164:	40e50533          	sub	a0,a0,a4
   20168:	00008067          	ret
   2016c:	00000513          	li	a0,0
   20170:	00008067          	ret

0000000000020174 <strcmp>:
   20174:	00150513          	addi	a0,a0,1
   20178:	fff54783          	lbu	a5,-1(a0)
   2017c:	00158593          	addi	a1,a1,1
   20180:	fff5c703          	lbu	a4,-1(a1)
   20184:	00078a63          	beqz	a5,20198 <strcmp+0x24>
   20188:	fee786e3          	beq	a5,a4,20174 <strcmp>
   2018c:	0007851b          	sext.w	a0,a5
   20190:	40e5053b          	subw	a0,a0,a4
   20194:	00008067          	ret
   20198:	00000513          	li	a0,0
   2019c:	ff5ff06f          	j	20190 <strcmp+0x1c>

00000000000201a0 <memcmp>:
   201a0:	00b567b3          	or	a5,a0,a1
   201a4:	0077f793          	andi	a5,a5,7
   201a8:	04079263          	bnez	a5,201ec <memcmp+0x4c>
   201ac:	ff867693          	andi	a3,a2,-8
   201b0:	00d506b3          	add	a3,a0,a3
   201b4:	00050813          	mv	a6,a0
   201b8:	02d57a63          	bleu	a3,a0,201ec <memcmp+0x4c>
   201bc:	0005b703          	ld	a4,0(a1)
   201c0:	00053783          	ld	a5,0(a0)
   201c4:	00f70a63          	beq	a4,a5,201d8 <memcmp+0x38>
   201c8:	0240006f          	j	201ec <memcmp+0x4c>
   201cc:	00053703          	ld	a4,0(a0)
   201d0:	0005b783          	ld	a5,0(a1)
   201d4:	00f71863          	bne	a4,a5,201e4 <memcmp+0x44>
   201d8:	00850513          	addi	a0,a0,8
   201dc:	00858593          	addi	a1,a1,8
   201e0:	fed566e3          	bltu	a0,a3,201cc <memcmp+0x2c>
   201e4:	41050833          	sub	a6,a0,a6
   201e8:	41060633          	sub	a2,a2,a6
   201ec:	00c58633          	add	a2,a1,a2
   201f0:	0140006f          	j	20204 <memcmp+0x64>
   201f4:	00158593          	addi	a1,a1,1
   201f8:	fff54783          	lbu	a5,-1(a0)
   201fc:	fff5c703          	lbu	a4,-1(a1)
   20200:	00e79a63          	bne	a5,a4,20214 <memcmp+0x74>
   20204:	00150513          	addi	a0,a0,1
   20208:	fec596e3          	bne	a1,a2,201f4 <memcmp+0x54>
   2020c:	00000513          	li	a0,0
   20210:	00008067          	ret
   20214:	40e7853b          	subw	a0,a5,a4
   20218:	00008067          	ret

000000000002021c <strcpy>:
   2021c:	00050793          	mv	a5,a0
   20220:	00158593          	addi	a1,a1,1
   20224:	fff5c703          	lbu	a4,-1(a1)
   20228:	00178793          	addi	a5,a5,1
   2022c:	fee78fa3          	sb	a4,-1(a5)
   20230:	fe0718e3          	bnez	a4,20220 <strcpy+0x4>
   20234:	00008067          	ret

0000000000020238 <atol>:
   20238:	00054783          	lbu	a5,0(a0)
   2023c:	02000713          	li	a4,32
   20240:	00e79863          	bne	a5,a4,20250 <atol+0x18>
   20244:	00150513          	addi	a0,a0,1
   20248:	00054783          	lbu	a5,0(a0)
   2024c:	fee78ce3          	beq	a5,a4,20244 <atol+0xc>
   20250:	fd57871b          	addiw	a4,a5,-43
   20254:	0fd77713          	andi	a4,a4,253
   20258:	04070263          	beqz	a4,2029c <atol+0x64>
   2025c:	00054683          	lbu	a3,0(a0)
   20260:	00050793          	mv	a5,a0
   20264:	00000613          	li	a2,0
   20268:	04068863          	beqz	a3,202b8 <atol+0x80>
   2026c:	00000513          	li	a0,0
   20270:	00178793          	addi	a5,a5,1
   20274:	fd06859b          	addiw	a1,a3,-48
   20278:	00251713          	slli	a4,a0,0x2
   2027c:	0007c683          	lbu	a3,0(a5)
   20280:	00a70533          	add	a0,a4,a0
   20284:	00151513          	slli	a0,a0,0x1
   20288:	00a58533          	add	a0,a1,a0
   2028c:	fe0692e3          	bnez	a3,20270 <atol+0x38>
   20290:	00060463          	beqz	a2,20298 <atol+0x60>
   20294:	40a00533          	neg	a0,a0
   20298:	00008067          	ret
   2029c:	00154683          	lbu	a3,1(a0)
   202a0:	fd378793          	addi	a5,a5,-45
   202a4:	0017b613          	seqz	a2,a5
   202a8:	00150793          	addi	a5,a0,1
   202ac:	fc0690e3          	bnez	a3,2026c <atol+0x34>
   202b0:	00000513          	li	a0,0
   202b4:	fddff06f          	j	20290 <atol+0x58>
   202b8:	00000513          	li	a0,0
   202bc:	00008067          	ret
   202c0:	0000                	unimp
	...

00000000000202c4 <terminate>:
   202c4:	380007b7          	lui	a5,0x38000
   202c8:	40b78793          	addi	a5,a5,1035 # 3800040b <_end+0x37fbbc1b>
   202cc:	00279793          	slli	a5,a5,0x2
   202d0:	0007a703          	lw	a4,0(a5)
   202d4:	01077713          	andi	a4,a4,16
   202d8:	fe071ce3          	bnez	a4,202d0 <terminate+0xc>
   202dc:	0e0007b7          	lui	a5,0xe000
   202e0:	10378793          	addi	a5,a5,259 # e000103 <_end+0xdfbb913>
   202e4:	00479793          	slli	a5,a5,0x4
   202e8:	00a7a023          	sw	a0,0(a5)
   202ec:	0000006f          	j	202ec <terminate+0x28>

00000000000202f0 <wtf>:
   202f0:	ff010113          	addi	sp,sp,-16
   202f4:	34900513          	li	a0,841
   202f8:	00113423          	sd	ra,8(sp)
   202fc:	fc9ff0ef          	jal	ra,202c4 <terminate>

0000000000020300 <printhex>:
   20300:	fe010113          	addi	sp,sp,-32
   20304:	01710713          	addi	a4,sp,23
   20308:	00710813          	addi	a6,sp,7
   2030c:	00900593          	li	a1,9
   20310:	00f57793          	andi	a5,a0,15
   20314:	03000613          	li	a2,48
   20318:	0ff7f693          	andi	a3,a5,255
   2031c:	00f5f463          	bleu	a5,a1,20324 <printhex+0x24>
   20320:	05700613          	li	a2,87
   20324:	00c687bb          	addw	a5,a3,a2
   20328:	00f70023          	sb	a5,0(a4)
   2032c:	fff70713          	addi	a4,a4,-1
   20330:	00455513          	srli	a0,a0,0x4
   20334:	fd071ee3          	bne	a4,a6,20310 <printhex+0x10>
   20338:	00814783          	lbu	a5,8(sp)
   2033c:	00010c23          	sb	zero,24(sp)
   20340:	04078063          	beqz	a5,20380 <printhex+0x80>
   20344:	38000737          	lui	a4,0x38000
   20348:	0e0005b7          	lui	a1,0xe000
   2034c:	40b70713          	addi	a4,a4,1035 # 3800040b <_end+0x37fbbc1b>
   20350:	10358593          	addi	a1,a1,259 # e000103 <_end+0xdfbb913>
   20354:	00810613          	addi	a2,sp,8
   20358:	00271713          	slli	a4,a4,0x2
   2035c:	00459593          	slli	a1,a1,0x4
   20360:	00160613          	addi	a2,a2,1
   20364:	0007869b          	sext.w	a3,a5
   20368:	00072783          	lw	a5,0(a4)
   2036c:	0107f793          	andi	a5,a5,16
   20370:	fe079ce3          	bnez	a5,20368 <printhex+0x68>
   20374:	00d5a023          	sw	a3,0(a1)
   20378:	00064783          	lbu	a5,0(a2)
   2037c:	fe0792e3          	bnez	a5,20360 <printhex+0x60>
   20380:	02010113          	addi	sp,sp,32
   20384:	00008067          	ret

0000000000020388 <handle_fault>:
   20388:	fffff8b7          	lui	a7,0xfffff
   2038c:	01150733          	add	a4,a0,a7
   20390:	0003e7b7          	lui	a5,0x3e
   20394:	14f77863          	bleu	a5,a4,204e4 <handle_fault+0x15c>
   20398:	00c55693          	srli	a3,a0,0xc
   2039c:	60068813          	addi	a6,a3,1536
   203a0:	00020617          	auipc	a2,0x20
   203a4:	c6060613          	addi	a2,a2,-928 # 40000 <pt>
   203a8:	00381793          	slli	a5,a6,0x3
   203ac:	00f607b3          	add	a5,a2,a5
   203b0:	0007b703          	ld	a4,0(a5) # 3e000 <vm_boot+0x1d6d8>
   203b4:	01157533          	and	a0,a0,a7
   203b8:	0e071063          	bnez	a4,20498 <handle_fault+0x110>
   203bc:	00024797          	auipc	a5,0x24
   203c0:	42c78793          	addi	a5,a5,1068 # 447e8 <freelist_head>
   203c4:	0007b583          	ld	a1,0(a5)
   203c8:	16058863          	beqz	a1,20538 <handle_fault+0x1b0>
   203cc:	0085b783          	ld	a5,8(a1)
   203d0:	00024717          	auipc	a4,0x24
   203d4:	41070713          	addi	a4,a4,1040 # 447e0 <freelist_tail>
   203d8:	00073703          	ld	a4,0(a4)
   203dc:	00024897          	auipc	a7,0x24
   203e0:	40f8b623          	sd	a5,1036(a7) # 447e8 <freelist_head>
   203e4:	0ee78a63          	beq	a5,a4,204d8 <handle_fault+0x150>
   203e8:	0005b783          	ld	a5,0(a1)
   203ec:	00381893          	slli	a7,a6,0x3
   203f0:	011608b3          	add	a7,a2,a7
   203f4:	00c7d793          	srli	a5,a5,0xc
   203f8:	00a79793          	slli	a5,a5,0xa
   203fc:	0df7e313          	ori	t1,a5,223
   20400:	01f7e713          	ori	a4,a5,31
   20404:	0068b023          	sd	t1,0(a7)
   20408:	12050073          	sfence.vma	a0
   2040c:	00024797          	auipc	a5,0x24
   20410:	fe478793          	addi	a5,a5,-28 # 443f0 <user_mapping>
   20414:	00469693          	slli	a3,a3,0x4
   20418:	00d786b3          	add	a3,a5,a3
   2041c:	0006b783          	ld	a5,0(a3)
   20420:	16079063          	bnez	a5,20580 <handle_fault+0x1f8>
   20424:	0085b783          	ld	a5,8(a1)
   20428:	0005b883          	ld	a7,0(a1)
   2042c:	00f6b423          	sd	a5,8(a3)
   20430:	0116b023          	sd	a7,0(a3)
   20434:	000407b7          	lui	a5,0x40
   20438:	1007a8f3          	csrrs	a7,sstatus,a5
   2043c:	ffe007b7          	lui	a5,0xffe00
   20440:	00f507b3          	add	a5,a0,a5
   20444:	000015b7          	lui	a1,0x1
   20448:	00050693          	mv	a3,a0
   2044c:	00b785b3          	add	a1,a5,a1
   20450:	0007bf03          	ld	t5,0(a5) # ffffffffffe00000 <_end+0xffffffffffdbb810>
   20454:	0087be83          	ld	t4,8(a5)
   20458:	0107be03          	ld	t3,16(a5)
   2045c:	0187b303          	ld	t1,24(a5)
   20460:	01e6b023          	sd	t5,0(a3)
   20464:	01d6b423          	sd	t4,8(a3)
   20468:	01c6b823          	sd	t3,16(a3)
   2046c:	0066bc23          	sd	t1,24(a3)
   20470:	02078793          	addi	a5,a5,32
   20474:	02068693          	addi	a3,a3,32
   20478:	fcb79ce3          	bne	a5,a1,20450 <handle_fault+0xc8>
   2047c:	10089073          	csrw	sstatus,a7
   20480:	00381813          	slli	a6,a6,0x3
   20484:	01060633          	add	a2,a2,a6
   20488:	00e63023          	sd	a4,0(a2)
   2048c:	12050073          	sfence.vma	a0
   20490:	0000100f          	fence.i
   20494:	00008067          	ret
   20498:	04077693          	andi	a3,a4,64
   2049c:	00069c63          	bnez	a3,204b4 <handle_fault+0x12c>
   204a0:	04076713          	ori	a4,a4,64
   204a4:	00e7b023          	sd	a4,0(a5)
   204a8:	0000100f          	fence.i
   204ac:	12050073          	sfence.vma	a0
   204b0:	00008067          	ret
   204b4:	08077693          	andi	a3,a4,128
   204b8:	10069863          	bnez	a3,205c8 <handle_fault+0x240>
   204bc:	00f00693          	li	a3,15
   204c0:	10d59463          	bne	a1,a3,205c8 <handle_fault+0x240>
   204c4:	08076713          	ori	a4,a4,128
   204c8:	00e7b023          	sd	a4,0(a5)
   204cc:	0000100f          	fence.i
   204d0:	12050073          	sfence.vma	a0
   204d4:	00008067          	ret
   204d8:	00024797          	auipc	a5,0x24
   204dc:	3007b423          	sd	zero,776(a5) # 447e0 <freelist_tail>
   204e0:	f09ff06f          	j	203e8 <handle_fault+0x60>
   204e4:	38000737          	lui	a4,0x38000
   204e8:	0e000637          	lui	a2,0xe000
   204ec:	40b70713          	addi	a4,a4,1035 # 3800040b <_end+0x37fbbc1b>
   204f0:	10360613          	addi	a2,a2,259 # e000103 <_end+0xdfbb913>
   204f4:	04100793          	li	a5,65
   204f8:	00000597          	auipc	a1,0x0
   204fc:	5e858593          	addi	a1,a1,1512 # 20ae0 <vm_boot+0x1b8>
   20500:	00271713          	slli	a4,a4,0x2
   20504:	00461613          	slli	a2,a2,0x4
   20508:	00158593          	addi	a1,a1,1
   2050c:	0007869b          	sext.w	a3,a5
   20510:	00072783          	lw	a5,0(a4)
   20514:	0107f793          	andi	a5,a5,16
   20518:	fe079ce3          	bnez	a5,20510 <handle_fault+0x188>
   2051c:	00d62023          	sw	a3,0(a2)
   20520:	0005c783          	lbu	a5,0(a1)
   20524:	fe0792e3          	bnez	a5,20508 <handle_fault+0x180>
   20528:	ff010113          	addi	sp,sp,-16
   2052c:	00300513          	li	a0,3
   20530:	00113423          	sd	ra,8(sp)
   20534:	d91ff0ef          	jal	ra,202c4 <terminate>
   20538:	38000737          	lui	a4,0x38000
   2053c:	0e0006b7          	lui	a3,0xe000
   20540:	40b70713          	addi	a4,a4,1035 # 3800040b <_end+0x37fbbc1b>
   20544:	10368693          	addi	a3,a3,259 # e000103 <_end+0xdfbb913>
   20548:	04100793          	li	a5,65
   2054c:	00000597          	auipc	a1,0x0
   20550:	62458593          	addi	a1,a1,1572 # 20b70 <vm_boot+0x248>
   20554:	00271713          	slli	a4,a4,0x2
   20558:	00469693          	slli	a3,a3,0x4
   2055c:	00158593          	addi	a1,a1,1
   20560:	0007861b          	sext.w	a2,a5
   20564:	00072783          	lw	a5,0(a4)
   20568:	0107f793          	andi	a5,a5,16
   2056c:	fe079ce3          	bnez	a5,20564 <handle_fault+0x1dc>
   20570:	00c6a023          	sw	a2,0(a3)
   20574:	0005c783          	lbu	a5,0(a1)
   20578:	fe0792e3          	bnez	a5,2055c <handle_fault+0x1d4>
   2057c:	fadff06f          	j	20528 <handle_fault+0x1a0>
   20580:	38000737          	lui	a4,0x38000
   20584:	0e0006b7          	lui	a3,0xe000
   20588:	40b70713          	addi	a4,a4,1035 # 3800040b <_end+0x37fbbc1b>
   2058c:	10368693          	addi	a3,a3,259 # e000103 <_end+0xdfbb913>
   20590:	04100793          	li	a5,65
   20594:	00000597          	auipc	a1,0x0
   20598:	5f458593          	addi	a1,a1,1524 # 20b88 <vm_boot+0x260>
   2059c:	00271713          	slli	a4,a4,0x2
   205a0:	00469693          	slli	a3,a3,0x4
   205a4:	00158593          	addi	a1,a1,1
   205a8:	0007861b          	sext.w	a2,a5
   205ac:	00072783          	lw	a5,0(a4)
   205b0:	0107f793          	andi	a5,a5,16
   205b4:	fe079ce3          	bnez	a5,205ac <handle_fault+0x224>
   205b8:	00c6a023          	sw	a2,0(a3)
   205bc:	0005c783          	lbu	a5,0(a1)
   205c0:	fe0792e3          	bnez	a5,205a4 <handle_fault+0x21c>
   205c4:	f65ff06f          	j	20528 <handle_fault+0x1a0>
   205c8:	38000737          	lui	a4,0x38000
   205cc:	0e000637          	lui	a2,0xe000
   205d0:	40b70713          	addi	a4,a4,1035 # 3800040b <_end+0x37fbbc1b>
   205d4:	10360613          	addi	a2,a2,259 # e000103 <_end+0xdfbb913>
   205d8:	04100793          	li	a5,65
   205dc:	00000597          	auipc	a1,0x0
   205e0:	54c58593          	addi	a1,a1,1356 # 20b28 <vm_boot+0x200>
   205e4:	00271713          	slli	a4,a4,0x2
   205e8:	00461613          	slli	a2,a2,0x4
   205ec:	00158593          	addi	a1,a1,1
   205f0:	0007869b          	sext.w	a3,a5
   205f4:	00072783          	lw	a5,0(a4)
   205f8:	0107f793          	andi	a5,a5,16
   205fc:	fe079ce3          	bnez	a5,205f4 <handle_fault+0x26c>
   20600:	00d62023          	sw	a3,0(a2)
   20604:	0005c783          	lbu	a5,0(a1)
   20608:	fe0792e3          	bnez	a5,205ec <handle_fault+0x264>
   2060c:	f1dff06f          	j	20528 <handle_fault+0x1a0>

0000000000020610 <handle_trap>:
   20610:	11853583          	ld	a1,280(a0)
   20614:	f9010113          	addi	sp,sp,-112
   20618:	06813023          	sd	s0,96(sp)
   2061c:	06113423          	sd	ra,104(sp)
   20620:	04913c23          	sd	s1,88(sp)
   20624:	05213823          	sd	s2,80(sp)
   20628:	05313423          	sd	s3,72(sp)
   2062c:	05413023          	sd	s4,64(sp)
   20630:	03513c23          	sd	s5,56(sp)
   20634:	03613823          	sd	s6,48(sp)
   20638:	03713423          	sd	s7,40(sp)
   2063c:	03813023          	sd	s8,32(sp)
   20640:	01913c23          	sd	s9,24(sp)
   20644:	01a13823          	sd	s10,16(sp)
   20648:	01b13423          	sd	s11,8(sp)
   2064c:	00800793          	li	a5,8
   20650:	00050413          	mv	s0,a0
   20654:	12f58263          	beq	a1,a5,20778 <handle_trap+0x168>
   20658:	00200793          	li	a5,2
   2065c:	06f58063          	beq	a1,a5,206bc <handle_trap+0xac>
   20660:	ff458793          	addi	a5,a1,-12
   20664:	00100713          	li	a4,1
   20668:	00f77663          	bleu	a5,a4,20674 <handle_trap+0x64>
   2066c:	00f00793          	li	a5,15
   20670:	1cf59c63          	bne	a1,a5,20848 <handle_trap+0x238>
   20674:	11043503          	ld	a0,272(s0)
   20678:	d11ff0ef          	jal	ra,20388 <handle_fault>
   2067c:	00040513          	mv	a0,s0
   20680:	06013403          	ld	s0,96(sp)
   20684:	06813083          	ld	ra,104(sp)
   20688:	05813483          	ld	s1,88(sp)
   2068c:	05013903          	ld	s2,80(sp)
   20690:	04813983          	ld	s3,72(sp)
   20694:	04013a03          	ld	s4,64(sp)
   20698:	03813a83          	ld	s5,56(sp)
   2069c:	03013b03          	ld	s6,48(sp)
   206a0:	02813b83          	ld	s7,40(sp)
   206a4:	02013c03          	ld	s8,32(sp)
   206a8:	01813c83          	ld	s9,24(sp)
   206ac:	01013d03          	ld	s10,16(sp)
   206b0:	00813d83          	ld	s11,8(sp)
   206b4:	07010113          	addi	sp,sp,112
   206b8:	985df06f          	j	3c <pop_tf>
   206bc:	10853703          	ld	a4,264(a0)
   206c0:	00377793          	andi	a5,a4,3
   206c4:	06079663          	bnez	a5,20730 <handle_trap+0x120>
   206c8:	008007ef          	jal	a5,206d0 <handle_trap+0xc0>
   206cc:	00301073          	fssr	zero
   206d0:	00072683          	lw	a3,0(a4)
   206d4:	0007a703          	lw	a4,0(a5)
   206d8:	00000617          	auipc	a2,0x0
   206dc:	58860613          	addi	a2,a2,1416 # 20c60 <vm_boot+0x338>
   206e0:	04100793          	li	a5,65
   206e4:	04e68263          	beq	a3,a4,20728 <handle_trap+0x118>
   206e8:	38000737          	lui	a4,0x38000
   206ec:	0e0005b7          	lui	a1,0xe000
   206f0:	40b70713          	addi	a4,a4,1035 # 3800040b <_end+0x37fbbc1b>
   206f4:	10358593          	addi	a1,a1,259 # e000103 <_end+0xdfbb913>
   206f8:	00271713          	slli	a4,a4,0x2
   206fc:	00459593          	slli	a1,a1,0x4
   20700:	00160613          	addi	a2,a2,1
   20704:	0007869b          	sext.w	a3,a5
   20708:	00072783          	lw	a5,0(a4)
   2070c:	0107f793          	andi	a5,a5,16
   20710:	fe079ce3          	bnez	a5,20708 <handle_trap+0xf8>
   20714:	00d5a023          	sw	a3,0(a1)
   20718:	00064783          	lbu	a5,0(a2)
   2071c:	fe0792e3          	bnez	a5,20700 <handle_trap+0xf0>
   20720:	00300513          	li	a0,3
   20724:	ba1ff0ef          	jal	ra,202c4 <terminate>
   20728:	00100513          	li	a0,1
   2072c:	b99ff0ef          	jal	ra,202c4 <terminate>
   20730:	38000737          	lui	a4,0x38000
   20734:	0e0007b7          	lui	a5,0xe000
   20738:	40b70713          	addi	a4,a4,1035 # 3800040b <_end+0x37fbbc1b>
   2073c:	10378793          	addi	a5,a5,259 # e000103 <_end+0xdfbb913>
   20740:	00000617          	auipc	a2,0x0
   20744:	4f860613          	addi	a2,a2,1272 # 20c38 <vm_boot+0x310>
   20748:	04100693          	li	a3,65
   2074c:	00271713          	slli	a4,a4,0x2
   20750:	00479793          	slli	a5,a5,0x4
   20754:	00160613          	addi	a2,a2,1
   20758:	0006869b          	sext.w	a3,a3
   2075c:	00072583          	lw	a1,0(a4)
   20760:	0105f593          	andi	a1,a1,16
   20764:	fe059ce3          	bnez	a1,2075c <handle_trap+0x14c>
   20768:	00d7a023          	sw	a3,0(a5)
   2076c:	00064683          	lbu	a3,0(a2)
   20770:	fe0692e3          	bnez	a3,20754 <handle_trap+0x144>
   20774:	fadff06f          	j	20720 <handle_trap+0x110>
   20778:	05052983          	lw	s3,80(a0)
   2077c:	00001437          	lui	s0,0x1
   20780:	00024d17          	auipc	s10,0x24
   20784:	c70d0d13          	addi	s10,s10,-912 # 443f0 <user_mapping>
   20788:	00020b97          	auipc	s7,0x20
   2078c:	878b8b93          	addi	s7,s7,-1928 # 40000 <pt>
   20790:	00040b37          	lui	s6,0x40
   20794:	ffe00ab7          	lui	s5,0xffe00
   20798:	00024a17          	auipc	s4,0x24
   2079c:	048a0a13          	addi	s4,s4,72 # 447e0 <freelist_tail>
   207a0:	0003f937          	lui	s2,0x3f
   207a4:	01c0006f          	j	207c0 <handle_trap+0x1b0>
   207a8:	00f73423          	sd	a5,8(a4)
   207ac:	00024717          	auipc	a4,0x24
   207b0:	02f73a23          	sd	a5,52(a4) # 447e0 <freelist_tail>
   207b4:	000017b7          	lui	a5,0x1
   207b8:	00f40433          	add	s0,s0,a5
   207bc:	17240263          	beq	s0,s2,20920 <handle_trap+0x310>
   207c0:	00c45793          	srli	a5,s0,0xc
   207c4:	00479493          	slli	s1,a5,0x4
   207c8:	009d0733          	add	a4,s10,s1
   207cc:	00073703          	ld	a4,0(a4)
   207d0:	fe0702e3          	beqz	a4,207b4 <handle_trap+0x1a4>
   207d4:	60078793          	addi	a5,a5,1536 # 1600 <trap_entry+0x153c>
   207d8:	00379793          	slli	a5,a5,0x3
   207dc:	00fb87b3          	add	a5,s7,a5
   207e0:	0007bc03          	ld	s8,0(a5)
   207e4:	040c7793          	andi	a5,s8,64
   207e8:	0e078863          	beqz	a5,208d8 <handle_trap+0x2c8>
   207ec:	100b2cf3          	csrrs	s9,sstatus,s6
   207f0:	01540db3          	add	s11,s0,s5
   207f4:	00001637          	lui	a2,0x1
   207f8:	000d8593          	mv	a1,s11
   207fc:	00040513          	mv	a0,s0
   20800:	9a1ff0ef          	jal	ra,201a0 <memcmp>
   20804:	00050e63          	beqz	a0,20820 <handle_trap+0x210>
   20808:	080c7c13          	andi	s8,s8,128
   2080c:	080c0263          	beqz	s8,20890 <handle_trap+0x280>
   20810:	00001637          	lui	a2,0x1
   20814:	000d8593          	mv	a1,s11
   20818:	00040513          	mv	a0,s0
   2081c:	875ff0ef          	jal	ra,20090 <memcpy>
   20820:	009d07b3          	add	a5,s10,s1
   20824:	100c9073          	csrw	sstatus,s9
   20828:	000a3703          	ld	a4,0(s4)
   2082c:	0007b023          	sd	zero,0(a5)
   20830:	f6071ce3          	bnez	a4,207a8 <handle_trap+0x198>
   20834:	00024717          	auipc	a4,0x24
   20838:	faf73623          	sd	a5,-84(a4) # 447e0 <freelist_tail>
   2083c:	00024717          	auipc	a4,0x24
   20840:	faf73623          	sd	a5,-84(a4) # 447e8 <freelist_head>
   20844:	f71ff06f          	j	207b4 <handle_trap+0x1a4>
   20848:	38000737          	lui	a4,0x38000
   2084c:	0e0007b7          	lui	a5,0xe000
   20850:	40b70713          	addi	a4,a4,1035 # 3800040b <_end+0x37fbbc1b>
   20854:	10378793          	addi	a5,a5,259 # e000103 <_end+0xdfbb913>
   20858:	04100693          	li	a3,65
   2085c:	00000617          	auipc	a2,0x0
   20860:	43460613          	addi	a2,a2,1076 # 20c90 <vm_boot+0x368>
   20864:	00271713          	slli	a4,a4,0x2
   20868:	00479793          	slli	a5,a5,0x4
   2086c:	00160613          	addi	a2,a2,1
   20870:	0006869b          	sext.w	a3,a3
   20874:	00072583          	lw	a1,0(a4)
   20878:	0105f593          	andi	a1,a1,16
   2087c:	fe059ce3          	bnez	a1,20874 <handle_trap+0x264>
   20880:	00d7a023          	sw	a3,0(a5)
   20884:	00064683          	lbu	a3,0(a2)
   20888:	fe0692e3          	bnez	a3,2086c <handle_trap+0x25c>
   2088c:	e95ff06f          	j	20720 <handle_trap+0x110>
   20890:	38000737          	lui	a4,0x38000
   20894:	0e0007b7          	lui	a5,0xe000
   20898:	40b70713          	addi	a4,a4,1035 # 3800040b <_end+0x37fbbc1b>
   2089c:	10378793          	addi	a5,a5,259 # e000103 <_end+0xdfbb913>
   208a0:	04100693          	li	a3,65
   208a4:	00000617          	auipc	a2,0x0
   208a8:	35c60613          	addi	a2,a2,860 # 20c00 <vm_boot+0x2d8>
   208ac:	00271713          	slli	a4,a4,0x2
   208b0:	00479793          	slli	a5,a5,0x4
   208b4:	00160613          	addi	a2,a2,1
   208b8:	0006869b          	sext.w	a3,a3
   208bc:	00072583          	lw	a1,0(a4)
   208c0:	0105f593          	andi	a1,a1,16
   208c4:	fe059ce3          	bnez	a1,208bc <handle_trap+0x2ac>
   208c8:	00d7a023          	sw	a3,0(a5)
   208cc:	00064683          	lbu	a3,0(a2)
   208d0:	fe0692e3          	bnez	a3,208b4 <handle_trap+0x2a4>
   208d4:	e4dff06f          	j	20720 <handle_trap+0x110>
   208d8:	38000737          	lui	a4,0x38000
   208dc:	0e0007b7          	lui	a5,0xe000
   208e0:	40b70713          	addi	a4,a4,1035 # 3800040b <_end+0x37fbbc1b>
   208e4:	10378793          	addi	a5,a5,259 # e000103 <_end+0xdfbb913>
   208e8:	04100693          	li	a3,65
   208ec:	00000617          	auipc	a2,0x0
   208f0:	2dc60613          	addi	a2,a2,732 # 20bc8 <vm_boot+0x2a0>
   208f4:	00271713          	slli	a4,a4,0x2
   208f8:	00479793          	slli	a5,a5,0x4
   208fc:	00160613          	addi	a2,a2,1
   20900:	0006869b          	sext.w	a3,a3
   20904:	00072583          	lw	a1,0(a4)
   20908:	0105f593          	andi	a1,a1,16
   2090c:	fe059ce3          	bnez	a1,20904 <handle_trap+0x2f4>
   20910:	00d7a023          	sw	a3,0(a5)
   20914:	00064683          	lbu	a3,0(a2)
   20918:	fe0692e3          	bnez	a3,208fc <handle_trap+0x2ec>
   2091c:	e05ff06f          	j	20720 <handle_trap+0x110>
   20920:	00098513          	mv	a0,s3
   20924:	9a1ff0ef          	jal	ra,202c4 <terminate>

0000000000020928 <vm_boot>:
   20928:	f14027f3          	csrr	a5,mhartid
   2092c:	18079463          	bnez	a5,20ab4 <vm_boot+0x18c>
   20930:	00020697          	auipc	a3,0x20
   20934:	6d068693          	addi	a3,a3,1744 # 41000 <pt+0x1000>
   20938:	00021717          	auipc	a4,0x21
   2093c:	6c870713          	addi	a4,a4,1736 # 42000 <pt+0x2000>
   20940:	00022797          	auipc	a5,0x22
   20944:	6c078793          	addi	a5,a5,1728 # 43000 <pt+0x3000>
   20948:	00c6d693          	srli	a3,a3,0xc
   2094c:	00c75713          	srli	a4,a4,0xc
   20950:	00a69693          	slli	a3,a3,0xa
   20954:	00a71713          	slli	a4,a4,0xa
   20958:	00c7d793          	srli	a5,a5,0xc
   2095c:	0016e693          	ori	a3,a3,1
   20960:	00176713          	ori	a4,a4,1
   20964:	00a79793          	slli	a5,a5,0xa
   20968:	0001f897          	auipc	a7,0x1f
   2096c:	68d8bc23          	sd	a3,1688(a7) # 40000 <pt>
   20970:	fff00593          	li	a1,-1
   20974:	0017e793          	ori	a5,a5,1
   20978:	0001f617          	auipc	a2,0x1f
   2097c:	68860613          	addi	a2,a2,1672 # 40000 <pt>
   20980:	00020697          	auipc	a3,0x20
   20984:	66e6bc23          	sd	a4,1656(a3) # 40ff8 <pt+0xff8>
   20988:	0cf00713          	li	a4,207
   2098c:	ed010113          	addi	sp,sp,-304
   20990:	03f59813          	slli	a6,a1,0x3f
   20994:	00022697          	auipc	a3,0x22
   20998:	66e6b223          	sd	a4,1636(a3) # 42ff8 <pt+0x2ff8>
   2099c:	00020717          	auipc	a4,0x20
   209a0:	66f73223          	sd	a5,1636(a4) # 41000 <pt+0x1000>
   209a4:	00c65793          	srli	a5,a2,0xc
   209a8:	12113423          	sd	ra,296(sp)
   209ac:	12813023          	sd	s0,288(sp)
   209b0:	0107e7b3          	or	a5,a5,a6
   209b4:	18079073          	csrw	sptbr,a5
   209b8:	01f00793          	li	a5,31
   209bc:	00000297          	auipc	t0,0x0
   209c0:	01428293          	addi	t0,t0,20 # 209d0 <vm_boot+0xa8>
   209c4:	305292f3          	csrrw	t0,mtvec,t0
   209c8:	3b059073          	csrw	pmpaddr0,a1
   209cc:	3a079073          	csrw	pmpcfg0,a5
   209d0:	ffddf797          	auipc	a5,0xffddf
   209d4:	6f478793          	addi	a5,a5,1780 # ffffffffffe000c4 <_end+0xffffffffffdbb8d4>
   209d8:	10579073          	csrw	stvec,a5
   209dc:	340027f3          	csrr	a5,mscratch
   209e0:	ffe00837          	lui	a6,0xffe00
   209e4:	010787b3          	add	a5,a5,a6
   209e8:	14079073          	csrw	sscratch,a5
   209ec:	0000b7b7          	lui	a5,0xb
   209f0:	1007879b          	addiw	a5,a5,256
   209f4:	30279073          	csrw	medeleg,a5
   209f8:	0001e7b7          	lui	a5,0x1e
   209fc:	30079073          	csrw	mstatus,a5
   20a00:	30405073          	csrwi	mie,0
   20a04:	ffe23797          	auipc	a5,0xffe23
   20a08:	5fc78793          	addi	a5,a5,1532 # ffffffffffe44000 <_end+0xffffffffffdff810>
   20a0c:	00024717          	auipc	a4,0x24
   20a10:	dcf73e23          	sd	a5,-548(a4) # 447e8 <freelist_head>
   20a14:	ffe24797          	auipc	a5,0xffe24
   20a18:	9cc78793          	addi	a5,a5,-1588 # ffffffffffe443e0 <_end+0xffffffffffdffbf0>
   20a1c:	00024717          	auipc	a4,0x24
   20a20:	dcf73223          	sd	a5,-572(a4) # 447e0 <freelist_tail>
   20a24:	00023717          	auipc	a4,0x23
   20a28:	5dc70713          	addi	a4,a4,1500 # 44000 <freelist_nodes>
   20a2c:	00024897          	auipc	a7,0x24
   20a30:	9c488893          	addi	a7,a7,-1596 # 443f0 <user_mapping>
   20a34:	02200793          	li	a5,34
   20a38:	01080813          	addi	a6,a6,16 # ffffffffffe00010 <_end+0xffffffffffdbb820>
   20a3c:	03f7869b          	addiw	a3,a5,63
   20a40:	0017d61b          	srliw	a2,a5,0x1
   20a44:	02069693          	slli	a3,a3,0x20
   20a48:	00c7c7b3          	xor	a5,a5,a2
   20a4c:	0206d693          	srli	a3,a3,0x20
   20a50:	010705b3          	add	a1,a4,a6
   20a54:	00c69693          	slli	a3,a3,0xc
   20a58:	0057979b          	slliw	a5,a5,0x5
   20a5c:	00d73023          	sd	a3,0(a4)
   20a60:	00b73423          	sd	a1,8(a4)
   20a64:	0207f793          	andi	a5,a5,32
   20a68:	01070713          	addi	a4,a4,16
   20a6c:	00c7e7b3          	or	a5,a5,a2
   20a70:	fce896e3          	bne	a7,a4,20a3c <vm_boot+0x114>
   20a74:	00050413          	mv	s0,a0
   20a78:	12000613          	li	a2,288
   20a7c:	00000593          	li	a1,0
   20a80:	00010513          	mv	a0,sp
   20a84:	00024797          	auipc	a5,0x24
   20a88:	9607b223          	sd	zero,-1692(a5) # 443e8 <freelist_nodes+0x3e8>
   20a8c:	e60ff0ef          	jal	ra,200ec <memset>
   20a90:	00010513          	mv	a0,sp
   20a94:	000407b7          	lui	a5,0x40
   20a98:	10813423          	sd	s0,264(sp)
   20a9c:	00f13823          	sd	a5,16(sp)
   20aa0:	d9cdf0ef          	jal	ra,3c <pop_tf>
   20aa4:	12813083          	ld	ra,296(sp)
   20aa8:	12013403          	ld	s0,288(sp)
   20aac:	13010113          	addi	sp,sp,304
   20ab0:	00008067          	ret
   20ab4:	0f21e7b7          	lui	a5,0xf21e
   20ab8:	000806b7          	lui	a3,0x80
   20abc:	02b78793          	addi	a5,a5,43 # f21e02b <_end+0xf1d983b>
   20ac0:	ffc68693          	addi	a3,a3,-4 # 7fffc <_end+0x3b80c>
   20ac4:	02079713          	slli	a4,a5,0x20
   20ac8:	02075713          	srli	a4,a4,0x20
   20acc:	00d7f7b3          	and	a5,a5,a3
   20ad0:	0007a003          	lw	zero,0(a5)
   20ad4:	00175793          	srli	a5,a4,0x1
   20ad8:	fedff06f          	j	20ac4 <vm_boot+0x19c>
	...

Disassembly of section .rodata.str1.8:

0000000000020ae0 <.rodata.str1.8>:
   20ae0:	7341                	lui	t1,0xffff0
   20ae2:	74726573          	csrrsi	a0,0x747,4
   20ae6:	6f69                	lui	t5,0x1a
   20ae8:	206e                	fld	ft0,216(sp)
   20aea:	6166                	ld	sp,88(sp)
   20aec:	6c69                	lui	s8,0x1a
   20aee:	6465                	lui	s0,0x19
   20af0:	203a                	fld	ft0,392(sp)
   20af2:	6461                	lui	s0,0x18
   20af4:	7264                	ld	s1,224(a2)
   20af6:	3e20                	fld	fs0,120(a2)
   20af8:	203d                	0x203d
   20afa:	3128                	fld	fa0,96(a0)
   20afc:	4c55                	li	s8,21
   20afe:	3c20                	fld	fs0,120(s0)
   20b00:	203c                	fld	fa5,64(s0)
   20b02:	3231                	addiw	tp,tp,-20
   20b04:	2029                	0x2029
   20b06:	2626                	fld	fa2,72(sp)
   20b08:	6120                	ld	s0,64(a0)
   20b0a:	6464                	ld	s1,200(s0)
   20b0c:	2072                	fld	ft0,280(sp)
   20b0e:	203c                	fld	fa5,64(s0)
   20b10:	3336                	fld	ft6,360(sp)
   20b12:	2a20                	fld	fs0,80(a2)
   20b14:	2820                	fld	fs0,80(s0)
   20b16:	5531                	li	a0,-20
   20b18:	204c                	fld	fa1,128(s0)
   20b1a:	3c3c                	fld	fa5,120(s0)
   20b1c:	3120                	fld	fs0,96(a0)
   20b1e:	2932                	fld	fs2,264(sp)
   20b20:	000a                	0xa
   20b22:	0000                	unimp
   20b24:	0000                	unimp
   20b26:	0000                	unimp
   20b28:	7341                	lui	t1,0xffff0
   20b2a:	74726573          	csrrsi	a0,0x747,4
   20b2e:	6f69                	lui	t5,0x1a
   20b30:	206e                	fld	ft0,216(sp)
   20b32:	6166                	ld	sp,88(sp)
   20b34:	6c69                	lui	s8,0x1a
   20b36:	6465                	lui	s0,0x19
   20b38:	203a                	fld	ft0,392(sp)
   20b3a:	2821                	addiw	a6,a6,8
   20b3c:	7470                	ld	a2,232(s0)
   20b3e:	5b5d335b          	0x5b5d335b
   20b42:	6461                	lui	s0,0x18
   20b44:	7264                	ld	s1,224(a2)
   20b46:	5531282f          	0x5531282f
   20b4a:	204c                	fld	fa1,128(s0)
   20b4c:	3c3c                	fld	fa5,120(s0)
   20b4e:	3120                	fld	fs0,96(a0)
   20b50:	2932                	fld	fs2,264(sp)
   20b52:	205d                	0x205d
   20b54:	2026                	fld	ft0,72(sp)
   20b56:	7830                	ld	a2,112(s0)
   20b58:	3830                	fld	fa2,112(s0)
   20b5a:	2930                	fld	fa2,80(a0)
   20b5c:	2620                	fld	fs0,72(a2)
   20b5e:	2026                	fld	ft0,72(sp)
   20b60:	73756163          	bltu	a0,s7,21282 <vm_boot+0x95a>
   20b64:	2065                	0x2065
   20b66:	3d3d                	addiw	s10,s10,-17
   20b68:	3020                	fld	fs0,96(s0)
   20b6a:	6678                	ld	a4,200(a2)
   20b6c:	000a                	0xa
   20b6e:	0000                	unimp
   20b70:	7341                	lui	t1,0xffff0
   20b72:	74726573          	csrrsi	a0,0x747,4
   20b76:	6f69                	lui	t5,0x1a
   20b78:	206e                	fld	ft0,216(sp)
   20b7a:	6166                	ld	sp,88(sp)
   20b7c:	6c69                	lui	s8,0x1a
   20b7e:	6465                	lui	s0,0x19
   20b80:	203a                	fld	ft0,392(sp)
   20b82:	6f6e                	ld	t5,216(sp)
   20b84:	6564                	ld	s1,200(a0)
   20b86:	000a                	0xa
   20b88:	7341                	lui	t1,0xffff0
   20b8a:	74726573          	csrrsi	a0,0x747,4
   20b8e:	6f69                	lui	t5,0x1a
   20b90:	206e                	fld	ft0,216(sp)
   20b92:	6166                	ld	sp,88(sp)
   20b94:	6c69                	lui	s8,0x1a
   20b96:	6465                	lui	s0,0x19
   20b98:	203a                	fld	ft0,392(sp)
   20b9a:	7375                	lui	t1,0xffffd
   20b9c:	7265                	lui	tp,0xffff9
   20b9e:	6d5f 7061 6970      	0x697070616d5f
   20ba4:	676e                	ld	a4,216(sp)
   20ba6:	6464615b          	0x6464615b
   20baa:	2f72                	fld	ft10,280(sp)
   20bac:	3128                	fld	fa0,96(a0)
   20bae:	4c55                	li	s8,21
   20bb0:	3c20                	fld	fs0,120(s0)
   20bb2:	203c                	fld	fa5,64(s0)
   20bb4:	3231                	addiw	tp,tp,-20
   20bb6:	5d29                	li	s10,-22
   20bb8:	612e                	ld	sp,200(sp)
   20bba:	6464                	ld	s1,200(s0)
   20bbc:	2072                	fld	ft0,280(sp)
   20bbe:	3d3d                	addiw	s10,s10,-17
   20bc0:	3020                	fld	fs0,96(s0)
   20bc2:	000a                	0xa
   20bc4:	0000                	unimp
   20bc6:	0000                	unimp
   20bc8:	7341                	lui	t1,0xffff0
   20bca:	74726573          	csrrsi	a0,0x747,4
   20bce:	6f69                	lui	t5,0x1a
   20bd0:	206e                	fld	ft0,216(sp)
   20bd2:	6166                	ld	sp,88(sp)
   20bd4:	6c69                	lui	s8,0x1a
   20bd6:	6465                	lui	s0,0x19
   20bd8:	203a                	fld	ft0,392(sp)
   20bda:	7470                	ld	a2,232(s0)
   20bdc:	5b5d335b          	0x5b5d335b
   20be0:	6461                	lui	s0,0x18
   20be2:	7264                	ld	s1,224(a2)
   20be4:	5531282f          	0x5531282f
   20be8:	204c                	fld	fa1,128(s0)
   20bea:	3c3c                	fld	fa5,120(s0)
   20bec:	3120                	fld	fs0,96(a0)
   20bee:	2932                	fld	fs2,264(sp)
   20bf0:	205d                	0x205d
   20bf2:	2026                	fld	ft0,72(sp)
   20bf4:	7830                	ld	a2,112(s0)
   20bf6:	3430                	fld	fa2,104(s0)
   20bf8:	0a30                	addi	a2,sp,280
   20bfa:	0000                	unimp
   20bfc:	0000                	unimp
   20bfe:	0000                	unimp
   20c00:	7341                	lui	t1,0xffff0
   20c02:	74726573          	csrrsi	a0,0x747,4
   20c06:	6f69                	lui	t5,0x1a
   20c08:	206e                	fld	ft0,216(sp)
   20c0a:	6166                	ld	sp,88(sp)
   20c0c:	6c69                	lui	s8,0x1a
   20c0e:	6465                	lui	s0,0x19
   20c10:	203a                	fld	ft0,392(sp)
   20c12:	7470                	ld	a2,232(s0)
   20c14:	5b5d335b          	0x5b5d335b
   20c18:	6461                	lui	s0,0x18
   20c1a:	7264                	ld	s1,224(a2)
   20c1c:	5531282f          	0x5531282f
   20c20:	204c                	fld	fa1,128(s0)
   20c22:	3c3c                	fld	fa5,120(s0)
   20c24:	3120                	fld	fs0,96(a0)
   20c26:	2932                	fld	fs2,264(sp)
   20c28:	205d                	0x205d
   20c2a:	2026                	fld	ft0,72(sp)
   20c2c:	7830                	ld	a2,112(s0)
   20c2e:	3830                	fld	fa2,112(s0)
   20c30:	0a30                	addi	a2,sp,280
   20c32:	0000                	unimp
   20c34:	0000                	unimp
   20c36:	0000                	unimp
   20c38:	7341                	lui	t1,0xffff0
   20c3a:	74726573          	csrrsi	a0,0x747,4
   20c3e:	6f69                	lui	t5,0x1a
   20c40:	206e                	fld	ft0,216(sp)
   20c42:	6166                	ld	sp,88(sp)
   20c44:	6c69                	lui	s8,0x1a
   20c46:	6465                	lui	s0,0x19
   20c48:	203a                	fld	ft0,392(sp)
   20c4a:	6674                	ld	a3,200(a2)
   20c4c:	3e2d                	addiw	t3,t3,-21
   20c4e:	7065                	0x7065
   20c50:	20252063          	0x20252063
   20c54:	2034                	fld	fa3,64(s0)
   20c56:	3d3d                	addiw	s10,s10,-17
   20c58:	3020                	fld	fs0,96(s0)
   20c5a:	000a                	0xa
   20c5c:	0000                	unimp
   20c5e:	0000                	unimp
   20c60:	7341                	lui	t1,0xffff0
   20c62:	74726573          	csrrsi	a0,0x747,4
   20c66:	6f69                	lui	t5,0x1a
   20c68:	206e                	fld	ft0,216(sp)
   20c6a:	6166                	ld	sp,88(sp)
   20c6c:	6c69                	lui	s8,0x1a
   20c6e:	6465                	lui	s0,0x19
   20c70:	203a                	fld	ft0,392(sp)
   20c72:	2221                	addiw	tp,tp,8
   20c74:	6c69                	lui	s8,0x1a
   20c76:	656c                	ld	a1,200(a0)
   20c78:	206c6167          	0x206c6167
   20c7c:	6e69                	lui	t3,0x1a
   20c7e:	75727473          	csrrci	s0,0x757,4
   20c82:	6f697463          	bleu	s6,s2,2136a <vm_boot+0xa42>
   20c86:	226e                	fld	ft4,216(sp)
   20c88:	000a                	0xa
   20c8a:	0000                	unimp
   20c8c:	0000                	unimp
   20c8e:	0000                	unimp
   20c90:	7341                	lui	t1,0xffff0
   20c92:	74726573          	csrrsi	a0,0x747,4
   20c96:	6f69                	lui	t5,0x1a
   20c98:	206e                	fld	ft0,216(sp)
   20c9a:	6166                	ld	sp,88(sp)
   20c9c:	6c69                	lui	s8,0x1a
   20c9e:	6465                	lui	s0,0x19
   20ca0:	203a                	fld	ft0,392(sp)
   20ca2:	2221                	addiw	tp,tp,8
   20ca4:	6e75                	lui	t3,0x1d
   20ca6:	7865                	lui	a6,0xffff9
   20ca8:	6570                	ld	a2,200(a0)
   20caa:	64657463          	bleu	t1,a0,212f2 <vm_boot+0x9ca>
   20cae:	6520                	ld	s0,72(a0)
   20cb0:	6378                	ld	a4,192(a4)
   20cb2:	7065                	0x7065
   20cb4:	6974                	ld	a3,208(a0)
   20cb6:	0a226e6f          	jal	t3,46d58 <_end+0x2568>
   20cba:	0000                	unimp
   20cbc:	0000                	unimp
	...

Disassembly of section .bss:

0000000000040000 <pt>:
	...

0000000000044000 <freelist_nodes>:
	...

00000000000443f0 <user_mapping>:
	...

00000000000447e0 <freelist_tail>:
	...

00000000000447e8 <freelist_head>:
	...

Disassembly of section .comment:

0000000000000000 <.comment>:
   0:	3a434347          	fmsub.d	ft6,ft6,ft4,ft7,rmm
   4:	2820                	fld	fs0,80(s0)
   6:	20554e47          	fmsub.s	ft8,fa0,ft5,ft4,rmm
   a:	434d                	li	t1,19
   c:	2055                	0x2055
   e:	6345                	lui	t1,0x11
  10:	696c                	ld	a1,208(a0)
  12:	7370                	ld	a2,224(a4)
  14:	2065                	0x2065
  16:	4952                	lw	s2,20(sp)
  18:	562d4353          	0x562d4353
  1c:	4520                	lw	s0,72(a0)
  1e:	626d                	lui	tp,0x1b
  20:	6465                	lui	s0,0x19
  22:	6564                	ld	s1,200(a0)
  24:	2064                	fld	fs1,192(s0)
  26:	2c434347          	0x2c434347
  2a:	3620                	fld	fs0,104(a2)
  2c:	2d34                	fld	fa3,88(a0)
  2e:	6962                	ld	s2,24(sp)
  30:	7374                	ld	a3,224(a4)
  32:	2029                	0x2029
  34:	2e312e37          	lui	t3,0x2e312
  38:	2031                	0x2031
  3a:	3032                	fld	ft0,296(sp)
  3c:	3731                	addiw	a4,a4,-20
  3e:	3530                	fld	fa2,104(a0)
  40:	3930                	fld	fa2,112(a0)
	...
