
main:     file format elf64-littleriscv


Disassembly of section .text.init:

0000000000000000 <_start>:
   0:	00c0006f          	j	c <handle_reset>

0000000000000004 <nmi_vector>:
   4:	1e02006f          	j	201e4 <wtf>

0000000000000008 <trap_vector>:
   8:	1dc2006f          	j	201e4 <wtf>

000000000000000c <handle_reset>:
   c:	00000297          	auipc	t0,0x0
  10:	ffc28293          	addi	t0,t0,-4 # 8 <trap_vector>
  14:	30529073          	csrw	mtvec,t0
  18:	00045117          	auipc	sp,0x45
  1c:	6b810113          	addi	sp,sp,1720 # 456d0 <_end+0xee0>
  20:	f14022f3          	csrr	t0,mhartid
  24:	00c29293          	slli	t0,t0,0xc
  28:	00510133          	add	sp,sp,t0
  2c:	34011073          	csrw	mscratch,sp
  30:	00020517          	auipc	a0,0x20
  34:	fd050513          	addi	a0,a0,-48 # 20000 <userstart>
  38:	15d2006f          	j	20994 <vm_boot>

000000000000003c <pop_tf>:
  3c:	10853283          	ld	t0,264(a0)
  40:	14129073          	csrw	sepc,t0
  44:	00853083          	ld	ra,8(a0)
  48:	01053103          	ld	sp,16(a0)
  4c:	01853183          	ld	gp,24(a0)
  50:	02053203          	ld	tp,32(a0)
  54:	02853283          	ld	t0,40(a0)
  58:	03053303          	ld	t1,48(a0)
  5c:	03853383          	ld	t2,56(a0)
  60:	04053403          	ld	s0,64(a0)
  64:	04853483          	ld	s1,72(a0)
  68:	05853583          	ld	a1,88(a0)
  6c:	06053603          	ld	a2,96(a0)
  70:	06853683          	ld	a3,104(a0)
  74:	07053703          	ld	a4,112(a0)
  78:	07853783          	ld	a5,120(a0)
  7c:	08053803          	ld	a6,128(a0)
  80:	08853883          	ld	a7,136(a0)
  84:	09053903          	ld	s2,144(a0)
  88:	09853983          	ld	s3,152(a0)
  8c:	0a053a03          	ld	s4,160(a0)
  90:	0a853a83          	ld	s5,168(a0)
  94:	0b053b03          	ld	s6,176(a0)
  98:	0b853b83          	ld	s7,184(a0)
  9c:	0c053c03          	ld	s8,192(a0)
  a0:	0c853c83          	ld	s9,200(a0)
  a4:	0d053d03          	ld	s10,208(a0)
  a8:	0d853d83          	ld	s11,216(a0)
  ac:	0e053e03          	ld	t3,224(a0)
  b0:	0e853e83          	ld	t4,232(a0)
  b4:	0f053f03          	ld	t5,240(a0)
  b8:	0f853f83          	ld	t6,248(a0)
  bc:	05053503          	ld	a0,80(a0)
  c0:	10200073          	sret

00000000000000c4 <trap_entry>:
  c4:	14011173          	csrrw	sp,sscratch,sp
  c8:	00113423          	sd	ra,8(sp)
  cc:	00313c23          	sd	gp,24(sp)
  d0:	02413023          	sd	tp,32(sp)
  d4:	02513423          	sd	t0,40(sp)
  d8:	02613823          	sd	t1,48(sp)
  dc:	02713c23          	sd	t2,56(sp)
  e0:	04813023          	sd	s0,64(sp)
  e4:	04913423          	sd	s1,72(sp)
  e8:	04a13823          	sd	a0,80(sp)
  ec:	04b13c23          	sd	a1,88(sp)
  f0:	06c13023          	sd	a2,96(sp)
  f4:	06d13423          	sd	a3,104(sp)
  f8:	06e13823          	sd	a4,112(sp)
  fc:	06f13c23          	sd	a5,120(sp)
 100:	09013023          	sd	a6,128(sp)
 104:	09113423          	sd	a7,136(sp)
 108:	09213823          	sd	s2,144(sp)
 10c:	09313c23          	sd	s3,152(sp)
 110:	0b413023          	sd	s4,160(sp)
 114:	0b513423          	sd	s5,168(sp)
 118:	0b613823          	sd	s6,176(sp)
 11c:	0b713c23          	sd	s7,184(sp)
 120:	0d813023          	sd	s8,192(sp)
 124:	0d913423          	sd	s9,200(sp)
 128:	0da13823          	sd	s10,208(sp)
 12c:	0db13c23          	sd	s11,216(sp)
 130:	0fc13023          	sd	t3,224(sp)
 134:	0fd13423          	sd	t4,232(sp)
 138:	0fe13823          	sd	t5,240(sp)
 13c:	0ff13c23          	sd	t6,248(sp)
 140:	140112f3          	csrrw	t0,sscratch,sp
 144:	00513823          	sd	t0,16(sp)
 148:	100022f3          	csrr	t0,sstatus
 14c:	10513023          	sd	t0,256(sp)
 150:	141022f3          	csrr	t0,sepc
 154:	10513423          	sd	t0,264(sp)
 158:	143022f3          	csrr	t0,sbadaddr
 15c:	10513823          	sd	t0,272(sp)
 160:	142022f3          	csrr	t0,scause
 164:	10513c23          	sd	t0,280(sp)
 168:	00010513          	mv	a0,sp
 16c:	6482006f          	j	207b4 <handle_trap>

Disassembly of section .text:

0000000000020000 <userstart>:
   20000:	fe010113          	addi	sp,sp,-32
   20004:	01d13423          	sd	t4,8(sp)
   20008:	01e13823          	sd	t5,16(sp)
   2000c:	01f13c23          	sd	t6,24(sp)
   20010:	000e0f37          	lui	t5,0xe0
   20014:	001f0f1b          	addiw	t5,t5,1
   20018:	00cf1f13          	slli	t5,t5,0xc
   2001c:	030f0f13          	addi	t5,t5,48 # e0030 <_end+0x9b840>
   20020:	00a00f93          	li	t6,10
   20024:	01ff0023          	sb	t6,0(t5)
   20028:	02d00f93          	li	t6,45
   2002c:	01ff0023          	sb	t6,0(t5)
   20030:	02d00f93          	li	t6,45
   20034:	01ff0023          	sb	t6,0(t5)
   20038:	02d00f93          	li	t6,45
   2003c:	01ff0023          	sb	t6,0(t5)
   20040:	02d00f93          	li	t6,45
   20044:	01ff0023          	sb	t6,0(t5)
   20048:	04600f93          	li	t6,70
   2004c:	01ff0023          	sb	t6,0(t5)
   20050:	04900f93          	li	t6,73
   20054:	01ff0023          	sb	t6,0(t5)
   20058:	05200f93          	li	t6,82
   2005c:	01ff0023          	sb	t6,0(t5)
   20060:	04500f93          	li	t6,69
   20064:	01ff0023          	sb	t6,0(t5)
   20068:	04400f93          	li	t6,68
   2006c:	01ff0023          	sb	t6,0(t5)
   20070:	02d00f93          	li	t6,45
   20074:	01ff0023          	sb	t6,0(t5)
   20078:	02d00f93          	li	t6,45
   2007c:	01ff0023          	sb	t6,0(t5)
   20080:	02d00f93          	li	t6,45
   20084:	01ff0023          	sb	t6,0(t5)
   20088:	02d00f93          	li	t6,45
   2008c:	01ff0023          	sb	t6,0(t5)
   20090:	00a00f93          	li	t6,10
   20094:	01ff0023          	sb	t6,0(t5)
   20098:	00813e83          	ld	t4,8(sp)
   2009c:	01013f03          	ld	t5,16(sp)
   200a0:	01813f83          	ld	t6,24(sp)
   200a4:	02010113          	addi	sp,sp,32
   200a8:	00008067          	ret
   200ac:	c0001073          	unimp

00000000000200b0 <lfsr63>:
   200b0:	fd010113          	addi	sp,sp,-48
   200b4:	02813423          	sd	s0,40(sp)
   200b8:	03010413          	addi	s0,sp,48
   200bc:	fca43c23          	sd	a0,-40(s0)
   200c0:	fd843783          	ld	a5,-40(s0)
   200c4:	0017d713          	srli	a4,a5,0x1
   200c8:	fd843783          	ld	a5,-40(s0)
   200cc:	00f747b3          	xor	a5,a4,a5
   200d0:	0017f793          	andi	a5,a5,1
   200d4:	fef43423          	sd	a5,-24(s0)
   200d8:	fd843783          	ld	a5,-40(s0)
   200dc:	0017d713          	srli	a4,a5,0x1
   200e0:	fe843783          	ld	a5,-24(s0)
   200e4:	03e79793          	slli	a5,a5,0x3e
   200e8:	00f767b3          	or	a5,a4,a5
   200ec:	00078513          	mv	a0,a5
   200f0:	02813403          	ld	s0,40(sp)
   200f4:	03010113          	addi	sp,sp,48
   200f8:	00008067          	ret

00000000000200fc <cputchar>:
   200fc:	fd010113          	addi	sp,sp,-48
   20100:	02813423          	sd	s0,40(sp)
   20104:	03010413          	addi	s0,sp,48
   20108:	00050793          	mv	a5,a0
   2010c:	fcf42e23          	sw	a5,-36(s0)
   20110:	380007b7          	lui	a5,0x38000
   20114:	40b78793          	addi	a5,a5,1035 # 3800040b <_end+0x37fbbc1b>
   20118:	00279793          	slli	a5,a5,0x2
   2011c:	fef43423          	sd	a5,-24(s0)
   20120:	00000013          	nop
   20124:	fe843783          	ld	a5,-24(s0)
   20128:	0007a783          	lw	a5,0(a5)
   2012c:	0007879b          	sext.w	a5,a5
   20130:	0107f793          	andi	a5,a5,16
   20134:	0007879b          	sext.w	a5,a5
   20138:	00078713          	mv	a4,a5
   2013c:	01000793          	li	a5,16
   20140:	fef702e3          	beq	a4,a5,20124 <cputchar+0x28>
   20144:	0e0007b7          	lui	a5,0xe000
   20148:	10378793          	addi	a5,a5,259 # e000103 <_end+0xdfbb913>
   2014c:	00479793          	slli	a5,a5,0x4
   20150:	fdc42703          	lw	a4,-36(s0)
   20154:	00e7a023          	sw	a4,0(a5)
   20158:	00000013          	nop
   2015c:	02813403          	ld	s0,40(sp)
   20160:	03010113          	addi	sp,sp,48
   20164:	00008067          	ret

0000000000020168 <cputstring>:
   20168:	fe010113          	addi	sp,sp,-32
   2016c:	00113c23          	sd	ra,24(sp)
   20170:	00813823          	sd	s0,16(sp)
   20174:	02010413          	addi	s0,sp,32
   20178:	fea43423          	sd	a0,-24(s0)
   2017c:	0200006f          	j	2019c <cputstring+0x34>
   20180:	fe843783          	ld	a5,-24(s0)
   20184:	00178713          	addi	a4,a5,1
   20188:	fee43423          	sd	a4,-24(s0)
   2018c:	0007c783          	lbu	a5,0(a5)
   20190:	0007879b          	sext.w	a5,a5
   20194:	00078513          	mv	a0,a5
   20198:	f65ff0ef          	jal	ra,200fc <cputchar>
   2019c:	fe843783          	ld	a5,-24(s0)
   201a0:	0007c783          	lbu	a5,0(a5)
   201a4:	fc079ee3          	bnez	a5,20180 <cputstring+0x18>
   201a8:	00000013          	nop
   201ac:	01813083          	ld	ra,24(sp)
   201b0:	01013403          	ld	s0,16(sp)
   201b4:	02010113          	addi	sp,sp,32
   201b8:	00008067          	ret

00000000000201bc <terminate>:
   201bc:	fe010113          	addi	sp,sp,-32
   201c0:	00113c23          	sd	ra,24(sp)
   201c4:	00813823          	sd	s0,16(sp)
   201c8:	02010413          	addi	s0,sp,32
   201cc:	00050793          	mv	a5,a0
   201d0:	fef42623          	sw	a5,-20(s0)
   201d4:	fec42783          	lw	a5,-20(s0)
   201d8:	00078513          	mv	a0,a5
   201dc:	f21ff0ef          	jal	ra,200fc <cputchar>
   201e0:	0000006f          	j	201e0 <terminate+0x24>

00000000000201e4 <wtf>:
   201e4:	ff010113          	addi	sp,sp,-16
   201e8:	00113423          	sd	ra,8(sp)
   201ec:	00813023          	sd	s0,0(sp)
   201f0:	01010413          	addi	s0,sp,16
   201f4:	34900513          	li	a0,841
   201f8:	fc5ff0ef          	jal	ra,201bc <terminate>
   201fc:	00000013          	nop
   20200:	00813083          	ld	ra,8(sp)
   20204:	00013403          	ld	s0,0(sp)
   20208:	01010113          	addi	sp,sp,16
   2020c:	00008067          	ret

0000000000020210 <printhex>:
   20210:	fc010113          	addi	sp,sp,-64
   20214:	02113c23          	sd	ra,56(sp)
   20218:	02813823          	sd	s0,48(sp)
   2021c:	04010413          	addi	s0,sp,64
   20220:	fca43423          	sd	a0,-56(s0)
   20224:	fe042623          	sw	zero,-20(s0)
   20228:	06c0006f          	j	20294 <printhex+0x84>
   2022c:	fc843783          	ld	a5,-56(s0)
   20230:	0ff7f793          	andi	a5,a5,255
   20234:	00f7f793          	andi	a5,a5,15
   20238:	0ff7f713          	andi	a4,a5,255
   2023c:	fc843783          	ld	a5,-56(s0)
   20240:	00f7f693          	andi	a3,a5,15
   20244:	00900793          	li	a5,9
   20248:	00d7e663          	bltu	a5,a3,20254 <printhex+0x44>
   2024c:	03000793          	li	a5,48
   20250:	0080006f          	j	20258 <printhex+0x48>
   20254:	05700793          	li	a5,87
   20258:	00f00613          	li	a2,15
   2025c:	fec42683          	lw	a3,-20(s0)
   20260:	40d606bb          	subw	a3,a2,a3
   20264:	0006869b          	sext.w	a3,a3
   20268:	00e787bb          	addw	a5,a5,a4
   2026c:	0ff7f713          	andi	a4,a5,255
   20270:	ff040793          	addi	a5,s0,-16
   20274:	00d787b3          	add	a5,a5,a3
   20278:	fee78423          	sb	a4,-24(a5)
   2027c:	fc843783          	ld	a5,-56(s0)
   20280:	0047d793          	srli	a5,a5,0x4
   20284:	fcf43423          	sd	a5,-56(s0)
   20288:	fec42783          	lw	a5,-20(s0)
   2028c:	0017879b          	addiw	a5,a5,1
   20290:	fef42623          	sw	a5,-20(s0)
   20294:	fec42783          	lw	a5,-20(s0)
   20298:	0007871b          	sext.w	a4,a5
   2029c:	00f00793          	li	a5,15
   202a0:	f8e7d6e3          	ble	a4,a5,2022c <printhex+0x1c>
   202a4:	fe040423          	sb	zero,-24(s0)
   202a8:	fd840793          	addi	a5,s0,-40
   202ac:	00078513          	mv	a0,a5
   202b0:	eb9ff0ef          	jal	ra,20168 <cputstring>
   202b4:	00000013          	nop
   202b8:	03813083          	ld	ra,56(sp)
   202bc:	03013403          	ld	s0,48(sp)
   202c0:	04010113          	addi	sp,sp,64
   202c4:	00008067          	ret

00000000000202c8 <evict>:
   202c8:	fc010113          	addi	sp,sp,-64
   202cc:	02113c23          	sd	ra,56(sp)
   202d0:	02813823          	sd	s0,48(sp)
   202d4:	04010413          	addi	s0,sp,64
   202d8:	fca43423          	sd	a0,-56(s0)
   202dc:	fc843703          	ld	a4,-56(s0)
   202e0:	000017b7          	lui	a5,0x1
   202e4:	00f76863          	bltu	a4,a5,202f4 <evict+0x2c>
   202e8:	fc843703          	ld	a4,-56(s0)
   202ec:	0003f7b7          	lui	a5,0x3f
   202f0:	00f76e63          	bltu	a4,a5,2030c <evict+0x44>
   202f4:	000217b7          	lui	a5,0x21
   202f8:	17878513          	addi	a0,a5,376 # 21178 <atol+0x114>
   202fc:	e6dff0ef          	jal	ra,20168 <cputstring>
   20300:	00300513          	li	a0,3
   20304:	eb9ff0ef          	jal	ra,201bc <terminate>
   20308:	0080006f          	j	20310 <evict+0x48>
   2030c:	00000013          	nop
   20310:	fc843703          	ld	a4,-56(s0)
   20314:	fffff7b7          	lui	a5,0xfffff
   20318:	00f777b3          	and	a5,a4,a5
   2031c:	fcf43423          	sd	a5,-56(s0)
   20320:	fc843783          	ld	a5,-56(s0)
   20324:	00c7d793          	srli	a5,a5,0xc
   20328:	00479713          	slli	a4,a5,0x4
   2032c:	000447b7          	lui	a5,0x44
   20330:	3f078793          	addi	a5,a5,1008 # 443f0 <user_mapping>
   20334:	00f707b3          	add	a5,a4,a5
   20338:	fef43423          	sd	a5,-24(s0)
   2033c:	fe843783          	ld	a5,-24(s0)
   20340:	0007b783          	ld	a5,0(a5)
   20344:	14078a63          	beqz	a5,20498 <evict+0x1d0>
   20348:	fc843783          	ld	a5,-56(s0)
   2034c:	00c7d713          	srli	a4,a5,0xc
   20350:	000407b7          	lui	a5,0x40
   20354:	60070713          	addi	a4,a4,1536
   20358:	00371713          	slli	a4,a4,0x3
   2035c:	00078793          	mv	a5,a5
   20360:	00f707b3          	add	a5,a4,a5
   20364:	0007b783          	ld	a5,0(a5) # 40000 <pt>
   20368:	0407f793          	andi	a5,a5,64
   2036c:	00079e63          	bnez	a5,20388 <evict+0xc0>
   20370:	000217b7          	lui	a5,0x21
   20374:	1c078513          	addi	a0,a5,448 # 211c0 <atol+0x15c>
   20378:	df1ff0ef          	jal	ra,20168 <cputstring>
   2037c:	00300513          	li	a0,3
   20380:	e3dff0ef          	jal	ra,201bc <terminate>
   20384:	0080006f          	j	2038c <evict+0xc4>
   20388:	00000013          	nop
   2038c:	000407b7          	lui	a5,0x40
   20390:	1007a7f3          	csrrs	a5,sstatus,a5
   20394:	fef43023          	sd	a5,-32(s0)
   20398:	fe043783          	ld	a5,-32(s0)
   2039c:	fcf43c23          	sd	a5,-40(s0)
   203a0:	fc843683          	ld	a3,-56(s0)
   203a4:	fc843703          	ld	a4,-56(s0)
   203a8:	ffe007b7          	lui	a5,0xffe00
   203ac:	00f707b3          	add	a5,a4,a5
   203b0:	00001637          	lui	a2,0x1
   203b4:	00078593          	mv	a1,a5
   203b8:	00068513          	mv	a0,a3
   203bc:	30d000ef          	jal	ra,20ec8 <memcmp>
   203c0:	00050793          	mv	a5,a0
   203c4:	06078463          	beqz	a5,2042c <evict+0x164>
   203c8:	fc843783          	ld	a5,-56(s0)
   203cc:	00c7d713          	srli	a4,a5,0xc
   203d0:	000407b7          	lui	a5,0x40
   203d4:	60070713          	addi	a4,a4,1536
   203d8:	00371713          	slli	a4,a4,0x3
   203dc:	00078793          	mv	a5,a5
   203e0:	00f707b3          	add	a5,a4,a5
   203e4:	0007b783          	ld	a5,0(a5) # 40000 <pt>
   203e8:	0807f793          	andi	a5,a5,128
   203ec:	00079e63          	bnez	a5,20408 <evict+0x140>
   203f0:	000217b7          	lui	a5,0x21
   203f4:	1f878513          	addi	a0,a5,504 # 211f8 <atol+0x194>
   203f8:	d71ff0ef          	jal	ra,20168 <cputstring>
   203fc:	00300513          	li	a0,3
   20400:	dbdff0ef          	jal	ra,201bc <terminate>
   20404:	0080006f          	j	2040c <evict+0x144>
   20408:	00000013          	nop
   2040c:	fc843683          	ld	a3,-56(s0)
   20410:	fc843703          	ld	a4,-56(s0)
   20414:	ffe007b7          	lui	a5,0xffe00
   20418:	00f707b3          	add	a5,a4,a5
   2041c:	00001637          	lui	a2,0x1
   20420:	00078593          	mv	a1,a5
   20424:	00068513          	mv	a0,a3
   20428:	7f4000ef          	jal	ra,20c1c <memcpy>
   2042c:	fd843783          	ld	a5,-40(s0)
   20430:	10079073          	csrw	sstatus,a5
   20434:	fc843783          	ld	a5,-56(s0)
   20438:	00c7d713          	srli	a4,a5,0xc
   2043c:	000447b7          	lui	a5,0x44
   20440:	00471713          	slli	a4,a4,0x4
   20444:	3f078793          	addi	a5,a5,1008 # 443f0 <user_mapping>
   20448:	00f707b3          	add	a5,a4,a5
   2044c:	0007b023          	sd	zero,0(a5)
   20450:	000447b7          	lui	a5,0x44
   20454:	7e07b783          	ld	a5,2016(a5) # 447e0 <freelist_tail>
   20458:	02079263          	bnez	a5,2047c <evict+0x1b4>
   2045c:	000447b7          	lui	a5,0x44
   20460:	fe843703          	ld	a4,-24(s0)
   20464:	7ee7b023          	sd	a4,2016(a5) # 447e0 <freelist_tail>
   20468:	000447b7          	lui	a5,0x44
   2046c:	7e07b703          	ld	a4,2016(a5) # 447e0 <freelist_tail>
   20470:	000447b7          	lui	a5,0x44
   20474:	7ee7b423          	sd	a4,2024(a5) # 447e8 <freelist_head>
   20478:	0200006f          	j	20498 <evict+0x1d0>
   2047c:	000447b7          	lui	a5,0x44
   20480:	7e07b783          	ld	a5,2016(a5) # 447e0 <freelist_tail>
   20484:	fe843703          	ld	a4,-24(s0)
   20488:	00e7b423          	sd	a4,8(a5)
   2048c:	000447b7          	lui	a5,0x44
   20490:	fe843703          	ld	a4,-24(s0)
   20494:	7ee7b023          	sd	a4,2016(a5) # 447e0 <freelist_tail>
   20498:	00000013          	nop
   2049c:	03813083          	ld	ra,56(sp)
   204a0:	03013403          	ld	s0,48(sp)
   204a4:	04010113          	addi	sp,sp,64
   204a8:	00008067          	ret

00000000000204ac <handle_fault>:
   204ac:	fc010113          	addi	sp,sp,-64
   204b0:	02113c23          	sd	ra,56(sp)
   204b4:	02813823          	sd	s0,48(sp)
   204b8:	04010413          	addi	s0,sp,64
   204bc:	fca43423          	sd	a0,-56(s0)
   204c0:	fcb43023          	sd	a1,-64(s0)
   204c4:	fc843703          	ld	a4,-56(s0)
   204c8:	000017b7          	lui	a5,0x1
   204cc:	00f76863          	bltu	a4,a5,204dc <handle_fault+0x30>
   204d0:	fc843703          	ld	a4,-56(s0)
   204d4:	0003f7b7          	lui	a5,0x3f
   204d8:	00f76e63          	bltu	a4,a5,204f4 <handle_fault+0x48>
   204dc:	000217b7          	lui	a5,0x21
   204e0:	17878513          	addi	a0,a5,376 # 21178 <atol+0x114>
   204e4:	c85ff0ef          	jal	ra,20168 <cputstring>
   204e8:	00300513          	li	a0,3
   204ec:	cd1ff0ef          	jal	ra,201bc <terminate>
   204f0:	0080006f          	j	204f8 <handle_fault+0x4c>
   204f4:	00000013          	nop
   204f8:	fc843703          	ld	a4,-56(s0)
   204fc:	fffff7b7          	lui	a5,0xfffff
   20500:	00f777b3          	and	a5,a4,a5
   20504:	fcf43423          	sd	a5,-56(s0)
   20508:	fc843783          	ld	a5,-56(s0)
   2050c:	00c7d713          	srli	a4,a5,0xc
   20510:	000407b7          	lui	a5,0x40
   20514:	60070713          	addi	a4,a4,1536
   20518:	00371713          	slli	a4,a4,0x3
   2051c:	00078793          	mv	a5,a5
   20520:	00f707b3          	add	a5,a4,a5
   20524:	0007b783          	ld	a5,0(a5) # 40000 <pt>
   20528:	10078263          	beqz	a5,2062c <handle_fault+0x180>
   2052c:	fc843783          	ld	a5,-56(s0)
   20530:	00c7d713          	srli	a4,a5,0xc
   20534:	000407b7          	lui	a5,0x40
   20538:	60070713          	addi	a4,a4,1536
   2053c:	00371713          	slli	a4,a4,0x3
   20540:	00078793          	mv	a5,a5
   20544:	00f707b3          	add	a5,a4,a5
   20548:	0007b783          	ld	a5,0(a5) # 40000 <pt>
   2054c:	0407f793          	andi	a5,a5,64
   20550:	04079263          	bnez	a5,20594 <handle_fault+0xe8>
   20554:	fc843783          	ld	a5,-56(s0)
   20558:	00c7d793          	srli	a5,a5,0xc
   2055c:	00040737          	lui	a4,0x40
   20560:	60078693          	addi	a3,a5,1536
   20564:	00369693          	slli	a3,a3,0x3
   20568:	00070713          	mv	a4,a4
   2056c:	00e68733          	add	a4,a3,a4
   20570:	00073703          	ld	a4,0(a4) # 40000 <pt>
   20574:	04076713          	ori	a4,a4,64
   20578:	00040637          	lui	a2,0x40
   2057c:	60078793          	addi	a5,a5,1536
   20580:	00379693          	slli	a3,a5,0x3
   20584:	00060793          	mv	a5,a2
   20588:	00f687b3          	add	a5,a3,a5
   2058c:	00e7b023          	sd	a4,0(a5)
   20590:	0900006f          	j	20620 <handle_fault+0x174>
   20594:	fc843783          	ld	a5,-56(s0)
   20598:	00c7d713          	srli	a4,a5,0xc
   2059c:	000407b7          	lui	a5,0x40
   205a0:	60070713          	addi	a4,a4,1536
   205a4:	00371713          	slli	a4,a4,0x3
   205a8:	00078793          	mv	a5,a5
   205ac:	00f707b3          	add	a5,a4,a5
   205b0:	0007b783          	ld	a5,0(a5) # 40000 <pt>
   205b4:	0807f793          	andi	a5,a5,128
   205b8:	00079863          	bnez	a5,205c8 <handle_fault+0x11c>
   205bc:	fc043703          	ld	a4,-64(s0)
   205c0:	00f00793          	li	a5,15
   205c4:	00f70e63          	beq	a4,a5,205e0 <handle_fault+0x134>
   205c8:	000217b7          	lui	a5,0x21
   205cc:	23078513          	addi	a0,a5,560 # 21230 <atol+0x1cc>
   205d0:	b99ff0ef          	jal	ra,20168 <cputstring>
   205d4:	00300513          	li	a0,3
   205d8:	be5ff0ef          	jal	ra,201bc <terminate>
   205dc:	0080006f          	j	205e4 <handle_fault+0x138>
   205e0:	00000013          	nop
   205e4:	fc843783          	ld	a5,-56(s0)
   205e8:	00c7d793          	srli	a5,a5,0xc
   205ec:	00040737          	lui	a4,0x40
   205f0:	60078693          	addi	a3,a5,1536
   205f4:	00369693          	slli	a3,a3,0x3
   205f8:	00070713          	mv	a4,a4
   205fc:	00e68733          	add	a4,a3,a4
   20600:	00073703          	ld	a4,0(a4) # 40000 <pt>
   20604:	08076713          	ori	a4,a4,128
   20608:	00040637          	lui	a2,0x40
   2060c:	60078793          	addi	a5,a5,1536
   20610:	00379693          	slli	a3,a5,0x3
   20614:	00060793          	mv	a5,a2
   20618:	00f687b3          	add	a5,a3,a5
   2061c:	00e7b023          	sd	a4,0(a5)
   20620:	fc843783          	ld	a5,-56(s0)
   20624:	12078073          	sfence.vma	a5
   20628:	17c0006f          	j	207a4 <handle_fault+0x2f8>
   2062c:	000447b7          	lui	a5,0x44
   20630:	7e87b783          	ld	a5,2024(a5) # 447e8 <freelist_head>
   20634:	fef43423          	sd	a5,-24(s0)
   20638:	fe843783          	ld	a5,-24(s0)
   2063c:	00079e63          	bnez	a5,20658 <handle_fault+0x1ac>
   20640:	000217b7          	lui	a5,0x21
   20644:	27878513          	addi	a0,a5,632 # 21278 <atol+0x214>
   20648:	b21ff0ef          	jal	ra,20168 <cputstring>
   2064c:	00300513          	li	a0,3
   20650:	b6dff0ef          	jal	ra,201bc <terminate>
   20654:	0080006f          	j	2065c <handle_fault+0x1b0>
   20658:	00000013          	nop
   2065c:	fe843783          	ld	a5,-24(s0)
   20660:	0087b703          	ld	a4,8(a5)
   20664:	000447b7          	lui	a5,0x44
   20668:	7ee7b423          	sd	a4,2024(a5) # 447e8 <freelist_head>
   2066c:	000447b7          	lui	a5,0x44
   20670:	7e87b703          	ld	a4,2024(a5) # 447e8 <freelist_head>
   20674:	000447b7          	lui	a5,0x44
   20678:	7e07b783          	ld	a5,2016(a5) # 447e0 <freelist_tail>
   2067c:	00f71663          	bne	a4,a5,20688 <handle_fault+0x1dc>
   20680:	000447b7          	lui	a5,0x44
   20684:	7e07b023          	sd	zero,2016(a5) # 447e0 <freelist_tail>
   20688:	fe843783          	ld	a5,-24(s0)
   2068c:	0007b783          	ld	a5,0(a5)
   20690:	00c7d793          	srli	a5,a5,0xc
   20694:	00a79793          	slli	a5,a5,0xa
   20698:	01f7e793          	ori	a5,a5,31
   2069c:	fef43023          	sd	a5,-32(s0)
   206a0:	fc843783          	ld	a5,-56(s0)
   206a4:	00c7d693          	srli	a3,a5,0xc
   206a8:	fe043783          	ld	a5,-32(s0)
   206ac:	0c07e713          	ori	a4,a5,192
   206b0:	000407b7          	lui	a5,0x40
   206b4:	60068693          	addi	a3,a3,1536
   206b8:	00369693          	slli	a3,a3,0x3
   206bc:	00078793          	mv	a5,a5
   206c0:	00f687b3          	add	a5,a3,a5
   206c4:	00e7b023          	sd	a4,0(a5) # 40000 <pt>
   206c8:	fc843783          	ld	a5,-56(s0)
   206cc:	12078073          	sfence.vma	a5
   206d0:	fc843783          	ld	a5,-56(s0)
   206d4:	00c7d713          	srli	a4,a5,0xc
   206d8:	000447b7          	lui	a5,0x44
   206dc:	00471713          	slli	a4,a4,0x4
   206e0:	3f078793          	addi	a5,a5,1008 # 443f0 <user_mapping>
   206e4:	00f707b3          	add	a5,a4,a5
   206e8:	0007b783          	ld	a5,0(a5)
   206ec:	00078e63          	beqz	a5,20708 <handle_fault+0x25c>
   206f0:	000217b7          	lui	a5,0x21
   206f4:	29078513          	addi	a0,a5,656 # 21290 <atol+0x22c>
   206f8:	a71ff0ef          	jal	ra,20168 <cputstring>
   206fc:	00300513          	li	a0,3
   20700:	abdff0ef          	jal	ra,201bc <terminate>
   20704:	0080006f          	j	2070c <handle_fault+0x260>
   20708:	00000013          	nop
   2070c:	fc843783          	ld	a5,-56(s0)
   20710:	00c7d713          	srli	a4,a5,0xc
   20714:	000447b7          	lui	a5,0x44
   20718:	00471713          	slli	a4,a4,0x4
   2071c:	3f078793          	addi	a5,a5,1008 # 443f0 <user_mapping>
   20720:	00f707b3          	add	a5,a4,a5
   20724:	fe843703          	ld	a4,-24(s0)
   20728:	00073683          	ld	a3,0(a4)
   2072c:	00d7b023          	sd	a3,0(a5)
   20730:	00873703          	ld	a4,8(a4)
   20734:	00e7b423          	sd	a4,8(a5)
   20738:	000407b7          	lui	a5,0x40
   2073c:	1007a7f3          	csrrs	a5,sstatus,a5
   20740:	fcf43c23          	sd	a5,-40(s0)
   20744:	fd843783          	ld	a5,-40(s0)
   20748:	fcf43823          	sd	a5,-48(s0)
   2074c:	fc843683          	ld	a3,-56(s0)
   20750:	fc843703          	ld	a4,-56(s0)
   20754:	ffe007b7          	lui	a5,0xffe00
   20758:	00f707b3          	add	a5,a4,a5
   2075c:	00001637          	lui	a2,0x1
   20760:	00078593          	mv	a1,a5
   20764:	00068513          	mv	a0,a3
   20768:	4b4000ef          	jal	ra,20c1c <memcpy>
   2076c:	fd043783          	ld	a5,-48(s0)
   20770:	10079073          	csrw	sstatus,a5
   20774:	fc843783          	ld	a5,-56(s0)
   20778:	00c7d713          	srli	a4,a5,0xc
   2077c:	000407b7          	lui	a5,0x40
   20780:	60070713          	addi	a4,a4,1536
   20784:	00371713          	slli	a4,a4,0x3
   20788:	00078793          	mv	a5,a5
   2078c:	00f707b3          	add	a5,a4,a5
   20790:	fe043703          	ld	a4,-32(s0)
   20794:	00e7b023          	sd	a4,0(a5) # 40000 <pt>
   20798:	fc843783          	ld	a5,-56(s0)
   2079c:	12078073          	sfence.vma	a5
   207a0:	0000100f          	fence.i
   207a4:	03813083          	ld	ra,56(sp)
   207a8:	03013403          	ld	s0,48(sp)
   207ac:	04010113          	addi	sp,sp,64
   207b0:	00008067          	ret

00000000000207b4 <handle_trap>:
   207b4:	fc010113          	addi	sp,sp,-64
   207b8:	02113c23          	sd	ra,56(sp)
   207bc:	02813823          	sd	s0,48(sp)
   207c0:	04010413          	addi	s0,sp,64
   207c4:	fca43423          	sd	a0,-56(s0)
   207c8:	fc843783          	ld	a5,-56(s0)
   207cc:	1187b703          	ld	a4,280(a5)
   207d0:	00800793          	li	a5,8
   207d4:	04f71a63          	bne	a4,a5,20828 <handle_trap+0x74>
   207d8:	fc843783          	ld	a5,-56(s0)
   207dc:	0507b783          	ld	a5,80(a5)
   207e0:	fcf42e23          	sw	a5,-36(s0)
   207e4:	00100793          	li	a5,1
   207e8:	fef43423          	sd	a5,-24(s0)
   207ec:	0200006f          	j	2080c <handle_trap+0x58>
   207f0:	fe843783          	ld	a5,-24(s0)
   207f4:	00c79793          	slli	a5,a5,0xc
   207f8:	00078513          	mv	a0,a5
   207fc:	acdff0ef          	jal	ra,202c8 <evict>
   20800:	fe843783          	ld	a5,-24(s0)
   20804:	00178793          	addi	a5,a5,1
   20808:	fef43423          	sd	a5,-24(s0)
   2080c:	fe843703          	ld	a4,-24(s0)
   20810:	03e00793          	li	a5,62
   20814:	fce7dee3          	ble	a4,a5,207f0 <handle_trap+0x3c>
   20818:	fdc42783          	lw	a5,-36(s0)
   2081c:	00078513          	mv	a0,a5
   20820:	99dff0ef          	jal	ra,201bc <terminate>
   20824:	1040006f          	j	20928 <handle_trap+0x174>
   20828:	fc843783          	ld	a5,-56(s0)
   2082c:	1187b703          	ld	a4,280(a5)
   20830:	00200793          	li	a5,2
   20834:	08f71663          	bne	a4,a5,208c0 <handle_trap+0x10c>
   20838:	fc843783          	ld	a5,-56(s0)
   2083c:	1087b783          	ld	a5,264(a5)
   20840:	0037f793          	andi	a5,a5,3
   20844:	00078e63          	beqz	a5,20860 <handle_trap+0xac>
   20848:	000217b7          	lui	a5,0x21
   2084c:	2d078513          	addi	a0,a5,720 # 212d0 <atol+0x26c>
   20850:	919ff0ef          	jal	ra,20168 <cputstring>
   20854:	00300513          	li	a0,3
   20858:	965ff0ef          	jal	ra,201bc <terminate>
   2085c:	0080006f          	j	20864 <handle_trap+0xb0>
   20860:	00000013          	nop
   20864:	008007ef          	jal	a5,2086c <handle_trap+0xb8>
   20868:	00301073          	fssr	zero
   2086c:	fef43023          	sd	a5,-32(s0)
   20870:	fc843783          	ld	a5,-56(s0)
   20874:	1087b783          	ld	a5,264(a5)
   20878:	0007a703          	lw	a4,0(a5)
   2087c:	fe043783          	ld	a5,-32(s0)
   20880:	0007a783          	lw	a5,0(a5)
   20884:	00f71863          	bne	a4,a5,20894 <handle_trap+0xe0>
   20888:	00100513          	li	a0,1
   2088c:	931ff0ef          	jal	ra,201bc <terminate>
   20890:	0180006f          	j	208a8 <handle_trap+0xf4>
   20894:	000217b7          	lui	a5,0x21
   20898:	2f878513          	addi	a0,a5,760 # 212f8 <atol+0x294>
   2089c:	8cdff0ef          	jal	ra,20168 <cputstring>
   208a0:	00300513          	li	a0,3
   208a4:	919ff0ef          	jal	ra,201bc <terminate>
   208a8:	fc843783          	ld	a5,-56(s0)
   208ac:	1087b783          	ld	a5,264(a5)
   208b0:	00478713          	addi	a4,a5,4
   208b4:	fc843783          	ld	a5,-56(s0)
   208b8:	10e7b423          	sd	a4,264(a5)
   208bc:	06c0006f          	j	20928 <handle_trap+0x174>
   208c0:	fc843783          	ld	a5,-56(s0)
   208c4:	1187b703          	ld	a4,280(a5)
   208c8:	00c00793          	li	a5,12
   208cc:	02f70263          	beq	a4,a5,208f0 <handle_trap+0x13c>
   208d0:	fc843783          	ld	a5,-56(s0)
   208d4:	1187b703          	ld	a4,280(a5)
   208d8:	00d00793          	li	a5,13
   208dc:	00f70a63          	beq	a4,a5,208f0 <handle_trap+0x13c>
   208e0:	fc843783          	ld	a5,-56(s0)
   208e4:	1187b703          	ld	a4,280(a5)
   208e8:	00f00793          	li	a5,15
   208ec:	02f71463          	bne	a4,a5,20914 <handle_trap+0x160>
   208f0:	fc843783          	ld	a5,-56(s0)
   208f4:	1107b783          	ld	a5,272(a5)
   208f8:	00078713          	mv	a4,a5
   208fc:	fc843783          	ld	a5,-56(s0)
   20900:	1187b783          	ld	a5,280(a5)
   20904:	00078593          	mv	a1,a5
   20908:	00070513          	mv	a0,a4
   2090c:	ba1ff0ef          	jal	ra,204ac <handle_fault>
   20910:	0180006f          	j	20928 <handle_trap+0x174>
   20914:	000217b7          	lui	a5,0x21
   20918:	32878513          	addi	a0,a5,808 # 21328 <atol+0x2c4>
   2091c:	84dff0ef          	jal	ra,20168 <cputstring>
   20920:	00300513          	li	a0,3
   20924:	899ff0ef          	jal	ra,201bc <terminate>
   20928:	fc843503          	ld	a0,-56(s0)
   2092c:	f10df0ef          	jal	ra,3c <pop_tf>
   20930:	00000013          	nop
   20934:	03813083          	ld	ra,56(sp)
   20938:	03013403          	ld	s0,48(sp)
   2093c:	04010113          	addi	sp,sp,64
   20940:	00008067          	ret

0000000000020944 <coherence_torture>:
   20944:	fe010113          	addi	sp,sp,-32
   20948:	00113c23          	sd	ra,24(sp)
   2094c:	00813823          	sd	s0,16(sp)
   20950:	02010413          	addi	s0,sp,32
   20954:	0f21e7b7          	lui	a5,0xf21e
   20958:	02b7879b          	addiw	a5,a5,43
   2095c:	fef42623          	sw	a5,-20(s0)
   20960:	fec46703          	lwu	a4,-20(s0)
   20964:	000807b7          	lui	a5,0x80
   20968:	ffc78793          	addi	a5,a5,-4 # 7fffc <_end+0x3b80c>
   2096c:	00f777b3          	and	a5,a4,a5
   20970:	fef43023          	sd	a5,-32(s0)
   20974:	fe043783          	ld	a5,-32(s0)
   20978:	0007a003          	lw	zero,0(a5)
   2097c:	fec46783          	lwu	a5,-20(s0)
   20980:	00078513          	mv	a0,a5
   20984:	f2cff0ef          	jal	ra,200b0 <lfsr63>
   20988:	00050793          	mv	a5,a0
   2098c:	fef42623          	sw	a5,-20(s0)
   20990:	fd1ff06f          	j	20960 <coherence_torture+0x1c>

0000000000020994 <vm_boot>:
   20994:	e9010113          	addi	sp,sp,-368
   20998:	16113423          	sd	ra,360(sp)
   2099c:	16813023          	sd	s0,352(sp)
   209a0:	17010413          	addi	s0,sp,368
   209a4:	e8a43c23          	sd	a0,-360(s0)
   209a8:	0f21e7b7          	lui	a5,0xf21e
   209ac:	02b7879b          	addiw	a5,a5,43
   209b0:	fef42623          	sw	a5,-20(s0)
   209b4:	f14027f3          	csrr	a5,mhartid
   209b8:	fcf43c23          	sd	a5,-40(s0)
   209bc:	fd843783          	ld	a5,-40(s0)
   209c0:	00078463          	beqz	a5,209c8 <vm_boot+0x34>
   209c4:	f81ff0ef          	jal	ra,20944 <coherence_torture>
   209c8:	000417b7          	lui	a5,0x41
   209cc:	00078793          	mv	a5,a5
   209d0:	00c7d793          	srli	a5,a5,0xc
   209d4:	00a79793          	slli	a5,a5,0xa
   209d8:	0017e713          	ori	a4,a5,1
   209dc:	000407b7          	lui	a5,0x40
   209e0:	00e7b023          	sd	a4,0(a5) # 40000 <pt>
   209e4:	000427b7          	lui	a5,0x42
   209e8:	00078793          	mv	a5,a5
   209ec:	00c7d793          	srli	a5,a5,0xc
   209f0:	00a79793          	slli	a5,a5,0xa
   209f4:	0017e713          	ori	a4,a5,1
   209f8:	000407b7          	lui	a5,0x40
   209fc:	00078793          	mv	a5,a5
   20a00:	000016b7          	lui	a3,0x1
   20a04:	00f687b3          	add	a5,a3,a5
   20a08:	fee7bc23          	sd	a4,-8(a5) # 3fff8 <atol+0x1ef94>
   20a0c:	000407b7          	lui	a5,0x40
   20a10:	00078793          	mv	a5,a5
   20a14:	00003737          	lui	a4,0x3
   20a18:	00f707b3          	add	a5,a4,a5
   20a1c:	0cf00713          	li	a4,207
   20a20:	fee7bc23          	sd	a4,-8(a5) # 3fff8 <atol+0x1ef94>
   20a24:	000437b7          	lui	a5,0x43
   20a28:	00078793          	mv	a5,a5
   20a2c:	00c7d793          	srli	a5,a5,0xc
   20a30:	00a79793          	slli	a5,a5,0xa
   20a34:	0017e713          	ori	a4,a5,1
   20a38:	000407b7          	lui	a5,0x40
   20a3c:	00078793          	mv	a5,a5
   20a40:	000016b7          	lui	a3,0x1
   20a44:	00f687b3          	add	a5,a3,a5
   20a48:	00e7b023          	sd	a4,0(a5) # 40000 <pt>
   20a4c:	00800793          	li	a5,8
   20a50:	fcf43823          	sd	a5,-48(s0)
   20a54:	fd043783          	ld	a5,-48(s0)
   20a58:	03c79713          	slli	a4,a5,0x3c
   20a5c:	000407b7          	lui	a5,0x40
   20a60:	00078793          	mv	a5,a5
   20a64:	00c7d793          	srli	a5,a5,0xc
   20a68:	00f767b3          	or	a5,a4,a5
   20a6c:	18079073          	csrw	sptbr,a5
   20a70:	01f00793          	li	a5,31
   20a74:	fcf43423          	sd	a5,-56(s0)
   20a78:	fc843783          	ld	a5,-56(s0)
   20a7c:	fff00713          	li	a4,-1
   20a80:	00000297          	auipc	t0,0x0
   20a84:	01428293          	addi	t0,t0,20 # 20a94 <vm_boot+0x100>
   20a88:	305292f3          	csrrw	t0,mtvec,t0
   20a8c:	3b071073          	csrw	pmpaddr0,a4
   20a90:	3a079073          	csrw	pmpcfg0,a5
   20a94:	ffe007b7          	lui	a5,0xffe00
   20a98:	0c478793          	addi	a5,a5,196 # ffffffffffe000c4 <_end+0xffffffffffdbb8d4>
   20a9c:	10579073          	csrw	stvec,a5
   20aa0:	340027f3          	csrr	a5,mscratch
   20aa4:	fcf43023          	sd	a5,-64(s0)
   20aa8:	fc043703          	ld	a4,-64(s0)
   20aac:	ffe007b7          	lui	a5,0xffe00
   20ab0:	00f707b3          	add	a5,a4,a5
   20ab4:	14079073          	csrw	sscratch,a5
   20ab8:	0000b7b7          	lui	a5,0xb
   20abc:	1007879b          	addiw	a5,a5,256
   20ac0:	30279073          	csrw	medeleg,a5
   20ac4:	0001e7b7          	lui	a5,0x1e
   20ac8:	30079073          	csrw	mstatus,a5
   20acc:	30405073          	csrwi	mie,0
   20ad0:	fec42703          	lw	a4,-20(s0)
   20ad4:	03f00793          	li	a5,63
   20ad8:	02f777bb          	remuw	a5,a4,a5
   20adc:	0007879b          	sext.w	a5,a5
   20ae0:	0017879b          	addiw	a5,a5,1
   20ae4:	fef42623          	sw	a5,-20(s0)
   20ae8:	ffe447b7          	lui	a5,0xffe44
   20aec:	00078713          	mv	a4,a5
   20af0:	000447b7          	lui	a5,0x44
   20af4:	7ee7b423          	sd	a4,2024(a5) # 447e8 <freelist_head>
   20af8:	ffe447b7          	lui	a5,0xffe44
   20afc:	3e078713          	addi	a4,a5,992 # ffffffffffe443e0 <_end+0xffffffffffdffbf0>
   20b00:	000447b7          	lui	a5,0x44
   20b04:	7ee7b023          	sd	a4,2016(a5) # 447e0 <freelist_tail>
   20b08:	fe043023          	sd	zero,-32(s0)
   20b0c:	0b40006f          	j	20bc0 <vm_boot+0x22c>
   20b10:	fec42783          	lw	a5,-20(s0)
   20b14:	03f7879b          	addiw	a5,a5,63
   20b18:	0007879b          	sext.w	a5,a5
   20b1c:	02079793          	slli	a5,a5,0x20
   20b20:	0207d793          	srli	a5,a5,0x20
   20b24:	00c79713          	slli	a4,a5,0xc
   20b28:	000447b7          	lui	a5,0x44
   20b2c:	fe043683          	ld	a3,-32(s0)
   20b30:	00469693          	slli	a3,a3,0x4
   20b34:	00078793          	mv	a5,a5
   20b38:	00f687b3          	add	a5,a3,a5
   20b3c:	00e7b023          	sd	a4,0(a5) # 44000 <freelist_nodes>
   20b40:	fe043783          	ld	a5,-32(s0)
   20b44:	00178793          	addi	a5,a5,1
   20b48:	00479713          	slli	a4,a5,0x4
   20b4c:	000447b7          	lui	a5,0x44
   20b50:	00078793          	mv	a5,a5
   20b54:	00f70733          	add	a4,a4,a5
   20b58:	ffe007b7          	lui	a5,0xffe00
   20b5c:	00f70733          	add	a4,a4,a5
   20b60:	000446b7          	lui	a3,0x44
   20b64:	fe043783          	ld	a5,-32(s0)
   20b68:	00068693          	mv	a3,a3
   20b6c:	00479793          	slli	a5,a5,0x4
   20b70:	00f687b3          	add	a5,a3,a5
   20b74:	00e7b423          	sd	a4,8(a5) # ffffffffffe00008 <_end+0xffffffffffdbb818>
   20b78:	fec42783          	lw	a5,-20(s0)
   20b7c:	0017d79b          	srliw	a5,a5,0x1
   20b80:	0007871b          	sext.w	a4,a5
   20b84:	fec42783          	lw	a5,-20(s0)
   20b88:	00e7c7b3          	xor	a5,a5,a4
   20b8c:	0007879b          	sext.w	a5,a5
   20b90:	0057979b          	slliw	a5,a5,0x5
   20b94:	0007879b          	sext.w	a5,a5
   20b98:	0207f793          	andi	a5,a5,32
   20b9c:	0007871b          	sext.w	a4,a5
   20ba0:	fec42783          	lw	a5,-20(s0)
   20ba4:	0017d79b          	srliw	a5,a5,0x1
   20ba8:	0007879b          	sext.w	a5,a5
   20bac:	00f767b3          	or	a5,a4,a5
   20bb0:	fef42623          	sw	a5,-20(s0)
   20bb4:	fe043783          	ld	a5,-32(s0)
   20bb8:	00178793          	addi	a5,a5,1
   20bbc:	fef43023          	sd	a5,-32(s0)
   20bc0:	fe043703          	ld	a4,-32(s0)
   20bc4:	03e00793          	li	a5,62
   20bc8:	f4e7d4e3          	ble	a4,a5,20b10 <vm_boot+0x17c>
   20bcc:	000447b7          	lui	a5,0x44
   20bd0:	00078793          	mv	a5,a5
   20bd4:	3e07b423          	sd	zero,1000(a5) # 443e8 <freelist_nodes+0x3e8>
   20bd8:	ea040793          	addi	a5,s0,-352
   20bdc:	12000613          	li	a2,288
   20be0:	00000593          	li	a1,0
   20be4:	00078513          	mv	a0,a5
   20be8:	110000ef          	jal	ra,20cf8 <memset>
   20bec:	e9843783          	ld	a5,-360(s0)
   20bf0:	faf43423          	sd	a5,-88(s0)
   20bf4:	000407b7          	lui	a5,0x40
   20bf8:	eaf43823          	sd	a5,-336(s0)
   20bfc:	ea040793          	addi	a5,s0,-352
   20c00:	00078513          	mv	a0,a5
   20c04:	c38df0ef          	jal	ra,3c <pop_tf>
   20c08:	00000013          	nop
   20c0c:	16813083          	ld	ra,360(sp)
   20c10:	16013403          	ld	s0,352(sp)
   20c14:	17010113          	addi	sp,sp,368
   20c18:	00008067          	ret

Disassembly of section .text.memcpy:

0000000000020c1c <memcpy>:
   20c1c:	fb010113          	addi	sp,sp,-80
   20c20:	04813423          	sd	s0,72(sp)
   20c24:	05010413          	addi	s0,sp,80
   20c28:	fca43423          	sd	a0,-56(s0)
   20c2c:	fcb43023          	sd	a1,-64(s0)
   20c30:	fac43c23          	sd	a2,-72(s0)
   20c34:	fc843703          	ld	a4,-56(s0)
   20c38:	fc043783          	ld	a5,-64(s0)
   20c3c:	00f76733          	or	a4,a4,a5
   20c40:	fb843783          	ld	a5,-72(s0)
   20c44:	00f767b3          	or	a5,a4,a5
   20c48:	0077f793          	andi	a5,a5,7
   20c4c:	04079863          	bnez	a5,20c9c <memcpy+0x80>
   20c50:	fc043783          	ld	a5,-64(s0)
   20c54:	fef43423          	sd	a5,-24(s0)
   20c58:	fc843783          	ld	a5,-56(s0)
   20c5c:	fef43023          	sd	a5,-32(s0)
   20c60:	0240006f          	j	20c84 <memcpy+0x68>
   20c64:	fe843703          	ld	a4,-24(s0)
   20c68:	00870793          	addi	a5,a4,8 # 3008 <trap_entry+0x2f44>
   20c6c:	fef43423          	sd	a5,-24(s0)
   20c70:	fe043783          	ld	a5,-32(s0)
   20c74:	00878693          	addi	a3,a5,8 # 40008 <pt+0x8>
   20c78:	fed43023          	sd	a3,-32(s0)
   20c7c:	00073703          	ld	a4,0(a4)
   20c80:	00e7b023          	sd	a4,0(a5)
   20c84:	fc843703          	ld	a4,-56(s0)
   20c88:	fb843783          	ld	a5,-72(s0)
   20c8c:	00f707b3          	add	a5,a4,a5
   20c90:	fe043703          	ld	a4,-32(s0)
   20c94:	fcf768e3          	bltu	a4,a5,20c64 <memcpy+0x48>
   20c98:	04c0006f          	j	20ce4 <memcpy+0xc8>
   20c9c:	fc043783          	ld	a5,-64(s0)
   20ca0:	fcf43c23          	sd	a5,-40(s0)
   20ca4:	fc843783          	ld	a5,-56(s0)
   20ca8:	fcf43823          	sd	a5,-48(s0)
   20cac:	0240006f          	j	20cd0 <memcpy+0xb4>
   20cb0:	fd843703          	ld	a4,-40(s0)
   20cb4:	00170793          	addi	a5,a4,1
   20cb8:	fcf43c23          	sd	a5,-40(s0)
   20cbc:	fd043783          	ld	a5,-48(s0)
   20cc0:	00178693          	addi	a3,a5,1
   20cc4:	fcd43823          	sd	a3,-48(s0)
   20cc8:	00074703          	lbu	a4,0(a4)
   20ccc:	00e78023          	sb	a4,0(a5)
   20cd0:	fc843703          	ld	a4,-56(s0)
   20cd4:	fb843783          	ld	a5,-72(s0)
   20cd8:	00f707b3          	add	a5,a4,a5
   20cdc:	fd043703          	ld	a4,-48(s0)
   20ce0:	fcf768e3          	bltu	a4,a5,20cb0 <memcpy+0x94>
   20ce4:	fc843783          	ld	a5,-56(s0)
   20ce8:	00078513          	mv	a0,a5
   20cec:	04813403          	ld	s0,72(sp)
   20cf0:	05010113          	addi	sp,sp,80
   20cf4:	00008067          	ret

Disassembly of section .text.memset:

0000000000020cf8 <memset>:
   20cf8:	fb010113          	addi	sp,sp,-80
   20cfc:	04813423          	sd	s0,72(sp)
   20d00:	05010413          	addi	s0,sp,80
   20d04:	fca43423          	sd	a0,-56(s0)
   20d08:	00058793          	mv	a5,a1
   20d0c:	fac43c23          	sd	a2,-72(s0)
   20d10:	fcf42223          	sw	a5,-60(s0)
   20d14:	fc843703          	ld	a4,-56(s0)
   20d18:	fb843783          	ld	a5,-72(s0)
   20d1c:	00f767b3          	or	a5,a4,a5
   20d20:	0077f793          	andi	a5,a5,7
   20d24:	08079263          	bnez	a5,20da8 <memset+0xb0>
   20d28:	fc442783          	lw	a5,-60(s0)
   20d2c:	0ff7f793          	andi	a5,a5,255
   20d30:	fcf43c23          	sd	a5,-40(s0)
   20d34:	fd843783          	ld	a5,-40(s0)
   20d38:	00879793          	slli	a5,a5,0x8
   20d3c:	fd843703          	ld	a4,-40(s0)
   20d40:	00f767b3          	or	a5,a4,a5
   20d44:	fcf43c23          	sd	a5,-40(s0)
   20d48:	fd843783          	ld	a5,-40(s0)
   20d4c:	01079793          	slli	a5,a5,0x10
   20d50:	fd843703          	ld	a4,-40(s0)
   20d54:	00f767b3          	or	a5,a4,a5
   20d58:	fcf43c23          	sd	a5,-40(s0)
   20d5c:	fd843783          	ld	a5,-40(s0)
   20d60:	02079793          	slli	a5,a5,0x20
   20d64:	fd843703          	ld	a4,-40(s0)
   20d68:	00f767b3          	or	a5,a4,a5
   20d6c:	fcf43c23          	sd	a5,-40(s0)
   20d70:	fc843783          	ld	a5,-56(s0)
   20d74:	fef43423          	sd	a5,-24(s0)
   20d78:	0180006f          	j	20d90 <memset+0x98>
   20d7c:	fe843783          	ld	a5,-24(s0)
   20d80:	00878713          	addi	a4,a5,8
   20d84:	fee43423          	sd	a4,-24(s0)
   20d88:	fd843703          	ld	a4,-40(s0)
   20d8c:	00e7b023          	sd	a4,0(a5)
   20d90:	fc843703          	ld	a4,-56(s0)
   20d94:	fb843783          	ld	a5,-72(s0)
   20d98:	00f707b3          	add	a5,a4,a5
   20d9c:	fe843703          	ld	a4,-24(s0)
   20da0:	fcf76ee3          	bltu	a4,a5,20d7c <memset+0x84>
   20da4:	03c0006f          	j	20de0 <memset+0xe8>
   20da8:	fc843783          	ld	a5,-56(s0)
   20dac:	fef43023          	sd	a5,-32(s0)
   20db0:	01c0006f          	j	20dcc <memset+0xd4>
   20db4:	fe043783          	ld	a5,-32(s0)
   20db8:	00178713          	addi	a4,a5,1
   20dbc:	fee43023          	sd	a4,-32(s0)
   20dc0:	fc442703          	lw	a4,-60(s0)
   20dc4:	0ff77713          	andi	a4,a4,255
   20dc8:	00e78023          	sb	a4,0(a5)
   20dcc:	fc843703          	ld	a4,-56(s0)
   20dd0:	fb843783          	ld	a5,-72(s0)
   20dd4:	00f707b3          	add	a5,a4,a5
   20dd8:	fe043703          	ld	a4,-32(s0)
   20ddc:	fcf76ce3          	bltu	a4,a5,20db4 <memset+0xbc>
   20de0:	fc843783          	ld	a5,-56(s0)
   20de4:	00078513          	mv	a0,a5
   20de8:	04813403          	ld	s0,72(sp)
   20dec:	05010113          	addi	sp,sp,80
   20df0:	00008067          	ret

Disassembly of section .text.strlen:

0000000000020df4 <strlen>:
   20df4:	fd010113          	addi	sp,sp,-48
   20df8:	02813423          	sd	s0,40(sp)
   20dfc:	03010413          	addi	s0,sp,48
   20e00:	fca43c23          	sd	a0,-40(s0)
   20e04:	fd843783          	ld	a5,-40(s0)
   20e08:	fef43423          	sd	a5,-24(s0)
   20e0c:	0100006f          	j	20e1c <strlen+0x28>
   20e10:	fe843783          	ld	a5,-24(s0)
   20e14:	00178793          	addi	a5,a5,1
   20e18:	fef43423          	sd	a5,-24(s0)
   20e1c:	fe843783          	ld	a5,-24(s0)
   20e20:	0007c783          	lbu	a5,0(a5)
   20e24:	fe0796e3          	bnez	a5,20e10 <strlen+0x1c>
   20e28:	fe843703          	ld	a4,-24(s0)
   20e2c:	fd843783          	ld	a5,-40(s0)
   20e30:	40f707b3          	sub	a5,a4,a5
   20e34:	00078513          	mv	a0,a5
   20e38:	02813403          	ld	s0,40(sp)
   20e3c:	03010113          	addi	sp,sp,48
   20e40:	00008067          	ret

Disassembly of section .text.strcmp:

0000000000020e44 <strcmp>:
   20e44:	fd010113          	addi	sp,sp,-48
   20e48:	02813423          	sd	s0,40(sp)
   20e4c:	03010413          	addi	s0,sp,48
   20e50:	fca43c23          	sd	a0,-40(s0)
   20e54:	fcb43823          	sd	a1,-48(s0)
   20e58:	fd843783          	ld	a5,-40(s0)
   20e5c:	00178713          	addi	a4,a5,1
   20e60:	fce43c23          	sd	a4,-40(s0)
   20e64:	0007c783          	lbu	a5,0(a5)
   20e68:	fef407a3          	sb	a5,-17(s0)
   20e6c:	fd043783          	ld	a5,-48(s0)
   20e70:	00178713          	addi	a4,a5,1
   20e74:	fce43823          	sd	a4,-48(s0)
   20e78:	0007c783          	lbu	a5,0(a5)
   20e7c:	fef40723          	sb	a5,-18(s0)
   20e80:	fef44783          	lbu	a5,-17(s0)
   20e84:	0ff7f793          	andi	a5,a5,255
   20e88:	00078c63          	beqz	a5,20ea0 <strcmp+0x5c>
   20e8c:	fef44703          	lbu	a4,-17(s0)
   20e90:	fee44783          	lbu	a5,-18(s0)
   20e94:	0ff77713          	andi	a4,a4,255
   20e98:	0ff7f793          	andi	a5,a5,255
   20e9c:	faf70ee3          	beq	a4,a5,20e58 <strcmp+0x14>
   20ea0:	fef44783          	lbu	a5,-17(s0)
   20ea4:	0007871b          	sext.w	a4,a5
   20ea8:	fee44783          	lbu	a5,-18(s0)
   20eac:	0007879b          	sext.w	a5,a5
   20eb0:	40f707bb          	subw	a5,a4,a5
   20eb4:	0007879b          	sext.w	a5,a5
   20eb8:	00078513          	mv	a0,a5
   20ebc:	02813403          	ld	s0,40(sp)
   20ec0:	03010113          	addi	sp,sp,48
   20ec4:	00008067          	ret

Disassembly of section .text.memcmp:

0000000000020ec8 <memcmp>:
   20ec8:	fb010113          	addi	sp,sp,-80
   20ecc:	04813423          	sd	s0,72(sp)
   20ed0:	05010413          	addi	s0,sp,80
   20ed4:	fca43423          	sd	a0,-56(s0)
   20ed8:	fcb43023          	sd	a1,-64(s0)
   20edc:	fac43c23          	sd	a2,-72(s0)
   20ee0:	fc843703          	ld	a4,-56(s0)
   20ee4:	fc043783          	ld	a5,-64(s0)
   20ee8:	00f767b3          	or	a5,a4,a5
   20eec:	0077f793          	andi	a5,a5,7
   20ef0:	0e079a63          	bnez	a5,20fe4 <memcmp+0x11c>
   20ef4:	fc843783          	ld	a5,-56(s0)
   20ef8:	fef43423          	sd	a5,-24(s0)
   20efc:	fc043783          	ld	a5,-64(s0)
   20f00:	fef43023          	sd	a5,-32(s0)
   20f04:	fb843783          	ld	a5,-72(s0)
   20f08:	ff87f793          	andi	a5,a5,-8
   20f0c:	fe843703          	ld	a4,-24(s0)
   20f10:	00f707b3          	add	a5,a4,a5
   20f14:	fcf43c23          	sd	a5,-40(s0)
   20f18:	0300006f          	j	20f48 <memcmp+0x80>
   20f1c:	fe843783          	ld	a5,-24(s0)
   20f20:	0007b703          	ld	a4,0(a5)
   20f24:	fe043783          	ld	a5,-32(s0)
   20f28:	0007b783          	ld	a5,0(a5)
   20f2c:	02f71663          	bne	a4,a5,20f58 <memcmp+0x90>
   20f30:	fe843783          	ld	a5,-24(s0)
   20f34:	00878793          	addi	a5,a5,8
   20f38:	fef43423          	sd	a5,-24(s0)
   20f3c:	fe043783          	ld	a5,-32(s0)
   20f40:	00878793          	addi	a5,a5,8
   20f44:	fef43023          	sd	a5,-32(s0)
   20f48:	fe843703          	ld	a4,-24(s0)
   20f4c:	fd843783          	ld	a5,-40(s0)
   20f50:	fcf766e3          	bltu	a4,a5,20f1c <memcmp+0x54>
   20f54:	0080006f          	j	20f5c <memcmp+0x94>
   20f58:	00000013          	nop
   20f5c:	fe843703          	ld	a4,-24(s0)
   20f60:	fc843783          	ld	a5,-56(s0)
   20f64:	40f707b3          	sub	a5,a4,a5
   20f68:	00078713          	mv	a4,a5
   20f6c:	fb843783          	ld	a5,-72(s0)
   20f70:	40e787b3          	sub	a5,a5,a4
   20f74:	faf43c23          	sd	a5,-72(s0)
   20f78:	fe843783          	ld	a5,-24(s0)
   20f7c:	fcf43423          	sd	a5,-56(s0)
   20f80:	fe043783          	ld	a5,-32(s0)
   20f84:	fcf43023          	sd	a5,-64(s0)
   20f88:	05c0006f          	j	20fe4 <memcmp+0x11c>
   20f8c:	fc843783          	ld	a5,-56(s0)
   20f90:	00178713          	addi	a4,a5,1
   20f94:	fce43423          	sd	a4,-56(s0)
   20f98:	0007c783          	lbu	a5,0(a5)
   20f9c:	fcf40ba3          	sb	a5,-41(s0)
   20fa0:	fc043783          	ld	a5,-64(s0)
   20fa4:	00178713          	addi	a4,a5,1
   20fa8:	fce43023          	sd	a4,-64(s0)
   20fac:	0007c783          	lbu	a5,0(a5)
   20fb0:	fcf40b23          	sb	a5,-42(s0)
   20fb4:	fd744703          	lbu	a4,-41(s0)
   20fb8:	fd644783          	lbu	a5,-42(s0)
   20fbc:	0ff77713          	andi	a4,a4,255
   20fc0:	0ff7f793          	andi	a5,a5,255
   20fc4:	02f70063          	beq	a4,a5,20fe4 <memcmp+0x11c>
   20fc8:	fd744783          	lbu	a5,-41(s0)
   20fcc:	0007871b          	sext.w	a4,a5
   20fd0:	fd644783          	lbu	a5,-42(s0)
   20fd4:	0007879b          	sext.w	a5,a5
   20fd8:	40f707bb          	subw	a5,a4,a5
   20fdc:	0007879b          	sext.w	a5,a5
   20fe0:	0180006f          	j	20ff8 <memcmp+0x130>
   20fe4:	fb843783          	ld	a5,-72(s0)
   20fe8:	fff78713          	addi	a4,a5,-1
   20fec:	fae43c23          	sd	a4,-72(s0)
   20ff0:	f8079ee3          	bnez	a5,20f8c <memcmp+0xc4>
   20ff4:	00000793          	li	a5,0
   20ff8:	00078513          	mv	a0,a5
   20ffc:	04813403          	ld	s0,72(sp)
   21000:	05010113          	addi	sp,sp,80
   21004:	00008067          	ret

Disassembly of section .text.strcpy:

0000000000021008 <strcpy>:
   21008:	fd010113          	addi	sp,sp,-48
   2100c:	02813423          	sd	s0,40(sp)
   21010:	03010413          	addi	s0,sp,48
   21014:	fca43c23          	sd	a0,-40(s0)
   21018:	fcb43823          	sd	a1,-48(s0)
   2101c:	fd843783          	ld	a5,-40(s0)
   21020:	fef43423          	sd	a5,-24(s0)
   21024:	00000013          	nop
   21028:	fd043703          	ld	a4,-48(s0)
   2102c:	00170793          	addi	a5,a4,1
   21030:	fcf43823          	sd	a5,-48(s0)
   21034:	fe843783          	ld	a5,-24(s0)
   21038:	00178693          	addi	a3,a5,1
   2103c:	fed43423          	sd	a3,-24(s0)
   21040:	00074703          	lbu	a4,0(a4)
   21044:	00e78023          	sb	a4,0(a5)
   21048:	0007c783          	lbu	a5,0(a5)
   2104c:	fc079ee3          	bnez	a5,21028 <strcpy+0x20>
   21050:	fd843783          	ld	a5,-40(s0)
   21054:	00078513          	mv	a0,a5
   21058:	02813403          	ld	s0,40(sp)
   2105c:	03010113          	addi	sp,sp,48
   21060:	00008067          	ret

Disassembly of section .text.atol:

0000000000021064 <atol>:
   21064:	fd010113          	addi	sp,sp,-48
   21068:	02813423          	sd	s0,40(sp)
   2106c:	03010413          	addi	s0,sp,48
   21070:	fca43c23          	sd	a0,-40(s0)
   21074:	fe043423          	sd	zero,-24(s0)
   21078:	fe042223          	sw	zero,-28(s0)
   2107c:	0100006f          	j	2108c <atol+0x28>
   21080:	fd843783          	ld	a5,-40(s0)
   21084:	00178793          	addi	a5,a5,1
   21088:	fcf43c23          	sd	a5,-40(s0)
   2108c:	fd843783          	ld	a5,-40(s0)
   21090:	0007c783          	lbu	a5,0(a5)
   21094:	00078713          	mv	a4,a5
   21098:	02000793          	li	a5,32
   2109c:	fef702e3          	beq	a4,a5,21080 <atol+0x1c>
   210a0:	fd843783          	ld	a5,-40(s0)
   210a4:	0007c783          	lbu	a5,0(a5)
   210a8:	00078713          	mv	a4,a5
   210ac:	02d00793          	li	a5,45
   210b0:	00f70c63          	beq	a4,a5,210c8 <atol+0x64>
   210b4:	fd843783          	ld	a5,-40(s0)
   210b8:	0007c783          	lbu	a5,0(a5)
   210bc:	00078713          	mv	a4,a5
   210c0:	02b00793          	li	a5,43
   210c4:	06f71c63          	bne	a4,a5,2113c <atol+0xd8>
   210c8:	fd843783          	ld	a5,-40(s0)
   210cc:	0007c783          	lbu	a5,0(a5)
   210d0:	0007871b          	sext.w	a4,a5
   210d4:	02d00793          	li	a5,45
   210d8:	40f707b3          	sub	a5,a4,a5
   210dc:	0017b793          	seqz	a5,a5
   210e0:	0ff7f793          	andi	a5,a5,255
   210e4:	fef42223          	sw	a5,-28(s0)
   210e8:	fd843783          	ld	a5,-40(s0)
   210ec:	00178793          	addi	a5,a5,1
   210f0:	fcf43c23          	sd	a5,-40(s0)
   210f4:	0480006f          	j	2113c <atol+0xd8>
   210f8:	fe843703          	ld	a4,-24(s0)
   210fc:	00070793          	mv	a5,a4
   21100:	00279793          	slli	a5,a5,0x2
   21104:	00e787b3          	add	a5,a5,a4
   21108:	00179793          	slli	a5,a5,0x1
   2110c:	fef43423          	sd	a5,-24(s0)
   21110:	fd843783          	ld	a5,-40(s0)
   21114:	00178713          	addi	a4,a5,1
   21118:	fce43c23          	sd	a4,-40(s0)
   2111c:	0007c783          	lbu	a5,0(a5)
   21120:	0007879b          	sext.w	a5,a5
   21124:	fd07879b          	addiw	a5,a5,-48
   21128:	0007879b          	sext.w	a5,a5
   2112c:	00078713          	mv	a4,a5
   21130:	fe843783          	ld	a5,-24(s0)
   21134:	00e787b3          	add	a5,a5,a4
   21138:	fef43423          	sd	a5,-24(s0)
   2113c:	fd843783          	ld	a5,-40(s0)
   21140:	0007c783          	lbu	a5,0(a5)
   21144:	fa079ae3          	bnez	a5,210f8 <atol+0x94>
   21148:	fe442783          	lw	a5,-28(s0)
   2114c:	0007879b          	sext.w	a5,a5
   21150:	00078863          	beqz	a5,21160 <atol+0xfc>
   21154:	fe843783          	ld	a5,-24(s0)
   21158:	40f007b3          	neg	a5,a5
   2115c:	0080006f          	j	21164 <atol+0x100>
   21160:	fe843783          	ld	a5,-24(s0)
   21164:	00078513          	mv	a0,a5
   21168:	02813403          	ld	s0,40(sp)
   2116c:	03010113          	addi	sp,sp,48
   21170:	00008067          	ret

Disassembly of section .rodata:

0000000000021178 <.rodata>:
   21178:	7341                	lui	t1,0xffff0
   2117a:	74726573          	csrrsi	a0,0x747,4
   2117e:	6f69                	lui	t5,0x1a
   21180:	206e                	fld	ft0,216(sp)
   21182:	6166                	ld	sp,88(sp)
   21184:	6c69                	lui	s8,0x1a
   21186:	6465                	lui	s0,0x19
   21188:	203a                	fld	ft0,392(sp)
   2118a:	6461                	lui	s0,0x18
   2118c:	7264                	ld	s1,224(a2)
   2118e:	3e20                	fld	fs0,120(a2)
   21190:	203d                	0x203d
   21192:	3128                	fld	fa0,96(a0)
   21194:	4c55                	li	s8,21
   21196:	3c20                	fld	fs0,120(s0)
   21198:	203c                	fld	fa5,64(s0)
   2119a:	3231                	addiw	tp,tp,-20
   2119c:	2029                	0x2029
   2119e:	2626                	fld	fa2,72(sp)
   211a0:	6120                	ld	s0,64(a0)
   211a2:	6464                	ld	s1,200(s0)
   211a4:	2072                	fld	ft0,280(sp)
   211a6:	203c                	fld	fa5,64(s0)
   211a8:	3336                	fld	ft6,360(sp)
   211aa:	2a20                	fld	fs0,80(a2)
   211ac:	2820                	fld	fs0,80(s0)
   211ae:	5531                	li	a0,-20
   211b0:	204c                	fld	fa1,128(s0)
   211b2:	3c3c                	fld	fa5,120(s0)
   211b4:	3120                	fld	fs0,96(a0)
   211b6:	2932                	fld	fs2,264(sp)
   211b8:	000a                	0xa
   211ba:	0000                	unimp
   211bc:	0000                	unimp
   211be:	0000                	unimp
   211c0:	7341                	lui	t1,0xffff0
   211c2:	74726573          	csrrsi	a0,0x747,4
   211c6:	6f69                	lui	t5,0x1a
   211c8:	206e                	fld	ft0,216(sp)
   211ca:	6166                	ld	sp,88(sp)
   211cc:	6c69                	lui	s8,0x1a
   211ce:	6465                	lui	s0,0x19
   211d0:	203a                	fld	ft0,392(sp)
   211d2:	7470                	ld	a2,232(s0)
   211d4:	5b5d335b          	0x5b5d335b
   211d8:	6461                	lui	s0,0x18
   211da:	7264                	ld	s1,224(a2)
   211dc:	5531282f          	0x5531282f
   211e0:	204c                	fld	fa1,128(s0)
   211e2:	3c3c                	fld	fa5,120(s0)
   211e4:	3120                	fld	fs0,96(a0)
   211e6:	2932                	fld	fs2,264(sp)
   211e8:	205d                	0x205d
   211ea:	2026                	fld	ft0,72(sp)
   211ec:	7830                	ld	a2,112(s0)
   211ee:	3430                	fld	fa2,104(s0)
   211f0:	0a30                	addi	a2,sp,280
   211f2:	0000                	unimp
   211f4:	0000                	unimp
   211f6:	0000                	unimp
   211f8:	7341                	lui	t1,0xffff0
   211fa:	74726573          	csrrsi	a0,0x747,4
   211fe:	6f69                	lui	t5,0x1a
   21200:	206e                	fld	ft0,216(sp)
   21202:	6166                	ld	sp,88(sp)
   21204:	6c69                	lui	s8,0x1a
   21206:	6465                	lui	s0,0x19
   21208:	203a                	fld	ft0,392(sp)
   2120a:	7470                	ld	a2,232(s0)
   2120c:	5b5d335b          	0x5b5d335b
   21210:	6461                	lui	s0,0x18
   21212:	7264                	ld	s1,224(a2)
   21214:	5531282f          	0x5531282f
   21218:	204c                	fld	fa1,128(s0)
   2121a:	3c3c                	fld	fa5,120(s0)
   2121c:	3120                	fld	fs0,96(a0)
   2121e:	2932                	fld	fs2,264(sp)
   21220:	205d                	0x205d
   21222:	2026                	fld	ft0,72(sp)
   21224:	7830                	ld	a2,112(s0)
   21226:	3830                	fld	fa2,112(s0)
   21228:	0a30                	addi	a2,sp,280
   2122a:	0000                	unimp
   2122c:	0000                	unimp
   2122e:	0000                	unimp
   21230:	7341                	lui	t1,0xffff0
   21232:	74726573          	csrrsi	a0,0x747,4
   21236:	6f69                	lui	t5,0x1a
   21238:	206e                	fld	ft0,216(sp)
   2123a:	6166                	ld	sp,88(sp)
   2123c:	6c69                	lui	s8,0x1a
   2123e:	6465                	lui	s0,0x19
   21240:	203a                	fld	ft0,392(sp)
   21242:	2821                	addiw	a6,a6,8
   21244:	7470                	ld	a2,232(s0)
   21246:	5b5d335b          	0x5b5d335b
   2124a:	6461                	lui	s0,0x18
   2124c:	7264                	ld	s1,224(a2)
   2124e:	5531282f          	0x5531282f
   21252:	204c                	fld	fa1,128(s0)
   21254:	3c3c                	fld	fa5,120(s0)
   21256:	3120                	fld	fs0,96(a0)
   21258:	2932                	fld	fs2,264(sp)
   2125a:	205d                	0x205d
   2125c:	2026                	fld	ft0,72(sp)
   2125e:	7830                	ld	a2,112(s0)
   21260:	3830                	fld	fa2,112(s0)
   21262:	2930                	fld	fa2,80(a0)
   21264:	2620                	fld	fs0,72(a2)
   21266:	2026                	fld	ft0,72(sp)
   21268:	73756163          	bltu	a0,s7,2198a <atol+0x926>
   2126c:	2065                	0x2065
   2126e:	3d3d                	addiw	s10,s10,-17
   21270:	3020                	fld	fs0,96(s0)
   21272:	6678                	ld	a4,200(a2)
   21274:	000a                	0xa
   21276:	0000                	unimp
   21278:	7341                	lui	t1,0xffff0
   2127a:	74726573          	csrrsi	a0,0x747,4
   2127e:	6f69                	lui	t5,0x1a
   21280:	206e                	fld	ft0,216(sp)
   21282:	6166                	ld	sp,88(sp)
   21284:	6c69                	lui	s8,0x1a
   21286:	6465                	lui	s0,0x19
   21288:	203a                	fld	ft0,392(sp)
   2128a:	6f6e                	ld	t5,216(sp)
   2128c:	6564                	ld	s1,200(a0)
   2128e:	000a                	0xa
   21290:	7341                	lui	t1,0xffff0
   21292:	74726573          	csrrsi	a0,0x747,4
   21296:	6f69                	lui	t5,0x1a
   21298:	206e                	fld	ft0,216(sp)
   2129a:	6166                	ld	sp,88(sp)
   2129c:	6c69                	lui	s8,0x1a
   2129e:	6465                	lui	s0,0x19
   212a0:	203a                	fld	ft0,392(sp)
   212a2:	7375                	lui	t1,0xffffd
   212a4:	7265                	lui	tp,0xffff9
   212a6:	6d5f 7061 6970      	0x697070616d5f
   212ac:	676e                	ld	a4,216(sp)
   212ae:	6464615b          	0x6464615b
   212b2:	2f72                	fld	ft10,280(sp)
   212b4:	3128                	fld	fa0,96(a0)
   212b6:	4c55                	li	s8,21
   212b8:	3c20                	fld	fs0,120(s0)
   212ba:	203c                	fld	fa5,64(s0)
   212bc:	3231                	addiw	tp,tp,-20
   212be:	5d29                	li	s10,-22
   212c0:	612e                	ld	sp,200(sp)
   212c2:	6464                	ld	s1,200(s0)
   212c4:	2072                	fld	ft0,280(sp)
   212c6:	3d3d                	addiw	s10,s10,-17
   212c8:	3020                	fld	fs0,96(s0)
   212ca:	000a                	0xa
   212cc:	0000                	unimp
   212ce:	0000                	unimp
   212d0:	7341                	lui	t1,0xffff0
   212d2:	74726573          	csrrsi	a0,0x747,4
   212d6:	6f69                	lui	t5,0x1a
   212d8:	206e                	fld	ft0,216(sp)
   212da:	6166                	ld	sp,88(sp)
   212dc:	6c69                	lui	s8,0x1a
   212de:	6465                	lui	s0,0x19
   212e0:	203a                	fld	ft0,392(sp)
   212e2:	6674                	ld	a3,200(a2)
   212e4:	3e2d                	addiw	t3,t3,-21
   212e6:	7065                	0x7065
   212e8:	20252063          	0x20252063
   212ec:	2034                	fld	fa3,64(s0)
   212ee:	3d3d                	addiw	s10,s10,-17
   212f0:	3020                	fld	fs0,96(s0)
   212f2:	000a                	0xa
   212f4:	0000                	unimp
   212f6:	0000                	unimp
   212f8:	7341                	lui	t1,0xffff0
   212fa:	74726573          	csrrsi	a0,0x747,4
   212fe:	6f69                	lui	t5,0x1a
   21300:	206e                	fld	ft0,216(sp)
   21302:	6166                	ld	sp,88(sp)
   21304:	6c69                	lui	s8,0x1a
   21306:	6465                	lui	s0,0x19
   21308:	203a                	fld	ft0,392(sp)
   2130a:	2221                	addiw	tp,tp,8
   2130c:	6c69                	lui	s8,0x1a
   2130e:	656c                	ld	a1,200(a0)
   21310:	206c6167          	0x206c6167
   21314:	6e69                	lui	t3,0x1a
   21316:	75727473          	csrrci	s0,0x757,4
   2131a:	6f697463          	bleu	s6,s2,21a02 <atol+0x99e>
   2131e:	226e                	fld	ft4,216(sp)
   21320:	000a                	0xa
   21322:	0000                	unimp
   21324:	0000                	unimp
   21326:	0000                	unimp
   21328:	7341                	lui	t1,0xffff0
   2132a:	74726573          	csrrsi	a0,0x747,4
   2132e:	6f69                	lui	t5,0x1a
   21330:	206e                	fld	ft0,216(sp)
   21332:	6166                	ld	sp,88(sp)
   21334:	6c69                	lui	s8,0x1a
   21336:	6465                	lui	s0,0x19
   21338:	203a                	fld	ft0,392(sp)
   2133a:	2221                	addiw	tp,tp,8
   2133c:	6e75                	lui	t3,0x1d
   2133e:	7865                	lui	a6,0xffff9
   21340:	6570                	ld	a2,200(a0)
   21342:	64657463          	bleu	t1,a0,2198a <atol+0x926>
   21346:	6520                	ld	s0,72(a0)
   21348:	6378                	ld	a4,192(a4)
   2134a:	7065                	0x7065
   2134c:	6974                	ld	a3,208(a0)
   2134e:	0a226e6f          	jal	t3,473f0 <_end+0x2c00>
	...

Disassembly of section .bss:

0000000000040000 <pt>:
	...

0000000000044000 <freelist_nodes>:
	...

00000000000443f0 <user_mapping>:
	...

00000000000447e0 <freelist_tail>:
	...

00000000000447e8 <freelist_head>:
	...

Disassembly of section .comment:

0000000000000000 <.comment>:
   0:	3a434347          	fmsub.d	ft6,ft6,ft4,ft7,rmm
   4:	2820                	fld	fs0,80(s0)
   6:	29554e47          	fmsub.s	ft8,fa0,fs5,ft5,rmm
   a:	3720                	fld	fs0,104(a4)
   c:	312e                	fld	ft2,232(sp)
   e:	312e                	fld	ft2,232(sp)
  10:	3220                	fld	fs0,96(a2)
  12:	3130                	fld	fa2,96(a0)
  14:	30353037          	lui	zero,0x30353
  18:	0039                	c.addi	zero,14
