
hello_new:     file format elf64-littleriscv


Disassembly of section .text:

00000000000100b0 <_start>:
   100b0:	00002197          	auipc	gp,0x2
   100b4:	ea818193          	addi	gp,gp,-344 # 11f58 <__global_pointer$>
   100b8:	00001517          	auipc	a0,0x1
   100bc:	6b850513          	addi	a0,a0,1720 # 11770 <_edata>
   100c0:	00001617          	auipc	a2,0x1
   100c4:	70060613          	addi	a2,a2,1792 # 117c0 <_end>
   100c8:	8e09                	sub	a2,a2,a0
   100ca:	4581                	li	a1,0
   100cc:	648000ef          	jal	ra,10714 <memset>
   100d0:	00000517          	auipc	a0,0x0
   100d4:	59a50513          	addi	a0,a0,1434 # 1066a <__libc_fini_array>
   100d8:	566000ef          	jal	ra,1063e <atexit>
   100dc:	5d6000ef          	jal	ra,106b2 <__libc_init_array>
   100e0:	4502                	lw	a0,0(sp)
   100e2:	002c                	addi	a1,sp,8
   100e4:	4601                	li	a2,0
   100e6:	0be000ef          	jal	ra,101a4 <main>
   100ea:	5600006f          	j	1064a <exit>

00000000000100ee <_fini>:
   100ee:	8082                	ret

00000000000100f0 <deregister_tm_clones>:
   100f0:	6545                	lui	a0,0x11
   100f2:	67c5                	lui	a5,0x11
   100f4:	75850713          	addi	a4,a0,1880 # 11758 <__TMC_END__>
   100f8:	75878793          	addi	a5,a5,1880 # 11758 <__TMC_END__>
   100fc:	00e78b63          	beq	a5,a4,10112 <deregister_tm_clones+0x22>
   10100:	00000337          	lui	t1,0x0
   10104:	00030313          	mv	t1,t1
   10108:	00030563          	beqz	t1,10112 <deregister_tm_clones+0x22>
   1010c:	75850513          	addi	a0,a0,1880
   10110:	8302                	jr	t1
   10112:	8082                	ret

0000000000010114 <register_tm_clones>:
   10114:	67c5                	lui	a5,0x11
   10116:	6545                	lui	a0,0x11
   10118:	75878593          	addi	a1,a5,1880 # 11758 <__TMC_END__>
   1011c:	75850793          	addi	a5,a0,1880 # 11758 <__TMC_END__>
   10120:	8d9d                	sub	a1,a1,a5
   10122:	858d                	srai	a1,a1,0x3
   10124:	4789                	li	a5,2
   10126:	02f5c5b3          	div	a1,a1,a5
   1012a:	c991                	beqz	a1,1013e <register_tm_clones+0x2a>
   1012c:	00000337          	lui	t1,0x0
   10130:	00030313          	mv	t1,t1
   10134:	00030563          	beqz	t1,1013e <register_tm_clones+0x2a>
   10138:	75850513          	addi	a0,a0,1880
   1013c:	8302                	jr	t1
   1013e:	8082                	ret

0000000000010140 <__do_global_dtors_aux>:
   10140:	8201c703          	lbu	a4,-2016(gp) # 11778 <completed.5184>
   10144:	eb15                	bnez	a4,10178 <__do_global_dtors_aux+0x38>
   10146:	1141                	addi	sp,sp,-16
   10148:	e022                	sd	s0,0(sp)
   1014a:	e406                	sd	ra,8(sp)
   1014c:	843e                	mv	s0,a5
   1014e:	fa3ff0ef          	jal	ra,100f0 <deregister_tm_clones>
   10152:	000007b7          	lui	a5,0x0
   10156:	00078793          	mv	a5,a5
   1015a:	cb81                	beqz	a5,1016a <__do_global_dtors_aux+0x2a>
   1015c:	6545                	lui	a0,0x11
   1015e:	cd450513          	addi	a0,a0,-812 # 10cd4 <__EH_FRAME_BEGIN__>
   10162:	ffff0097          	auipc	ra,0xffff0
   10166:	e9e080e7          	jalr	-354(ra) # 0 <_start-0x100b0>
   1016a:	4785                	li	a5,1
   1016c:	82f18023          	sb	a5,-2016(gp) # 11778 <completed.5184>
   10170:	60a2                	ld	ra,8(sp)
   10172:	6402                	ld	s0,0(sp)
   10174:	0141                	addi	sp,sp,16
   10176:	8082                	ret
   10178:	8082                	ret

000000000001017a <frame_dummy>:
   1017a:	000007b7          	lui	a5,0x0
   1017e:	00078793          	mv	a5,a5
   10182:	cf99                	beqz	a5,101a0 <frame_dummy+0x26>
   10184:	65c5                	lui	a1,0x11
   10186:	6545                	lui	a0,0x11
   10188:	1141                	addi	sp,sp,-16
   1018a:	78058593          	addi	a1,a1,1920 # 11780 <object.5189>
   1018e:	cd450513          	addi	a0,a0,-812 # 10cd4 <__EH_FRAME_BEGIN__>
   10192:	e406                	sd	ra,8(sp)
   10194:	ffff0097          	auipc	ra,0xffff0
   10198:	e6c080e7          	jalr	-404(ra) # 0 <_start-0x100b0>
   1019c:	60a2                	ld	ra,8(sp)
   1019e:	0141                	addi	sp,sp,16
   101a0:	f75ff06f          	j	10114 <register_tm_clones>

00000000000101a4 <main>:
   101a4:	1141                	addi	sp,sp,-16
   101a6:	e406                	sd	ra,8(sp)
   101a8:	e022                	sd	s0,0(sp)
   101aa:	0800                	addi	s0,sp,16
   101ac:	00001517          	auipc	a0,0x1
   101b0:	af450513          	addi	a0,a0,-1292 # 10ca0 <__errno+0xc>
   101b4:	1ac000ef          	jal	ra,10360 <hprintf>
   101b8:	a001                	j	101b8 <main+0x14>

00000000000101ba <hprintf_c>:
   101ba:	7179                	addi	sp,sp,-48
   101bc:	f422                	sd	s0,40(sp)
   101be:	1800                	addi	s0,sp,48
   101c0:	87aa                	mv	a5,a0
   101c2:	fcf42e23          	sw	a5,-36(s0)
   101c6:	380007b7          	lui	a5,0x38000
   101ca:	40b78793          	addi	a5,a5,1035 # 3800040b <__global_pointer$+0x37fee4b3>
   101ce:	078a                	slli	a5,a5,0x2
   101d0:	fef43423          	sd	a5,-24(s0)
   101d4:	0001                	nop
   101d6:	fe843783          	ld	a5,-24(s0)
   101da:	439c                	lw	a5,0(a5)
   101dc:	2781                	sext.w	a5,a5
   101de:	8bc1                	andi	a5,a5,16
   101e0:	2781                	sext.w	a5,a5
   101e2:	873e                	mv	a4,a5
   101e4:	47c1                	li	a5,16
   101e6:	fef708e3          	beq	a4,a5,101d6 <hprintf_c+0x1c>
   101ea:	0e0007b7          	lui	a5,0xe000
   101ee:	10378793          	addi	a5,a5,259 # e000103 <__global_pointer$+0xdfee1ab>
   101f2:	0792                	slli	a5,a5,0x4
   101f4:	fdc42703          	lw	a4,-36(s0)
   101f8:	c398                	sw	a4,0(a5)
   101fa:	0001                	nop
   101fc:	7422                	ld	s0,40(sp)
   101fe:	6145                	addi	sp,sp,48
   10200:	8082                	ret

0000000000010202 <hprintf_s>:
   10202:	1101                	addi	sp,sp,-32
   10204:	ec06                	sd	ra,24(sp)
   10206:	e822                	sd	s0,16(sp)
   10208:	1000                	addi	s0,sp,32
   1020a:	fea43423          	sd	a0,-24(s0)
   1020e:	a829                	j	10228 <hprintf_s+0x26>
   10210:	fe843783          	ld	a5,-24(s0)
   10214:	00178713          	addi	a4,a5,1
   10218:	fee43423          	sd	a4,-24(s0)
   1021c:	0007c783          	lbu	a5,0(a5)
   10220:	2781                	sext.w	a5,a5
   10222:	853e                	mv	a0,a5
   10224:	f97ff0ef          	jal	ra,101ba <hprintf_c>
   10228:	fe843783          	ld	a5,-24(s0)
   1022c:	0007c783          	lbu	a5,0(a5)
   10230:	f3e5                	bnez	a5,10210 <hprintf_s+0xe>
   10232:	0001                	nop
   10234:	60e2                	ld	ra,24(sp)
   10236:	6442                	ld	s0,16(sp)
   10238:	6105                	addi	sp,sp,32
   1023a:	8082                	ret

000000000001023c <hprintf_d>:
   1023c:	715d                	addi	sp,sp,-80
   1023e:	e486                	sd	ra,72(sp)
   10240:	e0a2                	sd	s0,64(sp)
   10242:	0880                	addi	s0,sp,80
   10244:	87aa                	mv	a5,a0
   10246:	faf42e23          	sw	a5,-68(s0)
   1024a:	fc840793          	addi	a5,s0,-56
   1024e:	fef43423          	sd	a5,-24(s0)
   10252:	fbc42783          	lw	a5,-68(s0)
   10256:	2781                	sext.w	a5,a5
   10258:	0407d863          	bgez	a5,102a8 <hprintf_d+0x6c>
   1025c:	02d00513          	li	a0,45
   10260:	f5bff0ef          	jal	ra,101ba <hprintf_c>
   10264:	fbc42783          	lw	a5,-68(s0)
   10268:	40f007bb          	negw	a5,a5
   1026c:	faf42e23          	sw	a5,-68(s0)
   10270:	a825                	j	102a8 <hprintf_d+0x6c>
   10272:	fbc42703          	lw	a4,-68(s0)
   10276:	47a9                	li	a5,10
   10278:	02f767bb          	remw	a5,a4,a5
   1027c:	2781                	sext.w	a5,a5
   1027e:	0ff7f713          	andi	a4,a5,255
   10282:	fe843783          	ld	a5,-24(s0)
   10286:	00178693          	addi	a3,a5,1
   1028a:	fed43423          	sd	a3,-24(s0)
   1028e:	0307071b          	addiw	a4,a4,48
   10292:	0ff77713          	andi	a4,a4,255
   10296:	00e78023          	sb	a4,0(a5)
   1029a:	fbc42703          	lw	a4,-68(s0)
   1029e:	47a9                	li	a5,10
   102a0:	02f747bb          	divw	a5,a4,a5
   102a4:	faf42e23          	sw	a5,-68(s0)
   102a8:	fbc42783          	lw	a5,-68(s0)
   102ac:	2781                	sext.w	a5,a5
   102ae:	f3f1                	bnez	a5,10272 <hprintf_d+0x36>
   102b0:	fc840793          	addi	a5,s0,-56
   102b4:	fe843703          	ld	a4,-24(s0)
   102b8:	faf70de3          	beq	a4,a5,10272 <hprintf_d+0x36>
   102bc:	a831                	j	102d8 <hprintf_d+0x9c>
   102be:	fe843783          	ld	a5,-24(s0)
   102c2:	17fd                	addi	a5,a5,-1
   102c4:	fef43423          	sd	a5,-24(s0)
   102c8:	fe843783          	ld	a5,-24(s0)
   102cc:	0007c783          	lbu	a5,0(a5)
   102d0:	2781                	sext.w	a5,a5
   102d2:	853e                	mv	a0,a5
   102d4:	ee7ff0ef          	jal	ra,101ba <hprintf_c>
   102d8:	fc840793          	addi	a5,s0,-56
   102dc:	fe843703          	ld	a4,-24(s0)
   102e0:	fcf71fe3          	bne	a4,a5,102be <hprintf_d+0x82>
   102e4:	0001                	nop
   102e6:	60a6                	ld	ra,72(sp)
   102e8:	6406                	ld	s0,64(sp)
   102ea:	6161                	addi	sp,sp,80
   102ec:	8082                	ret

00000000000102ee <hprintf_h>:
   102ee:	7179                	addi	sp,sp,-48
   102f0:	f406                	sd	ra,40(sp)
   102f2:	f022                	sd	s0,32(sp)
   102f4:	1800                	addi	s0,sp,48
   102f6:	87aa                	mv	a5,a0
   102f8:	872e                	mv	a4,a1
   102fa:	fcf42e23          	sw	a5,-36(s0)
   102fe:	87ba                	mv	a5,a4
   10300:	fcf42c23          	sw	a5,-40(s0)
   10304:	fd842783          	lw	a5,-40(s0)
   10308:	37fd                	addiw	a5,a5,-1
   1030a:	2781                	sext.w	a5,a5
   1030c:	0027979b          	slliw	a5,a5,0x2
   10310:	fef42623          	sw	a5,-20(s0)
   10314:	a825                	j	1034c <hprintf_h+0x5e>
   10316:	fdc42703          	lw	a4,-36(s0)
   1031a:	fec42783          	lw	a5,-20(s0)
   1031e:	00f757bb          	srlw	a5,a4,a5
   10322:	2781                	sext.w	a5,a5
   10324:	8bbd                	andi	a5,a5,15
   10326:	2781                	sext.w	a5,a5
   10328:	00001717          	auipc	a4,0x1
   1032c:	99070713          	addi	a4,a4,-1648 # 10cb8 <__errno+0x24>
   10330:	1782                	slli	a5,a5,0x20
   10332:	9381                	srli	a5,a5,0x20
   10334:	97ba                	add	a5,a5,a4
   10336:	0007c783          	lbu	a5,0(a5)
   1033a:	2781                	sext.w	a5,a5
   1033c:	853e                	mv	a0,a5
   1033e:	e7dff0ef          	jal	ra,101ba <hprintf_c>
   10342:	fec42783          	lw	a5,-20(s0)
   10346:	37f1                	addiw	a5,a5,-4
   10348:	fef42623          	sw	a5,-20(s0)
   1034c:	fec42783          	lw	a5,-20(s0)
   10350:	2781                	sext.w	a5,a5
   10352:	fc07d2e3          	bgez	a5,10316 <hprintf_h+0x28>
   10356:	0001                	nop
   10358:	70a2                	ld	ra,40(sp)
   1035a:	7402                	ld	s0,32(sp)
   1035c:	6145                	addi	sp,sp,48
   1035e:	8082                	ret

0000000000010360 <hprintf>:
   10360:	7159                	addi	sp,sp,-112
   10362:	f406                	sd	ra,40(sp)
   10364:	f022                	sd	s0,32(sp)
   10366:	1800                	addi	s0,sp,48
   10368:	fca43c23          	sd	a0,-40(s0)
   1036c:	e40c                	sd	a1,8(s0)
   1036e:	e810                	sd	a2,16(s0)
   10370:	ec14                	sd	a3,24(s0)
   10372:	f018                	sd	a4,32(s0)
   10374:	f41c                	sd	a5,40(s0)
   10376:	03043823          	sd	a6,48(s0)
   1037a:	03143c23          	sd	a7,56(s0)
   1037e:	04040793          	addi	a5,s0,64
   10382:	fc878793          	addi	a5,a5,-56
   10386:	fef43023          	sd	a5,-32(s0)
   1038a:	fe042623          	sw	zero,-20(s0)
   1038e:	aac9                	j	10560 <hprintf+0x200>
   10390:	fec42783          	lw	a5,-20(s0)
   10394:	fd843703          	ld	a4,-40(s0)
   10398:	97ba                	add	a5,a5,a4
   1039a:	0007c783          	lbu	a5,0(a5)
   1039e:	873e                	mv	a4,a5
   103a0:	02500793          	li	a5,37
   103a4:	18f71e63          	bne	a4,a5,10540 <hprintf+0x1e0>
   103a8:	aaad                	j	10522 <hprintf+0x1c2>
   103aa:	fec42783          	lw	a5,-20(s0)
   103ae:	fd843703          	ld	a4,-40(s0)
   103b2:	97ba                	add	a5,a5,a4
   103b4:	0007c783          	lbu	a5,0(a5)
   103b8:	873e                	mv	a4,a5
   103ba:	06300793          	li	a5,99
   103be:	00f71d63          	bne	a4,a5,103d8 <hprintf+0x78>
   103c2:	fe043783          	ld	a5,-32(s0)
   103c6:	00878713          	addi	a4,a5,8
   103ca:	fee43023          	sd	a4,-32(s0)
   103ce:	439c                	lw	a5,0(a5)
   103d0:	853e                	mv	a0,a5
   103d2:	de9ff0ef          	jal	ra,101ba <hprintf_c>
   103d6:	a241                	j	10556 <hprintf+0x1f6>
   103d8:	fec42783          	lw	a5,-20(s0)
   103dc:	fd843703          	ld	a4,-40(s0)
   103e0:	97ba                	add	a5,a5,a4
   103e2:	0007c783          	lbu	a5,0(a5)
   103e6:	873e                	mv	a4,a5
   103e8:	07300793          	li	a5,115
   103ec:	00f71d63          	bne	a4,a5,10406 <hprintf+0xa6>
   103f0:	fe043783          	ld	a5,-32(s0)
   103f4:	00878713          	addi	a4,a5,8
   103f8:	fee43023          	sd	a4,-32(s0)
   103fc:	639c                	ld	a5,0(a5)
   103fe:	853e                	mv	a0,a5
   10400:	e03ff0ef          	jal	ra,10202 <hprintf_s>
   10404:	aa89                	j	10556 <hprintf+0x1f6>
   10406:	fec42783          	lw	a5,-20(s0)
   1040a:	fd843703          	ld	a4,-40(s0)
   1040e:	97ba                	add	a5,a5,a4
   10410:	0007c783          	lbu	a5,0(a5)
   10414:	873e                	mv	a4,a5
   10416:	06400793          	li	a5,100
   1041a:	00f71d63          	bne	a4,a5,10434 <hprintf+0xd4>
   1041e:	fe043783          	ld	a5,-32(s0)
   10422:	00878713          	addi	a4,a5,8
   10426:	fee43023          	sd	a4,-32(s0)
   1042a:	439c                	lw	a5,0(a5)
   1042c:	853e                	mv	a0,a5
   1042e:	e0fff0ef          	jal	ra,1023c <hprintf_d>
   10432:	a215                	j	10556 <hprintf+0x1f6>
   10434:	fec42783          	lw	a5,-20(s0)
   10438:	fd843703          	ld	a4,-40(s0)
   1043c:	97ba                	add	a5,a5,a4
   1043e:	0007c783          	lbu	a5,0(a5)
   10442:	873e                	mv	a4,a5
   10444:	07500793          	li	a5,117
   10448:	00f71e63          	bne	a4,a5,10464 <hprintf+0x104>
   1044c:	fe043783          	ld	a5,-32(s0)
   10450:	00878713          	addi	a4,a5,8
   10454:	fee43023          	sd	a4,-32(s0)
   10458:	439c                	lw	a5,0(a5)
   1045a:	2781                	sext.w	a5,a5
   1045c:	853e                	mv	a0,a5
   1045e:	ddfff0ef          	jal	ra,1023c <hprintf_d>
   10462:	a8d5                	j	10556 <hprintf+0x1f6>
   10464:	fec42783          	lw	a5,-20(s0)
   10468:	fd843703          	ld	a4,-40(s0)
   1046c:	97ba                	add	a5,a5,a4
   1046e:	0007c783          	lbu	a5,0(a5)
   10472:	873e                	mv	a4,a5
   10474:	06c00793          	li	a5,108
   10478:	04f71c63          	bne	a4,a5,104d0 <hprintf+0x170>
   1047c:	fec42783          	lw	a5,-20(s0)
   10480:	0785                	addi	a5,a5,1
   10482:	fd843703          	ld	a4,-40(s0)
   10486:	97ba                	add	a5,a5,a4
   10488:	0007c783          	lbu	a5,0(a5)
   1048c:	873e                	mv	a4,a5
   1048e:	07500793          	li	a5,117
   10492:	02f71363          	bne	a4,a5,104b8 <hprintf+0x158>
   10496:	fec42783          	lw	a5,-20(s0)
   1049a:	2785                	addiw	a5,a5,1
   1049c:	fef42623          	sw	a5,-20(s0)
   104a0:	fe043783          	ld	a5,-32(s0)
   104a4:	00878713          	addi	a4,a5,8
   104a8:	fee43023          	sd	a4,-32(s0)
   104ac:	639c                	ld	a5,0(a5)
   104ae:	2781                	sext.w	a5,a5
   104b0:	853e                	mv	a0,a5
   104b2:	d8bff0ef          	jal	ra,1023c <hprintf_d>
   104b6:	a045                	j	10556 <hprintf+0x1f6>
   104b8:	fe043783          	ld	a5,-32(s0)
   104bc:	00878713          	addi	a4,a5,8
   104c0:	fee43023          	sd	a4,-32(s0)
   104c4:	639c                	ld	a5,0(a5)
   104c6:	2781                	sext.w	a5,a5
   104c8:	853e                	mv	a0,a5
   104ca:	d73ff0ef          	jal	ra,1023c <hprintf_d>
   104ce:	a061                	j	10556 <hprintf+0x1f6>
   104d0:	fec42783          	lw	a5,-20(s0)
   104d4:	fd843703          	ld	a4,-40(s0)
   104d8:	97ba                	add	a5,a5,a4
   104da:	0007c783          	lbu	a5,0(a5)
   104de:	873e                	mv	a4,a5
   104e0:	03000793          	li	a5,48
   104e4:	02f71f63          	bne	a4,a5,10522 <hprintf+0x1c2>
   104e8:	fe043783          	ld	a5,-32(s0)
   104ec:	00878713          	addi	a4,a5,8
   104f0:	fee43023          	sd	a4,-32(s0)
   104f4:	4394                	lw	a3,0(a5)
   104f6:	fec42783          	lw	a5,-20(s0)
   104fa:	0785                	addi	a5,a5,1
   104fc:	fd843703          	ld	a4,-40(s0)
   10500:	97ba                	add	a5,a5,a4
   10502:	0007c783          	lbu	a5,0(a5)
   10506:	2781                	sext.w	a5,a5
   10508:	fd07879b          	addiw	a5,a5,-48
   1050c:	2781                	sext.w	a5,a5
   1050e:	85be                	mv	a1,a5
   10510:	8536                	mv	a0,a3
   10512:	dddff0ef          	jal	ra,102ee <hprintf_h>
   10516:	fec42783          	lw	a5,-20(s0)
   1051a:	2789                	addiw	a5,a5,2
   1051c:	fef42623          	sw	a5,-20(s0)
   10520:	a81d                	j	10556 <hprintf+0x1f6>
   10522:	fec42783          	lw	a5,-20(s0)
   10526:	2785                	addiw	a5,a5,1
   10528:	fef42623          	sw	a5,-20(s0)
   1052c:	fec42783          	lw	a5,-20(s0)
   10530:	fd843703          	ld	a4,-40(s0)
   10534:	97ba                	add	a5,a5,a4
   10536:	0007c783          	lbu	a5,0(a5)
   1053a:	e60798e3          	bnez	a5,103aa <hprintf+0x4a>
   1053e:	a821                	j	10556 <hprintf+0x1f6>
   10540:	fec42783          	lw	a5,-20(s0)
   10544:	fd843703          	ld	a4,-40(s0)
   10548:	97ba                	add	a5,a5,a4
   1054a:	0007c783          	lbu	a5,0(a5)
   1054e:	2781                	sext.w	a5,a5
   10550:	853e                	mv	a0,a5
   10552:	c69ff0ef          	jal	ra,101ba <hprintf_c>
   10556:	fec42783          	lw	a5,-20(s0)
   1055a:	2785                	addiw	a5,a5,1
   1055c:	fef42623          	sw	a5,-20(s0)
   10560:	fec42783          	lw	a5,-20(s0)
   10564:	fd843703          	ld	a4,-40(s0)
   10568:	97ba                	add	a5,a5,a4
   1056a:	0007c783          	lbu	a5,0(a5)
   1056e:	e20791e3          	bnez	a5,10390 <hprintf+0x30>
   10572:	0001                	nop
   10574:	70a2                	ld	ra,40(sp)
   10576:	7402                	ld	s0,32(sp)
   10578:	6165                	addi	sp,sp,112
   1057a:	8082                	ret

000000000001057c <hscanf_c>:
   1057c:	1101                	addi	sp,sp,-32
   1057e:	ec06                	sd	ra,24(sp)
   10580:	e822                	sd	s0,16(sp)
   10582:	1000                	addi	s0,sp,32
   10584:	380007b7          	lui	a5,0x38000
   10588:	40b78793          	addi	a5,a5,1035 # 3800040b <__global_pointer$+0x37fee4b3>
   1058c:	078a                	slli	a5,a5,0x2
   1058e:	fef43423          	sd	a5,-24(s0)
   10592:	0001                	nop
   10594:	fe843783          	ld	a5,-24(s0)
   10598:	439c                	lw	a5,0(a5)
   1059a:	2781                	sext.w	a5,a5
   1059c:	8b89                	andi	a5,a5,2
   1059e:	2781                	sext.w	a5,a5
   105a0:	873e                	mv	a4,a5
   105a2:	4789                	li	a5,2
   105a4:	fef708e3          	beq	a4,a5,10594 <hscanf_c+0x18>
   105a8:	0e0007b7          	lui	a5,0xe000
   105ac:	10378793          	addi	a5,a5,259 # e000103 <__global_pointer$+0xdfee1ab>
   105b0:	0792                	slli	a5,a5,0x4
   105b2:	439c                	lw	a5,0(a5)
   105b4:	0ff7f793          	andi	a5,a5,255
   105b8:	fef403a3          	sb	a5,-25(s0)
   105bc:	fe744783          	lbu	a5,-25(s0)
   105c0:	0ff7f793          	andi	a5,a5,255
   105c4:	2781                	sext.w	a5,a5
   105c6:	853e                	mv	a0,a5
   105c8:	bf3ff0ef          	jal	ra,101ba <hprintf_c>
   105cc:	fe744783          	lbu	a5,-25(s0)
   105d0:	0ff7f793          	andi	a5,a5,255
   105d4:	853e                	mv	a0,a5
   105d6:	60e2                	ld	ra,24(sp)
   105d8:	6442                	ld	s0,16(sp)
   105da:	6105                	addi	sp,sp,32
   105dc:	8082                	ret

00000000000105de <hscanf>:
   105de:	7179                	addi	sp,sp,-48
   105e0:	f406                	sd	ra,40(sp)
   105e2:	f022                	sd	s0,32(sp)
   105e4:	1800                	addi	s0,sp,48
   105e6:	00000797          	auipc	a5,0x0
   105ea:	6ea78793          	addi	a5,a5,1770 # 10cd0 <__errno+0x3c>
   105ee:	fef43423          	sd	a5,-24(s0)
   105f2:	fe843783          	ld	a5,-24(s0)
   105f6:	fef43023          	sd	a5,-32(s0)
   105fa:	f83ff0ef          	jal	ra,1057c <hscanf_c>
   105fe:	87aa                	mv	a5,a0
   10600:	fcf40fa3          	sb	a5,-33(s0)
   10604:	a829                	j	1061e <hscanf+0x40>
   10606:	fe843783          	ld	a5,-24(s0)
   1060a:	00178713          	addi	a4,a5,1
   1060e:	fee43423          	sd	a4,-24(s0)
   10612:	fdf44703          	lbu	a4,-33(s0)
   10616:	0ff77713          	andi	a4,a4,255
   1061a:	00e78023          	sb	a4,0(a5)
   1061e:	fdf44783          	lbu	a5,-33(s0)
   10622:	0ff7f793          	andi	a5,a5,255
   10626:	873e                	mv	a4,a5
   10628:	06e00793          	li	a5,110
   1062c:	fcf71de3          	bne	a4,a5,10606 <hscanf+0x28>
   10630:	fe043783          	ld	a5,-32(s0)
   10634:	853e                	mv	a0,a5
   10636:	70a2                	ld	ra,40(sp)
   10638:	7402                	ld	s0,32(sp)
   1063a:	6145                	addi	sp,sp,48
   1063c:	8082                	ret

000000000001063e <atexit>:
   1063e:	85aa                	mv	a1,a0
   10640:	4681                	li	a3,0
   10642:	4601                	li	a2,0
   10644:	4501                	li	a0,0
   10646:	1780006f          	j	107be <__register_exitproc>

000000000001064a <exit>:
   1064a:	1141                	addi	sp,sp,-16
   1064c:	4581                	li	a1,0
   1064e:	e022                	sd	s0,0(sp)
   10650:	e406                	sd	ra,8(sp)
   10652:	842a                	mv	s0,a0
   10654:	1d0000ef          	jal	ra,10824 <__call_exitprocs>
   10658:	67c5                	lui	a5,0x11
   1065a:	7607b503          	ld	a0,1888(a5) # 11760 <_global_impure_ptr>
   1065e:	6d3c                	ld	a5,88(a0)
   10660:	c391                	beqz	a5,10664 <exit+0x1a>
   10662:	9782                	jalr	a5
   10664:	8522                	mv	a0,s0
   10666:	618000ef          	jal	ra,10c7e <_exit>

000000000001066a <__libc_fini_array>:
   1066a:	7179                	addi	sp,sp,-48
   1066c:	67c5                	lui	a5,0x11
   1066e:	6745                	lui	a4,0x11
   10670:	f022                	sd	s0,32(sp)
   10672:	00870713          	addi	a4,a4,8 # 11008 <__init_array_end>
   10676:	01078413          	addi	s0,a5,16 # 11010 <__fini_array_end>
   1067a:	8c19                	sub	s0,s0,a4
   1067c:	ec26                	sd	s1,24(sp)
   1067e:	e84a                	sd	s2,16(sp)
   10680:	e44e                	sd	s3,8(sp)
   10682:	f406                	sd	ra,40(sp)
   10684:	840d                	srai	s0,s0,0x3
   10686:	4481                	li	s1,0
   10688:	01078913          	addi	s2,a5,16
   1068c:	59e1                	li	s3,-8
   1068e:	00941a63          	bne	s0,s1,106a2 <__libc_fini_array+0x38>
   10692:	7402                	ld	s0,32(sp)
   10694:	70a2                	ld	ra,40(sp)
   10696:	64e2                	ld	s1,24(sp)
   10698:	6942                	ld	s2,16(sp)
   1069a:	69a2                	ld	s3,8(sp)
   1069c:	6145                	addi	sp,sp,48
   1069e:	a51ff06f          	j	100ee <_fini>
   106a2:	033487b3          	mul	a5,s1,s3
   106a6:	0485                	addi	s1,s1,1
   106a8:	97ca                	add	a5,a5,s2
   106aa:	ff87b783          	ld	a5,-8(a5)
   106ae:	9782                	jalr	a5
   106b0:	bff9                	j	1068e <__libc_fini_array+0x24>

00000000000106b2 <__libc_init_array>:
   106b2:	1101                	addi	sp,sp,-32
   106b4:	e822                	sd	s0,16(sp)
   106b6:	e426                	sd	s1,8(sp)
   106b8:	6445                	lui	s0,0x11
   106ba:	64c5                	lui	s1,0x11
   106bc:	00048793          	mv	a5,s1
   106c0:	00040413          	mv	s0,s0
   106c4:	8c1d                	sub	s0,s0,a5
   106c6:	e04a                	sd	s2,0(sp)
   106c8:	ec06                	sd	ra,24(sp)
   106ca:	840d                	srai	s0,s0,0x3
   106cc:	00048493          	mv	s1,s1
   106d0:	4901                	li	s2,0
   106d2:	02891763          	bne	s2,s0,10700 <__libc_init_array+0x4e>
   106d6:	64c5                	lui	s1,0x11
   106d8:	a17ff0ef          	jal	ra,100ee <_fini>
   106dc:	6445                	lui	s0,0x11
   106de:	00048793          	mv	a5,s1
   106e2:	00840413          	addi	s0,s0,8 # 11008 <__init_array_end>
   106e6:	8c1d                	sub	s0,s0,a5
   106e8:	840d                	srai	s0,s0,0x3
   106ea:	00048493          	mv	s1,s1
   106ee:	4901                	li	s2,0
   106f0:	00891d63          	bne	s2,s0,1070a <__libc_init_array+0x58>
   106f4:	60e2                	ld	ra,24(sp)
   106f6:	6442                	ld	s0,16(sp)
   106f8:	64a2                	ld	s1,8(sp)
   106fa:	6902                	ld	s2,0(sp)
   106fc:	6105                	addi	sp,sp,32
   106fe:	8082                	ret
   10700:	609c                	ld	a5,0(s1)
   10702:	0905                	addi	s2,s2,1
   10704:	04a1                	addi	s1,s1,8
   10706:	9782                	jalr	a5
   10708:	b7e9                	j	106d2 <__libc_init_array+0x20>
   1070a:	609c                	ld	a5,0(s1)
   1070c:	0905                	addi	s2,s2,1
   1070e:	04a1                	addi	s1,s1,8
   10710:	9782                	jalr	a5
   10712:	bff9                	j	106f0 <__libc_init_array+0x3e>

0000000000010714 <memset>:
   10714:	483d                	li	a6,15
   10716:	872a                	mv	a4,a0
   10718:	02c87163          	bleu	a2,a6,1073a <memset+0x26>
   1071c:	00f77793          	andi	a5,a4,15
   10720:	e3c1                	bnez	a5,107a0 <memset+0x8c>
   10722:	e1bd                	bnez	a1,10788 <memset+0x74>
   10724:	ff067693          	andi	a3,a2,-16
   10728:	8a3d                	andi	a2,a2,15
   1072a:	96ba                	add	a3,a3,a4
   1072c:	e30c                	sd	a1,0(a4)
   1072e:	e70c                	sd	a1,8(a4)
   10730:	0741                	addi	a4,a4,16
   10732:	fed76de3          	bltu	a4,a3,1072c <memset+0x18>
   10736:	e211                	bnez	a2,1073a <memset+0x26>
   10738:	8082                	ret
   1073a:	40c806b3          	sub	a3,a6,a2
   1073e:	068a                	slli	a3,a3,0x2
   10740:	00000297          	auipc	t0,0x0
   10744:	9696                	add	a3,a3,t0
   10746:	00a68067          	jr	10(a3)
   1074a:	00b70723          	sb	a1,14(a4)
   1074e:	00b706a3          	sb	a1,13(a4)
   10752:	00b70623          	sb	a1,12(a4)
   10756:	00b705a3          	sb	a1,11(a4)
   1075a:	00b70523          	sb	a1,10(a4)
   1075e:	00b704a3          	sb	a1,9(a4)
   10762:	00b70423          	sb	a1,8(a4)
   10766:	00b703a3          	sb	a1,7(a4)
   1076a:	00b70323          	sb	a1,6(a4)
   1076e:	00b702a3          	sb	a1,5(a4)
   10772:	00b70223          	sb	a1,4(a4)
   10776:	00b701a3          	sb	a1,3(a4)
   1077a:	00b70123          	sb	a1,2(a4)
   1077e:	00b700a3          	sb	a1,1(a4)
   10782:	00b70023          	sb	a1,0(a4)
   10786:	8082                	ret
   10788:	0ff5f593          	andi	a1,a1,255
   1078c:	00859693          	slli	a3,a1,0x8
   10790:	8dd5                	or	a1,a1,a3
   10792:	01059693          	slli	a3,a1,0x10
   10796:	8dd5                	or	a1,a1,a3
   10798:	02059693          	slli	a3,a1,0x20
   1079c:	8dd5                	or	a1,a1,a3
   1079e:	b759                	j	10724 <memset+0x10>
   107a0:	00279693          	slli	a3,a5,0x2
   107a4:	00000297          	auipc	t0,0x0
   107a8:	9696                	add	a3,a3,t0
   107aa:	8286                	mv	t0,ra
   107ac:	fa2680e7          	jalr	-94(a3)
   107b0:	8096                	mv	ra,t0
   107b2:	17c1                	addi	a5,a5,-16
   107b4:	8f1d                	sub	a4,a4,a5
   107b6:	963e                	add	a2,a2,a5
   107b8:	f8c871e3          	bleu	a2,a6,1073a <memset+0x26>
   107bc:	b79d                	j	10722 <memset+0xe>

00000000000107be <__register_exitproc>:
   107be:	67c5                	lui	a5,0x11
   107c0:	7607b703          	ld	a4,1888(a5) # 11760 <_global_impure_ptr>
   107c4:	832a                	mv	t1,a0
   107c6:	1f873783          	ld	a5,504(a4)
   107ca:	e789                	bnez	a5,107d4 <__register_exitproc+0x16>
   107cc:	20070793          	addi	a5,a4,512
   107d0:	1ef73c23          	sd	a5,504(a4)
   107d4:	4798                	lw	a4,8(a5)
   107d6:	487d                	li	a6,31
   107d8:	557d                	li	a0,-1
   107da:	04e84463          	blt	a6,a4,10822 <__register_exitproc+0x64>
   107de:	02030a63          	beqz	t1,10812 <__register_exitproc+0x54>
   107e2:	00371813          	slli	a6,a4,0x3
   107e6:	983e                	add	a6,a6,a5
   107e8:	10c83823          	sd	a2,272(a6)
   107ec:	3107a883          	lw	a7,784(a5)
   107f0:	4605                	li	a2,1
   107f2:	00e6163b          	sllw	a2,a2,a4
   107f6:	00c8e8b3          	or	a7,a7,a2
   107fa:	3117a823          	sw	a7,784(a5)
   107fe:	20d83823          	sd	a3,528(a6)
   10802:	4689                	li	a3,2
   10804:	00d31763          	bne	t1,a3,10812 <__register_exitproc+0x54>
   10808:	3147a683          	lw	a3,788(a5)
   1080c:	8e55                	or	a2,a2,a3
   1080e:	30c7aa23          	sw	a2,788(a5)
   10812:	0017069b          	addiw	a3,a4,1
   10816:	0709                	addi	a4,a4,2
   10818:	070e                	slli	a4,a4,0x3
   1081a:	c794                	sw	a3,8(a5)
   1081c:	97ba                	add	a5,a5,a4
   1081e:	e38c                	sd	a1,0(a5)
   10820:	4501                	li	a0,0
   10822:	8082                	ret

0000000000010824 <__call_exitprocs>:
   10824:	715d                	addi	sp,sp,-80
   10826:	67c5                	lui	a5,0x11
   10828:	f44e                	sd	s3,40(sp)
   1082a:	7607b983          	ld	s3,1888(a5) # 11760 <_global_impure_ptr>
   1082e:	f052                	sd	s4,32(sp)
   10830:	ec56                	sd	s5,24(sp)
   10832:	e85a                	sd	s6,16(sp)
   10834:	e486                	sd	ra,72(sp)
   10836:	e0a2                	sd	s0,64(sp)
   10838:	fc26                	sd	s1,56(sp)
   1083a:	f84a                	sd	s2,48(sp)
   1083c:	e45e                	sd	s7,8(sp)
   1083e:	8aaa                	mv	s5,a0
   10840:	8a2e                	mv	s4,a1
   10842:	4b05                	li	s6,1
   10844:	1f89b403          	ld	s0,504(s3)
   10848:	c801                	beqz	s0,10858 <__call_exitprocs+0x34>
   1084a:	4404                	lw	s1,8(s0)
   1084c:	34fd                	addiw	s1,s1,-1
   1084e:	00349913          	slli	s2,s1,0x3
   10852:	9922                	add	s2,s2,s0
   10854:	0004dd63          	bgez	s1,1086e <__call_exitprocs+0x4a>
   10858:	60a6                	ld	ra,72(sp)
   1085a:	6406                	ld	s0,64(sp)
   1085c:	74e2                	ld	s1,56(sp)
   1085e:	7942                	ld	s2,48(sp)
   10860:	79a2                	ld	s3,40(sp)
   10862:	7a02                	ld	s4,32(sp)
   10864:	6ae2                	ld	s5,24(sp)
   10866:	6b42                	ld	s6,16(sp)
   10868:	6ba2                	ld	s7,8(sp)
   1086a:	6161                	addi	sp,sp,80
   1086c:	8082                	ret
   1086e:	000a0963          	beqz	s4,10880 <__call_exitprocs+0x5c>
   10872:	21093783          	ld	a5,528(s2)
   10876:	01478563          	beq	a5,s4,10880 <__call_exitprocs+0x5c>
   1087a:	34fd                	addiw	s1,s1,-1
   1087c:	1961                	addi	s2,s2,-8
   1087e:	bfd9                	j	10854 <__call_exitprocs+0x30>
   10880:	441c                	lw	a5,8(s0)
   10882:	01093683          	ld	a3,16(s2)
   10886:	37fd                	addiw	a5,a5,-1
   10888:	02979663          	bne	a5,s1,108b4 <__call_exitprocs+0x90>
   1088c:	c404                	sw	s1,8(s0)
   1088e:	d6f5                	beqz	a3,1087a <__call_exitprocs+0x56>
   10890:	31042703          	lw	a4,784(s0)
   10894:	009b163b          	sllw	a2,s6,s1
   10898:	00842b83          	lw	s7,8(s0)
   1089c:	8f71                	and	a4,a4,a2
   1089e:	2701                	sext.w	a4,a4
   108a0:	ef09                	bnez	a4,108ba <__call_exitprocs+0x96>
   108a2:	9682                	jalr	a3
   108a4:	4418                	lw	a4,8(s0)
   108a6:	1f89b783          	ld	a5,504(s3)
   108aa:	f9771de3          	bne	a4,s7,10844 <__call_exitprocs+0x20>
   108ae:	fcf406e3          	beq	s0,a5,1087a <__call_exitprocs+0x56>
   108b2:	bf49                	j	10844 <__call_exitprocs+0x20>
   108b4:	00093823          	sd	zero,16(s2)
   108b8:	bfd9                	j	1088e <__call_exitprocs+0x6a>
   108ba:	31442783          	lw	a5,788(s0)
   108be:	11093583          	ld	a1,272(s2)
   108c2:	8ff1                	and	a5,a5,a2
   108c4:	2781                	sext.w	a5,a5
   108c6:	e781                	bnez	a5,108ce <__call_exitprocs+0xaa>
   108c8:	8556                	mv	a0,s5
   108ca:	9682                	jalr	a3
   108cc:	bfe1                	j	108a4 <__call_exitprocs+0x80>
   108ce:	852e                	mv	a0,a1
   108d0:	9682                	jalr	a3
   108d2:	bfc9                	j	108a4 <__call_exitprocs+0x80>

00000000000108d4 <conv_stat>:
   108d4:	619c                	ld	a5,0(a1)
   108d6:	00f51023          	sh	a5,0(a0)
   108da:	659c                	ld	a5,8(a1)
   108dc:	00f51123          	sh	a5,2(a0)
   108e0:	499c                	lw	a5,16(a1)
   108e2:	c15c                	sw	a5,4(a0)
   108e4:	49dc                	lw	a5,20(a1)
   108e6:	00f51423          	sh	a5,8(a0)
   108ea:	4d9c                	lw	a5,24(a1)
   108ec:	00f51523          	sh	a5,10(a0)
   108f0:	4ddc                	lw	a5,28(a1)
   108f2:	00f51623          	sh	a5,12(a0)
   108f6:	719c                	ld	a5,32(a1)
   108f8:	00f51723          	sh	a5,14(a0)
   108fc:	799c                	ld	a5,48(a1)
   108fe:	e91c                	sd	a5,16(a0)
   10900:	61bc                	ld	a5,64(a1)
   10902:	e93c                	sd	a5,80(a0)
   10904:	5d9c                	lw	a5,56(a1)
   10906:	e53c                	sd	a5,72(a0)
   10908:	65bc                	ld	a5,72(a1)
   1090a:	ed1c                	sd	a5,24(a0)
   1090c:	6dbc                	ld	a5,88(a1)
   1090e:	f51c                	sd	a5,40(a0)
   10910:	75bc                	ld	a5,104(a1)
   10912:	fd1c                	sd	a5,56(a0)
   10914:	8082                	ret

0000000000010916 <__syscall_error>:
   10916:	1141                	addi	sp,sp,-16
   10918:	e022                	sd	s0,0(sp)
   1091a:	e406                	sd	ra,8(sp)
   1091c:	842a                	mv	s0,a0
   1091e:	376000ef          	jal	ra,10c94 <__errno>
   10922:	408007bb          	negw	a5,s0
   10926:	60a2                	ld	ra,8(sp)
   10928:	6402                	ld	s0,0(sp)
   1092a:	c11c                	sw	a5,0(a0)
   1092c:	557d                	li	a0,-1
   1092e:	0141                	addi	sp,sp,16
   10930:	8082                	ret

0000000000010932 <__internal_syscall>:
   10932:	88aa                	mv	a7,a0
   10934:	852e                	mv	a0,a1
   10936:	85b2                	mv	a1,a2
   10938:	8636                	mv	a2,a3
   1093a:	86ba                	mv	a3,a4
   1093c:	00000073          	ecall
   10940:	00055463          	bgez	a0,10948 <__internal_syscall+0x16>
   10944:	fd3ff06f          	j	10916 <__syscall_error>
   10948:	8082                	ret

000000000001094a <open>:
   1094a:	1141                	addi	sp,sp,-16
   1094c:	86b2                	mv	a3,a2
   1094e:	4701                	li	a4,0
   10950:	862e                	mv	a2,a1
   10952:	85aa                	mv	a1,a0
   10954:	40000513          	li	a0,1024
   10958:	e406                	sd	ra,8(sp)
   1095a:	fd9ff0ef          	jal	ra,10932 <__internal_syscall>
   1095e:	60a2                	ld	ra,8(sp)
   10960:	2501                	sext.w	a0,a0
   10962:	0141                	addi	sp,sp,16
   10964:	8082                	ret

0000000000010966 <openat>:
   10966:	1141                	addi	sp,sp,-16
   10968:	8736                	mv	a4,a3
   1096a:	86b2                	mv	a3,a2
   1096c:	862e                	mv	a2,a1
   1096e:	85aa                	mv	a1,a0
   10970:	03800513          	li	a0,56
   10974:	e406                	sd	ra,8(sp)
   10976:	fbdff0ef          	jal	ra,10932 <__internal_syscall>
   1097a:	60a2                	ld	ra,8(sp)
   1097c:	2501                	sext.w	a0,a0
   1097e:	0141                	addi	sp,sp,16
   10980:	8082                	ret

0000000000010982 <lseek>:
   10982:	86b2                	mv	a3,a2
   10984:	4701                	li	a4,0
   10986:	862e                	mv	a2,a1
   10988:	85aa                	mv	a1,a0
   1098a:	03e00513          	li	a0,62
   1098e:	fa5ff06f          	j	10932 <__internal_syscall>

0000000000010992 <read>:
   10992:	86b2                	mv	a3,a2
   10994:	4701                	li	a4,0
   10996:	862e                	mv	a2,a1
   10998:	85aa                	mv	a1,a0
   1099a:	03f00513          	li	a0,63
   1099e:	f95ff06f          	j	10932 <__internal_syscall>

00000000000109a2 <write>:
   109a2:	86b2                	mv	a3,a2
   109a4:	4701                	li	a4,0
   109a6:	862e                	mv	a2,a1
   109a8:	85aa                	mv	a1,a0
   109aa:	04000513          	li	a0,64
   109ae:	f85ff06f          	j	10932 <__internal_syscall>

00000000000109b2 <fstat>:
   109b2:	7135                	addi	sp,sp,-160
   109b4:	e526                	sd	s1,136(sp)
   109b6:	860a                	mv	a2,sp
   109b8:	84ae                	mv	s1,a1
   109ba:	4701                	li	a4,0
   109bc:	85aa                	mv	a1,a0
   109be:	4681                	li	a3,0
   109c0:	05000513          	li	a0,80
   109c4:	ed06                	sd	ra,152(sp)
   109c6:	e922                	sd	s0,144(sp)
   109c8:	f6bff0ef          	jal	ra,10932 <__internal_syscall>
   109cc:	842a                	mv	s0,a0
   109ce:	858a                	mv	a1,sp
   109d0:	8526                	mv	a0,s1
   109d2:	f03ff0ef          	jal	ra,108d4 <conv_stat>
   109d6:	0004051b          	sext.w	a0,s0
   109da:	60ea                	ld	ra,152(sp)
   109dc:	644a                	ld	s0,144(sp)
   109de:	64aa                	ld	s1,136(sp)
   109e0:	610d                	addi	sp,sp,160
   109e2:	8082                	ret

00000000000109e4 <stat>:
   109e4:	7135                	addi	sp,sp,-160
   109e6:	e526                	sd	s1,136(sp)
   109e8:	860a                	mv	a2,sp
   109ea:	84ae                	mv	s1,a1
   109ec:	4701                	li	a4,0
   109ee:	85aa                	mv	a1,a0
   109f0:	4681                	li	a3,0
   109f2:	40e00513          	li	a0,1038
   109f6:	ed06                	sd	ra,152(sp)
   109f8:	e922                	sd	s0,144(sp)
   109fa:	f39ff0ef          	jal	ra,10932 <__internal_syscall>
   109fe:	842a                	mv	s0,a0
   10a00:	858a                	mv	a1,sp
   10a02:	8526                	mv	a0,s1
   10a04:	ed1ff0ef          	jal	ra,108d4 <conv_stat>
   10a08:	0004051b          	sext.w	a0,s0
   10a0c:	60ea                	ld	ra,152(sp)
   10a0e:	644a                	ld	s0,144(sp)
   10a10:	64aa                	ld	s1,136(sp)
   10a12:	610d                	addi	sp,sp,160
   10a14:	8082                	ret

0000000000010a16 <lstat>:
   10a16:	7135                	addi	sp,sp,-160
   10a18:	e526                	sd	s1,136(sp)
   10a1a:	860a                	mv	a2,sp
   10a1c:	84ae                	mv	s1,a1
   10a1e:	4701                	li	a4,0
   10a20:	85aa                	mv	a1,a0
   10a22:	4681                	li	a3,0
   10a24:	40f00513          	li	a0,1039
   10a28:	ed06                	sd	ra,152(sp)
   10a2a:	e922                	sd	s0,144(sp)
   10a2c:	f07ff0ef          	jal	ra,10932 <__internal_syscall>
   10a30:	842a                	mv	s0,a0
   10a32:	858a                	mv	a1,sp
   10a34:	8526                	mv	a0,s1
   10a36:	e9fff0ef          	jal	ra,108d4 <conv_stat>
   10a3a:	0004051b          	sext.w	a0,s0
   10a3e:	60ea                	ld	ra,152(sp)
   10a40:	644a                	ld	s0,144(sp)
   10a42:	64aa                	ld	s1,136(sp)
   10a44:	610d                	addi	sp,sp,160
   10a46:	8082                	ret

0000000000010a48 <fstatat>:
   10a48:	7135                	addi	sp,sp,-160
   10a4a:	e526                	sd	s1,136(sp)
   10a4c:	8736                	mv	a4,a3
   10a4e:	84b2                	mv	s1,a2
   10a50:	868a                	mv	a3,sp
   10a52:	862e                	mv	a2,a1
   10a54:	85aa                	mv	a1,a0
   10a56:	04f00513          	li	a0,79
   10a5a:	ed06                	sd	ra,152(sp)
   10a5c:	e922                	sd	s0,144(sp)
   10a5e:	ed5ff0ef          	jal	ra,10932 <__internal_syscall>
   10a62:	842a                	mv	s0,a0
   10a64:	858a                	mv	a1,sp
   10a66:	8526                	mv	a0,s1
   10a68:	e6dff0ef          	jal	ra,108d4 <conv_stat>
   10a6c:	0004051b          	sext.w	a0,s0
   10a70:	60ea                	ld	ra,152(sp)
   10a72:	644a                	ld	s0,144(sp)
   10a74:	64aa                	ld	s1,136(sp)
   10a76:	610d                	addi	sp,sp,160
   10a78:	8082                	ret

0000000000010a7a <access>:
   10a7a:	1141                	addi	sp,sp,-16
   10a7c:	862e                	mv	a2,a1
   10a7e:	4701                	li	a4,0
   10a80:	85aa                	mv	a1,a0
   10a82:	4681                	li	a3,0
   10a84:	40900513          	li	a0,1033
   10a88:	e406                	sd	ra,8(sp)
   10a8a:	ea9ff0ef          	jal	ra,10932 <__internal_syscall>
   10a8e:	60a2                	ld	ra,8(sp)
   10a90:	2501                	sext.w	a0,a0
   10a92:	0141                	addi	sp,sp,16
   10a94:	8082                	ret

0000000000010a96 <faccessat>:
   10a96:	1141                	addi	sp,sp,-16
   10a98:	8736                	mv	a4,a3
   10a9a:	86b2                	mv	a3,a2
   10a9c:	862e                	mv	a2,a1
   10a9e:	85aa                	mv	a1,a0
   10aa0:	03000513          	li	a0,48
   10aa4:	e406                	sd	ra,8(sp)
   10aa6:	e8dff0ef          	jal	ra,10932 <__internal_syscall>
   10aaa:	60a2                	ld	ra,8(sp)
   10aac:	2501                	sext.w	a0,a0
   10aae:	0141                	addi	sp,sp,16
   10ab0:	8082                	ret

0000000000010ab2 <close>:
   10ab2:	1141                	addi	sp,sp,-16
   10ab4:	85aa                	mv	a1,a0
   10ab6:	4701                	li	a4,0
   10ab8:	4681                	li	a3,0
   10aba:	4601                	li	a2,0
   10abc:	03900513          	li	a0,57
   10ac0:	e406                	sd	ra,8(sp)
   10ac2:	e71ff0ef          	jal	ra,10932 <__internal_syscall>
   10ac6:	60a2                	ld	ra,8(sp)
   10ac8:	2501                	sext.w	a0,a0
   10aca:	0141                	addi	sp,sp,16
   10acc:	8082                	ret

0000000000010ace <link>:
   10ace:	1141                	addi	sp,sp,-16
   10ad0:	862e                	mv	a2,a1
   10ad2:	4701                	li	a4,0
   10ad4:	85aa                	mv	a1,a0
   10ad6:	4681                	li	a3,0
   10ad8:	40100513          	li	a0,1025
   10adc:	e406                	sd	ra,8(sp)
   10ade:	e55ff0ef          	jal	ra,10932 <__internal_syscall>
   10ae2:	60a2                	ld	ra,8(sp)
   10ae4:	2501                	sext.w	a0,a0
   10ae6:	0141                	addi	sp,sp,16
   10ae8:	8082                	ret

0000000000010aea <unlink>:
   10aea:	1141                	addi	sp,sp,-16
   10aec:	85aa                	mv	a1,a0
   10aee:	4701                	li	a4,0
   10af0:	4681                	li	a3,0
   10af2:	4601                	li	a2,0
   10af4:	40200513          	li	a0,1026
   10af8:	e406                	sd	ra,8(sp)
   10afa:	e39ff0ef          	jal	ra,10932 <__internal_syscall>
   10afe:	60a2                	ld	ra,8(sp)
   10b00:	2501                	sext.w	a0,a0
   10b02:	0141                	addi	sp,sp,16
   10b04:	8082                	ret

0000000000010b06 <execve>:
   10b06:	1141                	addi	sp,sp,-16
   10b08:	e406                	sd	ra,8(sp)
   10b0a:	18a000ef          	jal	ra,10c94 <__errno>
   10b0e:	60a2                	ld	ra,8(sp)
   10b10:	47b1                	li	a5,12
   10b12:	c11c                	sw	a5,0(a0)
   10b14:	557d                	li	a0,-1
   10b16:	0141                	addi	sp,sp,16
   10b18:	8082                	ret

0000000000010b1a <fork>:
   10b1a:	1141                	addi	sp,sp,-16
   10b1c:	e406                	sd	ra,8(sp)
   10b1e:	176000ef          	jal	ra,10c94 <__errno>
   10b22:	60a2                	ld	ra,8(sp)
   10b24:	47ad                	li	a5,11
   10b26:	c11c                	sw	a5,0(a0)
   10b28:	557d                	li	a0,-1
   10b2a:	0141                	addi	sp,sp,16
   10b2c:	8082                	ret

0000000000010b2e <getpid>:
   10b2e:	4505                	li	a0,1
   10b30:	8082                	ret

0000000000010b32 <kill>:
   10b32:	1141                	addi	sp,sp,-16
   10b34:	e406                	sd	ra,8(sp)
   10b36:	15e000ef          	jal	ra,10c94 <__errno>
   10b3a:	60a2                	ld	ra,8(sp)
   10b3c:	47d9                	li	a5,22
   10b3e:	c11c                	sw	a5,0(a0)
   10b40:	557d                	li	a0,-1
   10b42:	0141                	addi	sp,sp,16
   10b44:	8082                	ret

0000000000010b46 <wait>:
   10b46:	1141                	addi	sp,sp,-16
   10b48:	e406                	sd	ra,8(sp)
   10b4a:	14a000ef          	jal	ra,10c94 <__errno>
   10b4e:	60a2                	ld	ra,8(sp)
   10b50:	47a9                	li	a5,10
   10b52:	c11c                	sw	a5,0(a0)
   10b54:	557d                	li	a0,-1
   10b56:	0141                	addi	sp,sp,16
   10b58:	8082                	ret

0000000000010b5a <isatty>:
   10b5a:	7119                	addi	sp,sp,-128
   10b5c:	002c                	addi	a1,sp,8
   10b5e:	fc86                	sd	ra,120(sp)
   10b60:	e53ff0ef          	jal	ra,109b2 <fstat>
   10b64:	57fd                	li	a5,-1
   10b66:	00f50663          	beq	a0,a5,10b72 <isatty+0x18>
   10b6a:	4532                	lw	a0,12(sp)
   10b6c:	40d5551b          	sraiw	a0,a0,0xd
   10b70:	8905                	andi	a0,a0,1
   10b72:	70e6                	ld	ra,120(sp)
   10b74:	6109                	addi	sp,sp,128
   10b76:	8082                	ret

0000000000010b78 <gettimeofday>:
   10b78:	1141                	addi	sp,sp,-16
   10b7a:	85aa                	mv	a1,a0
   10b7c:	4701                	li	a4,0
   10b7e:	4681                	li	a3,0
   10b80:	4601                	li	a2,0
   10b82:	0a900513          	li	a0,169
   10b86:	e406                	sd	ra,8(sp)
   10b88:	dabff0ef          	jal	ra,10932 <__internal_syscall>
   10b8c:	60a2                	ld	ra,8(sp)
   10b8e:	2501                	sext.w	a0,a0
   10b90:	0141                	addi	sp,sp,16
   10b92:	8082                	ret

0000000000010b94 <times>:
   10b94:	7179                	addi	sp,sp,-48
   10b96:	f022                	sd	s0,32(sp)
   10b98:	842a                	mv	s0,a0
   10b9a:	8581b783          	ld	a5,-1960(gp) # 117b0 <t0.2574>
   10b9e:	ec26                	sd	s1,24(sp)
   10ba0:	f406                	sd	ra,40(sp)
   10ba2:	85818493          	addi	s1,gp,-1960 # 117b0 <t0.2574>
   10ba6:	e791                	bnez	a5,10bb2 <times+0x1e>
   10ba8:	4581                	li	a1,0
   10baa:	85818513          	addi	a0,gp,-1960 # 117b0 <t0.2574>
   10bae:	fcbff0ef          	jal	ra,10b78 <gettimeofday>
   10bb2:	850a                	mv	a0,sp
   10bb4:	4581                	li	a1,0
   10bb6:	fc3ff0ef          	jal	ra,10b78 <gettimeofday>
   10bba:	6098                	ld	a4,0(s1)
   10bbc:	6782                	ld	a5,0(sp)
   10bbe:	6494                	ld	a3,8(s1)
   10bc0:	00043823          	sd	zero,16(s0)
   10bc4:	8f99                	sub	a5,a5,a4
   10bc6:	000f4737          	lui	a4,0xf4
   10bca:	24070713          	addi	a4,a4,576 # f4240 <__global_pointer$+0xe22e8>
   10bce:	02e787b3          	mul	a5,a5,a4
   10bd2:	6722                	ld	a4,8(sp)
   10bd4:	00043c23          	sd	zero,24(s0)
   10bd8:	00043423          	sd	zero,8(s0)
   10bdc:	8f15                	sub	a4,a4,a3
   10bde:	70a2                	ld	ra,40(sp)
   10be0:	64e2                	ld	s1,24(sp)
   10be2:	557d                	li	a0,-1
   10be4:	97ba                	add	a5,a5,a4
   10be6:	e01c                	sd	a5,0(s0)
   10be8:	7402                	ld	s0,32(sp)
   10bea:	6145                	addi	sp,sp,48
   10bec:	8082                	ret

0000000000010bee <ftime>:
   10bee:	00051423          	sh	zero,8(a0)
   10bf2:	00053023          	sd	zero,0(a0)
   10bf6:	4501                	li	a0,0
   10bf8:	8082                	ret

0000000000010bfa <utime>:
   10bfa:	557d                	li	a0,-1
   10bfc:	8082                	ret

0000000000010bfe <chown>:
   10bfe:	557d                	li	a0,-1
   10c00:	8082                	ret

0000000000010c02 <chmod>:
   10c02:	557d                	li	a0,-1
   10c04:	8082                	ret

0000000000010c06 <chdir>:
   10c06:	557d                	li	a0,-1
   10c08:	8082                	ret

0000000000010c0a <getcwd>:
   10c0a:	4501                	li	a0,0
   10c0c:	8082                	ret

0000000000010c0e <sysconf>:
   10c0e:	4789                	li	a5,2
   10c10:	00f50463          	beq	a0,a5,10c18 <sysconf+0xa>
   10c14:	557d                	li	a0,-1
   10c16:	8082                	ret
   10c18:	000f4537          	lui	a0,0xf4
   10c1c:	24050513          	addi	a0,a0,576 # f4240 <__global_pointer$+0xe22e8>
   10c20:	8082                	ret

0000000000010c22 <sbrk>:
   10c22:	1101                	addi	sp,sp,-32
   10c24:	e822                	sd	s0,16(sp)
   10c26:	8181b783          	ld	a5,-2024(gp) # 11770 <_edata>
   10c2a:	e426                	sd	s1,8(sp)
   10c2c:	ec06                	sd	ra,24(sp)
   10c2e:	84aa                	mv	s1,a0
   10c30:	e785                	bnez	a5,10c58 <sbrk+0x36>
   10c32:	4701                	li	a4,0
   10c34:	4681                	li	a3,0
   10c36:	4601                	li	a2,0
   10c38:	4581                	li	a1,0
   10c3a:	0d600513          	li	a0,214
   10c3e:	cf5ff0ef          	jal	ra,10932 <__internal_syscall>
   10c42:	57fd                	li	a5,-1
   10c44:	00f51863          	bne	a0,a5,10c54 <sbrk+0x32>
   10c48:	557d                	li	a0,-1
   10c4a:	60e2                	ld	ra,24(sp)
   10c4c:	6442                	ld	s0,16(sp)
   10c4e:	64a2                	ld	s1,8(sp)
   10c50:	6105                	addi	sp,sp,32
   10c52:	8082                	ret
   10c54:	80a1bc23          	sd	a0,-2024(gp) # 11770 <_edata>
   10c58:	8181b583          	ld	a1,-2024(gp) # 11770 <_edata>
   10c5c:	4701                	li	a4,0
   10c5e:	4681                	li	a3,0
   10c60:	95a6                	add	a1,a1,s1
   10c62:	4601                	li	a2,0
   10c64:	0d600513          	li	a0,214
   10c68:	ccbff0ef          	jal	ra,10932 <__internal_syscall>
   10c6c:	8181b783          	ld	a5,-2024(gp) # 11770 <_edata>
   10c70:	94be                	add	s1,s1,a5
   10c72:	fc951be3          	bne	a0,s1,10c48 <sbrk+0x26>
   10c76:	80a1bc23          	sd	a0,-2024(gp) # 11770 <_edata>
   10c7a:	853e                	mv	a0,a5
   10c7c:	b7f9                	j	10c4a <sbrk+0x28>

0000000000010c7e <_exit>:
   10c7e:	1141                	addi	sp,sp,-16
   10c80:	85aa                	mv	a1,a0
   10c82:	4701                	li	a4,0
   10c84:	4681                	li	a3,0
   10c86:	4601                	li	a2,0
   10c88:	05d00513          	li	a0,93
   10c8c:	e406                	sd	ra,8(sp)
   10c8e:	ca5ff0ef          	jal	ra,10932 <__internal_syscall>
   10c92:	a001                	j	10c92 <_exit+0x14>

0000000000010c94 <__errno>:
   10c94:	8101b503          	ld	a0,-2032(gp) # 11768 <_impure_ptr>
   10c98:	8082                	ret

Disassembly of section .rodata:

0000000000010ca0 <.rodata>:
   10ca0:	6568                	ld	a0,200(a0)
   10ca2:	6c6c                	ld	a1,216(s0)
   10ca4:	6f775f6f          	jal	t5,86b9a <__global_pointer$+0x74c42>
   10ca8:	6c72                	ld	s8,280(sp)
   10caa:	2064                	fld	fs1,192(s0)
   10cac:	2520                	fld	fs0,72(a0)
   10cae:	0a64                	addi	s1,sp,284
	...
   10cb8:	3130                	fld	fa2,96(a0)
   10cba:	3332                	fld	ft6,296(sp)
   10cbc:	3534                	fld	fa3,104(a0)
   10cbe:	3736                	fld	fa4,360(sp)
   10cc0:	3938                	fld	fa4,112(a0)
   10cc2:	4241                	li	tp,16
   10cc4:	46454443          	0x46454443
	...

Disassembly of section .eh_frame:

0000000000010cd4 <__EH_FRAME_BEGIN__>:
   10cd4:	0000                	unimp
	...

Disassembly of section .init_array:

0000000000011000 <__frame_dummy_init_array_entry>:
   11000:	017a                	slli	sp,sp,0x1e
   11002:	0001                	nop
   11004:	0000                	unimp
	...

Disassembly of section .fini_array:

0000000000011008 <__do_global_dtors_aux_fini_array_entry>:
   11008:	0140                	addi	s0,sp,132
   1100a:	0001                	nop
   1100c:	0000                	unimp
	...

Disassembly of section .data:

0000000000011010 <impure_data>:
	...
   11018:	1548                	addi	a0,sp,676
   1101a:	0001                	nop
   1101c:	0000                	unimp
   1101e:	0000                	unimp
   11020:	15f8                	addi	a4,sp,748
   11022:	0001                	nop
   11024:	0000                	unimp
   11026:	0000                	unimp
   11028:	16a8                	addi	a0,sp,872
   1102a:	0001                	nop
	...
   110f8:	0001                	nop
   110fa:	0000                	unimp
   110fc:	0000                	unimp
   110fe:	0000                	unimp
   11100:	330e                	fld	ft6,224(sp)
   11102:	abcd                	j	116f4 <impure_data+0x6e4>
   11104:	1234                	addi	a3,sp,296
   11106:	e66d                	bnez	a2,111f0 <impure_data+0x1e0>
   11108:	deec                	sw	a1,124(a3)
   1110a:	0005                	c.addi	zero,1
   1110c:	0000000b          	0xb
	...

Disassembly of section .sdata:

0000000000011758 <__TMC_END__>:
	...

0000000000011760 <_global_impure_ptr>:
   11760:	1010                	addi	a2,sp,32
   11762:	0001                	nop
   11764:	0000                	unimp
	...

0000000000011768 <_impure_ptr>:
   11768:	1010                	addi	a2,sp,32
   1176a:	0001                	nop
   1176c:	0000                	unimp
	...

Disassembly of section .sbss:

0000000000011770 <__bss_start>:
	...

Disassembly of section .bss:

0000000000011778 <completed.5184>:
	...

0000000000011780 <object.5189>:
	...

00000000000117b0 <t0.2574>:
	...

Disassembly of section .comment:

0000000000000000 <.comment>:
   0:	3a434347          	fmsub.d	ft6,ft6,ft4,ft7,rmm
   4:	2820                	fld	fs0,80(s0)
   6:	29554e47          	fmsub.s	ft8,fa0,fs5,ft5,rmm
   a:	3720                	fld	fs0,104(a4)
   c:	312e                	fld	ft2,232(sp)
   e:	312e                	fld	ft2,232(sp)
  10:	3220                	fld	fs0,96(a2)
  12:	3130                	fld	fa2,96(a0)
  14:	30353037          	lui	zero,0x30353
  18:	0039                	c.addi	zero,14
