
main:     file format elf64-littleriscv


Disassembly of section .text.init:

0000000080000000 <_start>:
    80000000:	00002137          	lui	sp,0x2
    80000004:	0011011b          	addiw	sp,sp,1
    80000008:	01211113          	slli	sp,sp,0x12
    8000000c:	000081b7          	lui	gp,0x8
    80000010:	0011819b          	addiw	gp,gp,1
    80000014:	01019193          	slli	gp,gp,0x10
    80000018:	00000213          	li	tp,0
    8000001c:	00000293          	li	t0,0
    80000020:	00000313          	li	t1,0
    80000024:	00000393          	li	t2,0
    80000028:	00000413          	li	s0,0
    8000002c:	00000493          	li	s1,0
    80000030:	00000513          	li	a0,0
    80000034:	00000593          	li	a1,0
    80000038:	00000613          	li	a2,0
    8000003c:	00000693          	li	a3,0
    80000040:	00000713          	li	a4,0
    80000044:	00000793          	li	a5,0
    80000048:	00000813          	li	a6,0
    8000004c:	00000893          	li	a7,0
    80000050:	00000913          	li	s2,0
    80000054:	00000993          	li	s3,0
    80000058:	00000a13          	li	s4,0
    8000005c:	00000a93          	li	s5,0
    80000060:	00000b13          	li	s6,0
    80000064:	00000b93          	li	s7,0
    80000068:	00000c13          	li	s8,0
    8000006c:	00000c93          	li	s9,0
    80000070:	00000d13          	li	s10,0
    80000074:	00000d93          	li	s11,0
    80000078:	00000e13          	li	t3,0
    8000007c:	00000e93          	li	t4,0
    80000080:	00000f13          	li	t5,0
    80000084:	00000f93          	li	t6,0
    80000088:	100200ef          	jal	ra,80020188 <DHRYSTONE>
    8000008c:	00008067          	ret

Disassembly of section .text.Proc_2:

0000000080020000 <Proc_2>:
    80020000:	00020797          	auipc	a5,0x20
    80020004:	0407b783          	ld	a5,64(a5) # 80040040 <_GLOBAL_OFFSET_TABLE_+0x40>
    80020008:	0007c703          	lbu	a4,0(a5)
    8002000c:	04100793          	li	a5,65
    80020010:	00f70463          	beq	a4,a5,80020018 <Proc_2+0x18>
    80020014:	00008067          	ret
    80020018:	00052783          	lw	a5,0(a0)
    8002001c:	00020717          	auipc	a4,0x20
    80020020:	01c73703          	ld	a4,28(a4) # 80040038 <_GLOBAL_OFFSET_TABLE_+0x38>
    80020024:	00072703          	lw	a4,0(a4)
    80020028:	0097879b          	addiw	a5,a5,9
    8002002c:	40e787bb          	subw	a5,a5,a4
    80020030:	00f52023          	sw	a5,0(a0)
    80020034:	00008067          	ret

Disassembly of section .text.Proc_3:

0000000080020038 <Proc_3>:
    80020038:	00020797          	auipc	a5,0x20
    8002003c:	0187b783          	ld	a5,24(a5) # 80040050 <_GLOBAL_OFFSET_TABLE_+0x50>
    80020040:	0007b603          	ld	a2,0(a5)
    80020044:	00060863          	beqz	a2,80020054 <Proc_3+0x1c>
    80020048:	00063703          	ld	a4,0(a2)
    8002004c:	00e53023          	sd	a4,0(a0)
    80020050:	0007b603          	ld	a2,0(a5)
    80020054:	00020797          	auipc	a5,0x20
    80020058:	fe47b783          	ld	a5,-28(a5) # 80040038 <_GLOBAL_OFFSET_TABLE_+0x38>
    8002005c:	0007a583          	lw	a1,0(a5)
    80020060:	01060613          	addi	a2,a2,16
    80020064:	00a00513          	li	a0,10
    80020068:	17d0006f          	j	800209e4 <Proc_7>

Disassembly of section .text.Proc_1:

000000008002006c <Proc_1>:
    8002006c:	fe010113          	addi	sp,sp,-32 # 1fe0 <_start-0x7fffe020>
    80020070:	01213023          	sd	s2,0(sp)
    80020074:	00020917          	auipc	s2,0x20
    80020078:	fdc93903          	ld	s2,-36(s2) # 80040050 <_GLOBAL_OFFSET_TABLE_+0x50>
    8002007c:	00093783          	ld	a5,0(s2)
    80020080:	00813823          	sd	s0,16(sp)
    80020084:	00053403          	ld	s0,0(a0)
    80020088:	0007b703          	ld	a4,0(a5)
    8002008c:	00913423          	sd	s1,8(sp)
    80020090:	0107b803          	ld	a6,16(a5)
    80020094:	0187b583          	ld	a1,24(a5)
    80020098:	0207b603          	ld	a2,32(a5)
    8002009c:	0287b683          	ld	a3,40(a5)
    800200a0:	00113c23          	sd	ra,24(sp)
    800200a4:	00050493          	mv	s1,a0
    800200a8:	0087b503          	ld	a0,8(a5)
    800200ac:	0307b783          	ld	a5,48(a5)
    800200b0:	00e43023          	sd	a4,0(s0)
    800200b4:	0004b703          	ld	a4,0(s1)
    800200b8:	01043823          	sd	a6,16(s0)
    800200bc:	00a43423          	sd	a0,8(s0)
    800200c0:	02f43823          	sd	a5,48(s0)
    800200c4:	00b43c23          	sd	a1,24(s0)
    800200c8:	00500793          	li	a5,5
    800200cc:	02c43023          	sd	a2,32(s0)
    800200d0:	02d43423          	sd	a3,40(s0)
    800200d4:	00f4a823          	sw	a5,16(s1)
    800200d8:	00f42823          	sw	a5,16(s0)
    800200dc:	00e43023          	sd	a4,0(s0)
    800200e0:	00040513          	mv	a0,s0
    800200e4:	f55ff0ef          	jal	ra,80020038 <Proc_3>
    800200e8:	00842783          	lw	a5,8(s0)
    800200ec:	04078c63          	beqz	a5,80020144 <Proc_1+0xd8>
    800200f0:	0004b783          	ld	a5,0(s1)
    800200f4:	01813083          	ld	ra,24(sp)
    800200f8:	01013403          	ld	s0,16(sp)
    800200fc:	0007b883          	ld	a7,0(a5)
    80020100:	0087b803          	ld	a6,8(a5)
    80020104:	0107b583          	ld	a1,16(a5)
    80020108:	0187b603          	ld	a2,24(a5)
    8002010c:	0207b683          	ld	a3,32(a5)
    80020110:	0287b703          	ld	a4,40(a5)
    80020114:	0307b783          	ld	a5,48(a5)
    80020118:	0114b023          	sd	a7,0(s1)
    8002011c:	0104b423          	sd	a6,8(s1)
    80020120:	00b4b823          	sd	a1,16(s1)
    80020124:	00c4bc23          	sd	a2,24(s1)
    80020128:	02d4b023          	sd	a3,32(s1)
    8002012c:	02e4b423          	sd	a4,40(s1)
    80020130:	02f4b823          	sd	a5,48(s1)
    80020134:	00013903          	ld	s2,0(sp)
    80020138:	00813483          	ld	s1,8(sp)
    8002013c:	02010113          	addi	sp,sp,32
    80020140:	00008067          	ret
    80020144:	00c4a503          	lw	a0,12(s1)
    80020148:	00600793          	li	a5,6
    8002014c:	00c40593          	addi	a1,s0,12
    80020150:	00f42823          	sw	a5,16(s0)
    80020154:	039000ef          	jal	ra,8002098c <Proc_6>
    80020158:	00093783          	ld	a5,0(s2)
    8002015c:	01042503          	lw	a0,16(s0)
    80020160:	01040613          	addi	a2,s0,16
    80020164:	0007b783          	ld	a5,0(a5)
    80020168:	01813083          	ld	ra,24(sp)
    8002016c:	00813483          	ld	s1,8(sp)
    80020170:	00f43023          	sd	a5,0(s0)
    80020174:	01013403          	ld	s0,16(sp)
    80020178:	00013903          	ld	s2,0(sp)
    8002017c:	00a00593          	li	a1,10
    80020180:	02010113          	addi	sp,sp,32
    80020184:	0610006f          	j	800209e4 <Proc_7>

Disassembly of section .text.DHRYSTONE:

0000000080020188 <DHRYSTONE>:
    80020188:	f2010113          	addi	sp,sp,-224
    8002018c:	03800513          	li	a0,56
    80020190:	0c113c23          	sd	ra,216(sp)
    80020194:	0c813823          	sd	s0,208(sp)
    80020198:	09a13023          	sd	s10,128(sp)
    8002019c:	00020417          	auipc	s0,0x20
    800201a0:	e9443403          	ld	s0,-364(s0) # 80040030 <_GLOBAL_OFFSET_TABLE_+0x30>
    800201a4:	0c913423          	sd	s1,200(sp)
    800201a8:	0d213023          	sd	s2,192(sp)
    800201ac:	0b313c23          	sd	s3,184(sp)
    800201b0:	0b413823          	sd	s4,176(sp)
    800201b4:	0b513423          	sd	s5,168(sp)
    800201b8:	0b613023          	sd	s6,160(sp)
    800201bc:	09713c23          	sd	s7,152(sp)
    800201c0:	09813823          	sd	s8,144(sp)
    800201c4:	09913423          	sd	s9,136(sp)
    800201c8:	07b13c23          	sd	s11,120(sp)
    800201cc:	1c1000ef          	jal	ra,80020b8c <malloc>
    800201d0:	00a43023          	sd	a0,0(s0)
    800201d4:	03800513          	li	a0,56
    800201d8:	1b5000ef          	jal	ra,80020b8c <malloc>
    800201dc:	00043783          	ld	a5,0(s0)
    800201e0:	00020d17          	auipc	s10,0x20
    800201e4:	e70d3d03          	ld	s10,-400(s10) # 80040050 <_GLOBAL_OFFSET_TABLE_+0x50>
    800201e8:	00ad3023          	sd	a0,0(s10)
    800201ec:	00f53023          	sd	a5,0(a0)
    800201f0:	00100793          	li	a5,1
    800201f4:	02179793          	slli	a5,a5,0x21
    800201f8:	00f53423          	sd	a5,8(a0)
    800201fc:	02800793          	li	a5,40
    80020200:	00f52823          	sw	a5,16(a0)
    80020204:	00001597          	auipc	a1,0x1
    80020208:	05458593          	addi	a1,a1,84 # 80021258 <strcmp+0x130>
    8002020c:	01450513          	addi	a0,a0,20
    80020210:	645000ef          	jal	ra,80021054 <strcpy>
    80020214:	03010793          	addi	a5,sp,48
    80020218:	00001597          	auipc	a1,0x1
    8002021c:	06058593          	addi	a1,a1,96 # 80021278 <strcmp+0x150>
    80020220:	00078513          	mv	a0,a5
    80020224:	00f13023          	sd	a5,0(sp)
    80020228:	62d000ef          	jal	ra,80021054 <strcpy>
    8002022c:	00a00793          	li	a5,10
    80020230:	00020717          	auipc	a4,0x20
    80020234:	df073703          	ld	a4,-528(a4) # 80040020 <_GLOBAL_OFFSET_TABLE_+0x20>
    80020238:	00001517          	auipc	a0,0x1
    8002023c:	30850513          	addi	a0,a0,776 # 80021540 <strcmp+0x418>
    80020240:	64f72e23          	sw	a5,1628(a4)
    80020244:	2ed000ef          	jal	ra,80020d30 <printf>
    80020248:	00001517          	auipc	a0,0x1
    8002024c:	05050513          	addi	a0,a0,80 # 80021298 <strcmp+0x170>
    80020250:	2e1000ef          	jal	ra,80020d30 <printf>
    80020254:	00001517          	auipc	a0,0x1
    80020258:	2ec50513          	addi	a0,a0,748 # 80021540 <strcmp+0x418>
    8002025c:	2d5000ef          	jal	ra,80020d30 <printf>
    80020260:	00020797          	auipc	a5,0x20
    80020264:	e3078793          	addi	a5,a5,-464 # 80040090 <Reg>
    80020268:	0007a783          	lw	a5,0(a5)
    8002026c:	6a078463          	beqz	a5,80020914 <DHRYSTONE+0x78c>
    80020270:	00001517          	auipc	a0,0x1
    80020274:	05850513          	addi	a0,a0,88 # 800212c8 <strcmp+0x1a0>
    80020278:	2b9000ef          	jal	ra,80020d30 <printf>
    8002027c:	00001517          	auipc	a0,0x1
    80020280:	2c450513          	addi	a0,a0,708 # 80021540 <strcmp+0x418>
    80020284:	2ad000ef          	jal	ra,80020d30 <printf>
    80020288:	00001517          	auipc	a0,0x1
    8002028c:	0a050513          	addi	a0,a0,160 # 80021328 <strcmp+0x200>
    80020290:	2a1000ef          	jal	ra,80020d30 <printf>
    80020294:	00001517          	auipc	a0,0x1
    80020298:	2ac50513          	addi	a0,a0,684 # 80021540 <strcmp+0x418>
    8002029c:	295000ef          	jal	ra,80020d30 <printf>
    800202a0:	06400593          	li	a1,100
    800202a4:	00001517          	auipc	a0,0x1
    800202a8:	0bc50513          	addi	a0,a0,188 # 80021360 <strcmp+0x238>
    800202ac:	285000ef          	jal	ra,80020d30 <printf>
    800202b0:	00000513          	li	a0,0
    800202b4:	04d000ef          	jal	ra,80020b00 <time>
    800202b8:	00020797          	auipc	a5,0x20
    800202bc:	d607b783          	ld	a5,-672(a5) # 80040018 <_GLOBAL_OFFSET_TABLE_+0x18>
    800202c0:	00a7b023          	sd	a0,0(a5)
    800202c4:	00000513          	li	a0,0
    800202c8:	041000ef          	jal	ra,80020b08 <insn>
    800202cc:	00020797          	auipc	a5,0x20
    800202d0:	d8c7b783          	ld	a5,-628(a5) # 80040058 <_GLOBAL_OFFSET_TABLE_+0x58>
    800202d4:	00a7b023          	sd	a0,0(a5)
    800202d8:	02810793          	addi	a5,sp,40
    800202dc:	00100493          	li	s1,1
    800202e0:	00020a17          	auipc	s4,0x20
    800202e4:	d60a3a03          	ld	s4,-672(s4) # 80040040 <_GLOBAL_OFFSET_TABLE_+0x40>
    800202e8:	00020a97          	auipc	s5,0x20
    800202ec:	d80aba83          	ld	s5,-640(s5) # 80040068 <_GLOBAL_OFFSET_TABLE_+0x68>
    800202f0:	00020417          	auipc	s0,0x20
    800202f4:	d5843403          	ld	s0,-680(s0) # 80040048 <_GLOBAL_OFFSET_TABLE_+0x48>
    800202f8:	05010993          	addi	s3,sp,80
    800202fc:	00f13423          	sd	a5,8(sp)
    80020300:	00020b97          	auipc	s7,0x20
    80020304:	d38bbb83          	ld	s7,-712(s7) # 80040038 <_GLOBAL_OFFSET_TABLE_+0x38>
    80020308:	00100b13          	li	s6,1
    8002030c:	02c10c93          	addi	s9,sp,44
    80020310:	00001c17          	auipc	s8,0x1
    80020314:	0a0c0c13          	addi	s8,s8,160 # 800213b0 <strcmp+0x288>
    80020318:	04100793          	li	a5,65
    8002031c:	00001597          	auipc	a1,0x1
    80020320:	07458593          	addi	a1,a1,116 # 80021390 <strcmp+0x268>
    80020324:	00fa0023          	sb	a5,0(s4)
    80020328:	00098513          	mv	a0,s3
    8002032c:	04200793          	li	a5,66
    80020330:	00f40023          	sb	a5,0(s0)
    80020334:	016aa023          	sw	s6,0(s5)
    80020338:	51d000ef          	jal	ra,80021054 <strcpy>
    8002033c:	00013503          	ld	a0,0(sp)
    80020340:	00098593          	mv	a1,s3
    80020344:	03612623          	sw	s6,44(sp)
    80020348:	744000ef          	jal	ra,80020a8c <Func_2>
    8002034c:	00813603          	ld	a2,8(sp)
    80020350:	00153793          	seqz	a5,a0
    80020354:	00300593          	li	a1,3
    80020358:	00faa023          	sw	a5,0(s5)
    8002035c:	00200513          	li	a0,2
    80020360:	00700793          	li	a5,7
    80020364:	02f12423          	sw	a5,40(sp)
    80020368:	67c000ef          	jal	ra,800209e4 <Proc_7>
    8002036c:	02812683          	lw	a3,40(sp)
    80020370:	00300613          	li	a2,3
    80020374:	00020597          	auipc	a1,0x20
    80020378:	cac5b583          	ld	a1,-852(a1) # 80040020 <_GLOBAL_OFFSET_TABLE_+0x20>
    8002037c:	00020517          	auipc	a0,0x20
    80020380:	ce453503          	ld	a0,-796(a0) # 80040060 <_GLOBAL_OFFSET_TABLE_+0x60>
    80020384:	670000ef          	jal	ra,800209f4 <Proc_8>
    80020388:	000d3503          	ld	a0,0(s10)
    8002038c:	ce1ff0ef          	jal	ra,8002006c <Proc_1>
    80020390:	00044703          	lbu	a4,0(s0)
    80020394:	04000793          	li	a5,64
    80020398:	56e7fa63          	bgeu	a5,a4,8002090c <DHRYSTONE+0x784>
    8002039c:	04100d93          	li	s11,65
    800203a0:	00300913          	li	s2,3
    800203a4:	0140006f          	j	800203b8 <DHRYSTONE+0x230>
    800203a8:	00044703          	lbu	a4,0(s0)
    800203ac:	001d879b          	addiw	a5,s11,1
    800203b0:	0ff7fd93          	andi	s11,a5,255
    800203b4:	05b76663          	bltu	a4,s11,80020400 <DHRYSTONE+0x278>
    800203b8:	04300593          	li	a1,67
    800203bc:	000d8513          	mv	a0,s11
    800203c0:	6a4000ef          	jal	ra,80020a64 <Func_1>
    800203c4:	02c12703          	lw	a4,44(sp)
    800203c8:	0005051b          	sext.w	a0,a0
    800203cc:	fca71ee3          	bne	a4,a0,800203a8 <DHRYSTONE+0x220>
    800203d0:	000c8593          	mv	a1,s9
    800203d4:	00000513          	li	a0,0
    800203d8:	5b4000ef          	jal	ra,8002098c <Proc_6>
    800203dc:	000c0593          	mv	a1,s8
    800203e0:	00098513          	mv	a0,s3
    800203e4:	471000ef          	jal	ra,80021054 <strcpy>
    800203e8:	00044703          	lbu	a4,0(s0)
    800203ec:	001d879b          	addiw	a5,s11,1
    800203f0:	009ba023          	sw	s1,0(s7)
    800203f4:	0ff7fd93          	andi	s11,a5,255
    800203f8:	00048913          	mv	s2,s1
    800203fc:	fbb77ee3          	bgeu	a4,s11,800203b8 <DHRYSTONE+0x230>
    80020400:	0019179b          	slliw	a5,s2,0x1
    80020404:	0127893b          	addw	s2,a5,s2
    80020408:	02812803          	lw	a6,40(sp)
    8002040c:	000a4683          	lbu	a3,0(s4)
    80020410:	04100593          	li	a1,65
    80020414:	0309463b          	divw	a2,s2,a6
    80020418:	00060713          	mv	a4,a2
    8002041c:	00b69863          	bne	a3,a1,8002042c <DHRYSTONE+0x2a4>
    80020420:	000ba703          	lw	a4,0(s7)
    80020424:	0096079b          	addiw	a5,a2,9
    80020428:	40e7873b          	subw	a4,a5,a4
    8002042c:	0014849b          	addiw	s1,s1,1
    80020430:	06500793          	li	a5,101
    80020434:	eef492e3          	bne	s1,a5,80020318 <DHRYSTONE+0x190>
    80020438:	00000513          	li	a0,0
    8002043c:	00e13c23          	sd	a4,24(sp)
    80020440:	00c13823          	sd	a2,16(sp)
    80020444:	01013423          	sd	a6,8(sp)
    80020448:	00020c17          	auipc	s8,0x20
    8002044c:	be0c3c03          	ld	s8,-1056(s8) # 80040028 <_GLOBAL_OFFSET_TABLE_+0x28>
    80020450:	6b0000ef          	jal	ra,80020b00 <time>
    80020454:	00ac3023          	sd	a0,0(s8)
    80020458:	00000513          	li	a0,0
    8002045c:	6ac000ef          	jal	ra,80020b08 <insn>
    80020460:	00020b17          	auipc	s6,0x20
    80020464:	c10b3b03          	ld	s6,-1008(s6) # 80040070 <_GLOBAL_OFFSET_TABLE_+0x70>
    80020468:	00ab3023          	sd	a0,0(s6)
    8002046c:	00001517          	auipc	a0,0x1
    80020470:	f6450513          	addi	a0,a0,-156 # 800213d0 <strcmp+0x2a8>
    80020474:	0bd000ef          	jal	ra,80020d30 <printf>
    80020478:	00001517          	auipc	a0,0x1
    8002047c:	0c850513          	addi	a0,a0,200 # 80021540 <strcmp+0x418>
    80020480:	0b1000ef          	jal	ra,80020d30 <printf>
    80020484:	00001517          	auipc	a0,0x1
    80020488:	f5c50513          	addi	a0,a0,-164 # 800213e0 <strcmp+0x2b8>
    8002048c:	0a5000ef          	jal	ra,80020d30 <printf>
    80020490:	00001517          	auipc	a0,0x1
    80020494:	0b050513          	addi	a0,a0,176 # 80021540 <strcmp+0x418>
    80020498:	099000ef          	jal	ra,80020d30 <printf>
    8002049c:	000ba583          	lw	a1,0(s7)
    800204a0:	00001517          	auipc	a0,0x1
    800204a4:	f7850513          	addi	a0,a0,-136 # 80021418 <strcmp+0x2f0>
    800204a8:	00020b97          	auipc	s7,0x20
    800204ac:	b88bbb83          	ld	s7,-1144(s7) # 80040030 <_GLOBAL_OFFSET_TABLE_+0x30>
    800204b0:	081000ef          	jal	ra,80020d30 <printf>
    800204b4:	00500593          	li	a1,5
    800204b8:	00001517          	auipc	a0,0x1
    800204bc:	f8050513          	addi	a0,a0,-128 # 80021438 <strcmp+0x310>
    800204c0:	071000ef          	jal	ra,80020d30 <printf>
    800204c4:	000aa583          	lw	a1,0(s5)
    800204c8:	00001517          	auipc	a0,0x1
    800204cc:	f9050513          	addi	a0,a0,-112 # 80021458 <strcmp+0x330>
    800204d0:	00020497          	auipc	s1,0x20
    800204d4:	b404b483          	ld	s1,-1216(s1) # 80040010 <_GLOBAL_OFFSET_TABLE_+0x10>
    800204d8:	059000ef          	jal	ra,80020d30 <printf>
    800204dc:	00100593          	li	a1,1
    800204e0:	00001517          	auipc	a0,0x1
    800204e4:	f5850513          	addi	a0,a0,-168 # 80021438 <strcmp+0x310>
    800204e8:	049000ef          	jal	ra,80020d30 <printf>
    800204ec:	000a4583          	lbu	a1,0(s4)
    800204f0:	00001517          	auipc	a0,0x1
    800204f4:	f8850513          	addi	a0,a0,-120 # 80021478 <strcmp+0x350>
    800204f8:	00020a97          	auipc	s5,0x20
    800204fc:	b10aba83          	ld	s5,-1264(s5) # 80040008 <_GLOBAL_OFFSET_TABLE_+0x8>
    80020500:	031000ef          	jal	ra,80020d30 <printf>
    80020504:	04100593          	li	a1,65
    80020508:	00001517          	auipc	a0,0x1
    8002050c:	f9050513          	addi	a0,a0,-112 # 80021498 <strcmp+0x370>
    80020510:	021000ef          	jal	ra,80020d30 <printf>
    80020514:	00044583          	lbu	a1,0(s0)
    80020518:	00001517          	auipc	a0,0x1
    8002051c:	fa050513          	addi	a0,a0,-96 # 800214b8 <strcmp+0x390>
    80020520:	00a00a13          	li	s4,10
    80020524:	00d000ef          	jal	ra,80020d30 <printf>
    80020528:	04200593          	li	a1,66
    8002052c:	00001517          	auipc	a0,0x1
    80020530:	f6c50513          	addi	a0,a0,-148 # 80021498 <strcmp+0x370>
    80020534:	7fc000ef          	jal	ra,80020d30 <printf>
    80020538:	00020797          	auipc	a5,0x20
    8002053c:	b287b783          	ld	a5,-1240(a5) # 80040060 <_GLOBAL_OFFSET_TABLE_+0x60>
    80020540:	0207a583          	lw	a1,32(a5)
    80020544:	00001517          	auipc	a0,0x1
    80020548:	f9450513          	addi	a0,a0,-108 # 800214d8 <strcmp+0x3b0>
    8002054c:	3e800413          	li	s0,1000
    80020550:	7e0000ef          	jal	ra,80020d30 <printf>
    80020554:	00700593          	li	a1,7
    80020558:	00001517          	auipc	a0,0x1
    8002055c:	ee050513          	addi	a0,a0,-288 # 80021438 <strcmp+0x310>
    80020560:	7d0000ef          	jal	ra,80020d30 <printf>
    80020564:	00020797          	auipc	a5,0x20
    80020568:	abc7b783          	ld	a5,-1348(a5) # 80040020 <_GLOBAL_OFFSET_TABLE_+0x20>
    8002056c:	65c7a583          	lw	a1,1628(a5)
    80020570:	00001517          	auipc	a0,0x1
    80020574:	f8850513          	addi	a0,a0,-120 # 800214f8 <strcmp+0x3d0>
    80020578:	7b8000ef          	jal	ra,80020d30 <printf>
    8002057c:	00001517          	auipc	a0,0x1
    80020580:	f9c50513          	addi	a0,a0,-100 # 80021518 <strcmp+0x3f0>
    80020584:	7ac000ef          	jal	ra,80020d30 <printf>
    80020588:	00001517          	auipc	a0,0x1
    8002058c:	fc050513          	addi	a0,a0,-64 # 80021548 <strcmp+0x420>
    80020590:	7a0000ef          	jal	ra,80020d30 <printf>
    80020594:	000d3783          	ld	a5,0(s10)
    80020598:	00001517          	auipc	a0,0x1
    8002059c:	fc050513          	addi	a0,a0,-64 # 80021558 <strcmp+0x430>
    800205a0:	0007a583          	lw	a1,0(a5)
    800205a4:	78c000ef          	jal	ra,80020d30 <printf>
    800205a8:	00001517          	auipc	a0,0x1
    800205ac:	fd050513          	addi	a0,a0,-48 # 80021578 <strcmp+0x450>
    800205b0:	780000ef          	jal	ra,80020d30 <printf>
    800205b4:	000d3783          	ld	a5,0(s10)
    800205b8:	00001517          	auipc	a0,0x1
    800205bc:	ff850513          	addi	a0,a0,-8 # 800215b0 <strcmp+0x488>
    800205c0:	0087a583          	lw	a1,8(a5)
    800205c4:	76c000ef          	jal	ra,80020d30 <printf>
    800205c8:	00000593          	li	a1,0
    800205cc:	00001517          	auipc	a0,0x1
    800205d0:	e6c50513          	addi	a0,a0,-404 # 80021438 <strcmp+0x310>
    800205d4:	75c000ef          	jal	ra,80020d30 <printf>
    800205d8:	000d3783          	ld	a5,0(s10)
    800205dc:	00001517          	auipc	a0,0x1
    800205e0:	ff450513          	addi	a0,a0,-12 # 800215d0 <strcmp+0x4a8>
    800205e4:	00c7a583          	lw	a1,12(a5)
    800205e8:	748000ef          	jal	ra,80020d30 <printf>
    800205ec:	00200593          	li	a1,2
    800205f0:	00001517          	auipc	a0,0x1
    800205f4:	e4850513          	addi	a0,a0,-440 # 80021438 <strcmp+0x310>
    800205f8:	738000ef          	jal	ra,80020d30 <printf>
    800205fc:	000d3783          	ld	a5,0(s10)
    80020600:	00001517          	auipc	a0,0x1
    80020604:	ff050513          	addi	a0,a0,-16 # 800215f0 <strcmp+0x4c8>
    80020608:	0107a583          	lw	a1,16(a5)
    8002060c:	724000ef          	jal	ra,80020d30 <printf>
    80020610:	01100593          	li	a1,17
    80020614:	00001517          	auipc	a0,0x1
    80020618:	e2450513          	addi	a0,a0,-476 # 80021438 <strcmp+0x310>
    8002061c:	714000ef          	jal	ra,80020d30 <printf>
    80020620:	000d3583          	ld	a1,0(s10)
    80020624:	00001517          	auipc	a0,0x1
    80020628:	fec50513          	addi	a0,a0,-20 # 80021610 <strcmp+0x4e8>
    8002062c:	01458593          	addi	a1,a1,20
    80020630:	700000ef          	jal	ra,80020d30 <printf>
    80020634:	00001517          	auipc	a0,0x1
    80020638:	ffc50513          	addi	a0,a0,-4 # 80021630 <strcmp+0x508>
    8002063c:	6f4000ef          	jal	ra,80020d30 <printf>
    80020640:	00001517          	auipc	a0,0x1
    80020644:	02850513          	addi	a0,a0,40 # 80021668 <strcmp+0x540>
    80020648:	6e8000ef          	jal	ra,80020d30 <printf>
    8002064c:	000bb783          	ld	a5,0(s7)
    80020650:	00001517          	auipc	a0,0x1
    80020654:	f0850513          	addi	a0,a0,-248 # 80021558 <strcmp+0x430>
    80020658:	0007a583          	lw	a1,0(a5)
    8002065c:	6d4000ef          	jal	ra,80020d30 <printf>
    80020660:	00001517          	auipc	a0,0x1
    80020664:	02050513          	addi	a0,a0,32 # 80021680 <strcmp+0x558>
    80020668:	6c8000ef          	jal	ra,80020d30 <printf>
    8002066c:	000bb783          	ld	a5,0(s7)
    80020670:	00001517          	auipc	a0,0x1
    80020674:	f4050513          	addi	a0,a0,-192 # 800215b0 <strcmp+0x488>
    80020678:	0087a583          	lw	a1,8(a5)
    8002067c:	6b4000ef          	jal	ra,80020d30 <printf>
    80020680:	00000593          	li	a1,0
    80020684:	00001517          	auipc	a0,0x1
    80020688:	db450513          	addi	a0,a0,-588 # 80021438 <strcmp+0x310>
    8002068c:	6a4000ef          	jal	ra,80020d30 <printf>
    80020690:	000bb783          	ld	a5,0(s7)
    80020694:	00001517          	auipc	a0,0x1
    80020698:	f3c50513          	addi	a0,a0,-196 # 800215d0 <strcmp+0x4a8>
    8002069c:	00c7a583          	lw	a1,12(a5)
    800206a0:	690000ef          	jal	ra,80020d30 <printf>
    800206a4:	00100593          	li	a1,1
    800206a8:	00001517          	auipc	a0,0x1
    800206ac:	d9050513          	addi	a0,a0,-624 # 80021438 <strcmp+0x310>
    800206b0:	680000ef          	jal	ra,80020d30 <printf>
    800206b4:	000bb783          	ld	a5,0(s7)
    800206b8:	00001517          	auipc	a0,0x1
    800206bc:	f3850513          	addi	a0,a0,-200 # 800215f0 <strcmp+0x4c8>
    800206c0:	0107a583          	lw	a1,16(a5)
    800206c4:	66c000ef          	jal	ra,80020d30 <printf>
    800206c8:	01200593          	li	a1,18
    800206cc:	00001517          	auipc	a0,0x1
    800206d0:	d6c50513          	addi	a0,a0,-660 # 80021438 <strcmp+0x310>
    800206d4:	65c000ef          	jal	ra,80020d30 <printf>
    800206d8:	000bb583          	ld	a1,0(s7)
    800206dc:	00001517          	auipc	a0,0x1
    800206e0:	f3450513          	addi	a0,a0,-204 # 80021610 <strcmp+0x4e8>
    800206e4:	01458593          	addi	a1,a1,20
    800206e8:	648000ef          	jal	ra,80020d30 <printf>
    800206ec:	00001517          	auipc	a0,0x1
    800206f0:	f4450513          	addi	a0,a0,-188 # 80021630 <strcmp+0x508>
    800206f4:	63c000ef          	jal	ra,80020d30 <printf>
    800206f8:	01813703          	ld	a4,24(sp)
    800206fc:	00001517          	auipc	a0,0x1
    80020700:	fc450513          	addi	a0,a0,-60 # 800216c0 <strcmp+0x598>
    80020704:	00070593          	mv	a1,a4
    80020708:	628000ef          	jal	ra,80020d30 <printf>
    8002070c:	00500593          	li	a1,5
    80020710:	00001517          	auipc	a0,0x1
    80020714:	d2850513          	addi	a0,a0,-728 # 80021438 <strcmp+0x310>
    80020718:	618000ef          	jal	ra,80020d30 <printf>
    8002071c:	00813803          	ld	a6,8(sp)
    80020720:	01013603          	ld	a2,16(sp)
    80020724:	00001517          	auipc	a0,0x1
    80020728:	fbc50513          	addi	a0,a0,-68 # 800216e0 <strcmp+0x5b8>
    8002072c:	4109093b          	subw	s2,s2,a6
    80020730:	0039179b          	slliw	a5,s2,0x3
    80020734:	4127893b          	subw	s2,a5,s2
    80020738:	40c905bb          	subw	a1,s2,a2
    8002073c:	5f4000ef          	jal	ra,80020d30 <printf>
    80020740:	00d00593          	li	a1,13
    80020744:	00001517          	auipc	a0,0x1
    80020748:	cf450513          	addi	a0,a0,-780 # 80021438 <strcmp+0x310>
    8002074c:	5e4000ef          	jal	ra,80020d30 <printf>
    80020750:	02812583          	lw	a1,40(sp)
    80020754:	00001517          	auipc	a0,0x1
    80020758:	fac50513          	addi	a0,a0,-84 # 80021700 <strcmp+0x5d8>
    8002075c:	5d4000ef          	jal	ra,80020d30 <printf>
    80020760:	00700593          	li	a1,7
    80020764:	00001517          	auipc	a0,0x1
    80020768:	cd450513          	addi	a0,a0,-812 # 80021438 <strcmp+0x310>
    8002076c:	5c4000ef          	jal	ra,80020d30 <printf>
    80020770:	02c12583          	lw	a1,44(sp)
    80020774:	00001517          	auipc	a0,0x1
    80020778:	fac50513          	addi	a0,a0,-84 # 80021720 <strcmp+0x5f8>
    8002077c:	5b4000ef          	jal	ra,80020d30 <printf>
    80020780:	00001517          	auipc	a0,0x1
    80020784:	cb850513          	addi	a0,a0,-840 # 80021438 <strcmp+0x310>
    80020788:	00100593          	li	a1,1
    8002078c:	5a4000ef          	jal	ra,80020d30 <printf>
    80020790:	00013583          	ld	a1,0(sp)
    80020794:	00001517          	auipc	a0,0x1
    80020798:	fac50513          	addi	a0,a0,-84 # 80021740 <strcmp+0x618>
    8002079c:	594000ef          	jal	ra,80020d30 <printf>
    800207a0:	00001517          	auipc	a0,0x1
    800207a4:	fc050513          	addi	a0,a0,-64 # 80021760 <strcmp+0x638>
    800207a8:	588000ef          	jal	ra,80020d30 <printf>
    800207ac:	00098593          	mv	a1,s3
    800207b0:	00001517          	auipc	a0,0x1
    800207b4:	fe850513          	addi	a0,a0,-24 # 80021798 <strcmp+0x670>
    800207b8:	578000ef          	jal	ra,80020d30 <printf>
    800207bc:	00001517          	auipc	a0,0x1
    800207c0:	ffc50513          	addi	a0,a0,-4 # 800217b8 <strcmp+0x690>
    800207c4:	56c000ef          	jal	ra,80020d30 <printf>
    800207c8:	00001517          	auipc	a0,0x1
    800207cc:	d7850513          	addi	a0,a0,-648 # 80021540 <strcmp+0x418>
    800207d0:	560000ef          	jal	ra,80020d30 <printf>
    800207d4:	00020797          	auipc	a5,0x20
    800207d8:	8447b783          	ld	a5,-1980(a5) # 80040018 <_GLOBAL_OFFSET_TABLE_+0x18>
    800207dc:	00020697          	auipc	a3,0x20
    800207e0:	87c6b683          	ld	a3,-1924(a3) # 80040058 <_GLOBAL_OFFSET_TABLE_+0x58>
    800207e4:	0007b603          	ld	a2,0(a5)
    800207e8:	0006b683          	ld	a3,0(a3)
    800207ec:	000c3703          	ld	a4,0(s8)
    800207f0:	000b3783          	ld	a5,0(s6)
    800207f4:	06400593          	li	a1,100
    800207f8:	40c70733          	sub	a4,a4,a2
    800207fc:	40d787b3          	sub	a5,a5,a3
    80020800:	00001517          	auipc	a0,0x1
    80020804:	ff050513          	addi	a0,a0,-16 # 800217f0 <strcmp+0x6c8>
    80020808:	00e4b023          	sd	a4,0(s1)
    8002080c:	00fab023          	sd	a5,0(s5)
    80020810:	520000ef          	jal	ra,80020d30 <printf>
    80020814:	000ab603          	ld	a2,0(s5)
    80020818:	0004b583          	ld	a1,0(s1)
    8002081c:	00001517          	auipc	a0,0x1
    80020820:	fec50513          	addi	a0,a0,-20 # 80021808 <strcmp+0x6e0>
    80020824:	50c000ef          	jal	ra,80020d30 <printf>
    80020828:	0004b703          	ld	a4,0(s1)
    8002082c:	3e800593          	li	a1,1000
    80020830:	000ab783          	ld	a5,0(s5)
    80020834:	02e585b3          	mul	a1,a1,a4
    80020838:	06400613          	li	a2,100
    8002083c:	00001517          	auipc	a0,0x1
    80020840:	ff450513          	addi	a0,a0,-12 # 80021830 <strcmp+0x708>
    80020844:	02f5c5b3          	div	a1,a1,a5
    80020848:	0005859b          	sext.w	a1,a1
    8002084c:	0345c6bb          	divw	a3,a1,s4
    80020850:	02c5c63b          	divw	a2,a1,a2
    80020854:	0345e73b          	remw	a4,a1,s4
    80020858:	0346e6bb          	remw	a3,a3,s4
    8002085c:	0346663b          	remw	a2,a2,s4
    80020860:	0285c5bb          	divw	a1,a1,s0
    80020864:	4cc000ef          	jal	ra,80020d30 <printf>
    80020868:	0004b783          	ld	a5,0(s1)
    8002086c:	05f5e4b7          	lui	s1,0x5f5e
    80020870:	10048493          	addi	s1,s1,256 # 5f5e100 <_start-0x7a0a1f00>
    80020874:	02f4c4b3          	div	s1,s1,a5
    80020878:	00001517          	auipc	a0,0x1
    8002087c:	fe050513          	addi	a0,a0,-32 # 80021858 <strcmp+0x730>
    80020880:	0294043b          	mulw	s0,s0,s1
    80020884:	00048593          	mv	a1,s1
    80020888:	4a8000ef          	jal	ra,80020d30 <printf>
    8002088c:	000046b7          	lui	a3,0x4
    80020890:	0002b637          	lui	a2,0x2b
    80020894:	6dd00713          	li	a4,1757
    80020898:	4a26869b          	addiw	a3,a3,1186
    8002089c:	e546061b          	addiw	a2,a2,-428
    800208a0:	001ad5b7          	lui	a1,0x1ad
    800208a4:	f485859b          	addiw	a1,a1,-184
    800208a8:	02e4473b          	divw	a4,s0,a4
    800208ac:	00001517          	auipc	a0,0x1
    800208b0:	fd450513          	addi	a0,a0,-44 # 80021880 <strcmp+0x758>
    800208b4:	02d446bb          	divw	a3,s0,a3
    800208b8:	02c4463b          	divw	a2,s0,a2
    800208bc:	0347673b          	remw	a4,a4,s4
    800208c0:	0346e6bb          	remw	a3,a3,s4
    800208c4:	0346663b          	remw	a2,a2,s4
    800208c8:	02b445bb          	divw	a1,s0,a1
    800208cc:	464000ef          	jal	ra,80020d30 <printf>
    800208d0:	0d813083          	ld	ra,216(sp)
    800208d4:	0d013403          	ld	s0,208(sp)
    800208d8:	0c813483          	ld	s1,200(sp)
    800208dc:	0c013903          	ld	s2,192(sp)
    800208e0:	0b813983          	ld	s3,184(sp)
    800208e4:	0b013a03          	ld	s4,176(sp)
    800208e8:	0a813a83          	ld	s5,168(sp)
    800208ec:	0a013b03          	ld	s6,160(sp)
    800208f0:	09813b83          	ld	s7,152(sp)
    800208f4:	09013c03          	ld	s8,144(sp)
    800208f8:	08813c83          	ld	s9,136(sp)
    800208fc:	08013d03          	ld	s10,128(sp)
    80020900:	07813d83          	ld	s11,120(sp)
    80020904:	0e010113          	addi	sp,sp,224
    80020908:	00008067          	ret
    8002090c:	00900913          	li	s2,9
    80020910:	af9ff06f          	j	80020408 <DHRYSTONE+0x280>
    80020914:	00001517          	auipc	a0,0x1
    80020918:	9e450513          	addi	a0,a0,-1564 # 800212f8 <strcmp+0x1d0>
    8002091c:	414000ef          	jal	ra,80020d30 <printf>
    80020920:	00001517          	auipc	a0,0x1
    80020924:	c2050513          	addi	a0,a0,-992 # 80021540 <strcmp+0x418>
    80020928:	408000ef          	jal	ra,80020d30 <printf>
    8002092c:	95dff06f          	j	80020288 <DHRYSTONE+0x100>

Disassembly of section .text.Proc_4:

0000000080020930 <Proc_4>:
    80020930:	0001f797          	auipc	a5,0x1f
    80020934:	7107b783          	ld	a5,1808(a5) # 80040040 <_GLOBAL_OFFSET_TABLE_+0x40>
    80020938:	0007c783          	lbu	a5,0(a5)
    8002093c:	0001f717          	auipc	a4,0x1f
    80020940:	72c73703          	ld	a4,1836(a4) # 80040068 <_GLOBAL_OFFSET_TABLE_+0x68>
    80020944:	00072683          	lw	a3,0(a4)
    80020948:	fbf78793          	addi	a5,a5,-65
    8002094c:	0017b793          	seqz	a5,a5
    80020950:	00d7e7b3          	or	a5,a5,a3
    80020954:	00f72023          	sw	a5,0(a4)
    80020958:	0001f797          	auipc	a5,0x1f
    8002095c:	6f07b783          	ld	a5,1776(a5) # 80040048 <_GLOBAL_OFFSET_TABLE_+0x48>
    80020960:	04200713          	li	a4,66
    80020964:	00e78023          	sb	a4,0(a5)
    80020968:	00008067          	ret

Disassembly of section .text.Proc_5:

000000008002096c <Proc_5>:
    8002096c:	0001f797          	auipc	a5,0x1f
    80020970:	6d47b783          	ld	a5,1748(a5) # 80040040 <_GLOBAL_OFFSET_TABLE_+0x40>
    80020974:	04100713          	li	a4,65
    80020978:	00e78023          	sb	a4,0(a5)
    8002097c:	0001f797          	auipc	a5,0x1f
    80020980:	6ec7b783          	ld	a5,1772(a5) # 80040068 <_GLOBAL_OFFSET_TABLE_+0x68>
    80020984:	0007a023          	sw	zero,0(a5)
    80020988:	00008067          	ret

Disassembly of section .text.Proc_6:

000000008002098c <Proc_6>:
    8002098c:	00200793          	li	a5,2
    80020990:	02f50663          	beq	a0,a5,800209bc <Proc_6+0x30>
    80020994:	00300713          	li	a4,3
    80020998:	00e5a023          	sw	a4,0(a1) # 1ad000 <_start-0x7fe53000>
    8002099c:	00100713          	li	a4,1
    800209a0:	02e50463          	beq	a0,a4,800209c8 <Proc_6+0x3c>
    800209a4:	02050c63          	beqz	a0,800209dc <Proc_6+0x50>
    800209a8:	00400713          	li	a4,4
    800209ac:	00e50463          	beq	a0,a4,800209b4 <Proc_6+0x28>
    800209b0:	00008067          	ret
    800209b4:	00f5a023          	sw	a5,0(a1)
    800209b8:	00008067          	ret
    800209bc:	00100793          	li	a5,1
    800209c0:	00f5a023          	sw	a5,0(a1)
    800209c4:	00008067          	ret
    800209c8:	0001f797          	auipc	a5,0x1f
    800209cc:	6707b783          	ld	a5,1648(a5) # 80040038 <_GLOBAL_OFFSET_TABLE_+0x38>
    800209d0:	0007a703          	lw	a4,0(a5)
    800209d4:	06400793          	li	a5,100
    800209d8:	fee7d0e3          	bge	a5,a4,800209b8 <Proc_6+0x2c>
    800209dc:	0005a023          	sw	zero,0(a1)
    800209e0:	00008067          	ret

Disassembly of section .text.Proc_7:

00000000800209e4 <Proc_7>:
    800209e4:	0025051b          	addiw	a0,a0,2
    800209e8:	00b505bb          	addw	a1,a0,a1
    800209ec:	00b62023          	sw	a1,0(a2) # 2b000 <_start-0x7ffd5000>
    800209f0:	00008067          	ret

Disassembly of section .text.Proc_8:

00000000800209f4 <Proc_8>:
    800209f4:	0056079b          	addiw	a5,a2,5
    800209f8:	0c800713          	li	a4,200
    800209fc:	02e78733          	mul	a4,a5,a4
    80020a00:	00078813          	mv	a6,a5
    80020a04:	00261613          	slli	a2,a2,0x2
    80020a08:	00279793          	slli	a5,a5,0x2
    80020a0c:	00f50533          	add	a0,a0,a5
    80020a10:	00d52023          	sw	a3,0(a0)
    80020a14:	00d52223          	sw	a3,4(a0)
    80020a18:	07052c23          	sw	a6,120(a0)
    80020a1c:	00c707b3          	add	a5,a4,a2
    80020a20:	00f587b3          	add	a5,a1,a5
    80020a24:	0107a683          	lw	a3,16(a5)
    80020a28:	0107aa23          	sw	a6,20(a5)
    80020a2c:	0107ac23          	sw	a6,24(a5)
    80020a30:	0016869b          	addiw	a3,a3,1
    80020a34:	00d7a823          	sw	a3,16(a5)
    80020a38:	00052783          	lw	a5,0(a0)
    80020a3c:	00e585b3          	add	a1,a1,a4
    80020a40:	00c585b3          	add	a1,a1,a2
    80020a44:	00001637          	lui	a2,0x1
    80020a48:	00b605b3          	add	a1,a2,a1
    80020a4c:	faf5aa23          	sw	a5,-76(a1)
    80020a50:	00500713          	li	a4,5
    80020a54:	0001f797          	auipc	a5,0x1f
    80020a58:	5e47b783          	ld	a5,1508(a5) # 80040038 <_GLOBAL_OFFSET_TABLE_+0x38>
    80020a5c:	00e7a023          	sw	a4,0(a5)
    80020a60:	00008067          	ret

Disassembly of section .text.Func_1:

0000000080020a64 <Func_1>:
    80020a64:	0ff57513          	andi	a0,a0,255
    80020a68:	0ff5f593          	andi	a1,a1,255
    80020a6c:	00b50663          	beq	a0,a1,80020a78 <Func_1+0x14>
    80020a70:	00000513          	li	a0,0
    80020a74:	00008067          	ret
    80020a78:	0001f797          	auipc	a5,0x1f
    80020a7c:	5c87b783          	ld	a5,1480(a5) # 80040040 <_GLOBAL_OFFSET_TABLE_+0x40>
    80020a80:	00a78023          	sb	a0,0(a5)
    80020a84:	00100513          	li	a0,1
    80020a88:	00008067          	ret

Disassembly of section .text.Func_2:

0000000080020a8c <Func_2>:
    80020a8c:	ff010113          	addi	sp,sp,-16
    80020a90:	00113423          	sd	ra,8(sp)
    80020a94:	0001f817          	auipc	a6,0x1f
    80020a98:	5ac83803          	ld	a6,1452(a6) # 80040040 <_GLOBAL_OFFSET_TABLE_+0x40>
    80020a9c:	00254783          	lbu	a5,2(a0)
    80020aa0:	0035c703          	lbu	a4,3(a1)
    80020aa4:	00084603          	lbu	a2,0(a6)
    80020aa8:	00000693          	li	a3,0
    80020aac:	02e78e63          	beq	a5,a4,80020ae8 <Func_2+0x5c>
    80020ab0:	00068463          	beqz	a3,80020ab8 <Func_2+0x2c>
    80020ab4:	00c80023          	sb	a2,0(a6)
    80020ab8:	670000ef          	jal	ra,80021128 <strcmp>
    80020abc:	00000793          	li	a5,0
    80020ac0:	00a05c63          	blez	a0,80020ad8 <Func_2+0x4c>
    80020ac4:	0001f797          	auipc	a5,0x1f
    80020ac8:	5747b783          	ld	a5,1396(a5) # 80040038 <_GLOBAL_OFFSET_TABLE_+0x38>
    80020acc:	00a00713          	li	a4,10
    80020ad0:	00e7a023          	sw	a4,0(a5)
    80020ad4:	00100793          	li	a5,1
    80020ad8:	00813083          	ld	ra,8(sp)
    80020adc:	00078513          	mv	a0,a5
    80020ae0:	01010113          	addi	sp,sp,16
    80020ae4:	00008067          	ret
    80020ae8:	00100693          	li	a3,1
    80020aec:	00078613          	mv	a2,a5
    80020af0:	fbdff06f          	j	80020aac <Func_2+0x20>

Disassembly of section .text.Func_3:

0000000080020af4 <Func_3>:
    80020af4:	ffe50513          	addi	a0,a0,-2
    80020af8:	00153513          	seqz	a0,a0
    80020afc:	00008067          	ret

Disassembly of section .text.time:

0000000080020b00 <time>:
    80020b00:	c0002573          	rdcycle	a0
    80020b04:	00008067          	ret

Disassembly of section .text.insn:

0000000080020b08 <insn>:
    80020b08:	c0202573          	rdinstret	a0
    80020b0c:	00008067          	ret

Disassembly of section .text.enableIntr:

0000000080020b10 <enableIntr>:
    80020b10:	300467f3          	csrrsi	a5,mstatus,8
    80020b14:	00008067          	ret

Disassembly of section .text.enableExternalIntr:

0000000080020b18 <enableExternalIntr>:
    80020b18:	000017b7          	lui	a5,0x1
    80020b1c:	8007879b          	addiw	a5,a5,-2048
    80020b20:	3047a7f3          	csrrs	a5,mie,a5
    80020b24:	300467f3          	csrrsi	a5,mstatus,8
    80020b28:	00008067          	ret

Disassembly of section .text.enableTimerIntr:

0000000080020b2c <enableTimerIntr>:
    80020b2c:	08000793          	li	a5,128
    80020b30:	3047a7f3          	csrrs	a5,mie,a5
    80020b34:	300467f3          	csrrsi	a5,mstatus,8
    80020b38:	00008067          	ret

Disassembly of section .text.disableIntr:

0000000080020b3c <disableIntr>:
    80020b3c:	300477f3          	csrrci	a5,mstatus,8
    80020b40:	00008067          	ret

Disassembly of section .text.disableExternalIntr:

0000000080020b44 <disableExternalIntr>:
    80020b44:	000017b7          	lui	a5,0x1
    80020b48:	8007879b          	addiw	a5,a5,-2048
    80020b4c:	3047b7f3          	csrrc	a5,mie,a5
    80020b50:	00008067          	ret

Disassembly of section .text.disableTimerIntr:

0000000080020b54 <disableTimerIntr>:
    80020b54:	08000793          	li	a5,128
    80020b58:	3047b7f3          	csrrc	a5,mie,a5
    80020b5c:	00008067          	ret

Disassembly of section .text.readMtime:

0000000080020b60 <readMtime>:
    80020b60:	100007b7          	lui	a5,0x10000
    80020b64:	0047a503          	lw	a0,4(a5) # 10000004 <_start-0x6ffffffc>
    80020b68:	0005051b          	sext.w	a0,a0
    80020b6c:	00008067          	ret

Disassembly of section .text.readMtimeCmp:

0000000080020b70 <readMtimeCmp>:
    80020b70:	100007b7          	lui	a5,0x10000
    80020b74:	00c7a503          	lw	a0,12(a5) # 1000000c <_start-0x6ffffff4>
    80020b78:	0005051b          	sext.w	a0,a0
    80020b7c:	00008067          	ret

Disassembly of section .text.writeMtimeCmp:

0000000080020b80 <writeMtimeCmp>:
    80020b80:	100007b7          	lui	a5,0x10000
    80020b84:	00a7a623          	sw	a0,12(a5) # 1000000c <_start-0x6ffffff4>
    80020b88:	00008067          	ret

Disassembly of section .text.malloc:

0000000080020b8c <malloc>:
    80020b8c:	0001f797          	auipc	a5,0x1f
    80020b90:	50878793          	addi	a5,a5,1288 # 80040094 <heap_memory_used>
    80020b94:	0007a783          	lw	a5,0(a5)
    80020b98:	40000713          	li	a4,1024
    80020b9c:	00f506bb          	addw	a3,a0,a5
    80020ba0:	0001f617          	auipc	a2,0x1f
    80020ba4:	4ed62a23          	sw	a3,1268(a2) # 80040094 <heap_memory_used>
    80020ba8:	0001f517          	auipc	a0,0x1f
    80020bac:	4d053503          	ld	a0,1232(a0) # 80040078 <_GLOBAL_OFFSET_TABLE_+0x78>
    80020bb0:	00a78533          	add	a0,a5,a0
    80020bb4:	00d75463          	bge	a4,a3,80020bbc <malloc+0x30>
    80020bb8:	00100073          	ebreak
    80020bbc:	00008067          	ret

Disassembly of section .text.printf_c:

0000000080020bc0 <printf_c>:
    80020bc0:	38000737          	lui	a4,0x38000
    80020bc4:	40b70713          	addi	a4,a4,1035 # 3800040b <_start-0x47fffbf5>
    80020bc8:	00271713          	slli	a4,a4,0x2
    80020bcc:	00072783          	lw	a5,0(a4)
    80020bd0:	0107f793          	andi	a5,a5,16
    80020bd4:	fe079ce3          	bnez	a5,80020bcc <printf_c+0xc>
    80020bd8:	0e0007b7          	lui	a5,0xe000
    80020bdc:	10378793          	addi	a5,a5,259 # e000103 <_start-0x71fffefd>
    80020be0:	00479793          	slli	a5,a5,0x4
    80020be4:	00a7a023          	sw	a0,0(a5)
    80020be8:	00008067          	ret

Disassembly of section .text.printf_s:

0000000080020bec <printf_s>:
    80020bec:	00054783          	lbu	a5,0(a0)
    80020bf0:	02078e63          	beqz	a5,80020c2c <printf_s+0x40>
    80020bf4:	38000737          	lui	a4,0x38000
    80020bf8:	0e000637          	lui	a2,0xe000
    80020bfc:	40b70713          	addi	a4,a4,1035 # 3800040b <_start-0x47fffbf5>
    80020c00:	10360613          	addi	a2,a2,259 # e000103 <_start-0x71fffefd>
    80020c04:	00271713          	slli	a4,a4,0x2
    80020c08:	00461613          	slli	a2,a2,0x4
    80020c0c:	00150513          	addi	a0,a0,1
    80020c10:	0007869b          	sext.w	a3,a5
    80020c14:	00072783          	lw	a5,0(a4)
    80020c18:	0107f793          	andi	a5,a5,16
    80020c1c:	fe079ce3          	bnez	a5,80020c14 <printf_s+0x28>
    80020c20:	00d62023          	sw	a3,0(a2)
    80020c24:	00054783          	lbu	a5,0(a0)
    80020c28:	fe0792e3          	bnez	a5,80020c0c <printf_s+0x20>
    80020c2c:	00008067          	ret

Disassembly of section .text.printf_d:

0000000080020c30 <printf_d>:
    80020c30:	fe010113          	addi	sp,sp,-32
    80020c34:	06054663          	bltz	a0,80020ca0 <printf_d+0x70>
    80020c38:	00010613          	mv	a2,sp
    80020c3c:	00060713          	mv	a4,a2
    80020c40:	00a00693          	li	a3,10
    80020c44:	00051463          	bnez	a0,80020c4c <printf_d+0x1c>
    80020c48:	00c71e63          	bne	a4,a2,80020c64 <printf_d+0x34>
    80020c4c:	02d567bb          	remw	a5,a0,a3
    80020c50:	00170713          	addi	a4,a4,1
    80020c54:	0307879b          	addiw	a5,a5,48
    80020c58:	02d5453b          	divw	a0,a0,a3
    80020c5c:	fef70fa3          	sb	a5,-1(a4)
    80020c60:	fe5ff06f          	j	80020c44 <printf_d+0x14>
    80020c64:	380006b7          	lui	a3,0x38000
    80020c68:	0e000537          	lui	a0,0xe000
    80020c6c:	40b68693          	addi	a3,a3,1035 # 3800040b <_start-0x47fffbf5>
    80020c70:	10350513          	addi	a0,a0,259 # e000103 <_start-0x71fffefd>
    80020c74:	00269693          	slli	a3,a3,0x2
    80020c78:	00451513          	slli	a0,a0,0x4
    80020c7c:	fff70713          	addi	a4,a4,-1
    80020c80:	00074583          	lbu	a1,0(a4)
    80020c84:	0006a783          	lw	a5,0(a3)
    80020c88:	0107f793          	andi	a5,a5,16
    80020c8c:	fe079ce3          	bnez	a5,80020c84 <printf_d+0x54>
    80020c90:	00b52023          	sw	a1,0(a0)
    80020c94:	fec714e3          	bne	a4,a2,80020c7c <printf_d+0x4c>
    80020c98:	02010113          	addi	sp,sp,32
    80020c9c:	00008067          	ret
    80020ca0:	38000737          	lui	a4,0x38000
    80020ca4:	40b70713          	addi	a4,a4,1035 # 3800040b <_start-0x47fffbf5>
    80020ca8:	00271713          	slli	a4,a4,0x2
    80020cac:	00072783          	lw	a5,0(a4)
    80020cb0:	0107f793          	andi	a5,a5,16
    80020cb4:	fe079ce3          	bnez	a5,80020cac <printf_d+0x7c>
    80020cb8:	0e0007b7          	lui	a5,0xe000
    80020cbc:	10378793          	addi	a5,a5,259 # e000103 <_start-0x71fffefd>
    80020cc0:	00479793          	slli	a5,a5,0x4
    80020cc4:	02d00713          	li	a4,45
    80020cc8:	00e7a023          	sw	a4,0(a5)
    80020ccc:	40a0053b          	negw	a0,a0
    80020cd0:	f69ff06f          	j	80020c38 <printf_d+0x8>

Disassembly of section .text.printf_h:

0000000080020cd4 <printf_h>:
    80020cd4:	fff5869b          	addiw	a3,a1,-1
    80020cd8:	0026969b          	slliw	a3,a3,0x2
    80020cdc:	0406c863          	bltz	a3,80020d2c <printf_h+0x58>
    80020ce0:	38000737          	lui	a4,0x38000
    80020ce4:	0e0005b7          	lui	a1,0xe000
    80020ce8:	40b70713          	addi	a4,a4,1035 # 3800040b <_start-0x47fffbf5>
    80020cec:	10358593          	addi	a1,a1,259 # e000103 <_start-0x71fffefd>
    80020cf0:	ffc00893          	li	a7,-4
    80020cf4:	00001817          	auipc	a6,0x1
    80020cf8:	bac80813          	addi	a6,a6,-1108 # 800218a0 <strcmp+0x778>
    80020cfc:	00271713          	slli	a4,a4,0x2
    80020d00:	00459593          	slli	a1,a1,0x4
    80020d04:	00d557bb          	srlw	a5,a0,a3
    80020d08:	00f7f793          	andi	a5,a5,15
    80020d0c:	00f807b3          	add	a5,a6,a5
    80020d10:	0007c603          	lbu	a2,0(a5)
    80020d14:	00072783          	lw	a5,0(a4)
    80020d18:	0107f793          	andi	a5,a5,16
    80020d1c:	fe079ce3          	bnez	a5,80020d14 <printf_h+0x40>
    80020d20:	00c5a023          	sw	a2,0(a1)
    80020d24:	ffc6869b          	addiw	a3,a3,-4
    80020d28:	fd169ee3          	bne	a3,a7,80020d04 <printf_h+0x30>
    80020d2c:	00008067          	ret

Disassembly of section .text.printf:

0000000080020d30 <printf>:
    80020d30:	f8010113          	addi	sp,sp,-128
    80020d34:	02113c23          	sd	ra,56(sp)
    80020d38:	02813823          	sd	s0,48(sp)
    80020d3c:	02913423          	sd	s1,40(sp)
    80020d40:	03213023          	sd	s2,32(sp)
    80020d44:	01313c23          	sd	s3,24(sp)
    80020d48:	01413823          	sd	s4,16(sp)
    80020d4c:	00054303          	lbu	t1,0(a0)
    80020d50:	06f13423          	sd	a5,104(sp)
    80020d54:	04810793          	addi	a5,sp,72
    80020d58:	04b13423          	sd	a1,72(sp)
    80020d5c:	04c13823          	sd	a2,80(sp)
    80020d60:	04d13c23          	sd	a3,88(sp)
    80020d64:	06e13023          	sd	a4,96(sp)
    80020d68:	07013823          	sd	a6,112(sp)
    80020d6c:	07113c23          	sd	a7,120(sp)
    80020d70:	00f13423          	sd	a5,8(sp)
    80020d74:	04030a63          	beqz	t1,80020dc8 <printf+0x98>
    80020d78:	38000437          	lui	s0,0x38000
    80020d7c:	0e000a37          	lui	s4,0xe000
    80020d80:	40b40413          	addi	s0,s0,1035 # 3800040b <_start-0x47fffbf5>
    80020d84:	103a0a13          	addi	s4,s4,259 # e000103 <_start-0x71fffefd>
    80020d88:	00000493          	li	s1,0
    80020d8c:	00050913          	mv	s2,a0
    80020d90:	00241413          	slli	s0,s0,0x2
    80020d94:	004a1a13          	slli	s4,s4,0x4
    80020d98:	06300993          	li	s3,99
    80020d9c:	02500793          	li	a5,37
    80020da0:	04f30463          	beq	t1,a5,80020de8 <printf+0xb8>
    80020da4:	0003031b          	sext.w	t1,t1
    80020da8:	00042783          	lw	a5,0(s0)
    80020dac:	0107f793          	andi	a5,a5,16
    80020db0:	fe079ce3          	bnez	a5,80020da8 <printf+0x78>
    80020db4:	006a2023          	sw	t1,0(s4)
    80020db8:	0014849b          	addiw	s1,s1,1
    80020dbc:	009907b3          	add	a5,s2,s1
    80020dc0:	0007c303          	lbu	t1,0(a5)
    80020dc4:	fc031ce3          	bnez	t1,80020d9c <printf+0x6c>
    80020dc8:	03813083          	ld	ra,56(sp)
    80020dcc:	03013403          	ld	s0,48(sp)
    80020dd0:	02813483          	ld	s1,40(sp)
    80020dd4:	02013903          	ld	s2,32(sp)
    80020dd8:	01813983          	ld	s3,24(sp)
    80020ddc:	01013a03          	ld	s4,16(sp)
    80020de0:	08010113          	addi	sp,sp,128
    80020de4:	00008067          	ret
    80020de8:	0014871b          	addiw	a4,s1,1
    80020dec:	07300613          	li	a2,115
    80020df0:	06400593          	li	a1,100
    80020df4:	07500813          	li	a6,117
    80020df8:	06c00513          	li	a0,108
    80020dfc:	03000893          	li	a7,48
    80020e00:	0180006f          	j	80020e18 <printf+0xe8>
    80020e04:	06c78463          	beq	a5,a2,80020e6c <printf+0x13c>
    80020e08:	04b78663          	beq	a5,a1,80020e54 <printf+0x124>
    80020e0c:	05078463          	beq	a5,a6,80020e54 <printf+0x124>
    80020e10:	08a78c63          	beq	a5,a0,80020ea8 <printf+0x178>
    80020e14:	0b178c63          	beq	a5,a7,80020ecc <printf+0x19c>
    80020e18:	00e906b3          	add	a3,s2,a4
    80020e1c:	0006c783          	lbu	a5,0(a3)
    80020e20:	0007049b          	sext.w	s1,a4
    80020e24:	00170713          	addi	a4,a4,1
    80020e28:	f80788e3          	beqz	a5,80020db8 <printf+0x88>
    80020e2c:	fd379ce3          	bne	a5,s3,80020e04 <printf+0xd4>
    80020e30:	00813783          	ld	a5,8(sp)
    80020e34:	0007a703          	lw	a4,0(a5)
    80020e38:	00878793          	addi	a5,a5,8
    80020e3c:	00f13423          	sd	a5,8(sp)
    80020e40:	00042783          	lw	a5,0(s0)
    80020e44:	0107f793          	andi	a5,a5,16
    80020e48:	fe079ce3          	bnez	a5,80020e40 <printf+0x110>
    80020e4c:	00ea2023          	sw	a4,0(s4)
    80020e50:	f69ff06f          	j	80020db8 <printf+0x88>
    80020e54:	00813783          	ld	a5,8(sp)
    80020e58:	0007a503          	lw	a0,0(a5)
    80020e5c:	00878793          	addi	a5,a5,8
    80020e60:	00f13423          	sd	a5,8(sp)
    80020e64:	dcdff0ef          	jal	ra,80020c30 <printf_d>
    80020e68:	f51ff06f          	j	80020db8 <printf+0x88>
    80020e6c:	00813783          	ld	a5,8(sp)
    80020e70:	0007b683          	ld	a3,0(a5)
    80020e74:	00878793          	addi	a5,a5,8
    80020e78:	00f13423          	sd	a5,8(sp)
    80020e7c:	0006c783          	lbu	a5,0(a3)
    80020e80:	f2078ce3          	beqz	a5,80020db8 <printf+0x88>
    80020e84:	00168693          	addi	a3,a3,1
    80020e88:	0007871b          	sext.w	a4,a5
    80020e8c:	00042783          	lw	a5,0(s0)
    80020e90:	0107f793          	andi	a5,a5,16
    80020e94:	fe079ce3          	bnez	a5,80020e8c <printf+0x15c>
    80020e98:	00ea2023          	sw	a4,0(s4)
    80020e9c:	0006c783          	lbu	a5,0(a3)
    80020ea0:	fe0792e3          	bnez	a5,80020e84 <printf+0x154>
    80020ea4:	f15ff06f          	j	80020db8 <printf+0x88>
    80020ea8:	00813783          	ld	a5,8(sp)
    80020eac:	0016c683          	lbu	a3,1(a3)
    80020eb0:	0007b503          	ld	a0,0(a5)
    80020eb4:	00878713          	addi	a4,a5,8
    80020eb8:	0005051b          	sext.w	a0,a0
    80020ebc:	07068663          	beq	a3,a6,80020f28 <printf+0x1f8>
    80020ec0:	00e13423          	sd	a4,8(sp)
    80020ec4:	d6dff0ef          	jal	ra,80020c30 <printf_d>
    80020ec8:	ef1ff06f          	j	80020db8 <printf+0x88>
    80020ecc:	00813783          	ld	a5,8(sp)
    80020ed0:	0016c703          	lbu	a4,1(a3)
    80020ed4:	ffc00513          	li	a0,-4
    80020ed8:	00878693          	addi	a3,a5,8
    80020edc:	fcf7071b          	addiw	a4,a4,-49
    80020ee0:	00d13423          	sd	a3,8(sp)
    80020ee4:	0027171b          	slliw	a4,a4,0x2
    80020ee8:	0007a583          	lw	a1,0(a5)
    80020eec:	00001617          	auipc	a2,0x1
    80020ef0:	9b460613          	addi	a2,a2,-1612 # 800218a0 <strcmp+0x778>
    80020ef4:	02074663          	bltz	a4,80020f20 <printf+0x1f0>
    80020ef8:	00e5d7bb          	srlw	a5,a1,a4
    80020efc:	00f7f793          	andi	a5,a5,15
    80020f00:	00f607b3          	add	a5,a2,a5
    80020f04:	0007c683          	lbu	a3,0(a5)
    80020f08:	00042783          	lw	a5,0(s0)
    80020f0c:	0107f793          	andi	a5,a5,16
    80020f10:	fe079ce3          	bnez	a5,80020f08 <printf+0x1d8>
    80020f14:	00da2023          	sw	a3,0(s4)
    80020f18:	ffc7071b          	addiw	a4,a4,-4
    80020f1c:	fca71ee3          	bne	a4,a0,80020ef8 <printf+0x1c8>
    80020f20:	0024849b          	addiw	s1,s1,2
    80020f24:	e95ff06f          	j	80020db8 <printf+0x88>
    80020f28:	0014849b          	addiw	s1,s1,1
    80020f2c:	00e13423          	sd	a4,8(sp)
    80020f30:	d01ff0ef          	jal	ra,80020c30 <printf_d>
    80020f34:	e85ff06f          	j	80020db8 <printf+0x88>

Disassembly of section .text.scanf_c:

0000000080020f38 <scanf_c>:
    80020f38:	38000737          	lui	a4,0x38000
    80020f3c:	40b70713          	addi	a4,a4,1035 # 3800040b <_start-0x47fffbf5>
    80020f40:	ff010113          	addi	sp,sp,-16
    80020f44:	00271713          	slli	a4,a4,0x2
    80020f48:	00072783          	lw	a5,0(a4)
    80020f4c:	0027f793          	andi	a5,a5,2
    80020f50:	fe079ce3          	bnez	a5,80020f48 <scanf_c+0x10>
    80020f54:	0e0007b7          	lui	a5,0xe000
    80020f58:	10378793          	addi	a5,a5,259 # e000103 <_start-0x71fffefd>
    80020f5c:	00479793          	slli	a5,a5,0x4
    80020f60:	0007c783          	lbu	a5,0(a5)
    80020f64:	38000737          	lui	a4,0x38000
    80020f68:	40b70713          	addi	a4,a4,1035 # 3800040b <_start-0x47fffbf5>
    80020f6c:	00f107a3          	sb	a5,15(sp)
    80020f70:	00f14683          	lbu	a3,15(sp)
    80020f74:	00271713          	slli	a4,a4,0x2
    80020f78:	00072783          	lw	a5,0(a4)
    80020f7c:	0107f793          	andi	a5,a5,16
    80020f80:	fe079ce3          	bnez	a5,80020f78 <scanf_c+0x40>
    80020f84:	0e0007b7          	lui	a5,0xe000
    80020f88:	10378793          	addi	a5,a5,259 # e000103 <_start-0x71fffefd>
    80020f8c:	00479793          	slli	a5,a5,0x4
    80020f90:	00d7a023          	sw	a3,0(a5)
    80020f94:	00f14503          	lbu	a0,15(sp)
    80020f98:	01010113          	addi	sp,sp,16
    80020f9c:	00008067          	ret

Disassembly of section .text.scanf:

0000000080020fa0 <scanf>:
    80020fa0:	38000737          	lui	a4,0x38000
    80020fa4:	40b70713          	addi	a4,a4,1035 # 3800040b <_start-0x47fffbf5>
    80020fa8:	ff010113          	addi	sp,sp,-16
    80020fac:	00271713          	slli	a4,a4,0x2
    80020fb0:	00072783          	lw	a5,0(a4)
    80020fb4:	0027f793          	andi	a5,a5,2
    80020fb8:	fe079ce3          	bnez	a5,80020fb0 <scanf+0x10>
    80020fbc:	0e0007b7          	lui	a5,0xe000
    80020fc0:	10378793          	addi	a5,a5,259 # e000103 <_start-0x71fffefd>
    80020fc4:	00479793          	slli	a5,a5,0x4
    80020fc8:	0007c783          	lbu	a5,0(a5)
    80020fcc:	38000737          	lui	a4,0x38000
    80020fd0:	40b70713          	addi	a4,a4,1035 # 3800040b <_start-0x47fffbf5>
    80020fd4:	00f107a3          	sb	a5,15(sp)
    80020fd8:	00f14683          	lbu	a3,15(sp)
    80020fdc:	00271713          	slli	a4,a4,0x2
    80020fe0:	00072783          	lw	a5,0(a4)
    80020fe4:	0107f793          	andi	a5,a5,16
    80020fe8:	fe079ce3          	bnez	a5,80020fe0 <scanf+0x40>
    80020fec:	0e0007b7          	lui	a5,0xe000
    80020ff0:	10378793          	addi	a5,a5,259 # e000103 <_start-0x71fffefd>
    80020ff4:	00479793          	slli	a5,a5,0x4
    80020ff8:	00d7a023          	sw	a3,0(a5)
    80020ffc:	00f14783          	lbu	a5,15(sp)
    80021000:	06e00713          	li	a4,110
    80021004:	0ff7f793          	andi	a5,a5,255
    80021008:	00f10723          	sb	a5,14(sp)
    8002100c:	00e14783          	lbu	a5,14(sp)
    80021010:	00f70863          	beq	a4,a5,80021020 <scanf+0x80>
    80021014:	00e14783          	lbu	a5,14(sp)
    80021018:	00e14783          	lbu	a5,14(sp)
    8002101c:	fef71ce3          	bne	a4,a5,80021014 <scanf+0x74>
    80021020:	00000517          	auipc	a0,0x0
    80021024:	58850513          	addi	a0,a0,1416 # 800215a8 <strcmp+0x480>
    80021028:	01010113          	addi	sp,sp,16
    8002102c:	00008067          	ret

Disassembly of section .text.memcpy:

0000000080021030 <memcpy>:
    80021030:	02060063          	beqz	a2,80021050 <memcpy+0x20>
    80021034:	00c50633          	add	a2,a0,a2
    80021038:	00050793          	mv	a5,a0
    8002103c:	00158593          	addi	a1,a1,1
    80021040:	fff5c703          	lbu	a4,-1(a1)
    80021044:	00178793          	addi	a5,a5,1
    80021048:	fee78fa3          	sb	a4,-1(a5)
    8002104c:	fef618e3          	bne	a2,a5,8002103c <memcpy+0xc>
    80021050:	00008067          	ret

Disassembly of section .text.strcpy:

0000000080021054 <strcpy>:
    80021054:	00050793          	mv	a5,a0
    80021058:	0180006f          	j	80021070 <strcpy+0x1c>
    8002105c:	00158593          	addi	a1,a1,1
    80021060:	fff5c703          	lbu	a4,-1(a1)
    80021064:	00178793          	addi	a5,a5,1
    80021068:	fee78fa3          	sb	a4,-1(a5)
    8002106c:	0a070663          	beqz	a4,80021118 <strcpy+0xc4>
    80021070:	00f5e733          	or	a4,a1,a5
    80021074:	00377713          	andi	a4,a4,3
    80021078:	fe0712e3          	bnez	a4,8002105c <strcpy+0x8>
    8002107c:	0005a683          	lw	a3,0(a1)
    80021080:	feff08b7          	lui	a7,0xfeff0
    80021084:	eff88893          	addi	a7,a7,-257 # fffffffffefefeff <_end+0xffffffff7efad237>
    80021088:	fff6c713          	not	a4,a3
    8002108c:	02069613          	slli	a2,a3,0x20
    80021090:	02065613          	srli	a2,a2,0x20
    80021094:	02071713          	slli	a4,a4,0x20
    80021098:	10101837          	lui	a6,0x10101
    8002109c:	02075713          	srli	a4,a4,0x20
    800210a0:	01160633          	add	a2,a2,a7
    800210a4:	00381813          	slli	a6,a6,0x3
    800210a8:	08080813          	addi	a6,a6,128 # 10101080 <_start-0x6fefef80>
    800210ac:	00c77733          	and	a4,a4,a2
    800210b0:	01077733          	and	a4,a4,a6
    800210b4:	02071c63          	bnez	a4,800210ec <strcpy+0x98>
    800210b8:	00d7a023          	sw	a3,0(a5)
    800210bc:	00458593          	addi	a1,a1,4
    800210c0:	0005a683          	lw	a3,0(a1)
    800210c4:	00478793          	addi	a5,a5,4
    800210c8:	02069713          	slli	a4,a3,0x20
    800210cc:	fff6c613          	not	a2,a3
    800210d0:	02075713          	srli	a4,a4,0x20
    800210d4:	02061613          	slli	a2,a2,0x20
    800210d8:	01170733          	add	a4,a4,a7
    800210dc:	02065613          	srli	a2,a2,0x20
    800210e0:	00c77733          	and	a4,a4,a2
    800210e4:	01077733          	and	a4,a4,a6
    800210e8:	fc0708e3          	beqz	a4,800210b8 <strcpy+0x64>
    800210ec:	00d78023          	sb	a3,0(a5)
    800210f0:	0ff6f713          	andi	a4,a3,255
    800210f4:	02070263          	beqz	a4,80021118 <strcpy+0xc4>
    800210f8:	0086d71b          	srliw	a4,a3,0x8
    800210fc:	00e780a3          	sb	a4,1(a5)
    80021100:	0ff77713          	andi	a4,a4,255
    80021104:	00070a63          	beqz	a4,80021118 <strcpy+0xc4>
    80021108:	0106d71b          	srliw	a4,a3,0x10
    8002110c:	00e78123          	sb	a4,2(a5)
    80021110:	0ff77713          	andi	a4,a4,255
    80021114:	00071463          	bnez	a4,8002111c <strcpy+0xc8>
    80021118:	00008067          	ret
    8002111c:	0186d69b          	srliw	a3,a3,0x18
    80021120:	00d781a3          	sb	a3,3(a5)
    80021124:	00008067          	ret

Disassembly of section .text.strcmp:

0000000080021128 <strcmp>:
    80021128:	01c0006f          	j	80021144 <strcmp+0x1c>
    8002112c:	00150513          	addi	a0,a0,1
    80021130:	00158593          	addi	a1,a1,1
    80021134:	fff54783          	lbu	a5,-1(a0)
    80021138:	fff5c703          	lbu	a4,-1(a1)
    8002113c:	0ee79c63          	bne	a5,a4,80021234 <strcmp+0x10c>
    80021140:	0e078663          	beqz	a5,8002122c <strcmp+0x104>
    80021144:	00a5e7b3          	or	a5,a1,a0
    80021148:	0037f793          	andi	a5,a5,3
    8002114c:	fe0790e3          	bnez	a5,8002112c <strcmp+0x4>
    80021150:	00052703          	lw	a4,0(a0)
    80021154:	0005a603          	lw	a2,0(a1)
    80021158:	06e61c63          	bne	a2,a4,800211d0 <strcmp+0xa8>
    8002115c:	fff64793          	not	a5,a2
    80021160:	feff08b7          	lui	a7,0xfeff0
    80021164:	02061613          	slli	a2,a2,0x20
    80021168:	02065613          	srli	a2,a2,0x20
    8002116c:	eff88893          	addi	a7,a7,-257 # fffffffffefefeff <_end+0xffffffff7efad237>
    80021170:	02079793          	slli	a5,a5,0x20
    80021174:	10101837          	lui	a6,0x10101
    80021178:	0207d793          	srli	a5,a5,0x20
    8002117c:	01160633          	add	a2,a2,a7
    80021180:	00381813          	slli	a6,a6,0x3
    80021184:	00c7f7b3          	and	a5,a5,a2
    80021188:	08080813          	addi	a6,a6,128 # 10101080 <_start-0x6fefef80>
    8002118c:	0107f7b3          	and	a5,a5,a6
    80021190:	00078663          	beqz	a5,8002119c <strcmp+0x74>
    80021194:	0980006f          	j	8002122c <strcmp+0x104>
    80021198:	08079a63          	bnez	a5,8002122c <strcmp+0x104>
    8002119c:	00450513          	addi	a0,a0,4
    800211a0:	00052703          	lw	a4,0(a0)
    800211a4:	00458593          	addi	a1,a1,4
    800211a8:	0005a603          	lw	a2,0(a1)
    800211ac:	02071793          	slli	a5,a4,0x20
    800211b0:	fff74693          	not	a3,a4
    800211b4:	0207d793          	srli	a5,a5,0x20
    800211b8:	02069693          	slli	a3,a3,0x20
    800211bc:	011787b3          	add	a5,a5,a7
    800211c0:	0206d693          	srli	a3,a3,0x20
    800211c4:	00d7f7b3          	and	a5,a5,a3
    800211c8:	0107f7b3          	and	a5,a5,a6
    800211cc:	fcc706e3          	beq	a4,a2,80021198 <strcmp+0x70>
    800211d0:	0ff77793          	andi	a5,a4,255
    800211d4:	0ff67693          	andi	a3,a2,255
    800211d8:	06d79663          	bne	a5,a3,80021244 <strcmp+0x11c>
    800211dc:	00000513          	li	a0,0
    800211e0:	04078463          	beqz	a5,80021228 <strcmp+0x100>
    800211e4:	0087579b          	srliw	a5,a4,0x8
    800211e8:	0086569b          	srliw	a3,a2,0x8
    800211ec:	0ff7f793          	andi	a5,a5,255
    800211f0:	0ff6f693          	andi	a3,a3,255
    800211f4:	04d79863          	bne	a5,a3,80021244 <strcmp+0x11c>
    800211f8:	02078863          	beqz	a5,80021228 <strcmp+0x100>
    800211fc:	0107579b          	srliw	a5,a4,0x10
    80021200:	0106569b          	srliw	a3,a2,0x10
    80021204:	0ff7f793          	andi	a5,a5,255
    80021208:	0ff6f693          	andi	a3,a3,255
    8002120c:	02d79c63          	bne	a5,a3,80021244 <strcmp+0x11c>
    80021210:	00078c63          	beqz	a5,80021228 <strcmp+0x100>
    80021214:	0187571b          	srliw	a4,a4,0x18
    80021218:	0186561b          	srliw	a2,a2,0x18
    8002121c:	00c70663          	beq	a4,a2,80021228 <strcmp+0x100>
    80021220:	00100513          	li	a0,1
    80021224:	02c76463          	bltu	a4,a2,8002124c <strcmp+0x124>
    80021228:	00008067          	ret
    8002122c:	00000513          	li	a0,0
    80021230:	00008067          	ret
    80021234:	fff00513          	li	a0,-1
    80021238:	fee7e8e3          	bltu	a5,a4,80021228 <strcmp+0x100>
    8002123c:	00100513          	li	a0,1
    80021240:	00008067          	ret
    80021244:	00100513          	li	a0,1
    80021248:	fed7f0e3          	bgeu	a5,a3,80021228 <strcmp+0x100>
    8002124c:	fff00513          	li	a0,-1
    80021250:	00008067          	ret

Disassembly of section .rodata.str1.8:

0000000080021258 <.rodata.str1.8>:
    80021258:	4844                	lw	s1,20(s0)
    8002125a:	5952                	lw	s2,52(sp)
    8002125c:	4e4f5453          	0x4e4f5453
    80021260:	2045                	0x2045
    80021262:	5250                	lw	a2,36(a2)
    80021264:	4152474f          	fnmadd.s	fa4,ft4,fs5,fs0,rmm
    80021268:	2c4d                	addiw	s8,s8,19
    8002126a:	5320                	lw	s0,96(a4)
    8002126c:	20454d4f          	fnmadd.s	fs10,fa0,ft4,ft4,rmm
    80021270:	49525453          	0x49525453
    80021274:	474e                	lw	a4,208(sp)
    80021276:	0000                	unimp
    80021278:	4844                	lw	s1,20(s0)
    8002127a:	5952                	lw	s2,52(sp)
    8002127c:	4e4f5453          	0x4e4f5453
    80021280:	2045                	0x2045
    80021282:	5250                	lw	a2,36(a2)
    80021284:	4152474f          	fnmadd.s	fa4,ft4,fs5,fs0,rmm
    80021288:	2c4d                	addiw	s8,s8,19
    8002128a:	3120                	fld	fs0,96(a0)
    8002128c:	20545327          	0x20545327
    80021290:	49525453          	0x49525453
    80021294:	474e                	lw	a4,208(sp)
    80021296:	0000                	unimp
    80021298:	6844                	ld	s1,144(s0)
    8002129a:	7972                	ld	s2,312(sp)
    8002129c:	6e6f7473          	csrrci	s0,0x6e6,30
    800212a0:	2065                	0x2065
    800212a2:	6542                	ld	a0,16(sp)
    800212a4:	636e                	ld	t1,216(sp)
    800212a6:	6d68                	ld	a0,216(a0)
    800212a8:	7261                	lui	tp,0xffff8
    800212aa:	56202c6b          	0x56202c6b
    800212ae:	7265                	lui	tp,0xffff9
    800212b0:	6e6f6973          	csrrsi	s2,0x6e6,30
    800212b4:	3220                	fld	fs0,96(a2)
    800212b6:	312e                	fld	ft2,232(sp)
    800212b8:	2820                	fld	fs0,80(s0)
    800212ba:	614c                	ld	a1,128(a0)
    800212bc:	676e                	ld	a4,216(sp)
    800212be:	6175                	addi	sp,sp,368
    800212c0:	203a6567          	0x203a6567
    800212c4:	000a2943          	fmadd.s	fs2,fs4,ft0,ft0,rdn
    800212c8:	7250                	ld	a2,160(a2)
    800212ca:	6172676f          	jal	a4,800480e0 <_end+0x5418>
    800212ce:	206d                	0x206d
    800212d0:	706d6f63          	bltu	s10,t1,800219ee <strcmp+0x8c6>
    800212d4:	6c69                	lui	s8,0x1a
    800212d6:	6465                	lui	s0,0x19
    800212d8:	7720                	ld	s0,104(a4)
    800212da:	7469                	lui	s0,0xffffa
    800212dc:	2068                	fld	fa0,192(s0)
    800212de:	67657227          	0x67657227
    800212e2:	7369                	lui	t1,0xffffa
    800212e4:	6574                	ld	a3,200(a0)
    800212e6:	2772                	fld	fa4,280(sp)
    800212e8:	6120                	ld	s0,64(a0)
    800212ea:	7474                	ld	a3,232(s0)
    800212ec:	6972                	ld	s2,280(sp)
    800212ee:	7562                	ld	a0,56(sp)
    800212f0:	6574                	ld	a3,200(a0)
    800212f2:	000a                	c.slli	zero,0x2
    800212f4:	0000                	unimp
    800212f6:	0000                	unimp
    800212f8:	7250                	ld	a2,160(a2)
    800212fa:	6172676f          	jal	a4,80048110 <_end+0x5448>
    800212fe:	206d                	0x206d
    80021300:	706d6f63          	bltu	s10,t1,80021a1e <strcmp+0x8f6>
    80021304:	6c69                	lui	s8,0x1a
    80021306:	6465                	lui	s0,0x19
    80021308:	7720                	ld	s0,104(a4)
    8002130a:	7469                	lui	s0,0xffffa
    8002130c:	6f68                	ld	a0,216(a4)
    8002130e:	7475                	lui	s0,0xffffd
    80021310:	2720                	fld	fs0,72(a4)
    80021312:	6572                	ld	a0,280(sp)
    80021314:	74736967          	0x74736967
    80021318:	7265                	lui	tp,0xffff9
    8002131a:	74612027          	fsw	ft6,1856(sp)
    8002131e:	7274                	ld	a3,224(a2)
    80021320:	6269                	lui	tp,0x1a
    80021322:	7475                	lui	s0,0xffffd
    80021324:	0a65                	addi	s4,s4,25
    80021326:	0000                	unimp
    80021328:	6c50                	ld	a2,152(s0)
    8002132a:	6165                	addi	sp,sp,112
    8002132c:	67206573          	csrrsi	a0,0x672,0
    80021330:	7669                	lui	a2,0xffffa
    80021332:	2065                	0x2065
    80021334:	6874                	ld	a3,208(s0)
    80021336:	2065                	0x2065
    80021338:	756e                	ld	a0,248(sp)
    8002133a:	626d                	lui	tp,0x1b
    8002133c:	7265                	lui	tp,0xffff9
    8002133e:	6f20                	ld	s0,88(a4)
    80021340:	2066                	fld	ft0,88(sp)
    80021342:	7572                	ld	a0,312(sp)
    80021344:	736e                	ld	t1,248(sp)
    80021346:	7420                	ld	s0,104(s0)
    80021348:	7268                	ld	a0,224(a2)
    8002134a:	6867756f          	jal	a0,800989d0 <_end+0x55d08>
    8002134e:	7420                	ld	s0,104(s0)
    80021350:	6568                	ld	a0,200(a0)
    80021352:	6220                	ld	s0,64(a2)
    80021354:	6e65                	lui	t3,0x19
    80021356:	616d6863          	bltu	s10,s6,80021966 <strcmp+0x83e>
    8002135a:	6b72                	ld	s6,280(sp)
    8002135c:	203a                	fld	ft0,392(sp)
    8002135e:	0000                	unimp
    80021360:	7845                	lui	a6,0xffff1
    80021362:	6365                	lui	t1,0x19
    80021364:	7475                	lui	s0,0xffffd
    80021366:	6f69                	lui	t5,0x1a
    80021368:	206e                	fld	ft0,216(sp)
    8002136a:	72617473          	csrrci	s0,0x726,2
    8002136e:	7374                	ld	a3,224(a4)
    80021370:	202c                	fld	fa1,64(s0)
    80021372:	6425                	lui	s0,0x9
    80021374:	7220                	ld	s0,96(a2)
    80021376:	6e75                	lui	t3,0x1d
    80021378:	68742073          	csrs	0x687,s0
    8002137c:	6f72                	ld	t5,280(sp)
    8002137e:	6775                	lui	a4,0x1d
    80021380:	2068                	fld	fa0,192(s0)
    80021382:	6844                	ld	s1,144(s0)
    80021384:	7972                	ld	s2,312(sp)
    80021386:	6e6f7473          	csrrci	s0,0x6e6,30
    8002138a:	0a65                	addi	s4,s4,25
    8002138c:	0000                	unimp
    8002138e:	0000                	unimp
    80021390:	4844                	lw	s1,20(s0)
    80021392:	5952                	lw	s2,52(sp)
    80021394:	4e4f5453          	0x4e4f5453
    80021398:	2045                	0x2045
    8002139a:	5250                	lw	a2,36(a2)
    8002139c:	4152474f          	fnmadd.s	fa4,ft4,fs5,fs0,rmm
    800213a0:	2c4d                	addiw	s8,s8,19
    800213a2:	3220                	fld	fs0,96(a2)
    800213a4:	20444e27          	fsq	ft4,540(s0) # 921c <_start-0x7fff6de4>
    800213a8:	49525453          	0x49525453
    800213ac:	474e                	lw	a4,208(sp)
    800213ae:	0000                	unimp
    800213b0:	4844                	lw	s1,20(s0)
    800213b2:	5952                	lw	s2,52(sp)
    800213b4:	4e4f5453          	0x4e4f5453
    800213b8:	2045                	0x2045
    800213ba:	5250                	lw	a2,36(a2)
    800213bc:	4152474f          	fnmadd.s	fa4,ft4,fs5,fs0,rmm
    800213c0:	2c4d                	addiw	s8,s8,19
    800213c2:	3320                	fld	fs0,96(a4)
    800213c4:	20445227          	0x20445227
    800213c8:	49525453          	0x49525453
    800213cc:	474e                	lw	a4,208(sp)
    800213ce:	0000                	unimp
    800213d0:	7845                	lui	a6,0xffff1
    800213d2:	6365                	lui	t1,0x19
    800213d4:	7475                	lui	s0,0xffffd
    800213d6:	6f69                	lui	t5,0x1a
    800213d8:	206e                	fld	ft0,216(sp)
    800213da:	6e65                	lui	t3,0x19
    800213dc:	7364                	ld	s1,224(a4)
    800213de:	000a                	c.slli	zero,0x2
    800213e0:	6946                	ld	s2,80(sp)
    800213e2:	616e                	ld	sp,216(sp)
    800213e4:	206c                	fld	fa1,192(s0)
    800213e6:	6176                	ld	sp,344(sp)
    800213e8:	756c                	ld	a1,232(a0)
    800213ea:	7365                	lui	t1,0xffff9
    800213ec:	6f20                	ld	s0,88(a4)
    800213ee:	2066                	fld	ft0,88(sp)
    800213f0:	6874                	ld	a3,208(s0)
    800213f2:	2065                	0x2065
    800213f4:	6176                	ld	sp,344(sp)
    800213f6:	6972                	ld	s2,280(sp)
    800213f8:	6261                	lui	tp,0x18
    800213fa:	656c                	ld	a1,200(a0)
    800213fc:	73752073          	csrs	0x737,a0
    80021400:	6465                	lui	s0,0x19
    80021402:	6920                	ld	s0,80(a0)
    80021404:	206e                	fld	ft0,216(sp)
    80021406:	6874                	ld	a3,208(s0)
    80021408:	2065                	0x2065
    8002140a:	6562                	ld	a0,24(sp)
    8002140c:	636e                	ld	t1,216(sp)
    8002140e:	6d68                	ld	a0,216(a0)
    80021410:	7261                	lui	tp,0xffff8
    80021412:	000a3a6b          	0xa3a6b
    80021416:	0000                	unimp
    80021418:	6e49                	lui	t3,0x12
    8002141a:	5f74                	lw	a3,124(a4)
    8002141c:	626f6c47          	fmsub.d	fs8,ft10,ft6,fa2,unknown
    80021420:	203a                	fld	ft0,392(sp)
    80021422:	2020                	fld	fs0,64(s0)
    80021424:	2020                	fld	fs0,64(s0)
    80021426:	2020                	fld	fs0,64(s0)
    80021428:	2020                	fld	fs0,64(s0)
    8002142a:	2020                	fld	fs0,64(s0)
    8002142c:	2520                	fld	fs0,72(a0)
    8002142e:	0a64                	addi	s1,sp,284
	...
    80021438:	2020                	fld	fs0,64(s0)
    8002143a:	2020                	fld	fs0,64(s0)
    8002143c:	2020                	fld	fs0,64(s0)
    8002143e:	2020                	fld	fs0,64(s0)
    80021440:	756f6873          	csrrsi	a6,0x756,30
    80021444:	646c                	ld	a1,200(s0)
    80021446:	6220                	ld	s0,64(a2)
    80021448:	3a65                	addiw	s4,s4,-7
    8002144a:	2020                	fld	fs0,64(s0)
    8002144c:	2520                	fld	fs0,72(a0)
    8002144e:	0a64                	addi	s1,sp,284
	...
    80021458:	6f42                	ld	t5,16(sp)
    8002145a:	475f6c6f          	jal	s8,801180ce <_end+0xd5406>
    8002145e:	6f6c                	ld	a1,216(a4)
    80021460:	3a62                	fld	fs4,56(sp)
    80021462:	2020                	fld	fs0,64(s0)
    80021464:	2020                	fld	fs0,64(s0)
    80021466:	2020                	fld	fs0,64(s0)
    80021468:	2020                	fld	fs0,64(s0)
    8002146a:	2020                	fld	fs0,64(s0)
    8002146c:	2520                	fld	fs0,72(a0)
    8002146e:	0a64                	addi	s1,sp,284
	...
    80021478:	315f6843          	fmadd.s	fa6,ft10,fs5,ft6,unknown
    8002147c:	475f 6f6c 3a62      	0x3a626f6c475f
    80021482:	2020                	fld	fs0,64(s0)
    80021484:	2020                	fld	fs0,64(s0)
    80021486:	2020                	fld	fs0,64(s0)
    80021488:	2020                	fld	fs0,64(s0)
    8002148a:	2020                	fld	fs0,64(s0)
    8002148c:	2520                	fld	fs0,72(a0)
    8002148e:	00000a63          	beqz	zero,800214a2 <strcmp+0x37a>
    80021492:	0000                	unimp
    80021494:	0000                	unimp
    80021496:	0000                	unimp
    80021498:	2020                	fld	fs0,64(s0)
    8002149a:	2020                	fld	fs0,64(s0)
    8002149c:	2020                	fld	fs0,64(s0)
    8002149e:	2020                	fld	fs0,64(s0)
    800214a0:	756f6873          	csrrsi	a6,0x756,30
    800214a4:	646c                	ld	a1,200(s0)
    800214a6:	6220                	ld	s0,64(a2)
    800214a8:	3a65                	addiw	s4,s4,-7
    800214aa:	2020                	fld	fs0,64(s0)
    800214ac:	2520                	fld	fs0,72(a0)
    800214ae:	00000a63          	beqz	zero,800214c2 <strcmp+0x39a>
    800214b2:	0000                	unimp
    800214b4:	0000                	unimp
    800214b6:	0000                	unimp
    800214b8:	325f6843          	fmadd.d	fa6,ft10,ft5,ft6,unknown
    800214bc:	475f 6f6c 3a62      	0x3a626f6c475f
    800214c2:	2020                	fld	fs0,64(s0)
    800214c4:	2020                	fld	fs0,64(s0)
    800214c6:	2020                	fld	fs0,64(s0)
    800214c8:	2020                	fld	fs0,64(s0)
    800214ca:	2020                	fld	fs0,64(s0)
    800214cc:	2520                	fld	fs0,72(a0)
    800214ce:	00000a63          	beqz	zero,800214e2 <strcmp+0x3ba>
    800214d2:	0000                	unimp
    800214d4:	0000                	unimp
    800214d6:	0000                	unimp
    800214d8:	7241                	lui	tp,0xffff0
    800214da:	5f72                	lw	t5,60(sp)
    800214dc:	5f31                	li	t5,-20
    800214de:	626f6c47          	fmsub.d	fs8,ft10,ft6,fa2,unknown
    800214e2:	3a5d385b          	0x3a5d385b
    800214e6:	2020                	fld	fs0,64(s0)
    800214e8:	2020                	fld	fs0,64(s0)
    800214ea:	2020                	fld	fs0,64(s0)
    800214ec:	2520                	fld	fs0,72(a0)
    800214ee:	0a64                	addi	s1,sp,284
	...
    800214f8:	7241                	lui	tp,0xffff0
    800214fa:	5f72                	lw	t5,60(sp)
    800214fc:	5f32                	lw	t5,44(sp)
    800214fe:	626f6c47          	fmsub.d	fs8,ft10,ft6,fa2,unknown
    80021502:	5b5d385b          	0x5b5d385b
    80021506:	203a5d37          	lui	s10,0x203a5
    8002150a:	2020                	fld	fs0,64(s0)
    8002150c:	2520                	fld	fs0,72(a0)
    8002150e:	0a64                	addi	s1,sp,284
	...
    80021518:	2020                	fld	fs0,64(s0)
    8002151a:	2020                	fld	fs0,64(s0)
    8002151c:	2020                	fld	fs0,64(s0)
    8002151e:	2020                	fld	fs0,64(s0)
    80021520:	756f6873          	csrrsi	a6,0x756,30
    80021524:	646c                	ld	a1,200(s0)
    80021526:	6220                	ld	s0,64(a2)
    80021528:	3a65                	addiw	s4,s4,-7
    8002152a:	2020                	fld	fs0,64(s0)
    8002152c:	4e20                	lw	s0,88(a2)
    8002152e:	6d75                	lui	s10,0x1d
    80021530:	6562                	ld	a0,24(sp)
    80021532:	5f72                	lw	t5,60(sp)
    80021534:	525f664f          	fnmadd.d	fa2,ft10,ft5,fa0,unknown
    80021538:	6e75                	lui	t3,0x1d
    8002153a:	202b2073          	csrs	hedeleg,s6
    8002153e:	3031                	0x3031
    80021540:	000a                	c.slli	zero,0x2
    80021542:	0000                	unimp
    80021544:	0000                	unimp
    80021546:	0000                	unimp
    80021548:	7450                	ld	a2,168(s0)
    8002154a:	5f72                	lw	t5,60(sp)
    8002154c:	626f6c47          	fmsub.d	fs8,ft10,ft6,fa2,unknown
    80021550:	3e2d                	addiw	t3,t3,-21
    80021552:	000a                	c.slli	zero,0x2
    80021554:	0000                	unimp
    80021556:	0000                	unimp
    80021558:	2020                	fld	fs0,64(s0)
    8002155a:	7450                	ld	a2,168(s0)
    8002155c:	5f72                	lw	t5,60(sp)
    8002155e:	706d6f43          	fmadd.s	ft10,fs10,ft6,fa4,unknown
    80021562:	203a                	fld	ft0,392(sp)
    80021564:	2020                	fld	fs0,64(s0)
    80021566:	2020                	fld	fs0,64(s0)
    80021568:	2020                	fld	fs0,64(s0)
    8002156a:	2020                	fld	fs0,64(s0)
    8002156c:	2520                	fld	fs0,72(a0)
    8002156e:	0a64                	addi	s1,sp,284
	...
    80021578:	2020                	fld	fs0,64(s0)
    8002157a:	2020                	fld	fs0,64(s0)
    8002157c:	2020                	fld	fs0,64(s0)
    8002157e:	2020                	fld	fs0,64(s0)
    80021580:	756f6873          	csrrsi	a6,0x756,30
    80021584:	646c                	ld	a1,200(s0)
    80021586:	6220                	ld	s0,64(a2)
    80021588:	3a65                	addiw	s4,s4,-7
    8002158a:	2020                	fld	fs0,64(s0)
    8002158c:	2820                	fld	fs0,80(s0)
    8002158e:	6d69                	lui	s10,0x1a
    80021590:	6c70                	ld	a2,216(s0)
    80021592:	6d65                	lui	s10,0x19
    80021594:	6e65                	lui	t3,0x19
    80021596:	6174                	ld	a3,192(a0)
    80021598:	6974                	ld	a3,208(a0)
    8002159a:	642d6e6f          	jal	t3,800f7bdc <_end+0xb4f14>
    8002159e:	7065                	c.lui	zero,0xffff9
    800215a0:	6e65                	lui	t3,0x19
    800215a2:	6564                	ld	s1,200(a0)
    800215a4:	746e                	ld	s0,248(sp)
    800215a6:	0a29                	addi	s4,s4,10
	...
    800215b0:	2020                	fld	fs0,64(s0)
    800215b2:	6944                	ld	s1,144(a0)
    800215b4:	3a726373          	csrrsi	t1,0x3a7,4
    800215b8:	2020                	fld	fs0,64(s0)
    800215ba:	2020                	fld	fs0,64(s0)
    800215bc:	2020                	fld	fs0,64(s0)
    800215be:	2020                	fld	fs0,64(s0)
    800215c0:	2020                	fld	fs0,64(s0)
    800215c2:	2020                	fld	fs0,64(s0)
    800215c4:	2520                	fld	fs0,72(a0)
    800215c6:	0a64                	addi	s1,sp,284
	...
    800215d0:	2020                	fld	fs0,64(s0)
    800215d2:	6e45                	lui	t3,0x11
    800215d4:	6d75                	lui	s10,0x1d
    800215d6:	435f 6d6f 3a70      	0x3a706d6f435f
    800215dc:	2020                	fld	fs0,64(s0)
    800215de:	2020                	fld	fs0,64(s0)
    800215e0:	2020                	fld	fs0,64(s0)
    800215e2:	2020                	fld	fs0,64(s0)
    800215e4:	2520                	fld	fs0,72(a0)
    800215e6:	0a64                	addi	s1,sp,284
	...
    800215f0:	2020                	fld	fs0,64(s0)
    800215f2:	6e49                	lui	t3,0x12
    800215f4:	5f74                	lw	a3,124(a4)
    800215f6:	706d6f43          	fmadd.s	ft10,fs10,ft6,fa4,unknown
    800215fa:	203a                	fld	ft0,392(sp)
    800215fc:	2020                	fld	fs0,64(s0)
    800215fe:	2020                	fld	fs0,64(s0)
    80021600:	2020                	fld	fs0,64(s0)
    80021602:	2020                	fld	fs0,64(s0)
    80021604:	2520                	fld	fs0,72(a0)
    80021606:	0a64                	addi	s1,sp,284
	...
    80021610:	2020                	fld	fs0,64(s0)
    80021612:	5f727453          	0x5f727453
    80021616:	706d6f43          	fmadd.s	ft10,fs10,ft6,fa4,unknown
    8002161a:	203a                	fld	ft0,392(sp)
    8002161c:	2020                	fld	fs0,64(s0)
    8002161e:	2020                	fld	fs0,64(s0)
    80021620:	2020                	fld	fs0,64(s0)
    80021622:	2020                	fld	fs0,64(s0)
    80021624:	2520                	fld	fs0,72(a0)
    80021626:	00000a73          	0xa73
    8002162a:	0000                	unimp
    8002162c:	0000                	unimp
    8002162e:	0000                	unimp
    80021630:	2020                	fld	fs0,64(s0)
    80021632:	2020                	fld	fs0,64(s0)
    80021634:	2020                	fld	fs0,64(s0)
    80021636:	2020                	fld	fs0,64(s0)
    80021638:	756f6873          	csrrsi	a6,0x756,30
    8002163c:	646c                	ld	a1,200(s0)
    8002163e:	6220                	ld	s0,64(a2)
    80021640:	3a65                	addiw	s4,s4,-7
    80021642:	2020                	fld	fs0,64(s0)
    80021644:	4420                	lw	s0,72(s0)
    80021646:	5248                	lw	a0,36(a2)
    80021648:	5359                	li	t1,-10
    8002164a:	4f54                	lw	a3,28(a4)
    8002164c:	454e                	lw	a0,208(sp)
    8002164e:	5020                	lw	s0,96(s0)
    80021650:	4f52                	lw	t5,20(sp)
    80021652:	4d415247          	0x4d415247
    80021656:	202c                	fld	fa1,64(s0)
    80021658:	454d4f53          	0x454d4f53
    8002165c:	5320                	lw	s0,96(a4)
    8002165e:	5254                	lw	a3,36(a2)
    80021660:	4e49                	li	t3,18
    80021662:	00000a47          	fmsub.s	fs4,ft0,ft0,ft0,rne
    80021666:	0000                	unimp
    80021668:	654e                	ld	a0,208(sp)
    8002166a:	7478                	ld	a4,232(s0)
    8002166c:	505f 7274 475f      	0x475f7274505f
    80021672:	6f6c                	ld	a1,216(a4)
    80021674:	2d62                	fld	fs10,24(sp)
    80021676:	0a3e                	slli	s4,s4,0xf
	...
    80021680:	2020                	fld	fs0,64(s0)
    80021682:	2020                	fld	fs0,64(s0)
    80021684:	2020                	fld	fs0,64(s0)
    80021686:	2020                	fld	fs0,64(s0)
    80021688:	756f6873          	csrrsi	a6,0x756,30
    8002168c:	646c                	ld	a1,200(s0)
    8002168e:	6220                	ld	s0,64(a2)
    80021690:	3a65                	addiw	s4,s4,-7
    80021692:	2020                	fld	fs0,64(s0)
    80021694:	2820                	fld	fs0,80(s0)
    80021696:	6d69                	lui	s10,0x1a
    80021698:	6c70                	ld	a2,216(s0)
    8002169a:	6d65                	lui	s10,0x19
    8002169c:	6e65                	lui	t3,0x19
    8002169e:	6174                	ld	a3,192(a0)
    800216a0:	6974                	ld	a3,208(a0)
    800216a2:	642d6e6f          	jal	t3,800f7ce4 <_end+0xb501c>
    800216a6:	7065                	c.lui	zero,0xffff9
    800216a8:	6e65                	lui	t3,0x19
    800216aa:	6564                	ld	s1,200(a0)
    800216ac:	746e                	ld	s0,248(sp)
    800216ae:	2c29                	addiw	s8,s8,10
    800216b0:	7320                	ld	s0,96(a4)
    800216b2:	6d61                	lui	s10,0x18
    800216b4:	2065                	0x2065
    800216b6:	7361                	lui	t1,0xffff8
    800216b8:	6120                	ld	s0,64(a0)
    800216ba:	6f62                	ld	t5,24(sp)
    800216bc:	6576                	ld	a0,344(sp)
    800216be:	000a                	c.slli	zero,0x2
    800216c0:	6e49                	lui	t3,0x12
    800216c2:	5f74                	lw	a3,124(a4)
    800216c4:	5f31                	li	t5,-20
    800216c6:	6f4c                	ld	a1,152(a4)
    800216c8:	20203a63          	0x20203a63
    800216cc:	2020                	fld	fs0,64(s0)
    800216ce:	2020                	fld	fs0,64(s0)
    800216d0:	2020                	fld	fs0,64(s0)
    800216d2:	2020                	fld	fs0,64(s0)
    800216d4:	2520                	fld	fs0,72(a0)
    800216d6:	0a64                	addi	s1,sp,284
	...
    800216e0:	6e49                	lui	t3,0x12
    800216e2:	5f74                	lw	a3,124(a4)
    800216e4:	5f32                	lw	t5,44(sp)
    800216e6:	6f4c                	ld	a1,152(a4)
    800216e8:	20203a63          	0x20203a63
    800216ec:	2020                	fld	fs0,64(s0)
    800216ee:	2020                	fld	fs0,64(s0)
    800216f0:	2020                	fld	fs0,64(s0)
    800216f2:	2020                	fld	fs0,64(s0)
    800216f4:	2520                	fld	fs0,72(a0)
    800216f6:	0a64                	addi	s1,sp,284
	...
    80021700:	6e49                	lui	t3,0x12
    80021702:	5f74                	lw	a3,124(a4)
    80021704:	6f4c5f33          	0x6f4c5f33
    80021708:	20203a63          	0x20203a63
    8002170c:	2020                	fld	fs0,64(s0)
    8002170e:	2020                	fld	fs0,64(s0)
    80021710:	2020                	fld	fs0,64(s0)
    80021712:	2020                	fld	fs0,64(s0)
    80021714:	2520                	fld	fs0,72(a0)
    80021716:	0a64                	addi	s1,sp,284
	...
    80021720:	6e45                	lui	t3,0x11
    80021722:	6d75                	lui	s10,0x1d
    80021724:	4c5f 636f 203a      	0x203a636f4c5f
    8002172a:	2020                	fld	fs0,64(s0)
    8002172c:	2020                	fld	fs0,64(s0)
    8002172e:	2020                	fld	fs0,64(s0)
    80021730:	2020                	fld	fs0,64(s0)
    80021732:	2020                	fld	fs0,64(s0)
    80021734:	2520                	fld	fs0,72(a0)
    80021736:	0a64                	addi	s1,sp,284
	...
    80021740:	5f727453          	0x5f727453
    80021744:	5f31                	li	t5,-20
    80021746:	6f4c                	ld	a1,152(a4)
    80021748:	20203a63          	0x20203a63
    8002174c:	2020                	fld	fs0,64(s0)
    8002174e:	2020                	fld	fs0,64(s0)
    80021750:	2020                	fld	fs0,64(s0)
    80021752:	2020                	fld	fs0,64(s0)
    80021754:	2520                	fld	fs0,72(a0)
    80021756:	00000a73          	0xa73
    8002175a:	0000                	unimp
    8002175c:	0000                	unimp
    8002175e:	0000                	unimp
    80021760:	2020                	fld	fs0,64(s0)
    80021762:	2020                	fld	fs0,64(s0)
    80021764:	2020                	fld	fs0,64(s0)
    80021766:	2020                	fld	fs0,64(s0)
    80021768:	756f6873          	csrrsi	a6,0x756,30
    8002176c:	646c                	ld	a1,200(s0)
    8002176e:	6220                	ld	s0,64(a2)
    80021770:	3a65                	addiw	s4,s4,-7
    80021772:	2020                	fld	fs0,64(s0)
    80021774:	4420                	lw	s0,72(s0)
    80021776:	5248                	lw	a0,36(a2)
    80021778:	5359                	li	t1,-10
    8002177a:	4f54                	lw	a3,28(a4)
    8002177c:	454e                	lw	a0,208(sp)
    8002177e:	5020                	lw	s0,96(s0)
    80021780:	4f52                	lw	t5,20(sp)
    80021782:	4d415247          	0x4d415247
    80021786:	202c                	fld	fa1,64(s0)
    80021788:	2731                	addiw	a4,a4,12
    8002178a:	53205453          	0x53205453
    8002178e:	5254                	lw	a3,36(a2)
    80021790:	4e49                	li	t3,18
    80021792:	00000a47          	fmsub.s	fs4,ft0,ft0,ft0,rne
    80021796:	0000                	unimp
    80021798:	5f727453          	0x5f727453
    8002179c:	5f32                	lw	t5,44(sp)
    8002179e:	6f4c                	ld	a1,152(a4)
    800217a0:	20203a63          	0x20203a63
    800217a4:	2020                	fld	fs0,64(s0)
    800217a6:	2020                	fld	fs0,64(s0)
    800217a8:	2020                	fld	fs0,64(s0)
    800217aa:	2020                	fld	fs0,64(s0)
    800217ac:	2520                	fld	fs0,72(a0)
    800217ae:	00000a73          	0xa73
    800217b2:	0000                	unimp
    800217b4:	0000                	unimp
    800217b6:	0000                	unimp
    800217b8:	2020                	fld	fs0,64(s0)
    800217ba:	2020                	fld	fs0,64(s0)
    800217bc:	2020                	fld	fs0,64(s0)
    800217be:	2020                	fld	fs0,64(s0)
    800217c0:	756f6873          	csrrsi	a6,0x756,30
    800217c4:	646c                	ld	a1,200(s0)
    800217c6:	6220                	ld	s0,64(a2)
    800217c8:	3a65                	addiw	s4,s4,-7
    800217ca:	2020                	fld	fs0,64(s0)
    800217cc:	4420                	lw	s0,72(s0)
    800217ce:	5248                	lw	a0,36(a2)
    800217d0:	5359                	li	t1,-10
    800217d2:	4f54                	lw	a3,28(a4)
    800217d4:	454e                	lw	a0,208(sp)
    800217d6:	5020                	lw	s0,96(s0)
    800217d8:	4f52                	lw	t5,20(sp)
    800217da:	4d415247          	0x4d415247
    800217de:	202c                	fld	fa1,64(s0)
    800217e0:	2732                	fld	fa4,264(sp)
    800217e2:	444e                	lw	s0,208(sp)
    800217e4:	5320                	lw	s0,96(a4)
    800217e6:	5254                	lw	a3,36(a2)
    800217e8:	4e49                	li	t3,18
    800217ea:	00000a47          	fmsub.s	fs4,ft0,ft0,ft0,rne
    800217ee:	0000                	unimp
    800217f0:	754e                	ld	a0,240(sp)
    800217f2:	626d                	lui	tp,0x1b
    800217f4:	7265                	lui	tp,0xffff9
    800217f6:	4f5f 5f66 7552      	0x75525f664f5f
    800217fc:	736e                	ld	t1,248(sp)
    800217fe:	203a                	fld	ft0,392(sp)
    80021800:	6425                	lui	s0,0x9
    80021802:	000a                	c.slli	zero,0x2
    80021804:	0000                	unimp
    80021806:	0000                	unimp
    80021808:	7355                	lui	t1,0xffff5
    8002180a:	7265                	lui	tp,0xffff9
    8002180c:	545f 6d69 3a65      	0x3a656d69545f
    80021812:	2520                	fld	fs0,72(a0)
    80021814:	2064                	fld	fs1,192(s0)
    80021816:	6c637963          	bgeu	t1,t1,80021ee8 <strcmp+0xdc0>
    8002181a:	7365                	lui	t1,0xffff9
    8002181c:	202c                	fld	fa1,64(s0)
    8002181e:	6425                	lui	s0,0x9
    80021820:	6920                	ld	s0,80(a0)
    80021822:	736e                	ld	t1,248(sp)
    80021824:	7274                	ld	a3,224(a2)
    80021826:	6375                	lui	t1,0x1d
    80021828:	6974                	ld	a3,208(a0)
    8002182a:	0a736e6f          	jal	t3,800580d0 <_end+0x15408>
    8002182e:	0000                	unimp
    80021830:	6c637943          	0x6c637943
    80021834:	7365                	lui	t1,0xffff9
    80021836:	505f 7265 495f      	0x495f7265505f
    8002183c:	736e                	ld	t1,248(sp)
    8002183e:	7274                	ld	a3,224(a2)
    80021840:	6375                	lui	t1,0x1d
    80021842:	6974                	ld	a3,208(a0)
    80021844:	203a6e6f          	jal	t3,800c8246 <_end+0x8557e>
    80021848:	6425                	lui	s0,0x9
    8002184a:	252e                	fld	fa0,200(sp)
    8002184c:	2564                	fld	fs1,200(a0)
    8002184e:	2564                	fld	fs1,200(a0)
    80021850:	0a64                	addi	s1,sp,284
    80021852:	0000                	unimp
    80021854:	0000                	unimp
    80021856:	0000                	unimp
    80021858:	6844                	ld	s1,144(s0)
    8002185a:	7972                	ld	s2,312(sp)
    8002185c:	6e6f7473          	csrrci	s0,0x6e6,30
    80021860:	7365                	lui	t1,0xffff9
    80021862:	505f 7265 535f      	0x535f7265505f
    80021868:	6365                	lui	t1,0x19
    8002186a:	5f646e6f          	jal	t3,80067e60 <_end+0x25198>
    8002186e:	6550                	ld	a2,136(a0)
    80021870:	5f72                	lw	t5,60(sp)
    80021872:	484d                	li	a6,19
    80021874:	3a7a                	fld	fs4,440(sp)
    80021876:	2520                	fld	fs0,72(a0)
    80021878:	0a64                	addi	s1,sp,284
    8002187a:	0000                	unimp
    8002187c:	0000                	unimp
    8002187e:	0000                	unimp
    80021880:	4d44                	lw	s1,28(a0)
    80021882:	5049                	c.li	zero,-14
    80021884:	65505f53          	0x65505f53
    80021888:	5f72                	lw	t5,60(sp)
    8002188a:	484d                	li	a6,19
    8002188c:	3a7a                	fld	fs4,440(sp)
    8002188e:	2520                	fld	fs0,72(a0)
    80021890:	2e64                	fld	fs1,216(a2)
    80021892:	6425                	lui	s0,0x9
    80021894:	6425                	lui	s0,0x9
    80021896:	6425                	lui	s0,0x9
    80021898:	000a                	c.slli	zero,0x2
    8002189a:	0000                	unimp
    8002189c:	0000                	unimp
    8002189e:	0000                	unimp
    800218a0:	3130                	fld	fa2,96(a0)
    800218a2:	3332                	fld	ft6,296(sp)
    800218a4:	3534                	fld	fa3,104(a0)
    800218a6:	3736                	fld	fa4,360(sp)
    800218a8:	3938                	fld	fa4,112(a0)
    800218aa:	4241                	li	tp,16
    800218ac:	46454443          	fmadd.q	fs0,fa0,ft4,fs0,rmm
	...

Disassembly of section .got:

0000000080040000 <_GLOBAL_OFFSET_TABLE_>:
	...
    80040008:	00a0                	addi	s0,sp,72
    8004000a:	8004                	0x8004
    8004000c:	0000                	unimp
    8004000e:	0000                	unimp
    80040010:	00a8                	addi	a0,sp,72
    80040012:	8004                	0x8004
    80040014:	0000                	unimp
    80040016:	0000                	unimp
    80040018:	00b0                	addi	a2,sp,72
    8004001a:	8004                	0x8004
    8004001c:	0000                	unimp
    8004001e:	0000                	unimp
    80040020:	00b8                	addi	a4,sp,72
    80040022:	8004                	0x8004
    80040024:	0000                	unimp
    80040026:	0000                	unimp
    80040028:	27c8                	fld	fa0,136(a5)
    8004002a:	8004                	0x8004
    8004002c:	0000                	unimp
    8004002e:	0000                	unimp
    80040030:	27d0                	fld	fa2,136(a5)
    80040032:	8004                	0x8004
    80040034:	0000                	unimp
    80040036:	0000                	unimp
    80040038:	27d8                	fld	fa4,136(a5)
    8004003a:	8004                	0x8004
    8004003c:	0000                	unimp
    8004003e:	0000                	unimp
    80040040:	27dc                	fld	fa5,136(a5)
    80040042:	8004                	0x8004
    80040044:	0000                	unimp
    80040046:	0000                	unimp
    80040048:	27dd                	addiw	a5,a5,23
    8004004a:	8004                	0x8004
    8004004c:	0000                	unimp
    8004004e:	0000                	unimp
    80040050:	27e0                	fld	fs0,200(a5)
    80040052:	8004                	0x8004
    80040054:	0000                	unimp
    80040056:	0000                	unimp
    80040058:	27e8                	fld	fa0,200(a5)
    8004005a:	8004                	0x8004
    8004005c:	0000                	unimp
    8004005e:	0000                	unimp
    80040060:	27f0                	fld	fa2,200(a5)
    80040062:	8004                	0x8004
    80040064:	0000                	unimp
    80040066:	0000                	unimp
    80040068:	28b8                	fld	fa4,80(s1)
    8004006a:	8004                	0x8004
    8004006c:	0000                	unimp
    8004006e:	0000                	unimp
    80040070:	28c0                	fld	fs0,144(s1)
    80040072:	8004                	0x8004
    80040074:	0000                	unimp
    80040076:	0000                	unimp
    80040078:	28c8                	fld	fa0,144(s1)
    8004007a:	8004                	0x8004
    8004007c:	0000                	unimp
	...

Disassembly of section .got.plt:

0000000080040080 <.got.plt>:
    80040080:	ffff                	0xffff
    80040082:	ffff                	0xffff
    80040084:	ffff                	0xffff
    80040086:	ffff                	0xffff
	...

Disassembly of section .bss:

0000000080040090 <Reg>:
    80040090:	0000                	unimp
	...

0000000080040094 <heap_memory_used>:
    80040094:	0000                	unimp
	...

0000000080040098 <Microseconds>:
    80040098:	0000                	unimp
	...

000000008004009c <Dhrystones_Per_Second>:
    8004009c:	0000                	unimp
	...

00000000800400a0 <User_Insn>:
	...

00000000800400a8 <User_Time>:
	...

00000000800400b0 <Begin_Time>:
	...

00000000800400b8 <Arr_2_Glob>:
	...

00000000800427c8 <End_Time>:
	...

00000000800427d0 <Next_Ptr_Glob>:
	...

00000000800427d8 <Int_Glob>:
    800427d8:	0000                	unimp
	...

00000000800427dc <Ch_1_Glob>:
	...

00000000800427dd <Ch_2_Glob>:
    800427dd:	0000                	unimp
	...

00000000800427e0 <Ptr_Glob>:
	...

00000000800427e8 <Begin_Insn>:
	...

00000000800427f0 <Arr_1_Glob>:
	...

00000000800428b8 <Bool_Glob>:
	...

00000000800428c0 <End_Insn>:
	...

00000000800428c8 <heap_memory>:
	...

Disassembly of section .comment:

0000000000000000 <.comment>:
   0:	3a434347          	fmsub.d	ft6,ft6,ft4,ft7,rmm
   4:	2820                	fld	fs0,80(s0)
   6:	29554e47          	fmsub.s	ft8,fa0,fs5,ft5,rmm
   a:	3820                	fld	fs0,112(s0)
   c:	322e                	fld	ft4,232(sp)
   e:	302e                	fld	ft0,232(sp)
	...

Disassembly of section .riscv.attributes:

0000000000000000 <.riscv.attributes>:
   0:	1e41                	addi	t3,t3,-16
   2:	0000                	unimp
   4:	7200                	ld	s0,32(a2)
   6:	7369                	lui	t1,0xffffa
   8:	01007663          	bgeu	zero,a6,14 <_start-0x7fffffec>
   c:	0014                	0x14
   e:	0000                	unimp
  10:	7205                	lui	tp,0xfffe1
  12:	3676                	fld	fa2,376(sp)
  14:	6934                	ld	a3,80(a0)
  16:	7032                	0x7032
  18:	5f30                	lw	a2,120(a4)
  1a:	326d                	addiw	tp,tp,-5
  1c:	3070                	fld	fa2,224(s0)
	...
