
hello_new:     file format elf64-littleriscv


Disassembly of section .text:

0000000000000000 <main>:
   0:	fe010113          	addi	sp,sp,-32
   4:	00113c23          	sd	ra,24(sp)
   8:	00813823          	sd	s0,16(sp)
   c:	02010413          	addi	s0,sp,32

0000000000000010 <.L0 >:
  10:	00000797          	auipc	a5,0x0
  14:	00078793          	mv	a5,a5
  18:	0007a787          	flw	fa5,0(a5) # 10 <.L0 >
  1c:	fef42627          	fsw	fa5,-20(s0)

0000000000000020 <.L0 >:
  20:	00000797          	auipc	a5,0x0
  24:	00078793          	mv	a5,a5
  28:	0007a787          	flw	fa5,0(a5) # 20 <.L0 >
  2c:	fef42427          	fsw	fa5,-24(s0)
  30:	fe842707          	flw	fa4,-24(s0)
  34:	fec42787          	flw	fa5,-20(s0)
  38:	10f77753          	fmul.s	fa4,fa4,fa5

000000000000003c <.L0 >:
  3c:	00000797          	auipc	a5,0x0
  40:	00078793          	mv	a5,a5
  44:	0007a787          	flw	fa5,0(a5) # 3c <.L0 >
  48:	10f777d3          	fmul.s	fa5,fa4,fa5
  4c:	c00797d3          	fcvt.w.s	a5,fa5,rtz
  50:	fef42223          	sw	a5,-28(s0)
  54:	fe442783          	lw	a5,-28(s0)
  58:	00078593          	mv	a1,a5

000000000000005c <.L0 >:
  5c:	00000517          	auipc	a0,0x0
  60:	00050513          	mv	a0,a0
  64:	00000097          	auipc	ra,0x0
  68:	000080e7          	jalr	ra

000000000000006c <.L2>:
  6c:	0000006f          	j	6c <.L2>

0000000000000070 <hprintf_c>:
  70:	fd010113          	addi	sp,sp,-48
  74:	02813423          	sd	s0,40(sp)
  78:	03010413          	addi	s0,sp,48
  7c:	00050793          	mv	a5,a0
  80:	fcf42e23          	sw	a5,-36(s0)
  84:	380007b7          	lui	a5,0x38000
  88:	40b78793          	addi	a5,a5,1035 # 3800040b <.L36+0x37fffd9f>
  8c:	00279793          	slli	a5,a5,0x2
  90:	fef43423          	sd	a5,-24(s0)
  94:	00000013          	nop

0000000000000098 <.L4>:
  98:	fe843783          	ld	a5,-24(s0)
  9c:	0007a783          	lw	a5,0(a5)
  a0:	0007879b          	sext.w	a5,a5
  a4:	0107f793          	andi	a5,a5,16
  a8:	0007879b          	sext.w	a5,a5
  ac:	00078713          	mv	a4,a5
  b0:	01000793          	li	a5,16
  b4:	fef702e3          	beq	a4,a5,98 <.L4>
  b8:	0e0007b7          	lui	a5,0xe000
  bc:	10378793          	addi	a5,a5,259 # e000103 <.L36+0xdfffa97>
  c0:	00479793          	slli	a5,a5,0x4
  c4:	fdc42703          	lw	a4,-36(s0)
  c8:	00e7a023          	sw	a4,0(a5)
  cc:	00000013          	nop
  d0:	02813403          	ld	s0,40(sp)
  d4:	03010113          	addi	sp,sp,48
  d8:	00008067          	ret

00000000000000dc <hprintf_s>:
  dc:	fe010113          	addi	sp,sp,-32
  e0:	00113c23          	sd	ra,24(sp)
  e4:	00813823          	sd	s0,16(sp)
  e8:	02010413          	addi	s0,sp,32
  ec:	fea43423          	sd	a0,-24(s0)
  f0:	0240006f          	j	114 <.L6>

00000000000000f4 <.L7>:
  f4:	fe843783          	ld	a5,-24(s0)
  f8:	00178713          	addi	a4,a5,1
  fc:	fee43423          	sd	a4,-24(s0)
 100:	0007c783          	lbu	a5,0(a5)
 104:	0007879b          	sext.w	a5,a5
 108:	00078513          	mv	a0,a5
 10c:	00000097          	auipc	ra,0x0
 110:	000080e7          	jalr	ra

0000000000000114 <.L6>:
 114:	fe843783          	ld	a5,-24(s0)
 118:	0007c783          	lbu	a5,0(a5)
 11c:	fc079ce3          	bnez	a5,f4 <.L7>
 120:	00000013          	nop
 124:	01813083          	ld	ra,24(sp)
 128:	01013403          	ld	s0,16(sp)
 12c:	02010113          	addi	sp,sp,32
 130:	00008067          	ret

0000000000000134 <hprintf_d>:
 134:	fb010113          	addi	sp,sp,-80
 138:	04113423          	sd	ra,72(sp)
 13c:	04813023          	sd	s0,64(sp)
 140:	05010413          	addi	s0,sp,80
 144:	00050793          	mv	a5,a0
 148:	faf42e23          	sw	a5,-68(s0)
 14c:	fc840793          	addi	a5,s0,-56
 150:	fef43423          	sd	a5,-24(s0)
 154:	fbc42783          	lw	a5,-68(s0)
 158:	0007879b          	sext.w	a5,a5
 15c:	0407de63          	bgez	a5,1b8 <.L10>
 160:	02d00513          	li	a0,45
 164:	00000097          	auipc	ra,0x0
 168:	000080e7          	jalr	ra
 16c:	fbc42783          	lw	a5,-68(s0)
 170:	40f007bb          	negw	a5,a5
 174:	faf42e23          	sw	a5,-68(s0)
 178:	0400006f          	j	1b8 <.L10>

000000000000017c <.L11>:
 17c:	fbc42703          	lw	a4,-68(s0)
 180:	00a00793          	li	a5,10
 184:	02f767bb          	remw	a5,a4,a5
 188:	0007879b          	sext.w	a5,a5
 18c:	0ff7f713          	andi	a4,a5,255
 190:	fe843783          	ld	a5,-24(s0)
 194:	00178693          	addi	a3,a5,1
 198:	fed43423          	sd	a3,-24(s0)
 19c:	0307071b          	addiw	a4,a4,48
 1a0:	0ff77713          	andi	a4,a4,255
 1a4:	00e78023          	sb	a4,0(a5)
 1a8:	fbc42703          	lw	a4,-68(s0)
 1ac:	00a00793          	li	a5,10
 1b0:	02f747bb          	divw	a5,a4,a5
 1b4:	faf42e23          	sw	a5,-68(s0)

00000000000001b8 <.L10>:
 1b8:	fbc42783          	lw	a5,-68(s0)
 1bc:	0007879b          	sext.w	a5,a5
 1c0:	fa079ee3          	bnez	a5,17c <.L11>
 1c4:	fc840793          	addi	a5,s0,-56
 1c8:	fe843703          	ld	a4,-24(s0)
 1cc:	faf708e3          	beq	a4,a5,17c <.L11>
 1d0:	0280006f          	j	1f8 <.L12>

00000000000001d4 <.L13>:
 1d4:	fe843783          	ld	a5,-24(s0)
 1d8:	fff78793          	addi	a5,a5,-1
 1dc:	fef43423          	sd	a5,-24(s0)
 1e0:	fe843783          	ld	a5,-24(s0)
 1e4:	0007c783          	lbu	a5,0(a5)
 1e8:	0007879b          	sext.w	a5,a5
 1ec:	00078513          	mv	a0,a5
 1f0:	00000097          	auipc	ra,0x0
 1f4:	000080e7          	jalr	ra

00000000000001f8 <.L12>:
 1f8:	fc840793          	addi	a5,s0,-56
 1fc:	fe843703          	ld	a4,-24(s0)
 200:	fcf71ae3          	bne	a4,a5,1d4 <.L13>
 204:	00000013          	nop
 208:	04813083          	ld	ra,72(sp)
 20c:	04013403          	ld	s0,64(sp)
 210:	05010113          	addi	sp,sp,80
 214:	00008067          	ret

0000000000000218 <hprintf_h>:
 218:	fd010113          	addi	sp,sp,-48
 21c:	02113423          	sd	ra,40(sp)
 220:	02813023          	sd	s0,32(sp)
 224:	03010413          	addi	s0,sp,48
 228:	00050793          	mv	a5,a0
 22c:	00058713          	mv	a4,a1
 230:	fcf42e23          	sw	a5,-36(s0)
 234:	00070793          	mv	a5,a4
 238:	fcf42c23          	sw	a5,-40(s0)
 23c:	fd842783          	lw	a5,-40(s0)
 240:	fff7879b          	addiw	a5,a5,-1
 244:	0007879b          	sext.w	a5,a5
 248:	0027979b          	slliw	a5,a5,0x2
 24c:	fef42623          	sw	a5,-20(s0)
 250:	0500006f          	j	2a0 <.L15>

0000000000000254 <.L16>:
 254:	fdc42703          	lw	a4,-36(s0)
 258:	fec42783          	lw	a5,-20(s0)
 25c:	00f757bb          	srlw	a5,a4,a5
 260:	0007879b          	sext.w	a5,a5
 264:	00f7f793          	andi	a5,a5,15
 268:	0007879b          	sext.w	a5,a5

000000000000026c <.L0 >:
 26c:	00000717          	auipc	a4,0x0
 270:	00070713          	mv	a4,a4
 274:	02079793          	slli	a5,a5,0x20
 278:	0207d793          	srli	a5,a5,0x20
 27c:	00f707b3          	add	a5,a4,a5
 280:	0007c783          	lbu	a5,0(a5)
 284:	0007879b          	sext.w	a5,a5
 288:	00078513          	mv	a0,a5
 28c:	00000097          	auipc	ra,0x0
 290:	000080e7          	jalr	ra
 294:	fec42783          	lw	a5,-20(s0)
 298:	ffc7879b          	addiw	a5,a5,-4
 29c:	fef42623          	sw	a5,-20(s0)

00000000000002a0 <.L15>:
 2a0:	fec42783          	lw	a5,-20(s0)
 2a4:	0007879b          	sext.w	a5,a5
 2a8:	fa07d6e3          	bgez	a5,254 <.L16>
 2ac:	00000013          	nop
 2b0:	02813083          	ld	ra,40(sp)
 2b4:	02013403          	ld	s0,32(sp)
 2b8:	03010113          	addi	sp,sp,48
 2bc:	00008067          	ret

00000000000002c0 <hprintf>:
 2c0:	f9010113          	addi	sp,sp,-112
 2c4:	02113423          	sd	ra,40(sp)
 2c8:	02813023          	sd	s0,32(sp)
 2cc:	03010413          	addi	s0,sp,48
 2d0:	fca43c23          	sd	a0,-40(s0)
 2d4:	00b43423          	sd	a1,8(s0)
 2d8:	00c43823          	sd	a2,16(s0)
 2dc:	00d43c23          	sd	a3,24(s0)
 2e0:	02e43023          	sd	a4,32(s0)
 2e4:	02f43423          	sd	a5,40(s0)
 2e8:	03043823          	sd	a6,48(s0)
 2ec:	03143c23          	sd	a7,56(s0)
 2f0:	04040793          	addi	a5,s0,64
 2f4:	fc878793          	addi	a5,a5,-56
 2f8:	fef43023          	sd	a5,-32(s0)
 2fc:	fe042623          	sw	zero,-20(s0)
 300:	2640006f          	j	564 <.L18>

0000000000000304 <.L31>:
 304:	fec42783          	lw	a5,-20(s0)
 308:	fd843703          	ld	a4,-40(s0)
 30c:	00f707b3          	add	a5,a4,a5
 310:	0007c783          	lbu	a5,0(a5)
 314:	00078713          	mv	a4,a5
 318:	02500793          	li	a5,37
 31c:	20f71e63          	bne	a4,a5,538 <.L19>
 320:	1f40006f          	j	514 <.L20>

0000000000000324 <.L29>:
 324:	fec42783          	lw	a5,-20(s0)
 328:	fd843703          	ld	a4,-40(s0)
 32c:	00f707b3          	add	a5,a4,a5
 330:	0007c783          	lbu	a5,0(a5)
 334:	00078713          	mv	a4,a5
 338:	06300793          	li	a5,99
 33c:	02f71263          	bne	a4,a5,360 <.L21>
 340:	fe043783          	ld	a5,-32(s0)
 344:	00878713          	addi	a4,a5,8
 348:	fee43023          	sd	a4,-32(s0)
 34c:	0007a783          	lw	a5,0(a5)
 350:	00078513          	mv	a0,a5
 354:	00000097          	auipc	ra,0x0
 358:	000080e7          	jalr	ra
 35c:	1fc0006f          	j	558 <.L30>

0000000000000360 <.L21>:
 360:	fec42783          	lw	a5,-20(s0)
 364:	fd843703          	ld	a4,-40(s0)
 368:	00f707b3          	add	a5,a4,a5
 36c:	0007c783          	lbu	a5,0(a5)
 370:	00078713          	mv	a4,a5
 374:	07300793          	li	a5,115
 378:	02f71263          	bne	a4,a5,39c <.L23>
 37c:	fe043783          	ld	a5,-32(s0)
 380:	00878713          	addi	a4,a5,8
 384:	fee43023          	sd	a4,-32(s0)
 388:	0007b783          	ld	a5,0(a5)
 38c:	00078513          	mv	a0,a5
 390:	00000097          	auipc	ra,0x0
 394:	000080e7          	jalr	ra
 398:	1c00006f          	j	558 <.L30>

000000000000039c <.L23>:
 39c:	fec42783          	lw	a5,-20(s0)
 3a0:	fd843703          	ld	a4,-40(s0)
 3a4:	00f707b3          	add	a5,a4,a5
 3a8:	0007c783          	lbu	a5,0(a5)
 3ac:	00078713          	mv	a4,a5
 3b0:	06400793          	li	a5,100
 3b4:	02f71263          	bne	a4,a5,3d8 <.L24>
 3b8:	fe043783          	ld	a5,-32(s0)
 3bc:	00878713          	addi	a4,a5,8
 3c0:	fee43023          	sd	a4,-32(s0)
 3c4:	0007a783          	lw	a5,0(a5)
 3c8:	00078513          	mv	a0,a5
 3cc:	00000097          	auipc	ra,0x0
 3d0:	000080e7          	jalr	ra
 3d4:	1840006f          	j	558 <.L30>

00000000000003d8 <.L24>:
 3d8:	fec42783          	lw	a5,-20(s0)
 3dc:	fd843703          	ld	a4,-40(s0)
 3e0:	00f707b3          	add	a5,a4,a5
 3e4:	0007c783          	lbu	a5,0(a5)
 3e8:	00078713          	mv	a4,a5
 3ec:	07500793          	li	a5,117
 3f0:	02f71463          	bne	a4,a5,418 <.L25>
 3f4:	fe043783          	ld	a5,-32(s0)
 3f8:	00878713          	addi	a4,a5,8
 3fc:	fee43023          	sd	a4,-32(s0)
 400:	0007a783          	lw	a5,0(a5)
 404:	0007879b          	sext.w	a5,a5
 408:	00078513          	mv	a0,a5
 40c:	00000097          	auipc	ra,0x0
 410:	000080e7          	jalr	ra
 414:	1440006f          	j	558 <.L30>

0000000000000418 <.L25>:
 418:	fec42783          	lw	a5,-20(s0)
 41c:	fd843703          	ld	a4,-40(s0)
 420:	00f707b3          	add	a5,a4,a5
 424:	0007c783          	lbu	a5,0(a5)
 428:	00078713          	mv	a4,a5
 42c:	06c00793          	li	a5,108
 430:	06f71c63          	bne	a4,a5,4a8 <.L26>
 434:	fec42783          	lw	a5,-20(s0)
 438:	00178793          	addi	a5,a5,1
 43c:	fd843703          	ld	a4,-40(s0)
 440:	00f707b3          	add	a5,a4,a5
 444:	0007c783          	lbu	a5,0(a5)
 448:	00078713          	mv	a4,a5
 44c:	07500793          	li	a5,117
 450:	02f71a63          	bne	a4,a5,484 <.L27>
 454:	fec42783          	lw	a5,-20(s0)
 458:	0017879b          	addiw	a5,a5,1
 45c:	fef42623          	sw	a5,-20(s0)
 460:	fe043783          	ld	a5,-32(s0)
 464:	00878713          	addi	a4,a5,8
 468:	fee43023          	sd	a4,-32(s0)
 46c:	0007b783          	ld	a5,0(a5)
 470:	0007879b          	sext.w	a5,a5
 474:	00078513          	mv	a0,a5
 478:	00000097          	auipc	ra,0x0
 47c:	000080e7          	jalr	ra
 480:	0d80006f          	j	558 <.L30>

0000000000000484 <.L27>:
 484:	fe043783          	ld	a5,-32(s0)
 488:	00878713          	addi	a4,a5,8
 48c:	fee43023          	sd	a4,-32(s0)
 490:	0007b783          	ld	a5,0(a5)
 494:	0007879b          	sext.w	a5,a5
 498:	00078513          	mv	a0,a5
 49c:	00000097          	auipc	ra,0x0
 4a0:	000080e7          	jalr	ra
 4a4:	0b40006f          	j	558 <.L30>

00000000000004a8 <.L26>:
 4a8:	fec42783          	lw	a5,-20(s0)
 4ac:	fd843703          	ld	a4,-40(s0)
 4b0:	00f707b3          	add	a5,a4,a5
 4b4:	0007c783          	lbu	a5,0(a5)
 4b8:	00078713          	mv	a4,a5
 4bc:	03000793          	li	a5,48
 4c0:	04f71a63          	bne	a4,a5,514 <.L20>
 4c4:	fe043783          	ld	a5,-32(s0)
 4c8:	00878713          	addi	a4,a5,8
 4cc:	fee43023          	sd	a4,-32(s0)
 4d0:	0007a683          	lw	a3,0(a5)
 4d4:	fec42783          	lw	a5,-20(s0)
 4d8:	00178793          	addi	a5,a5,1
 4dc:	fd843703          	ld	a4,-40(s0)
 4e0:	00f707b3          	add	a5,a4,a5
 4e4:	0007c783          	lbu	a5,0(a5)
 4e8:	0007879b          	sext.w	a5,a5
 4ec:	fd07879b          	addiw	a5,a5,-48
 4f0:	0007879b          	sext.w	a5,a5
 4f4:	00078593          	mv	a1,a5
 4f8:	00068513          	mv	a0,a3
 4fc:	00000097          	auipc	ra,0x0
 500:	000080e7          	jalr	ra
 504:	fec42783          	lw	a5,-20(s0)
 508:	0027879b          	addiw	a5,a5,2
 50c:	fef42623          	sw	a5,-20(s0)
 510:	0480006f          	j	558 <.L30>

0000000000000514 <.L20>:
 514:	fec42783          	lw	a5,-20(s0)
 518:	0017879b          	addiw	a5,a5,1
 51c:	fef42623          	sw	a5,-20(s0)
 520:	fec42783          	lw	a5,-20(s0)
 524:	fd843703          	ld	a4,-40(s0)
 528:	00f707b3          	add	a5,a4,a5
 52c:	0007c783          	lbu	a5,0(a5)
 530:	de079ae3          	bnez	a5,324 <.L29>
 534:	0240006f          	j	558 <.L30>

0000000000000538 <.L19>:
 538:	fec42783          	lw	a5,-20(s0)
 53c:	fd843703          	ld	a4,-40(s0)
 540:	00f707b3          	add	a5,a4,a5
 544:	0007c783          	lbu	a5,0(a5)
 548:	0007879b          	sext.w	a5,a5
 54c:	00078513          	mv	a0,a5
 550:	00000097          	auipc	ra,0x0
 554:	000080e7          	jalr	ra

0000000000000558 <.L30>:
 558:	fec42783          	lw	a5,-20(s0)
 55c:	0017879b          	addiw	a5,a5,1
 560:	fef42623          	sw	a5,-20(s0)

0000000000000564 <.L18>:
 564:	fec42783          	lw	a5,-20(s0)
 568:	fd843703          	ld	a4,-40(s0)
 56c:	00f707b3          	add	a5,a4,a5
 570:	0007c783          	lbu	a5,0(a5)
 574:	d80798e3          	bnez	a5,304 <.L31>
 578:	00000013          	nop
 57c:	02813083          	ld	ra,40(sp)
 580:	02013403          	ld	s0,32(sp)
 584:	07010113          	addi	sp,sp,112
 588:	00008067          	ret

000000000000058c <hscanf_c>:
 58c:	fe010113          	addi	sp,sp,-32
 590:	00113c23          	sd	ra,24(sp)
 594:	00813823          	sd	s0,16(sp)
 598:	02010413          	addi	s0,sp,32
 59c:	380007b7          	lui	a5,0x38000
 5a0:	40b78793          	addi	a5,a5,1035 # 3800040b <.L36+0x37fffd9f>
 5a4:	00279793          	slli	a5,a5,0x2
 5a8:	fef43423          	sd	a5,-24(s0)
 5ac:	00000013          	nop

00000000000005b0 <.L33>:
 5b0:	fe843783          	ld	a5,-24(s0)
 5b4:	0007a783          	lw	a5,0(a5)
 5b8:	0007879b          	sext.w	a5,a5
 5bc:	0027f793          	andi	a5,a5,2
 5c0:	0007879b          	sext.w	a5,a5
 5c4:	00078713          	mv	a4,a5
 5c8:	00200793          	li	a5,2
 5cc:	fef702e3          	beq	a4,a5,5b0 <.L33>
 5d0:	0e0007b7          	lui	a5,0xe000
 5d4:	10378793          	addi	a5,a5,259 # e000103 <.L36+0xdfffa97>
 5d8:	00479793          	slli	a5,a5,0x4
 5dc:	0007a783          	lw	a5,0(a5)
 5e0:	0ff7f793          	andi	a5,a5,255
 5e4:	fef403a3          	sb	a5,-25(s0)
 5e8:	fe744783          	lbu	a5,-25(s0)
 5ec:	0ff7f793          	andi	a5,a5,255
 5f0:	0007879b          	sext.w	a5,a5
 5f4:	00078513          	mv	a0,a5
 5f8:	00000097          	auipc	ra,0x0
 5fc:	000080e7          	jalr	ra
 600:	fe744783          	lbu	a5,-25(s0)
 604:	0ff7f793          	andi	a5,a5,255
 608:	00078513          	mv	a0,a5
 60c:	01813083          	ld	ra,24(sp)
 610:	01013403          	ld	s0,16(sp)
 614:	02010113          	addi	sp,sp,32
 618:	00008067          	ret

000000000000061c <hscanf>:
 61c:	fd010113          	addi	sp,sp,-48
 620:	02113423          	sd	ra,40(sp)
 624:	02813023          	sd	s0,32(sp)
 628:	03010413          	addi	s0,sp,48

000000000000062c <.L0 >:
 62c:	00000797          	auipc	a5,0x0
 630:	00078793          	mv	a5,a5
 634:	fef43423          	sd	a5,-24(s0)
 638:	fe843783          	ld	a5,-24(s0)
 63c:	fef43023          	sd	a5,-32(s0)
 640:	00000097          	auipc	ra,0x0
 644:	000080e7          	jalr	ra
 648:	00050793          	mv	a5,a0
 64c:	fcf40fa3          	sb	a5,-33(s0)
 650:	01c0006f          	j	66c <.L36>

0000000000000654 <.L37>:
 654:	fe843783          	ld	a5,-24(s0)
 658:	00178713          	addi	a4,a5,1 # 62d <.L0 +0x1>
 65c:	fee43423          	sd	a4,-24(s0)
 660:	fdf44703          	lbu	a4,-33(s0)
 664:	0ff77713          	andi	a4,a4,255
 668:	00e78023          	sb	a4,0(a5)

000000000000066c <.L36>:
 66c:	fdf44783          	lbu	a5,-33(s0)
 670:	0ff7f793          	andi	a5,a5,255
 674:	00078713          	mv	a4,a5
 678:	06e00793          	li	a5,110
 67c:	fcf71ce3          	bne	a4,a5,654 <.L37>
 680:	fe043783          	ld	a5,-32(s0)
 684:	00078513          	mv	a0,a5
 688:	02813083          	ld	ra,40(sp)
 68c:	02013403          	ld	s0,32(sp)
 690:	03010113          	addi	sp,sp,48
 694:	00008067          	ret

Disassembly of section .rodata:

0000000000000000 <.LC3>:
   0:	6568                	ld	a0,200(a0)
   2:	6c6c                	ld	a1,216(s0)
   4:	6f775f6f          	jal	t5,75efa <.L36+0x7588e>
   8:	6c72                	ld	s8,280(sp)
   a:	2064                	fld	fs1,192(s0)
   c:	2520                	fld	fs0,72(a0)
   e:	0a64                	addi	s1,sp,284
	...

0000000000000018 <.LC4>:
  18:	3130                	fld	fa2,96(a0)
  1a:	3332                	fld	ft6,296(sp)
  1c:	3534                	fld	fa3,104(a0)
  1e:	3736                	fld	fa4,360(sp)
  20:	3938                	fld	fa4,112(a0)
  22:	4241                	li	tp,16
  24:	46454443          	0x46454443
	...

0000000000000030 <.LC5>:
  30:	0000                	unimp
	...

0000000000000034 <.LC0>:
  34:	cb92                	sw	tp,212(sp)
  36:	cccd3f8f          	0xcccd3f8f

0000000000000038 <.LC1>:
  38:	cccd                	beqz	s1,f2 <hprintf_s+0x16>
  3a:	41a0                	lw	s0,64(a1)

000000000000003c <.LC2>:
  3c:	0000                	unimp
  3e:	447a                	lw	s0,156(sp)

Disassembly of section .comment:

0000000000000000 <.comment>:
   0:	4700                	lw	s0,8(a4)
   2:	203a4343          	fmadd.s	ft6,fs4,ft3,ft4,rmm
   6:	4728                	lw	a0,72(a4)
   8:	554e                	lw	a0,240(sp)
   a:	2029                	0x2029
   c:	2e312e37          	lui	t3,0x2e312
  10:	2031                	0x2031
  12:	3032                	fld	ft0,296(sp)
  14:	3731                	addiw	a4,a4,-20
  16:	3530                	fld	fa2,104(a0)
  18:	3930                	fld	fa2,112(a0)
	...
