
main:     file format elf64-littleriscv


Disassembly of section .text:

0000000080000000 <_start>:
    80000000:	00020137          	lui	sp,0x20
    80000004:	0011011b          	addiw	sp,sp,1
    80000008:	00e11113          	slli	sp,sp,0xe
    8000000c:	4800006f          	j	8000048c <main_func>

0000000080000010 <handler>:
    80000010:	fe010113          	addi	sp,sp,-32 # 1ffe0 <_start-0x7ffe0020>
    80000014:	01d13423          	sd	t4,8(sp)
    80000018:	01e13823          	sd	t5,16(sp)
    8000001c:	01f13c23          	sd	t6,24(sp)
    80000020:	000e0f37          	lui	t5,0xe0
    80000024:	001f0f1b          	addiw	t5,t5,1
    80000028:	00cf1f13          	slli	t5,t5,0xc
    8000002c:	030f0f13          	addi	t5,t5,48 # e0030 <_start-0x7ff1ffd0>
    80000030:	00a00f93          	li	t6,10
    80000034:	01ff0023          	sb	t6,0(t5)
    80000038:	02d00f93          	li	t6,45
    8000003c:	01ff0023          	sb	t6,0(t5)
    80000040:	02d00f93          	li	t6,45
    80000044:	01ff0023          	sb	t6,0(t5)
    80000048:	02d00f93          	li	t6,45
    8000004c:	01ff0023          	sb	t6,0(t5)
    80000050:	02d00f93          	li	t6,45
    80000054:	01ff0023          	sb	t6,0(t5)
    80000058:	04600f93          	li	t6,70
    8000005c:	01ff0023          	sb	t6,0(t5)
    80000060:	04900f93          	li	t6,73
    80000064:	01ff0023          	sb	t6,0(t5)
    80000068:	05200f93          	li	t6,82
    8000006c:	01ff0023          	sb	t6,0(t5)
    80000070:	04500f93          	li	t6,69
    80000074:	01ff0023          	sb	t6,0(t5)
    80000078:	04400f93          	li	t6,68
    8000007c:	01ff0023          	sb	t6,0(t5)
    80000080:	02d00f93          	li	t6,45
    80000084:	01ff0023          	sb	t6,0(t5)
    80000088:	02d00f93          	li	t6,45
    8000008c:	01ff0023          	sb	t6,0(t5)
    80000090:	02d00f93          	li	t6,45
    80000094:	01ff0023          	sb	t6,0(t5)
    80000098:	02d00f93          	li	t6,45
    8000009c:	01ff0023          	sb	t6,0(t5)
    800000a0:	00a00f93          	li	t6,10
    800000a4:	01ff0023          	sb	t6,0(t5)
    800000a8:	0200cf37          	lui	t5,0x200c
    800000ac:	ff8f0f1b          	addiw	t5,t5,-8
    800000b0:	000f3e83          	ld	t4,0(t5) # 200c000 <_start-0x7dff4000>
    800000b4:	3e800f13          	li	t5,1000
    800000b8:	01ee8eb3          	add	t4,t4,t5
    800000bc:	02004f37          	lui	t5,0x2004
    800000c0:	01df3023          	sd	t4,0(t5) # 2004000 <_start-0x7dffc000>
    800000c4:	00813e83          	ld	t4,8(sp)
    800000c8:	01013f03          	ld	t5,16(sp)
    800000cc:	01813f83          	ld	t6,24(sp)
    800000d0:	02010113          	addi	sp,sp,32
    800000d4:	00008067          	ret

00000000800000d8 <interrupt_init>:
    800000d8:	00000297          	auipc	t0,0x0
    800000dc:	f3828293          	addi	t0,t0,-200 # 80000010 <handler>
    800000e0:	30529073          	csrw	mtvec,t0
    800000e4:	00200513          	li	a0,2
    800000e8:	30052073          	csrs	mstatus,a0
    800000ec:	0200c5b7          	lui	a1,0x200c
    800000f0:	ff85859b          	addiw	a1,a1,-8
    800000f4:	0005b503          	ld	a0,0(a1) # 200c000 <_start-0x7dff4000>
    800000f8:	3e800293          	li	t0,1000
    800000fc:	00550533          	add	a0,a0,t0
    80000100:	020045b7          	lui	a1,0x2004
    80000104:	00a5b023          	sd	a0,0(a1) # 2004000 <_start-0x7dffc000>
    80000108:	02000513          	li	a0,32
    8000010c:	30452073          	csrs	mie,a0
    80000110:	00008067          	ret

Disassembly of section .text.hprintf_c:

0000000080000114 <hprintf_c>:
    80000114:	38000737          	lui	a4,0x38000
    80000118:	40b70713          	addi	a4,a4,1035 # 3800040b <_start-0x47fffbf5>
    8000011c:	00271713          	slli	a4,a4,0x2
    80000120:	00072783          	lw	a5,0(a4)
    80000124:	0107f793          	andi	a5,a5,16
    80000128:	fe079ce3          	bnez	a5,80000120 <hprintf_c+0xc>
    8000012c:	0e0007b7          	lui	a5,0xe000
    80000130:	10378793          	addi	a5,a5,259 # e000103 <_start-0x71fffefd>
    80000134:	00479793          	slli	a5,a5,0x4
    80000138:	00a7a023          	sw	a0,0(a5)
    8000013c:	00008067          	ret

Disassembly of section .text.hprintf_s:

0000000080000140 <hprintf_s>:
    80000140:	00054783          	lbu	a5,0(a0)
    80000144:	02078e63          	beqz	a5,80000180 <hprintf_s+0x40>
    80000148:	38000737          	lui	a4,0x38000
    8000014c:	0e000637          	lui	a2,0xe000
    80000150:	40b70713          	addi	a4,a4,1035 # 3800040b <_start-0x47fffbf5>
    80000154:	10360613          	addi	a2,a2,259 # e000103 <_start-0x71fffefd>
    80000158:	00271713          	slli	a4,a4,0x2
    8000015c:	00461613          	slli	a2,a2,0x4
    80000160:	00150513          	addi	a0,a0,1
    80000164:	0007869b          	sext.w	a3,a5
    80000168:	00072783          	lw	a5,0(a4)
    8000016c:	0107f793          	andi	a5,a5,16
    80000170:	fe079ce3          	bnez	a5,80000168 <hprintf_s+0x28>
    80000174:	00d62023          	sw	a3,0(a2)
    80000178:	00054783          	lbu	a5,0(a0)
    8000017c:	fe0792e3          	bnez	a5,80000160 <hprintf_s+0x20>
    80000180:	00008067          	ret

Disassembly of section .text.hprintf_d:

0000000080000184 <hprintf_d>:
    80000184:	fe010113          	addi	sp,sp,-32
    80000188:	06054663          	bltz	a0,800001f4 <hprintf_d+0x70>
    8000018c:	00010613          	mv	a2,sp
    80000190:	00060713          	mv	a4,a2
    80000194:	00a00693          	li	a3,10
    80000198:	00051463          	bnez	a0,800001a0 <hprintf_d+0x1c>
    8000019c:	00c71e63          	bne	a4,a2,800001b8 <hprintf_d+0x34>
    800001a0:	02d567bb          	remw	a5,a0,a3
    800001a4:	00170713          	addi	a4,a4,1
    800001a8:	0307879b          	addiw	a5,a5,48
    800001ac:	02d5453b          	divw	a0,a0,a3
    800001b0:	fef70fa3          	sb	a5,-1(a4)
    800001b4:	fe5ff06f          	j	80000198 <hprintf_d+0x14>
    800001b8:	380006b7          	lui	a3,0x38000
    800001bc:	0e000537          	lui	a0,0xe000
    800001c0:	40b68693          	addi	a3,a3,1035 # 3800040b <_start-0x47fffbf5>
    800001c4:	10350513          	addi	a0,a0,259 # e000103 <_start-0x71fffefd>
    800001c8:	00269693          	slli	a3,a3,0x2
    800001cc:	00451513          	slli	a0,a0,0x4
    800001d0:	fff70713          	addi	a4,a4,-1
    800001d4:	00074583          	lbu	a1,0(a4)
    800001d8:	0006a783          	lw	a5,0(a3)
    800001dc:	0107f793          	andi	a5,a5,16
    800001e0:	fe079ce3          	bnez	a5,800001d8 <hprintf_d+0x54>
    800001e4:	00b52023          	sw	a1,0(a0)
    800001e8:	fec714e3          	bne	a4,a2,800001d0 <hprintf_d+0x4c>
    800001ec:	02010113          	addi	sp,sp,32
    800001f0:	00008067          	ret
    800001f4:	38000737          	lui	a4,0x38000
    800001f8:	40b70713          	addi	a4,a4,1035 # 3800040b <_start-0x47fffbf5>
    800001fc:	00271713          	slli	a4,a4,0x2
    80000200:	00072783          	lw	a5,0(a4)
    80000204:	0107f793          	andi	a5,a5,16
    80000208:	fe079ce3          	bnez	a5,80000200 <hprintf_d+0x7c>
    8000020c:	0e0007b7          	lui	a5,0xe000
    80000210:	10378793          	addi	a5,a5,259 # e000103 <_start-0x71fffefd>
    80000214:	00479793          	slli	a5,a5,0x4
    80000218:	02d00713          	li	a4,45
    8000021c:	00e7a023          	sw	a4,0(a5)
    80000220:	40a0053b          	negw	a0,a0
    80000224:	f69ff06f          	j	8000018c <hprintf_d+0x8>

Disassembly of section .text.hprintf_h:

0000000080000228 <hprintf_h>:
    80000228:	fff5869b          	addiw	a3,a1,-1
    8000022c:	0026969b          	slliw	a3,a3,0x2
    80000230:	0406c863          	bltz	a3,80000280 <hprintf_h+0x58>
    80000234:	38000737          	lui	a4,0x38000
    80000238:	0e0005b7          	lui	a1,0xe000
    8000023c:	40b70713          	addi	a4,a4,1035 # 3800040b <_start-0x47fffbf5>
    80000240:	10358593          	addi	a1,a1,259 # e000103 <_start-0x71fffefd>
    80000244:	ffc00893          	li	a7,-4
    80000248:	00000817          	auipc	a6,0x0
    8000024c:	31080813          	addi	a6,a6,784 # 80000558 <hscanf+0x5c>
    80000250:	00271713          	slli	a4,a4,0x2
    80000254:	00459593          	slli	a1,a1,0x4
    80000258:	00d557bb          	srlw	a5,a0,a3
    8000025c:	00f7f793          	andi	a5,a5,15
    80000260:	00f807b3          	add	a5,a6,a5
    80000264:	0007c603          	lbu	a2,0(a5)
    80000268:	00072783          	lw	a5,0(a4)
    8000026c:	0107f793          	andi	a5,a5,16
    80000270:	fe079ce3          	bnez	a5,80000268 <hprintf_h+0x40>
    80000274:	00c5a023          	sw	a2,0(a1)
    80000278:	ffc6869b          	addiw	a3,a3,-4
    8000027c:	fd169ee3          	bne	a3,a7,80000258 <hprintf_h+0x30>
    80000280:	00008067          	ret

Disassembly of section .text.hprintf:

0000000080000284 <hprintf>:
    80000284:	f8010113          	addi	sp,sp,-128
    80000288:	02113c23          	sd	ra,56(sp)
    8000028c:	02813823          	sd	s0,48(sp)
    80000290:	02913423          	sd	s1,40(sp)
    80000294:	03213023          	sd	s2,32(sp)
    80000298:	01313c23          	sd	s3,24(sp)
    8000029c:	01413823          	sd	s4,16(sp)
    800002a0:	00054303          	lbu	t1,0(a0)
    800002a4:	06f13423          	sd	a5,104(sp)
    800002a8:	04810793          	addi	a5,sp,72
    800002ac:	04b13423          	sd	a1,72(sp)
    800002b0:	04c13823          	sd	a2,80(sp)
    800002b4:	04d13c23          	sd	a3,88(sp)
    800002b8:	06e13023          	sd	a4,96(sp)
    800002bc:	07013823          	sd	a6,112(sp)
    800002c0:	07113c23          	sd	a7,120(sp)
    800002c4:	00f13423          	sd	a5,8(sp)
    800002c8:	04030a63          	beqz	t1,8000031c <hprintf+0x98>
    800002cc:	38000437          	lui	s0,0x38000
    800002d0:	0e000a37          	lui	s4,0xe000
    800002d4:	40b40413          	addi	s0,s0,1035 # 3800040b <_start-0x47fffbf5>
    800002d8:	103a0a13          	addi	s4,s4,259 # e000103 <_start-0x71fffefd>
    800002dc:	00000493          	li	s1,0
    800002e0:	00050913          	mv	s2,a0
    800002e4:	00241413          	slli	s0,s0,0x2
    800002e8:	004a1a13          	slli	s4,s4,0x4
    800002ec:	06300993          	li	s3,99
    800002f0:	02500793          	li	a5,37
    800002f4:	04f30463          	beq	t1,a5,8000033c <hprintf+0xb8>
    800002f8:	0003031b          	sext.w	t1,t1
    800002fc:	00042783          	lw	a5,0(s0)
    80000300:	0107f793          	andi	a5,a5,16
    80000304:	fe079ce3          	bnez	a5,800002fc <hprintf+0x78>
    80000308:	006a2023          	sw	t1,0(s4)
    8000030c:	0014849b          	addiw	s1,s1,1
    80000310:	009907b3          	add	a5,s2,s1
    80000314:	0007c303          	lbu	t1,0(a5)
    80000318:	fc031ce3          	bnez	t1,800002f0 <hprintf+0x6c>
    8000031c:	03813083          	ld	ra,56(sp)
    80000320:	03013403          	ld	s0,48(sp)
    80000324:	02813483          	ld	s1,40(sp)
    80000328:	02013903          	ld	s2,32(sp)
    8000032c:	01813983          	ld	s3,24(sp)
    80000330:	01013a03          	ld	s4,16(sp)
    80000334:	08010113          	addi	sp,sp,128
    80000338:	00008067          	ret
    8000033c:	0014871b          	addiw	a4,s1,1
    80000340:	07300613          	li	a2,115
    80000344:	06400593          	li	a1,100
    80000348:	07500813          	li	a6,117
    8000034c:	06c00513          	li	a0,108
    80000350:	03000893          	li	a7,48
    80000354:	0180006f          	j	8000036c <hprintf+0xe8>
    80000358:	06c78463          	beq	a5,a2,800003c0 <hprintf+0x13c>
    8000035c:	04b78663          	beq	a5,a1,800003a8 <hprintf+0x124>
    80000360:	05078463          	beq	a5,a6,800003a8 <hprintf+0x124>
    80000364:	08a78c63          	beq	a5,a0,800003fc <hprintf+0x178>
    80000368:	0b178c63          	beq	a5,a7,80000420 <hprintf+0x19c>
    8000036c:	00e906b3          	add	a3,s2,a4
    80000370:	0006c783          	lbu	a5,0(a3)
    80000374:	0007049b          	sext.w	s1,a4
    80000378:	00170713          	addi	a4,a4,1
    8000037c:	f80788e3          	beqz	a5,8000030c <hprintf+0x88>
    80000380:	fd379ce3          	bne	a5,s3,80000358 <hprintf+0xd4>
    80000384:	00813783          	ld	a5,8(sp)
    80000388:	0007a703          	lw	a4,0(a5)
    8000038c:	00878793          	addi	a5,a5,8
    80000390:	00f13423          	sd	a5,8(sp)
    80000394:	00042783          	lw	a5,0(s0)
    80000398:	0107f793          	andi	a5,a5,16
    8000039c:	fe079ce3          	bnez	a5,80000394 <hprintf+0x110>
    800003a0:	00ea2023          	sw	a4,0(s4)
    800003a4:	f69ff06f          	j	8000030c <hprintf+0x88>
    800003a8:	00813783          	ld	a5,8(sp)
    800003ac:	0007a503          	lw	a0,0(a5)
    800003b0:	00878793          	addi	a5,a5,8
    800003b4:	00f13423          	sd	a5,8(sp)
    800003b8:	dcdff0ef          	jal	ra,80000184 <hprintf_d>
    800003bc:	f51ff06f          	j	8000030c <hprintf+0x88>
    800003c0:	00813783          	ld	a5,8(sp)
    800003c4:	0007b683          	ld	a3,0(a5)
    800003c8:	00878793          	addi	a5,a5,8
    800003cc:	00f13423          	sd	a5,8(sp)
    800003d0:	0006c783          	lbu	a5,0(a3)
    800003d4:	f2078ce3          	beqz	a5,8000030c <hprintf+0x88>
    800003d8:	00168693          	addi	a3,a3,1
    800003dc:	0007871b          	sext.w	a4,a5
    800003e0:	00042783          	lw	a5,0(s0)
    800003e4:	0107f793          	andi	a5,a5,16
    800003e8:	fe079ce3          	bnez	a5,800003e0 <hprintf+0x15c>
    800003ec:	00ea2023          	sw	a4,0(s4)
    800003f0:	0006c783          	lbu	a5,0(a3)
    800003f4:	fe0792e3          	bnez	a5,800003d8 <hprintf+0x154>
    800003f8:	f15ff06f          	j	8000030c <hprintf+0x88>
    800003fc:	00813783          	ld	a5,8(sp)
    80000400:	0016c683          	lbu	a3,1(a3)
    80000404:	0007b503          	ld	a0,0(a5)
    80000408:	00878713          	addi	a4,a5,8
    8000040c:	0005051b          	sext.w	a0,a0
    80000410:	07068663          	beq	a3,a6,8000047c <hprintf+0x1f8>
    80000414:	00e13423          	sd	a4,8(sp)
    80000418:	d6dff0ef          	jal	ra,80000184 <hprintf_d>
    8000041c:	ef1ff06f          	j	8000030c <hprintf+0x88>
    80000420:	00813783          	ld	a5,8(sp)
    80000424:	0016c703          	lbu	a4,1(a3)
    80000428:	ffc00513          	li	a0,-4
    8000042c:	00878693          	addi	a3,a5,8
    80000430:	fcf7071b          	addiw	a4,a4,-49
    80000434:	00d13423          	sd	a3,8(sp)
    80000438:	0027171b          	slliw	a4,a4,0x2
    8000043c:	0007a583          	lw	a1,0(a5)
    80000440:	00000617          	auipc	a2,0x0
    80000444:	11860613          	addi	a2,a2,280 # 80000558 <hscanf+0x5c>
    80000448:	02074663          	bltz	a4,80000474 <hprintf+0x1f0>
    8000044c:	00e5d7bb          	srlw	a5,a1,a4
    80000450:	00f7f793          	andi	a5,a5,15
    80000454:	00f607b3          	add	a5,a2,a5
    80000458:	0007c683          	lbu	a3,0(a5)
    8000045c:	00042783          	lw	a5,0(s0)
    80000460:	0107f793          	andi	a5,a5,16
    80000464:	fe079ce3          	bnez	a5,8000045c <hprintf+0x1d8>
    80000468:	00da2023          	sw	a3,0(s4)
    8000046c:	ffc7071b          	addiw	a4,a4,-4
    80000470:	fca71ee3          	bne	a4,a0,8000044c <hprintf+0x1c8>
    80000474:	0024849b          	addiw	s1,s1,2
    80000478:	e95ff06f          	j	8000030c <hprintf+0x88>
    8000047c:	0014849b          	addiw	s1,s1,1
    80000480:	00e13423          	sd	a4,8(sp)
    80000484:	d01ff0ef          	jal	ra,80000184 <hprintf_d>
    80000488:	e85ff06f          	j	8000030c <hprintf+0x88>

Disassembly of section .text.main_func:

000000008000048c <main_func>:
    8000048c:	fe010113          	addi	sp,sp,-32
    80000490:	00813823          	sd	s0,16(sp)
    80000494:	00913423          	sd	s1,8(sp)
    80000498:	01213023          	sd	s2,0(sp)
    8000049c:	00113c23          	sd	ra,24(sp)
    800004a0:	00000413          	li	s0,0
    800004a4:	c35ff0ef          	jal	ra,800000d8 <interrupt_init>
    800004a8:	00000917          	auipc	s2,0x0
    800004ac:	0c890913          	addi	s2,s2,200 # 80000570 <hscanf+0x74>
    800004b0:	06400493          	li	s1,100
    800004b4:	00040593          	mv	a1,s0
    800004b8:	00090513          	mv	a0,s2
    800004bc:	0014041b          	addiw	s0,s0,1
    800004c0:	dc5ff0ef          	jal	ra,80000284 <hprintf>
    800004c4:	fe9418e3          	bne	s0,s1,800004b4 <main_func+0x28>
    800004c8:	0000006f          	j	800004c8 <main_func+0x3c>

Disassembly of section .text.hscanf_c:

00000000800004cc <hscanf_c>:
    800004cc:	380007b7          	lui	a5,0x38000
    800004d0:	40b78793          	addi	a5,a5,1035 # 3800040b <_start-0x47fffbf5>
    800004d4:	00279793          	slli	a5,a5,0x2
    800004d8:	0007a783          	lw	a5,0(a5)
    800004dc:	0ff00513          	li	a0,255
    800004e0:	0027f793          	andi	a5,a5,2
    800004e4:	00079a63          	bnez	a5,800004f8 <hscanf_c+0x2c>
    800004e8:	0e0007b7          	lui	a5,0xe000
    800004ec:	10378793          	addi	a5,a5,259 # e000103 <_start-0x71fffefd>
    800004f0:	00479793          	slli	a5,a5,0x4
    800004f4:	0007c503          	lbu	a0,0(a5)
    800004f8:	00008067          	ret

Disassembly of section .text.hscanf:

00000000800004fc <hscanf>:
    800004fc:	380007b7          	lui	a5,0x38000
    80000500:	40b78793          	addi	a5,a5,1035 # 3800040b <_start-0x47fffbf5>
    80000504:	00279793          	slli	a5,a5,0x2
    80000508:	0007a783          	lw	a5,0(a5)
    8000050c:	ff010113          	addi	sp,sp,-16
    80000510:	0ff00713          	li	a4,255
    80000514:	0027f793          	andi	a5,a5,2
    80000518:	00079a63          	bnez	a5,8000052c <hscanf+0x30>
    8000051c:	0e0007b7          	lui	a5,0xe000
    80000520:	10378793          	addi	a5,a5,259 # e000103 <_start-0x71fffefd>
    80000524:	00479793          	slli	a5,a5,0x4
    80000528:	0007c703          	lbu	a4,0(a5)
    8000052c:	00e107a3          	sb	a4,15(sp)
    80000530:	00f14783          	lbu	a5,15(sp)
    80000534:	06e00713          	li	a4,110
    80000538:	00f70863          	beq	a4,a5,80000548 <hscanf+0x4c>
    8000053c:	00f14783          	lbu	a5,15(sp)
    80000540:	00f14783          	lbu	a5,15(sp)
    80000544:	fef71ce3          	bne	a4,a5,8000053c <hscanf+0x40>
    80000548:	00000517          	auipc	a0,0x0
    8000054c:	03850513          	addi	a0,a0,56 # 80000580 <hscanf+0x84>
    80000550:	01010113          	addi	sp,sp,16
    80000554:	00008067          	ret
