
RISCV_Test_Benchmark.elf:     file format elf64-littleriscv


Disassembly of section .text:

0000000000000000 <_start>:
       0:	6551d0ef          	jal	ra,1de54 <init>
       4:	00100073          	ebreak

0000000000000008 <initReg>:
       8:	00004137          	lui	sp,0x4
       c:	000011b7          	lui	gp,0x1
      10:	00000213          	li	tp,0
      14:	00000293          	li	t0,0
      18:	00000313          	li	t1,0
      1c:	00000393          	li	t2,0
      20:	00000413          	li	s0,0
      24:	00000493          	li	s1,0
      28:	00000513          	li	a0,0
      2c:	00000593          	li	a1,0
      30:	00000613          	li	a2,0
      34:	00000693          	li	a3,0
      38:	00000713          	li	a4,0
      3c:	00000793          	li	a5,0
      40:	00000813          	li	a6,0
      44:	00000893          	li	a7,0
      48:	00000913          	li	s2,0
      4c:	00000993          	li	s3,0
      50:	00000a13          	li	s4,0
      54:	00000a93          	li	s5,0
      58:	00000b13          	li	s6,0
      5c:	00000b93          	li	s7,0
      60:	00000c13          	li	s8,0
      64:	00000c93          	li	s9,0
      68:	00000d13          	li	s10,0
      6c:	00000d93          	li	s11,0
      70:	00000e13          	li	t3,0
      74:	00000e93          	li	t4,0
      78:	00000f13          	li	t5,0
      7c:	00000f93          	li	t6,0
      80:	00008067          	ret

0000000000000084 <isaTest>:
      84:	5951d0ef          	jal	ra,1de18 <risvISATestStartMsg>
      88:	f81ff0ef          	jal	ra,8 <initReg>
      8c:	77d0f0ef          	jal	ra,10008 <add>

0000000000000090 <isaTestEnd>:
      90:	f79ff0ef          	jal	ra,8 <initReg>
      94:	00008067          	ret

0000000000000098 <dhrystoneBenchmark>:
      98:	58d1d0ef          	jal	ra,1de24 <risvDhrystoneStartMsg>
      9c:	f6dff0ef          	jal	ra,8 <initReg>
      a0:	40d1a0ef          	jal	ra,1acac <DHRYSTONE>
      a4:	5b11d0ef          	jal	ra,1de54 <init>

00000000000000a8 <coremarkBenchmark>:
      a8:	5891d0ef          	jal	ra,1de30 <risvCoremarkStartMsg>
      ac:	f5dff0ef          	jal	ra,8 <initReg>
      b0:	6091b0ef          	jal	ra,1beb8 <COREMARK>
      b4:	5a11d0ef          	jal	ra,1de54 <init>
	...

0000000000010000 <.test_name>:
   10000:	6461                	lui	s0,0x18
   10002:	2064                	fld	fs1,192(s0)
   10004:	0009                	c.addi	zero,2
	...

0000000000010008 <add>:
   10008:	00010537          	lui	a0,0x10
   1000c:	00050513          	mv	a0,a0

0000000000010010 <.prname_next>:
   10010:	00004137          	lui	sp,0x4
   10014:	7210d0ef          	jal	ra,1df34 <printf_s>

0000000000010018 <test_2>:
   10018:	00000093          	li	ra,0
   1001c:	00000113          	li	sp,0
   10020:	002081b3          	add	gp,ra,sp
   10024:	00000e93          	li	t4,0
   10028:	00200e13          	li	t3,2
   1002c:	55d19063          	bne	gp,t4,1056c <fail>

0000000000010030 <test_3>:
   10030:	00100093          	li	ra,1
   10034:	00100113          	li	sp,1
   10038:	002081b3          	add	gp,ra,sp
   1003c:	00200e93          	li	t4,2
   10040:	00300e13          	li	t3,3
   10044:	53d19463          	bne	gp,t4,1056c <fail>

0000000000010048 <test_4>:
   10048:	00300093          	li	ra,3
   1004c:	00700113          	li	sp,7
   10050:	002081b3          	add	gp,ra,sp
   10054:	00a00e93          	li	t4,10
   10058:	00400e13          	li	t3,4
   1005c:	51d19863          	bne	gp,t4,1056c <fail>

0000000000010060 <test_5>:
   10060:	00000093          	li	ra,0
   10064:	00020137          	lui	sp,0x20
   10068:	fff1011b          	addiw	sp,sp,-1
   1006c:	00f11113          	slli	sp,sp,0xf
   10070:	002081b3          	add	gp,ra,sp
   10074:	00020eb7          	lui	t4,0x20
   10078:	fffe8e9b          	addiw	t4,t4,-1
   1007c:	00fe9e93          	slli	t4,t4,0xf
   10080:	00500e13          	li	t3,5
   10084:	4fd19463          	bne	gp,t4,1056c <fail>

0000000000010088 <test_6>:
   10088:	0010009b          	addiw	ra,zero,1
   1008c:	01f09093          	slli	ra,ra,0x1f
   10090:	00000113          	li	sp,0
   10094:	002081b3          	add	gp,ra,sp
   10098:	00100e9b          	addiw	t4,zero,1
   1009c:	01fe9e93          	slli	t4,t4,0x1f
   100a0:	00600e13          	li	t3,6
   100a4:	4dd19463          	bne	gp,t4,1056c <fail>

00000000000100a8 <test_7>:
   100a8:	0010009b          	addiw	ra,zero,1
   100ac:	01f09093          	slli	ra,ra,0x1f
   100b0:	00020137          	lui	sp,0x20
   100b4:	fff1011b          	addiw	sp,sp,-1
   100b8:	00f11113          	slli	sp,sp,0xf
   100bc:	002081b3          	add	gp,ra,sp
   100c0:	7fff8eb7          	lui	t4,0x7fff8
   100c4:	00700e13          	li	t3,7
   100c8:	4bd19263          	bne	gp,t4,1056c <fail>

00000000000100cc <test_8>:
   100cc:	00000093          	li	ra,0
   100d0:	00008137          	lui	sp,0x8
   100d4:	fff1011b          	addiw	sp,sp,-1
   100d8:	002081b3          	add	gp,ra,sp
   100dc:	00008eb7          	lui	t4,0x8
   100e0:	fffe8e9b          	addiw	t4,t4,-1
   100e4:	00800e13          	li	t3,8
   100e8:	49d19263          	bne	gp,t4,1056c <fail>

00000000000100ec <test_9>:
   100ec:	800000b7          	lui	ra,0x80000
   100f0:	fff0809b          	addiw	ra,ra,-1
   100f4:	00000113          	li	sp,0
   100f8:	002081b3          	add	gp,ra,sp
   100fc:	80000eb7          	lui	t4,0x80000
   10100:	fffe8e9b          	addiw	t4,t4,-1
   10104:	00900e13          	li	t3,9
   10108:	47d19263          	bne	gp,t4,1056c <fail>

000000000001010c <test_10>:
   1010c:	800000b7          	lui	ra,0x80000
   10110:	fff0809b          	addiw	ra,ra,-1
   10114:	00008137          	lui	sp,0x8
   10118:	fff1011b          	addiw	sp,sp,-1
   1011c:	002081b3          	add	gp,ra,sp
   10120:	00010eb7          	lui	t4,0x10
   10124:	001e8e9b          	addiw	t4,t4,1
   10128:	00fe9e93          	slli	t4,t4,0xf
   1012c:	ffee8e93          	addi	t4,t4,-2 # fffe <coremarkBenchmark+0xff56>
   10130:	00a00e13          	li	t3,10
   10134:	43d19c63          	bne	gp,t4,1056c <fail>

0000000000010138 <test_11>:
   10138:	0010009b          	addiw	ra,zero,1
   1013c:	01f09093          	slli	ra,ra,0x1f
   10140:	00008137          	lui	sp,0x8
   10144:	fff1011b          	addiw	sp,sp,-1
   10148:	002081b3          	add	gp,ra,sp
   1014c:	00010eb7          	lui	t4,0x10
   10150:	001e8e9b          	addiw	t4,t4,1
   10154:	00fe9e93          	slli	t4,t4,0xf
   10158:	fffe8e93          	addi	t4,t4,-1 # ffff <coremarkBenchmark+0xff57>
   1015c:	00b00e13          	li	t3,11
   10160:	41d19663          	bne	gp,t4,1056c <fail>

0000000000010164 <test_12>:
   10164:	800000b7          	lui	ra,0x80000
   10168:	fff0809b          	addiw	ra,ra,-1
   1016c:	00020137          	lui	sp,0x20
   10170:	fff1011b          	addiw	sp,sp,-1
   10174:	00f11113          	slli	sp,sp,0xf
   10178:	002081b3          	add	gp,ra,sp
   1017c:	7fff8eb7          	lui	t4,0x7fff8
   10180:	fffe8e9b          	addiw	t4,t4,-1
   10184:	00c00e13          	li	t3,12
   10188:	3fd19263          	bne	gp,t4,1056c <fail>

000000000001018c <test_13>:
   1018c:	00000093          	li	ra,0
   10190:	0010011b          	addiw	sp,zero,1
   10194:	02011113          	slli	sp,sp,0x20
   10198:	fff10113          	addi	sp,sp,-1 # 1ffff <Arr_2_Glob+0x97f>
   1019c:	002081b3          	add	gp,ra,sp
   101a0:	00100e9b          	addiw	t4,zero,1
   101a4:	020e9e93          	slli	t4,t4,0x20
   101a8:	fffe8e93          	addi	t4,t4,-1 # 7fff7fff <heap_memory_used+0x7ffd5d47>
   101ac:	00d00e13          	li	t3,13
   101b0:	3bd19e63          	bne	gp,t4,1056c <fail>

00000000000101b4 <test_14>:
   101b4:	0010009b          	addiw	ra,zero,1
   101b8:	02009093          	slli	ra,ra,0x20
   101bc:	fff08093          	addi	ra,ra,-1 # ffffffff7fffffff <heap_memory_used+0xffffffff7ffddd47>
   101c0:	00100113          	li	sp,1
   101c4:	002081b3          	add	gp,ra,sp
   101c8:	00000e93          	li	t4,0
   101cc:	00e00e13          	li	t3,14
   101d0:	39d19e63          	bne	gp,t4,1056c <fail>

00000000000101d4 <test_15>:
   101d4:	0010009b          	addiw	ra,zero,1
   101d8:	02009093          	slli	ra,ra,0x20
   101dc:	fff08093          	addi	ra,ra,-1
   101e0:	0010011b          	addiw	sp,zero,1
   101e4:	02011113          	slli	sp,sp,0x20
   101e8:	fff10113          	addi	sp,sp,-1
   101ec:	002081b3          	add	gp,ra,sp
   101f0:	00100e9b          	addiw	t4,zero,1
   101f4:	020e9e93          	slli	t4,t4,0x20
   101f8:	ffee8e93          	addi	t4,t4,-2
   101fc:	00f00e13          	li	t3,15
   10200:	37d19663          	bne	gp,t4,1056c <fail>

0000000000010204 <test_16>:
   10204:	00100093          	li	ra,1
   10208:	80000137          	lui	sp,0x80000
   1020c:	fff1011b          	addiw	sp,sp,-1
   10210:	002081b3          	add	gp,ra,sp
   10214:	00100e9b          	addiw	t4,zero,1
   10218:	01fe9e93          	slli	t4,t4,0x1f
   1021c:	01000e13          	li	t3,16
   10220:	35d19663          	bne	gp,t4,1056c <fail>

0000000000010224 <test_17>:
   10224:	00d00093          	li	ra,13
   10228:	00b00113          	li	sp,11
   1022c:	002080b3          	add	ra,ra,sp
   10230:	01800e93          	li	t4,24
   10234:	01100e13          	li	t3,17
   10238:	33d09a63          	bne	ra,t4,1056c <fail>

000000000001023c <test_18>:
   1023c:	00e00093          	li	ra,14
   10240:	00b00113          	li	sp,11
   10244:	00208133          	add	sp,ra,sp
   10248:	01900e93          	li	t4,25
   1024c:	01200e13          	li	t3,18
   10250:	31d11e63          	bne	sp,t4,1056c <fail>

0000000000010254 <test_19>:
   10254:	00d00093          	li	ra,13
   10258:	001080b3          	add	ra,ra,ra
   1025c:	01a00e93          	li	t4,26
   10260:	01300e13          	li	t3,19
   10264:	31d09463          	bne	ra,t4,1056c <fail>

0000000000010268 <test_20>:
   10268:	00000213          	li	tp,0
   1026c:	00d00093          	li	ra,13
   10270:	00b00113          	li	sp,11
   10274:	002081b3          	add	gp,ra,sp
   10278:	00018313          	mv	t1,gp
   1027c:	00120213          	addi	tp,tp,1 # 1 <_start+0x1>
   10280:	00200293          	li	t0,2
   10284:	fe5214e3          	bne	tp,t0,1026c <test_20+0x4>
   10288:	01800e93          	li	t4,24
   1028c:	01400e13          	li	t3,20
   10290:	2dd31e63          	bne	t1,t4,1056c <fail>

0000000000010294 <test_21>:
   10294:	00000213          	li	tp,0
   10298:	00e00093          	li	ra,14
   1029c:	00b00113          	li	sp,11
   102a0:	002081b3          	add	gp,ra,sp
   102a4:	00000013          	nop
   102a8:	00018313          	mv	t1,gp
   102ac:	00120213          	addi	tp,tp,1 # 1 <_start+0x1>
   102b0:	00200293          	li	t0,2
   102b4:	fe5212e3          	bne	tp,t0,10298 <test_21+0x4>
   102b8:	01900e93          	li	t4,25
   102bc:	01500e13          	li	t3,21
   102c0:	2bd31663          	bne	t1,t4,1056c <fail>

00000000000102c4 <test_22>:
   102c4:	00000213          	li	tp,0
   102c8:	00f00093          	li	ra,15
   102cc:	00b00113          	li	sp,11
   102d0:	002081b3          	add	gp,ra,sp
   102d4:	00000013          	nop
   102d8:	00000013          	nop
   102dc:	00018313          	mv	t1,gp
   102e0:	00120213          	addi	tp,tp,1 # 1 <_start+0x1>
   102e4:	00200293          	li	t0,2
   102e8:	fe5210e3          	bne	tp,t0,102c8 <test_22+0x4>
   102ec:	01a00e93          	li	t4,26
   102f0:	01600e13          	li	t3,22
   102f4:	27d31c63          	bne	t1,t4,1056c <fail>

00000000000102f8 <test_23>:
   102f8:	00000213          	li	tp,0
   102fc:	00d00093          	li	ra,13
   10300:	00b00113          	li	sp,11
   10304:	002081b3          	add	gp,ra,sp
   10308:	00120213          	addi	tp,tp,1 # 1 <_start+0x1>
   1030c:	00200293          	li	t0,2
   10310:	fe5216e3          	bne	tp,t0,102fc <test_23+0x4>
   10314:	01800e93          	li	t4,24
   10318:	01700e13          	li	t3,23
   1031c:	25d19863          	bne	gp,t4,1056c <fail>

0000000000010320 <test_24>:
   10320:	00000213          	li	tp,0
   10324:	00e00093          	li	ra,14
   10328:	00b00113          	li	sp,11
   1032c:	00000013          	nop
   10330:	002081b3          	add	gp,ra,sp
   10334:	00120213          	addi	tp,tp,1 # 1 <_start+0x1>
   10338:	00200293          	li	t0,2
   1033c:	fe5214e3          	bne	tp,t0,10324 <test_24+0x4>
   10340:	01900e93          	li	t4,25
   10344:	01800e13          	li	t3,24
   10348:	23d19263          	bne	gp,t4,1056c <fail>

000000000001034c <test_25>:
   1034c:	00000213          	li	tp,0
   10350:	00f00093          	li	ra,15
   10354:	00b00113          	li	sp,11
   10358:	00000013          	nop
   1035c:	00000013          	nop
   10360:	002081b3          	add	gp,ra,sp
   10364:	00120213          	addi	tp,tp,1 # 1 <_start+0x1>
   10368:	00200293          	li	t0,2
   1036c:	fe5212e3          	bne	tp,t0,10350 <test_25+0x4>
   10370:	01a00e93          	li	t4,26
   10374:	01900e13          	li	t3,25
   10378:	1fd19a63          	bne	gp,t4,1056c <fail>

000000000001037c <test_26>:
   1037c:	00000213          	li	tp,0
   10380:	00d00093          	li	ra,13
   10384:	00000013          	nop
   10388:	00b00113          	li	sp,11
   1038c:	002081b3          	add	gp,ra,sp
   10390:	00120213          	addi	tp,tp,1 # 1 <_start+0x1>
   10394:	00200293          	li	t0,2
   10398:	fe5214e3          	bne	tp,t0,10380 <test_26+0x4>
   1039c:	01800e93          	li	t4,24
   103a0:	01a00e13          	li	t3,26
   103a4:	1dd19463          	bne	gp,t4,1056c <fail>

00000000000103a8 <test_27>:
   103a8:	00000213          	li	tp,0
   103ac:	00e00093          	li	ra,14
   103b0:	00000013          	nop
   103b4:	00b00113          	li	sp,11
   103b8:	00000013          	nop
   103bc:	002081b3          	add	gp,ra,sp
   103c0:	00120213          	addi	tp,tp,1 # 1 <_start+0x1>
   103c4:	00200293          	li	t0,2
   103c8:	fe5212e3          	bne	tp,t0,103ac <test_27+0x4>
   103cc:	01900e93          	li	t4,25
   103d0:	01b00e13          	li	t3,27
   103d4:	19d19c63          	bne	gp,t4,1056c <fail>

00000000000103d8 <test_28>:
   103d8:	00000213          	li	tp,0
   103dc:	00f00093          	li	ra,15
   103e0:	00000013          	nop
   103e4:	00000013          	nop
   103e8:	00b00113          	li	sp,11
   103ec:	002081b3          	add	gp,ra,sp
   103f0:	00120213          	addi	tp,tp,1 # 1 <_start+0x1>
   103f4:	00200293          	li	t0,2
   103f8:	fe5212e3          	bne	tp,t0,103dc <test_28+0x4>
   103fc:	01a00e93          	li	t4,26
   10400:	01c00e13          	li	t3,28
   10404:	17d19463          	bne	gp,t4,1056c <fail>

0000000000010408 <test_29>:
   10408:	00000213          	li	tp,0
   1040c:	00b00113          	li	sp,11
   10410:	00d00093          	li	ra,13
   10414:	002081b3          	add	gp,ra,sp
   10418:	00120213          	addi	tp,tp,1 # 1 <_start+0x1>
   1041c:	00200293          	li	t0,2
   10420:	fe5216e3          	bne	tp,t0,1040c <test_29+0x4>
   10424:	01800e93          	li	t4,24
   10428:	01d00e13          	li	t3,29
   1042c:	15d19063          	bne	gp,t4,1056c <fail>

0000000000010430 <test_30>:
   10430:	00000213          	li	tp,0
   10434:	00b00113          	li	sp,11
   10438:	00e00093          	li	ra,14
   1043c:	00000013          	nop
   10440:	002081b3          	add	gp,ra,sp
   10444:	00120213          	addi	tp,tp,1 # 1 <_start+0x1>
   10448:	00200293          	li	t0,2
   1044c:	fe5214e3          	bne	tp,t0,10434 <test_30+0x4>
   10450:	01900e93          	li	t4,25
   10454:	01e00e13          	li	t3,30
   10458:	11d19a63          	bne	gp,t4,1056c <fail>

000000000001045c <test_31>:
   1045c:	00000213          	li	tp,0
   10460:	00b00113          	li	sp,11
   10464:	00f00093          	li	ra,15
   10468:	00000013          	nop
   1046c:	00000013          	nop
   10470:	002081b3          	add	gp,ra,sp
   10474:	00120213          	addi	tp,tp,1 # 1 <_start+0x1>
   10478:	00200293          	li	t0,2
   1047c:	fe5212e3          	bne	tp,t0,10460 <test_31+0x4>
   10480:	01a00e93          	li	t4,26
   10484:	01f00e13          	li	t3,31
   10488:	0fd19263          	bne	gp,t4,1056c <fail>

000000000001048c <test_32>:
   1048c:	00000213          	li	tp,0
   10490:	00b00113          	li	sp,11
   10494:	00000013          	nop
   10498:	00d00093          	li	ra,13
   1049c:	002081b3          	add	gp,ra,sp
   104a0:	00120213          	addi	tp,tp,1 # 1 <_start+0x1>
   104a4:	00200293          	li	t0,2
   104a8:	fe5214e3          	bne	tp,t0,10490 <test_32+0x4>
   104ac:	01800e93          	li	t4,24
   104b0:	02000e13          	li	t3,32
   104b4:	0bd19c63          	bne	gp,t4,1056c <fail>

00000000000104b8 <test_33>:
   104b8:	00000213          	li	tp,0
   104bc:	00b00113          	li	sp,11
   104c0:	00000013          	nop
   104c4:	00e00093          	li	ra,14
   104c8:	00000013          	nop
   104cc:	002081b3          	add	gp,ra,sp
   104d0:	00120213          	addi	tp,tp,1 # 1 <_start+0x1>
   104d4:	00200293          	li	t0,2
   104d8:	fe5212e3          	bne	tp,t0,104bc <test_33+0x4>
   104dc:	01900e93          	li	t4,25
   104e0:	02100e13          	li	t3,33
   104e4:	09d19463          	bne	gp,t4,1056c <fail>

00000000000104e8 <test_34>:
   104e8:	00000213          	li	tp,0
   104ec:	00b00113          	li	sp,11
   104f0:	00000013          	nop
   104f4:	00000013          	nop
   104f8:	00f00093          	li	ra,15
   104fc:	002081b3          	add	gp,ra,sp
   10500:	00120213          	addi	tp,tp,1 # 1 <_start+0x1>
   10504:	00200293          	li	t0,2
   10508:	fe5212e3          	bne	tp,t0,104ec <test_34+0x4>
   1050c:	01a00e93          	li	t4,26
   10510:	02200e13          	li	t3,34
   10514:	05d19c63          	bne	gp,t4,1056c <fail>

0000000000010518 <test_35>:
   10518:	00f00093          	li	ra,15
   1051c:	00100133          	add	sp,zero,ra
   10520:	00f00e93          	li	t4,15
   10524:	02300e13          	li	t3,35
   10528:	05d11263          	bne	sp,t4,1056c <fail>

000000000001052c <test_36>:
   1052c:	02000093          	li	ra,32
   10530:	00008133          	add	sp,ra,zero
   10534:	02000e93          	li	t4,32
   10538:	02400e13          	li	t3,36
   1053c:	03d11863          	bne	sp,t4,1056c <fail>

0000000000010540 <test_37>:
   10540:	000000b3          	add	ra,zero,zero
   10544:	00000e93          	li	t4,0
   10548:	02500e13          	li	t3,37
   1054c:	03d09063          	bne	ra,t4,1056c <fail>

0000000000010550 <test_38>:
   10550:	01000093          	li	ra,16
   10554:	01e00113          	li	sp,30
   10558:	00208033          	add	zero,ra,sp
   1055c:	00000e93          	li	t4,0
   10560:	02600e13          	li	t3,38
   10564:	01d01463          	bne	zero,t4,1056c <fail>
   10568:	05c01863          	bne	zero,t3,105b8 <pass>

000000000001056c <fail>:
   1056c:	04500513          	li	a0,69
   10570:	00004137          	lui	sp,0x4
   10574:	1950d0ef          	jal	ra,1df08 <printf_c>
   10578:	05200513          	li	a0,82
   1057c:	00004137          	lui	sp,0x4
   10580:	1890d0ef          	jal	ra,1df08 <printf_c>
   10584:	00004137          	lui	sp,0x4
   10588:	1810d0ef          	jal	ra,1df08 <printf_c>
   1058c:	04f00513          	li	a0,79
   10590:	00004137          	lui	sp,0x4
   10594:	1750d0ef          	jal	ra,1df08 <printf_c>
   10598:	00004137          	lui	sp,0x4
   1059c:	05200513          	li	a0,82
   105a0:	00004137          	lui	sp,0x4
   105a4:	1650d0ef          	jal	ra,1df08 <printf_c>
   105a8:	00a00513          	li	a0,10
   105ac:	00004137          	lui	sp,0x4
   105b0:	1590d0ef          	jal	ra,1df08 <printf_c>
   105b4:	0340006f          	j	105e8 <addi>

00000000000105b8 <pass>:
   105b8:	04f00513          	li	a0,79
   105bc:	00004137          	lui	sp,0x4
   105c0:	1490d0ef          	jal	ra,1df08 <printf_c>
   105c4:	04b00513          	li	a0,75
   105c8:	00004137          	lui	sp,0x4
   105cc:	13d0d0ef          	jal	ra,1df08 <printf_c>
   105d0:	00a00513          	li	a0,10
   105d4:	00004137          	lui	sp,0x4
   105d8:	1310d0ef          	jal	ra,1df08 <printf_c>
   105dc:	00c0006f          	j	105e8 <addi>

00000000000105e0 <.test_name>:
   105e0:	6461                	lui	s0,0x18
   105e2:	6964                	ld	s1,208(a0)
   105e4:	0920                	addi	s0,sp,152
	...

00000000000105e8 <addi>:
   105e8:	00010537          	lui	a0,0x10
   105ec:	5e050513          	addi	a0,a0,1504 # 105e0 <.test_name>

00000000000105f0 <.prname_next>:
   105f0:	00004137          	lui	sp,0x4
   105f4:	1410d0ef          	jal	ra,1df34 <printf_s>

00000000000105f8 <test_2>:
   105f8:	00000093          	li	ra,0
   105fc:	00008193          	mv	gp,ra
   10600:	00000e93          	li	t4,0
   10604:	00200e13          	li	t3,2
   10608:	2bd19e63          	bne	gp,t4,108c4 <fail>

000000000001060c <test_3>:
   1060c:	00100093          	li	ra,1
   10610:	00108193          	addi	gp,ra,1
   10614:	00200e93          	li	t4,2
   10618:	00300e13          	li	t3,3
   1061c:	2bd19463          	bne	gp,t4,108c4 <fail>

0000000000010620 <test_4>:
   10620:	00300093          	li	ra,3
   10624:	00708193          	addi	gp,ra,7
   10628:	00a00e93          	li	t4,10
   1062c:	00400e13          	li	t3,4
   10630:	29d19a63          	bne	gp,t4,108c4 <fail>

0000000000010634 <test_5>:
   10634:	00000093          	li	ra,0
   10638:	80008193          	addi	gp,ra,-2048
   1063c:	00100e9b          	addiw	t4,zero,1
   10640:	020e9e93          	slli	t4,t4,0x20
   10644:	800e8e93          	addi	t4,t4,-2048
   10648:	00500e13          	li	t3,5
   1064c:	27d19c63          	bne	gp,t4,108c4 <fail>

0000000000010650 <test_6>:
   10650:	0010009b          	addiw	ra,zero,1
   10654:	01f09093          	slli	ra,ra,0x1f
   10658:	00008193          	mv	gp,ra
   1065c:	00100e9b          	addiw	t4,zero,1
   10660:	01fe9e93          	slli	t4,t4,0x1f
   10664:	00600e13          	li	t3,6
   10668:	25d19e63          	bne	gp,t4,108c4 <fail>

000000000001066c <test_7>:
   1066c:	0010009b          	addiw	ra,zero,1
   10670:	01f09093          	slli	ra,ra,0x1f
   10674:	80008193          	addi	gp,ra,-2048
   10678:	80000eb7          	lui	t4,0x80000
   1067c:	800e8e9b          	addiw	t4,t4,-2048
   10680:	00700e13          	li	t3,7
   10684:	25d19063          	bne	gp,t4,108c4 <fail>

0000000000010688 <test_8>:
   10688:	00000093          	li	ra,0
   1068c:	7ff08193          	addi	gp,ra,2047
   10690:	7ff00e93          	li	t4,2047
   10694:	00800e13          	li	t3,8
   10698:	23d19663          	bne	gp,t4,108c4 <fail>

000000000001069c <test_9>:
   1069c:	800000b7          	lui	ra,0x80000
   106a0:	fff0809b          	addiw	ra,ra,-1
   106a4:	00008193          	mv	gp,ra
   106a8:	80000eb7          	lui	t4,0x80000
   106ac:	fffe8e9b          	addiw	t4,t4,-1
   106b0:	00900e13          	li	t3,9
   106b4:	21d19863          	bne	gp,t4,108c4 <fail>

00000000000106b8 <test_10>:
   106b8:	800000b7          	lui	ra,0x80000
   106bc:	fff0809b          	addiw	ra,ra,-1
   106c0:	7ff08193          	addi	gp,ra,2047 # ffffffff800007ff <heap_memory_used+0xffffffff7ffde547>
   106c4:	00100e9b          	addiw	t4,zero,1
   106c8:	01fe9e93          	slli	t4,t4,0x1f
   106cc:	7fee8e93          	addi	t4,t4,2046 # ffffffff800007fe <heap_memory_used+0xffffffff7ffde546>
   106d0:	00a00e13          	li	t3,10
   106d4:	1fd19863          	bne	gp,t4,108c4 <fail>

00000000000106d8 <test_11>:
   106d8:	0010009b          	addiw	ra,zero,1
   106dc:	01f09093          	slli	ra,ra,0x1f
   106e0:	7ff08193          	addi	gp,ra,2047
   106e4:	00100e9b          	addiw	t4,zero,1
   106e8:	01fe9e93          	slli	t4,t4,0x1f
   106ec:	7ffe8e93          	addi	t4,t4,2047
   106f0:	00b00e13          	li	t3,11
   106f4:	1dd19863          	bne	gp,t4,108c4 <fail>

00000000000106f8 <test_12>:
   106f8:	800000b7          	lui	ra,0x80000
   106fc:	fff0809b          	addiw	ra,ra,-1
   10700:	80008193          	addi	gp,ra,-2048 # ffffffff7ffff800 <heap_memory_used+0xffffffff7ffdd548>
   10704:	7ffffeb7          	lui	t4,0x7ffff
   10708:	7ffe8e9b          	addiw	t4,t4,2047
   1070c:	00c00e13          	li	t3,12
   10710:	1bd19a63          	bne	gp,t4,108c4 <fail>

0000000000010714 <test_13>:
   10714:	00000093          	li	ra,0
   10718:	fff08193          	addi	gp,ra,-1
   1071c:	00100e9b          	addiw	t4,zero,1
   10720:	020e9e93          	slli	t4,t4,0x20
   10724:	fffe8e93          	addi	t4,t4,-1 # 7fffefff <heap_memory_used+0x7ffdcd47>
   10728:	00d00e13          	li	t3,13
   1072c:	19d19c63          	bne	gp,t4,108c4 <fail>

0000000000010730 <test_14>:
   10730:	0010009b          	addiw	ra,zero,1
   10734:	02009093          	slli	ra,ra,0x20
   10738:	fff08093          	addi	ra,ra,-1
   1073c:	00108193          	addi	gp,ra,1
   10740:	00000e93          	li	t4,0
   10744:	00e00e13          	li	t3,14
   10748:	17d19e63          	bne	gp,t4,108c4 <fail>

000000000001074c <test_15>:
   1074c:	0010009b          	addiw	ra,zero,1
   10750:	02009093          	slli	ra,ra,0x20
   10754:	fff08093          	addi	ra,ra,-1
   10758:	fff08193          	addi	gp,ra,-1
   1075c:	00100e9b          	addiw	t4,zero,1
   10760:	020e9e93          	slli	t4,t4,0x20
   10764:	ffee8e93          	addi	t4,t4,-2
   10768:	00f00e13          	li	t3,15
   1076c:	15d19c63          	bne	gp,t4,108c4 <fail>

0000000000010770 <test_16>:
   10770:	800000b7          	lui	ra,0x80000
   10774:	fff0809b          	addiw	ra,ra,-1
   10778:	00108193          	addi	gp,ra,1 # ffffffff80000001 <heap_memory_used+0xffffffff7ffddd49>
   1077c:	00100e9b          	addiw	t4,zero,1
   10780:	01fe9e93          	slli	t4,t4,0x1f
   10784:	01000e13          	li	t3,16
   10788:	13d19e63          	bne	gp,t4,108c4 <fail>

000000000001078c <test_17>:
   1078c:	00d00093          	li	ra,13
   10790:	00b08093          	addi	ra,ra,11
   10794:	01800e93          	li	t4,24
   10798:	01100e13          	li	t3,17
   1079c:	13d09463          	bne	ra,t4,108c4 <fail>

00000000000107a0 <test_18>:
   107a0:	00000213          	li	tp,0
   107a4:	00d00093          	li	ra,13
   107a8:	00b08193          	addi	gp,ra,11
   107ac:	00018313          	mv	t1,gp
   107b0:	00120213          	addi	tp,tp,1 # 1 <_start+0x1>
   107b4:	00200293          	li	t0,2
   107b8:	fe5216e3          	bne	tp,t0,107a4 <test_18+0x4>
   107bc:	01800e93          	li	t4,24
   107c0:	01200e13          	li	t3,18
   107c4:	11d31063          	bne	t1,t4,108c4 <fail>

00000000000107c8 <test_19>:
   107c8:	00000213          	li	tp,0
   107cc:	00d00093          	li	ra,13
   107d0:	00a08193          	addi	gp,ra,10
   107d4:	00000013          	nop
   107d8:	00018313          	mv	t1,gp
   107dc:	00120213          	addi	tp,tp,1 # 1 <_start+0x1>
   107e0:	00200293          	li	t0,2
   107e4:	fe5214e3          	bne	tp,t0,107cc <test_19+0x4>
   107e8:	01700e93          	li	t4,23
   107ec:	01300e13          	li	t3,19
   107f0:	0dd31a63          	bne	t1,t4,108c4 <fail>

00000000000107f4 <test_20>:
   107f4:	00000213          	li	tp,0
   107f8:	00d00093          	li	ra,13
   107fc:	00908193          	addi	gp,ra,9
   10800:	00000013          	nop
   10804:	00000013          	nop
   10808:	00018313          	mv	t1,gp
   1080c:	00120213          	addi	tp,tp,1 # 1 <_start+0x1>
   10810:	00200293          	li	t0,2
   10814:	fe5212e3          	bne	tp,t0,107f8 <test_20+0x4>
   10818:	01600e93          	li	t4,22
   1081c:	01400e13          	li	t3,20
   10820:	0bd31263          	bne	t1,t4,108c4 <fail>

0000000000010824 <test_21>:
   10824:	00000213          	li	tp,0
   10828:	00d00093          	li	ra,13
   1082c:	00b08193          	addi	gp,ra,11
   10830:	00120213          	addi	tp,tp,1 # 1 <_start+0x1>
   10834:	00200293          	li	t0,2
   10838:	fe5218e3          	bne	tp,t0,10828 <test_21+0x4>
   1083c:	01800e93          	li	t4,24
   10840:	01500e13          	li	t3,21
   10844:	09d19063          	bne	gp,t4,108c4 <fail>

0000000000010848 <test_22>:
   10848:	00000213          	li	tp,0
   1084c:	00d00093          	li	ra,13
   10850:	00000013          	nop
   10854:	00a08193          	addi	gp,ra,10
   10858:	00120213          	addi	tp,tp,1 # 1 <_start+0x1>
   1085c:	00200293          	li	t0,2
   10860:	fe5216e3          	bne	tp,t0,1084c <test_22+0x4>
   10864:	01700e93          	li	t4,23
   10868:	01600e13          	li	t3,22
   1086c:	05d19c63          	bne	gp,t4,108c4 <fail>

0000000000010870 <test_23>:
   10870:	00000213          	li	tp,0
   10874:	00d00093          	li	ra,13
   10878:	00000013          	nop
   1087c:	00000013          	nop
   10880:	00908193          	addi	gp,ra,9
   10884:	00120213          	addi	tp,tp,1 # 1 <_start+0x1>
   10888:	00200293          	li	t0,2
   1088c:	fe5214e3          	bne	tp,t0,10874 <test_23+0x4>
   10890:	01600e93          	li	t4,22
   10894:	01700e13          	li	t3,23
   10898:	03d19663          	bne	gp,t4,108c4 <fail>

000000000001089c <test_24>:
   1089c:	02000093          	li	ra,32
   108a0:	02000e93          	li	t4,32
   108a4:	01800e13          	li	t3,24
   108a8:	01d09e63          	bne	ra,t4,108c4 <fail>

00000000000108ac <test_25>:
   108ac:	02100093          	li	ra,33
   108b0:	03208013          	addi	zero,ra,50
   108b4:	00000e93          	li	t4,0
   108b8:	01900e13          	li	t3,25
   108bc:	01d01463          	bne	zero,t4,108c4 <fail>
   108c0:	05c01863          	bne	zero,t3,10910 <pass>

00000000000108c4 <fail>:
   108c4:	04500513          	li	a0,69
   108c8:	00004137          	lui	sp,0x4
   108cc:	63c0d0ef          	jal	ra,1df08 <printf_c>
   108d0:	05200513          	li	a0,82
   108d4:	00004137          	lui	sp,0x4
   108d8:	6300d0ef          	jal	ra,1df08 <printf_c>
   108dc:	00004137          	lui	sp,0x4
   108e0:	6280d0ef          	jal	ra,1df08 <printf_c>
   108e4:	04f00513          	li	a0,79
   108e8:	00004137          	lui	sp,0x4
   108ec:	61c0d0ef          	jal	ra,1df08 <printf_c>
   108f0:	00004137          	lui	sp,0x4
   108f4:	05200513          	li	a0,82
   108f8:	00004137          	lui	sp,0x4
   108fc:	60c0d0ef          	jal	ra,1df08 <printf_c>
   10900:	00a00513          	li	a0,10
   10904:	00004137          	lui	sp,0x4
   10908:	6000d0ef          	jal	ra,1df08 <printf_c>
   1090c:	0340006f          	j	10940 <and>

0000000000010910 <pass>:
   10910:	04f00513          	li	a0,79
   10914:	00004137          	lui	sp,0x4
   10918:	5f00d0ef          	jal	ra,1df08 <printf_c>
   1091c:	04b00513          	li	a0,75
   10920:	00004137          	lui	sp,0x4
   10924:	5e40d0ef          	jal	ra,1df08 <printf_c>
   10928:	00a00513          	li	a0,10
   1092c:	00004137          	lui	sp,0x4
   10930:	5d80d0ef          	jal	ra,1df08 <printf_c>
   10934:	00c0006f          	j	10940 <and>

0000000000010938 <.test_name>:
   10938:	6e61                	lui	t3,0x18
   1093a:	2064                	fld	fs1,192(s0)
   1093c:	0009                	c.addi	zero,2
	...

0000000000010940 <and>:
   10940:	00011537          	lui	a0,0x11
   10944:	93850513          	addi	a0,a0,-1736 # 10938 <.test_name>

0000000000010948 <.prname_next>:
   10948:	00004137          	lui	sp,0x4
   1094c:	5e80d0ef          	jal	ra,1df34 <printf_s>

0000000000010950 <test_2>:
   10950:	000100b7          	lui	ra,0x10
   10954:	f010809b          	addiw	ra,ra,-255
   10958:	01009093          	slli	ra,ra,0x10
   1095c:	f0008093          	addi	ra,ra,-256 # ff00 <coremarkBenchmark+0xfe58>
   10960:	0f0f1137          	lui	sp,0xf0f1
   10964:	f0f1011b          	addiw	sp,sp,-241
   10968:	0020f1b3          	and	gp,ra,sp
   1096c:	0f001eb7          	lui	t4,0xf001
   10970:	f00e8e9b          	addiw	t4,t4,-256
   10974:	00200e13          	li	t3,2
   10978:	53d19863          	bne	gp,t4,10ea8 <fail>

000000000001097c <test_3>:
   1097c:	0ff010b7          	lui	ra,0xff01
   10980:	ff00809b          	addiw	ra,ra,-16
   10984:	000f1137          	lui	sp,0xf1
   10988:	f0f1011b          	addiw	sp,sp,-241
   1098c:	00c11113          	slli	sp,sp,0xc
   10990:	0f010113          	addi	sp,sp,240 # f10f0 <heap_memory_used+0xcee38>
   10994:	0020f1b3          	and	gp,ra,sp
   10998:	00f00eb7          	lui	t4,0xf00
   1099c:	0f0e8e9b          	addiw	t4,t4,240
   109a0:	00300e13          	li	t3,3
   109a4:	51d19263          	bne	gp,t4,10ea8 <fail>

00000000000109a8 <test_4>:
   109a8:	00ff00b7          	lui	ra,0xff0
   109ac:	0ff0809b          	addiw	ra,ra,255
   109b0:	0f0f1137          	lui	sp,0xf0f1
   109b4:	f0f1011b          	addiw	sp,sp,-241
   109b8:	0020f1b3          	and	gp,ra,sp
   109bc:	000f0eb7          	lui	t4,0xf0
   109c0:	00fe8e9b          	addiw	t4,t4,15
   109c4:	00400e13          	li	t3,4
   109c8:	4fd19063          	bne	gp,t4,10ea8 <fail>

00000000000109cc <test_5>:
   109cc:	000f00b7          	lui	ra,0xf0
   109d0:	0ff0809b          	addiw	ra,ra,255
   109d4:	00c09093          	slli	ra,ra,0xc
   109d8:	00f08093          	addi	ra,ra,15 # f000f <heap_memory_used+0xcdd57>
   109dc:	000f1137          	lui	sp,0xf1
   109e0:	f0f1011b          	addiw	sp,sp,-241
   109e4:	00c11113          	slli	sp,sp,0xc
   109e8:	0f010113          	addi	sp,sp,240 # f10f0 <heap_memory_used+0xcee38>
   109ec:	0020f1b3          	and	gp,ra,sp
   109f0:	000f0eb7          	lui	t4,0xf0
   109f4:	00fe8e9b          	addiw	t4,t4,15
   109f8:	00ce9e93          	slli	t4,t4,0xc
   109fc:	00500e13          	li	t3,5
   10a00:	4bd19463          	bne	gp,t4,10ea8 <fail>

0000000000010a04 <test_6>:
   10a04:	000100b7          	lui	ra,0x10
   10a08:	f010809b          	addiw	ra,ra,-255
   10a0c:	01009093          	slli	ra,ra,0x10
   10a10:	f0008093          	addi	ra,ra,-256 # ff00 <coremarkBenchmark+0xfe58>
   10a14:	0f0f1137          	lui	sp,0xf0f1
   10a18:	f0f1011b          	addiw	sp,sp,-241
   10a1c:	0020f0b3          	and	ra,ra,sp
   10a20:	0f001eb7          	lui	t4,0xf001
   10a24:	f00e8e9b          	addiw	t4,t4,-256
   10a28:	00600e13          	li	t3,6
   10a2c:	47d09e63          	bne	ra,t4,10ea8 <fail>

0000000000010a30 <test_7>:
   10a30:	0ff010b7          	lui	ra,0xff01
   10a34:	ff00809b          	addiw	ra,ra,-16
   10a38:	000f1137          	lui	sp,0xf1
   10a3c:	f0f1011b          	addiw	sp,sp,-241
   10a40:	00c11113          	slli	sp,sp,0xc
   10a44:	0f010113          	addi	sp,sp,240 # f10f0 <heap_memory_used+0xcee38>
   10a48:	0020f133          	and	sp,ra,sp
   10a4c:	00f00eb7          	lui	t4,0xf00
   10a50:	0f0e8e9b          	addiw	t4,t4,240
   10a54:	00700e13          	li	t3,7
   10a58:	45d11863          	bne	sp,t4,10ea8 <fail>

0000000000010a5c <test_8>:
   10a5c:	000100b7          	lui	ra,0x10
   10a60:	f010809b          	addiw	ra,ra,-255
   10a64:	01009093          	slli	ra,ra,0x10
   10a68:	f0008093          	addi	ra,ra,-256 # ff00 <coremarkBenchmark+0xfe58>
   10a6c:	0010f0b3          	and	ra,ra,ra
   10a70:	00010eb7          	lui	t4,0x10
   10a74:	f01e8e9b          	addiw	t4,t4,-255
   10a78:	010e9e93          	slli	t4,t4,0x10
   10a7c:	f00e8e93          	addi	t4,t4,-256 # ff00 <coremarkBenchmark+0xfe58>
   10a80:	00800e13          	li	t3,8
   10a84:	43d09263          	bne	ra,t4,10ea8 <fail>

0000000000010a88 <test_9>:
   10a88:	00000213          	li	tp,0
   10a8c:	000100b7          	lui	ra,0x10
   10a90:	f010809b          	addiw	ra,ra,-255
   10a94:	01009093          	slli	ra,ra,0x10
   10a98:	f0008093          	addi	ra,ra,-256 # ff00 <coremarkBenchmark+0xfe58>
   10a9c:	0f0f1137          	lui	sp,0xf0f1
   10aa0:	f0f1011b          	addiw	sp,sp,-241
   10aa4:	0020f1b3          	and	gp,ra,sp
   10aa8:	00018313          	mv	t1,gp
   10aac:	00120213          	addi	tp,tp,1 # 1 <_start+0x1>
   10ab0:	00200293          	li	t0,2
   10ab4:	fc521ce3          	bne	tp,t0,10a8c <test_9+0x4>
   10ab8:	0f001eb7          	lui	t4,0xf001
   10abc:	f00e8e9b          	addiw	t4,t4,-256
   10ac0:	00900e13          	li	t3,9
   10ac4:	3fd31263          	bne	t1,t4,10ea8 <fail>

0000000000010ac8 <test_10>:
   10ac8:	00000213          	li	tp,0
   10acc:	0ff010b7          	lui	ra,0xff01
   10ad0:	ff00809b          	addiw	ra,ra,-16
   10ad4:	000f1137          	lui	sp,0xf1
   10ad8:	f0f1011b          	addiw	sp,sp,-241
   10adc:	00c11113          	slli	sp,sp,0xc
   10ae0:	0f010113          	addi	sp,sp,240 # f10f0 <heap_memory_used+0xcee38>
   10ae4:	0020f1b3          	and	gp,ra,sp
   10ae8:	00000013          	nop
   10aec:	00018313          	mv	t1,gp
   10af0:	00120213          	addi	tp,tp,1 # 1 <_start+0x1>
   10af4:	00200293          	li	t0,2
   10af8:	fc521ae3          	bne	tp,t0,10acc <test_10+0x4>
   10afc:	00f00eb7          	lui	t4,0xf00
   10b00:	0f0e8e9b          	addiw	t4,t4,240
   10b04:	00a00e13          	li	t3,10
   10b08:	3bd31063          	bne	t1,t4,10ea8 <fail>

0000000000010b0c <test_11>:
   10b0c:	00000213          	li	tp,0
   10b10:	00ff00b7          	lui	ra,0xff0
   10b14:	0ff0809b          	addiw	ra,ra,255
   10b18:	0f0f1137          	lui	sp,0xf0f1
   10b1c:	f0f1011b          	addiw	sp,sp,-241
   10b20:	0020f1b3          	and	gp,ra,sp
   10b24:	00000013          	nop
   10b28:	00000013          	nop
   10b2c:	00018313          	mv	t1,gp
   10b30:	00120213          	addi	tp,tp,1 # 1 <_start+0x1>
   10b34:	00200293          	li	t0,2
   10b38:	fc521ce3          	bne	tp,t0,10b10 <test_11+0x4>
   10b3c:	000f0eb7          	lui	t4,0xf0
   10b40:	00fe8e9b          	addiw	t4,t4,15
   10b44:	00b00e13          	li	t3,11
   10b48:	37d31063          	bne	t1,t4,10ea8 <fail>

0000000000010b4c <test_12>:
   10b4c:	00000213          	li	tp,0
   10b50:	000100b7          	lui	ra,0x10
   10b54:	f010809b          	addiw	ra,ra,-255
   10b58:	01009093          	slli	ra,ra,0x10
   10b5c:	f0008093          	addi	ra,ra,-256 # ff00 <coremarkBenchmark+0xfe58>
   10b60:	0f0f1137          	lui	sp,0xf0f1
   10b64:	f0f1011b          	addiw	sp,sp,-241
   10b68:	0020f1b3          	and	gp,ra,sp
   10b6c:	00120213          	addi	tp,tp,1 # 1 <_start+0x1>
   10b70:	00200293          	li	t0,2
   10b74:	fc521ee3          	bne	tp,t0,10b50 <test_12+0x4>
   10b78:	0f001eb7          	lui	t4,0xf001
   10b7c:	f00e8e9b          	addiw	t4,t4,-256
   10b80:	00c00e13          	li	t3,12
   10b84:	33d19263          	bne	gp,t4,10ea8 <fail>

0000000000010b88 <test_13>:
   10b88:	00000213          	li	tp,0
   10b8c:	0ff010b7          	lui	ra,0xff01
   10b90:	ff00809b          	addiw	ra,ra,-16
   10b94:	000f1137          	lui	sp,0xf1
   10b98:	f0f1011b          	addiw	sp,sp,-241
   10b9c:	00c11113          	slli	sp,sp,0xc
   10ba0:	0f010113          	addi	sp,sp,240 # f10f0 <heap_memory_used+0xcee38>
   10ba4:	00000013          	nop
   10ba8:	0020f1b3          	and	gp,ra,sp
   10bac:	00120213          	addi	tp,tp,1 # 1 <_start+0x1>
   10bb0:	00200293          	li	t0,2
   10bb4:	fc521ce3          	bne	tp,t0,10b8c <test_13+0x4>
   10bb8:	00f00eb7          	lui	t4,0xf00
   10bbc:	0f0e8e9b          	addiw	t4,t4,240
   10bc0:	00d00e13          	li	t3,13
   10bc4:	2fd19263          	bne	gp,t4,10ea8 <fail>

0000000000010bc8 <test_14>:
   10bc8:	00000213          	li	tp,0
   10bcc:	00ff00b7          	lui	ra,0xff0
   10bd0:	0ff0809b          	addiw	ra,ra,255
   10bd4:	0f0f1137          	lui	sp,0xf0f1
   10bd8:	f0f1011b          	addiw	sp,sp,-241
   10bdc:	00000013          	nop
   10be0:	00000013          	nop
   10be4:	0020f1b3          	and	gp,ra,sp
   10be8:	00120213          	addi	tp,tp,1 # 1 <_start+0x1>
   10bec:	00200293          	li	t0,2
   10bf0:	fc521ee3          	bne	tp,t0,10bcc <test_14+0x4>
   10bf4:	000f0eb7          	lui	t4,0xf0
   10bf8:	00fe8e9b          	addiw	t4,t4,15
   10bfc:	00e00e13          	li	t3,14
   10c00:	2bd19463          	bne	gp,t4,10ea8 <fail>

0000000000010c04 <test_15>:
   10c04:	00000213          	li	tp,0
   10c08:	000100b7          	lui	ra,0x10
   10c0c:	f010809b          	addiw	ra,ra,-255
   10c10:	01009093          	slli	ra,ra,0x10
   10c14:	f0008093          	addi	ra,ra,-256 # ff00 <coremarkBenchmark+0xfe58>
   10c18:	00000013          	nop
   10c1c:	0f0f1137          	lui	sp,0xf0f1
   10c20:	f0f1011b          	addiw	sp,sp,-241
   10c24:	0020f1b3          	and	gp,ra,sp
   10c28:	00120213          	addi	tp,tp,1 # 1 <_start+0x1>
   10c2c:	00200293          	li	t0,2
   10c30:	fc521ce3          	bne	tp,t0,10c08 <test_15+0x4>
   10c34:	0f001eb7          	lui	t4,0xf001
   10c38:	f00e8e9b          	addiw	t4,t4,-256
   10c3c:	00f00e13          	li	t3,15
   10c40:	27d19463          	bne	gp,t4,10ea8 <fail>

0000000000010c44 <test_16>:
   10c44:	00000213          	li	tp,0
   10c48:	0ff010b7          	lui	ra,0xff01
   10c4c:	ff00809b          	addiw	ra,ra,-16
   10c50:	00000013          	nop
   10c54:	000f1137          	lui	sp,0xf1
   10c58:	f0f1011b          	addiw	sp,sp,-241
   10c5c:	00c11113          	slli	sp,sp,0xc
   10c60:	0f010113          	addi	sp,sp,240 # f10f0 <heap_memory_used+0xcee38>
   10c64:	00000013          	nop
   10c68:	0020f1b3          	and	gp,ra,sp
   10c6c:	00120213          	addi	tp,tp,1 # 1 <_start+0x1>
   10c70:	00200293          	li	t0,2
   10c74:	fc521ae3          	bne	tp,t0,10c48 <test_16+0x4>
   10c78:	00f00eb7          	lui	t4,0xf00
   10c7c:	0f0e8e9b          	addiw	t4,t4,240
   10c80:	01000e13          	li	t3,16
   10c84:	23d19263          	bne	gp,t4,10ea8 <fail>

0000000000010c88 <test_17>:
   10c88:	00000213          	li	tp,0
   10c8c:	00ff00b7          	lui	ra,0xff0
   10c90:	0ff0809b          	addiw	ra,ra,255
   10c94:	00000013          	nop
   10c98:	00000013          	nop
   10c9c:	0f0f1137          	lui	sp,0xf0f1
   10ca0:	f0f1011b          	addiw	sp,sp,-241
   10ca4:	0020f1b3          	and	gp,ra,sp
   10ca8:	00120213          	addi	tp,tp,1 # 1 <_start+0x1>
   10cac:	00200293          	li	t0,2
   10cb0:	fc521ee3          	bne	tp,t0,10c8c <test_17+0x4>
   10cb4:	000f0eb7          	lui	t4,0xf0
   10cb8:	00fe8e9b          	addiw	t4,t4,15
   10cbc:	01100e13          	li	t3,17
   10cc0:	1fd19463          	bne	gp,t4,10ea8 <fail>

0000000000010cc4 <test_18>:
   10cc4:	00000213          	li	tp,0
   10cc8:	0f0f1137          	lui	sp,0xf0f1
   10ccc:	f0f1011b          	addiw	sp,sp,-241
   10cd0:	000100b7          	lui	ra,0x10
   10cd4:	f010809b          	addiw	ra,ra,-255
   10cd8:	01009093          	slli	ra,ra,0x10
   10cdc:	f0008093          	addi	ra,ra,-256 # ff00 <coremarkBenchmark+0xfe58>
   10ce0:	0020f1b3          	and	gp,ra,sp
   10ce4:	00120213          	addi	tp,tp,1 # 1 <_start+0x1>
   10ce8:	00200293          	li	t0,2
   10cec:	fc521ee3          	bne	tp,t0,10cc8 <test_18+0x4>
   10cf0:	0f001eb7          	lui	t4,0xf001
   10cf4:	f00e8e9b          	addiw	t4,t4,-256
   10cf8:	01200e13          	li	t3,18
   10cfc:	1bd19663          	bne	gp,t4,10ea8 <fail>

0000000000010d00 <test_19>:
   10d00:	00000213          	li	tp,0
   10d04:	000f1137          	lui	sp,0xf1
   10d08:	f0f1011b          	addiw	sp,sp,-241
   10d0c:	00c11113          	slli	sp,sp,0xc
   10d10:	0f010113          	addi	sp,sp,240 # f10f0 <heap_memory_used+0xcee38>
   10d14:	0ff010b7          	lui	ra,0xff01
   10d18:	ff00809b          	addiw	ra,ra,-16
   10d1c:	00000013          	nop
   10d20:	0020f1b3          	and	gp,ra,sp
   10d24:	00120213          	addi	tp,tp,1 # 1 <_start+0x1>
   10d28:	00200293          	li	t0,2
   10d2c:	fc521ce3          	bne	tp,t0,10d04 <test_19+0x4>
   10d30:	00f00eb7          	lui	t4,0xf00
   10d34:	0f0e8e9b          	addiw	t4,t4,240
   10d38:	01300e13          	li	t3,19
   10d3c:	17d19663          	bne	gp,t4,10ea8 <fail>

0000000000010d40 <test_20>:
   10d40:	00000213          	li	tp,0
   10d44:	0f0f1137          	lui	sp,0xf0f1
   10d48:	f0f1011b          	addiw	sp,sp,-241
   10d4c:	00ff00b7          	lui	ra,0xff0
   10d50:	0ff0809b          	addiw	ra,ra,255
   10d54:	00000013          	nop
   10d58:	00000013          	nop
   10d5c:	0020f1b3          	and	gp,ra,sp
   10d60:	00120213          	addi	tp,tp,1 # 1 <_start+0x1>
   10d64:	00200293          	li	t0,2
   10d68:	fc521ee3          	bne	tp,t0,10d44 <test_20+0x4>
   10d6c:	000f0eb7          	lui	t4,0xf0
   10d70:	00fe8e9b          	addiw	t4,t4,15
   10d74:	01400e13          	li	t3,20
   10d78:	13d19863          	bne	gp,t4,10ea8 <fail>

0000000000010d7c <test_21>:
   10d7c:	00000213          	li	tp,0
   10d80:	0f0f1137          	lui	sp,0xf0f1
   10d84:	f0f1011b          	addiw	sp,sp,-241
   10d88:	00000013          	nop
   10d8c:	000100b7          	lui	ra,0x10
   10d90:	f010809b          	addiw	ra,ra,-255
   10d94:	01009093          	slli	ra,ra,0x10
   10d98:	f0008093          	addi	ra,ra,-256 # ff00 <coremarkBenchmark+0xfe58>
   10d9c:	0020f1b3          	and	gp,ra,sp
   10da0:	00120213          	addi	tp,tp,1 # 1 <_start+0x1>
   10da4:	00200293          	li	t0,2
   10da8:	fc521ce3          	bne	tp,t0,10d80 <test_21+0x4>
   10dac:	0f001eb7          	lui	t4,0xf001
   10db0:	f00e8e9b          	addiw	t4,t4,-256
   10db4:	01500e13          	li	t3,21
   10db8:	0fd19863          	bne	gp,t4,10ea8 <fail>

0000000000010dbc <test_22>:
   10dbc:	00000213          	li	tp,0
   10dc0:	000f1137          	lui	sp,0xf1
   10dc4:	f0f1011b          	addiw	sp,sp,-241
   10dc8:	00c11113          	slli	sp,sp,0xc
   10dcc:	0f010113          	addi	sp,sp,240 # f10f0 <heap_memory_used+0xcee38>
   10dd0:	00000013          	nop
   10dd4:	0ff010b7          	lui	ra,0xff01
   10dd8:	ff00809b          	addiw	ra,ra,-16
   10ddc:	00000013          	nop
   10de0:	0020f1b3          	and	gp,ra,sp
   10de4:	00120213          	addi	tp,tp,1 # 1 <_start+0x1>
   10de8:	00200293          	li	t0,2
   10dec:	fc521ae3          	bne	tp,t0,10dc0 <test_22+0x4>
   10df0:	00f00eb7          	lui	t4,0xf00
   10df4:	0f0e8e9b          	addiw	t4,t4,240
   10df8:	01600e13          	li	t3,22
   10dfc:	0bd19663          	bne	gp,t4,10ea8 <fail>

0000000000010e00 <test_23>:
   10e00:	00000213          	li	tp,0
   10e04:	0f0f1137          	lui	sp,0xf0f1
   10e08:	f0f1011b          	addiw	sp,sp,-241
   10e0c:	00000013          	nop
   10e10:	00000013          	nop
   10e14:	00ff00b7          	lui	ra,0xff0
   10e18:	0ff0809b          	addiw	ra,ra,255
   10e1c:	0020f1b3          	and	gp,ra,sp
   10e20:	00120213          	addi	tp,tp,1 # 1 <_start+0x1>
   10e24:	00200293          	li	t0,2
   10e28:	fc521ee3          	bne	tp,t0,10e04 <test_23+0x4>
   10e2c:	000f0eb7          	lui	t4,0xf0
   10e30:	00fe8e9b          	addiw	t4,t4,15
   10e34:	01700e13          	li	t3,23
   10e38:	07d19863          	bne	gp,t4,10ea8 <fail>

0000000000010e3c <test_24>:
   10e3c:	000100b7          	lui	ra,0x10
   10e40:	f010809b          	addiw	ra,ra,-255
   10e44:	01009093          	slli	ra,ra,0x10
   10e48:	f0008093          	addi	ra,ra,-256 # ff00 <coremarkBenchmark+0xfe58>
   10e4c:	00107133          	and	sp,zero,ra
   10e50:	00000e93          	li	t4,0
   10e54:	01800e13          	li	t3,24
   10e58:	05d11863          	bne	sp,t4,10ea8 <fail>

0000000000010e5c <test_25>:
   10e5c:	00ff00b7          	lui	ra,0xff0
   10e60:	0ff0809b          	addiw	ra,ra,255
   10e64:	0000f133          	and	sp,ra,zero
   10e68:	00000e93          	li	t4,0
   10e6c:	01900e13          	li	t3,25
   10e70:	03d11c63          	bne	sp,t4,10ea8 <fail>

0000000000010e74 <test_26>:
   10e74:	000070b3          	and	ra,zero,zero
   10e78:	00000e93          	li	t4,0
   10e7c:	01a00e13          	li	t3,26
   10e80:	03d09463          	bne	ra,t4,10ea8 <fail>

0000000000010e84 <test_27>:
   10e84:	111110b7          	lui	ra,0x11111
   10e88:	1110809b          	addiw	ra,ra,273
   10e8c:	22222137          	lui	sp,0x22222
   10e90:	2221011b          	addiw	sp,sp,546
   10e94:	0020f033          	and	zero,ra,sp
   10e98:	00000e93          	li	t4,0
   10e9c:	01b00e13          	li	t3,27
   10ea0:	01d01463          	bne	zero,t4,10ea8 <fail>
   10ea4:	05c01863          	bne	zero,t3,10ef4 <pass>

0000000000010ea8 <fail>:
   10ea8:	04500513          	li	a0,69
   10eac:	00004137          	lui	sp,0x4
   10eb0:	0580d0ef          	jal	ra,1df08 <printf_c>
   10eb4:	05200513          	li	a0,82
   10eb8:	00004137          	lui	sp,0x4
   10ebc:	04c0d0ef          	jal	ra,1df08 <printf_c>
   10ec0:	00004137          	lui	sp,0x4
   10ec4:	0440d0ef          	jal	ra,1df08 <printf_c>
   10ec8:	04f00513          	li	a0,79
   10ecc:	00004137          	lui	sp,0x4
   10ed0:	0380d0ef          	jal	ra,1df08 <printf_c>
   10ed4:	00004137          	lui	sp,0x4
   10ed8:	05200513          	li	a0,82
   10edc:	00004137          	lui	sp,0x4
   10ee0:	0280d0ef          	jal	ra,1df08 <printf_c>
   10ee4:	00a00513          	li	a0,10
   10ee8:	00004137          	lui	sp,0x4
   10eec:	01c0d0ef          	jal	ra,1df08 <printf_c>
   10ef0:	0340006f          	j	10f24 <andi>

0000000000010ef4 <pass>:
   10ef4:	04f00513          	li	a0,79
   10ef8:	00004137          	lui	sp,0x4
   10efc:	00c0d0ef          	jal	ra,1df08 <printf_c>
   10f00:	04b00513          	li	a0,75
   10f04:	00004137          	lui	sp,0x4
   10f08:	0000d0ef          	jal	ra,1df08 <printf_c>
   10f0c:	00a00513          	li	a0,10
   10f10:	00004137          	lui	sp,0x4
   10f14:	7f50c0ef          	jal	ra,1df08 <printf_c>
   10f18:	00c0006f          	j	10f24 <andi>

0000000000010f1c <.test_name>:
   10f1c:	6e61                	lui	t3,0x18
   10f1e:	6964                	ld	s1,208(a0)
   10f20:	0920                	addi	s0,sp,152
	...

0000000000010f24 <andi>:
   10f24:	00011537          	lui	a0,0x11
   10f28:	f1c50513          	addi	a0,a0,-228 # 10f1c <.test_name>

0000000000010f2c <.prname_next>:
   10f2c:	00004137          	lui	sp,0x4
   10f30:	0040d0ef          	jal	ra,1df34 <printf_s>

0000000000010f34 <test_2>:
   10f34:	000100b7          	lui	ra,0x10
   10f38:	f010809b          	addiw	ra,ra,-255
   10f3c:	01009093          	slli	ra,ra,0x10
   10f40:	f0008093          	addi	ra,ra,-256 # ff00 <coremarkBenchmark+0xfe58>
   10f44:	f0f0f193          	andi	gp,ra,-241
   10f48:	00010eb7          	lui	t4,0x10
   10f4c:	f01e8e9b          	addiw	t4,t4,-255
   10f50:	010e9e93          	slli	t4,t4,0x10
   10f54:	f00e8e93          	addi	t4,t4,-256 # ff00 <coremarkBenchmark+0xfe58>
   10f58:	00200e13          	li	t3,2
   10f5c:	1dd19863          	bne	gp,t4,1112c <fail>

0000000000010f60 <test_3>:
   10f60:	0ff010b7          	lui	ra,0xff01
   10f64:	ff00809b          	addiw	ra,ra,-16
   10f68:	0f00f193          	andi	gp,ra,240
   10f6c:	0f000e93          	li	t4,240
   10f70:	00300e13          	li	t3,3
   10f74:	1bd19c63          	bne	gp,t4,1112c <fail>

0000000000010f78 <test_4>:
   10f78:	00ff00b7          	lui	ra,0xff0
   10f7c:	0ff0809b          	addiw	ra,ra,255
   10f80:	70f0f193          	andi	gp,ra,1807
   10f84:	00f00e93          	li	t4,15
   10f88:	00400e13          	li	t3,4
   10f8c:	1bd19063          	bne	gp,t4,1112c <fail>

0000000000010f90 <test_5>:
   10f90:	000f00b7          	lui	ra,0xf0
   10f94:	0ff0809b          	addiw	ra,ra,255
   10f98:	00c09093          	slli	ra,ra,0xc
   10f9c:	00f08093          	addi	ra,ra,15 # f000f <heap_memory_used+0xcdd57>
   10fa0:	0f00f193          	andi	gp,ra,240
   10fa4:	00000e93          	li	t4,0
   10fa8:	00500e13          	li	t3,5
   10fac:	19d19063          	bne	gp,t4,1112c <fail>

0000000000010fb0 <test_6>:
   10fb0:	000100b7          	lui	ra,0x10
   10fb4:	f010809b          	addiw	ra,ra,-255
   10fb8:	01009093          	slli	ra,ra,0x10
   10fbc:	f0008093          	addi	ra,ra,-256 # ff00 <coremarkBenchmark+0xfe58>
   10fc0:	0f00f093          	andi	ra,ra,240
   10fc4:	00000e93          	li	t4,0
   10fc8:	00600e13          	li	t3,6
   10fcc:	17d09063          	bne	ra,t4,1112c <fail>

0000000000010fd0 <test_7>:
   10fd0:	00000213          	li	tp,0
   10fd4:	0ff010b7          	lui	ra,0xff01
   10fd8:	ff00809b          	addiw	ra,ra,-16
   10fdc:	70f0f193          	andi	gp,ra,1807
   10fe0:	00018313          	mv	t1,gp
   10fe4:	00120213          	addi	tp,tp,1 # 1 <_start+0x1>
   10fe8:	00200293          	li	t0,2
   10fec:	fe5214e3          	bne	tp,t0,10fd4 <test_7+0x4>
   10ff0:	70000e93          	li	t4,1792
   10ff4:	00700e13          	li	t3,7
   10ff8:	13d31a63          	bne	t1,t4,1112c <fail>

0000000000010ffc <test_8>:
   10ffc:	00000213          	li	tp,0
   11000:	00ff00b7          	lui	ra,0xff0
   11004:	0ff0809b          	addiw	ra,ra,255
   11008:	0f00f193          	andi	gp,ra,240
   1100c:	00000013          	nop
   11010:	00018313          	mv	t1,gp
   11014:	00120213          	addi	tp,tp,1 # 1 <_start+0x1>
   11018:	00200293          	li	t0,2
   1101c:	fe5212e3          	bne	tp,t0,11000 <test_8+0x4>
   11020:	0f000e93          	li	t4,240
   11024:	00800e13          	li	t3,8
   11028:	11d31263          	bne	t1,t4,1112c <fail>

000000000001102c <test_9>:
   1102c:	00000213          	li	tp,0
   11030:	000f00b7          	lui	ra,0xf0
   11034:	0ff0809b          	addiw	ra,ra,255
   11038:	00c09093          	slli	ra,ra,0xc
   1103c:	00f08093          	addi	ra,ra,15 # f000f <heap_memory_used+0xcdd57>
   11040:	f0f0f193          	andi	gp,ra,-241
   11044:	00000013          	nop
   11048:	00000013          	nop
   1104c:	00018313          	mv	t1,gp
   11050:	00120213          	addi	tp,tp,1 # 1 <_start+0x1>
   11054:	00200293          	li	t0,2
   11058:	fc521ce3          	bne	tp,t0,11030 <test_9+0x4>
   1105c:	000f0eb7          	lui	t4,0xf0
   11060:	0ffe8e9b          	addiw	t4,t4,255
   11064:	00ce9e93          	slli	t4,t4,0xc
   11068:	00fe8e93          	addi	t4,t4,15 # f000f <heap_memory_used+0xcdd57>
   1106c:	00900e13          	li	t3,9
   11070:	0bd31e63          	bne	t1,t4,1112c <fail>

0000000000011074 <test_10>:
   11074:	00000213          	li	tp,0
   11078:	0ff010b7          	lui	ra,0xff01
   1107c:	ff00809b          	addiw	ra,ra,-16
   11080:	70f0f193          	andi	gp,ra,1807
   11084:	00120213          	addi	tp,tp,1 # 1 <_start+0x1>
   11088:	00200293          	li	t0,2
   1108c:	fe5216e3          	bne	tp,t0,11078 <test_10+0x4>
   11090:	70000e93          	li	t4,1792
   11094:	00a00e13          	li	t3,10
   11098:	09d19a63          	bne	gp,t4,1112c <fail>

000000000001109c <test_11>:
   1109c:	00000213          	li	tp,0
   110a0:	00ff00b7          	lui	ra,0xff0
   110a4:	0ff0809b          	addiw	ra,ra,255
   110a8:	00000013          	nop
   110ac:	0f00f193          	andi	gp,ra,240
   110b0:	00120213          	addi	tp,tp,1 # 1 <_start+0x1>
   110b4:	00200293          	li	t0,2
   110b8:	fe5214e3          	bne	tp,t0,110a0 <test_11+0x4>
   110bc:	0f000e93          	li	t4,240
   110c0:	00b00e13          	li	t3,11
   110c4:	07d19463          	bne	gp,t4,1112c <fail>

00000000000110c8 <test_12>:
   110c8:	00000213          	li	tp,0
   110cc:	000f00b7          	lui	ra,0xf0
   110d0:	0ff0809b          	addiw	ra,ra,255
   110d4:	00c09093          	slli	ra,ra,0xc
   110d8:	00f08093          	addi	ra,ra,15 # f000f <heap_memory_used+0xcdd57>
   110dc:	00000013          	nop
   110e0:	00000013          	nop
   110e4:	70f0f193          	andi	gp,ra,1807
   110e8:	00120213          	addi	tp,tp,1 # 1 <_start+0x1>
   110ec:	00200293          	li	t0,2
   110f0:	fc521ee3          	bne	tp,t0,110cc <test_12+0x4>
   110f4:	00f00e93          	li	t4,15
   110f8:	00c00e13          	li	t3,12
   110fc:	03d19863          	bne	gp,t4,1112c <fail>

0000000000011100 <test_13>:
   11100:	0f007093          	andi	ra,zero,240
   11104:	00000e93          	li	t4,0
   11108:	00d00e13          	li	t3,13
   1110c:	03d09063          	bne	ra,t4,1112c <fail>

0000000000011110 <test_14>:
   11110:	00ff00b7          	lui	ra,0xff0
   11114:	0ff0809b          	addiw	ra,ra,255
   11118:	70f0f013          	andi	zero,ra,1807
   1111c:	00000e93          	li	t4,0
   11120:	00e00e13          	li	t3,14
   11124:	01d01463          	bne	zero,t4,1112c <fail>
   11128:	05c01863          	bne	zero,t3,11178 <pass>

000000000001112c <fail>:
   1112c:	04500513          	li	a0,69
   11130:	00004137          	lui	sp,0x4
   11134:	5d50c0ef          	jal	ra,1df08 <printf_c>
   11138:	05200513          	li	a0,82
   1113c:	00004137          	lui	sp,0x4
   11140:	5c90c0ef          	jal	ra,1df08 <printf_c>
   11144:	00004137          	lui	sp,0x4
   11148:	5c10c0ef          	jal	ra,1df08 <printf_c>
   1114c:	04f00513          	li	a0,79
   11150:	00004137          	lui	sp,0x4
   11154:	5b50c0ef          	jal	ra,1df08 <printf_c>
   11158:	00004137          	lui	sp,0x4
   1115c:	05200513          	li	a0,82
   11160:	00004137          	lui	sp,0x4
   11164:	5a50c0ef          	jal	ra,1df08 <printf_c>
   11168:	00a00513          	li	a0,10
   1116c:	00004137          	lui	sp,0x4
   11170:	5990c0ef          	jal	ra,1df08 <printf_c>
   11174:	0340006f          	j	111a8 <auipc>

0000000000011178 <pass>:
   11178:	04f00513          	li	a0,79
   1117c:	00004137          	lui	sp,0x4
   11180:	5890c0ef          	jal	ra,1df08 <printf_c>
   11184:	04b00513          	li	a0,75
   11188:	00004137          	lui	sp,0x4
   1118c:	57d0c0ef          	jal	ra,1df08 <printf_c>
   11190:	00a00513          	li	a0,10
   11194:	00004137          	lui	sp,0x4
   11198:	5710c0ef          	jal	ra,1df08 <printf_c>
   1119c:	00c0006f          	j	111a8 <auipc>

00000000000111a0 <.test_name>:
   111a0:	7561                	lui	a0,0xffff8
   111a2:	7069                	0x7069
   111a4:	00092063          	0x92063

00000000000111a8 <auipc>:
   111a8:	00011537          	lui	a0,0x11
   111ac:	1a050513          	addi	a0,a0,416 # 111a0 <.test_name>

00000000000111b0 <.prname_next>:
   111b0:	00004137          	lui	sp,0x4
   111b4:	5810c0ef          	jal	ra,1df34 <printf_s>

00000000000111b8 <test_2>:
   111b8:	00002517          	auipc	a0,0x2
   111bc:	71c50513          	addi	a0,a0,1820 # 138d4 <test_11+0x4>
   111c0:	004005ef          	jal	a1,111c4 <test_2+0xc>
   111c4:	40b50533          	sub	a0,a0,a1
   111c8:	00002eb7          	lui	t4,0x2
   111cc:	710e8e9b          	addiw	t4,t4,1808
   111d0:	00200e13          	li	t3,2
   111d4:	03d51463          	bne	a0,t4,111fc <fail>

00000000000111d8 <test_3>:
   111d8:	ffffe517          	auipc	a0,0xffffe
   111dc:	8fc50513          	addi	a0,a0,-1796 # ead4 <coremarkBenchmark+0xea2c>
   111e0:	004005ef          	jal	a1,111e4 <test_3+0xc>
   111e4:	40b50533          	sub	a0,a0,a1
   111e8:	ffffeeb7          	lui	t4,0xffffe
   111ec:	8f0e8e9b          	addiw	t4,t4,-1808
   111f0:	00300e13          	li	t3,3
   111f4:	01d51463          	bne	a0,t4,111fc <fail>
   111f8:	05c01863          	bne	zero,t3,11248 <pass>

00000000000111fc <fail>:
   111fc:	04500513          	li	a0,69
   11200:	00004137          	lui	sp,0x4
   11204:	5050c0ef          	jal	ra,1df08 <printf_c>
   11208:	05200513          	li	a0,82
   1120c:	00004137          	lui	sp,0x4
   11210:	4f90c0ef          	jal	ra,1df08 <printf_c>
   11214:	00004137          	lui	sp,0x4
   11218:	4f10c0ef          	jal	ra,1df08 <printf_c>
   1121c:	04f00513          	li	a0,79
   11220:	00004137          	lui	sp,0x4
   11224:	4e50c0ef          	jal	ra,1df08 <printf_c>
   11228:	00004137          	lui	sp,0x4
   1122c:	05200513          	li	a0,82
   11230:	00004137          	lui	sp,0x4
   11234:	4d50c0ef          	jal	ra,1df08 <printf_c>
   11238:	00a00513          	li	a0,10
   1123c:	00004137          	lui	sp,0x4
   11240:	4c90c0ef          	jal	ra,1df08 <printf_c>
   11244:	0340006f          	j	11278 <beq>

0000000000011248 <pass>:
   11248:	04f00513          	li	a0,79
   1124c:	00004137          	lui	sp,0x4
   11250:	4b90c0ef          	jal	ra,1df08 <printf_c>
   11254:	04b00513          	li	a0,75
   11258:	00004137          	lui	sp,0x4
   1125c:	4ad0c0ef          	jal	ra,1df08 <printf_c>
   11260:	00a00513          	li	a0,10
   11264:	00004137          	lui	sp,0x4
   11268:	4a10c0ef          	jal	ra,1df08 <printf_c>
   1126c:	00c0006f          	j	11278 <beq>

0000000000011270 <.test_name>:
   11270:	6562                	ld	a0,24(sp)
   11272:	2071                	0x2071
   11274:	0009                	c.addi	zero,2
	...

0000000000011278 <beq>:
   11278:	00011537          	lui	a0,0x11
   1127c:	27050513          	addi	a0,a0,624 # 11270 <.test_name>

0000000000011280 <.prname_next>:
   11280:	00004137          	lui	sp,0x4
   11284:	4b10c0ef          	jal	ra,1df34 <printf_s>

0000000000011288 <test_2>:
   11288:	00200e13          	li	t3,2
   1128c:	00000093          	li	ra,0
   11290:	00000113          	li	sp,0
   11294:	00208663          	beq	ra,sp,112a0 <test_2+0x18>
   11298:	2bc01863          	bne	zero,t3,11548 <fail>
   1129c:	01c01663          	bne	zero,t3,112a8 <test_3>
   112a0:	fe208ee3          	beq	ra,sp,1129c <test_2+0x14>
   112a4:	2bc01263          	bne	zero,t3,11548 <fail>

00000000000112a8 <test_3>:
   112a8:	00300e13          	li	t3,3
   112ac:	00100093          	li	ra,1
   112b0:	00100113          	li	sp,1
   112b4:	00208663          	beq	ra,sp,112c0 <test_3+0x18>
   112b8:	29c01863          	bne	zero,t3,11548 <fail>
   112bc:	01c01663          	bne	zero,t3,112c8 <test_4>
   112c0:	fe208ee3          	beq	ra,sp,112bc <test_3+0x14>
   112c4:	29c01263          	bne	zero,t3,11548 <fail>

00000000000112c8 <test_4>:
   112c8:	00400e13          	li	t3,4
   112cc:	fff00093          	li	ra,-1
   112d0:	fff00113          	li	sp,-1
   112d4:	00208663          	beq	ra,sp,112e0 <test_4+0x18>
   112d8:	27c01863          	bne	zero,t3,11548 <fail>
   112dc:	01c01663          	bne	zero,t3,112e8 <test_5>
   112e0:	fe208ee3          	beq	ra,sp,112dc <test_4+0x14>
   112e4:	27c01263          	bne	zero,t3,11548 <fail>

00000000000112e8 <test_5>:
   112e8:	00500e13          	li	t3,5
   112ec:	00000093          	li	ra,0
   112f0:	00100113          	li	sp,1
   112f4:	00208463          	beq	ra,sp,112fc <test_5+0x14>
   112f8:	01c01463          	bne	zero,t3,11300 <test_5+0x18>
   112fc:	25c01663          	bne	zero,t3,11548 <fail>
   11300:	fe208ee3          	beq	ra,sp,112fc <test_5+0x14>

0000000000011304 <test_6>:
   11304:	00600e13          	li	t3,6
   11308:	00100093          	li	ra,1
   1130c:	00000113          	li	sp,0
   11310:	00208463          	beq	ra,sp,11318 <test_6+0x14>
   11314:	01c01463          	bne	zero,t3,1131c <test_6+0x18>
   11318:	23c01863          	bne	zero,t3,11548 <fail>
   1131c:	fe208ee3          	beq	ra,sp,11318 <test_6+0x14>

0000000000011320 <test_7>:
   11320:	00700e13          	li	t3,7
   11324:	fff00093          	li	ra,-1
   11328:	00100113          	li	sp,1
   1132c:	00208463          	beq	ra,sp,11334 <test_7+0x14>
   11330:	01c01463          	bne	zero,t3,11338 <test_7+0x18>
   11334:	21c01a63          	bne	zero,t3,11548 <fail>
   11338:	fe208ee3          	beq	ra,sp,11334 <test_7+0x14>

000000000001133c <test_8>:
   1133c:	00800e13          	li	t3,8
   11340:	00100093          	li	ra,1
   11344:	fff00113          	li	sp,-1
   11348:	00208463          	beq	ra,sp,11350 <test_8+0x14>
   1134c:	01c01463          	bne	zero,t3,11354 <test_8+0x18>
   11350:	1fc01c63          	bne	zero,t3,11548 <fail>
   11354:	fe208ee3          	beq	ra,sp,11350 <test_8+0x14>

0000000000011358 <test_9>:
   11358:	00900e13          	li	t3,9
   1135c:	00000213          	li	tp,0
   11360:	00000093          	li	ra,0
   11364:	fff00113          	li	sp,-1
   11368:	1e208063          	beq	ra,sp,11548 <fail>
   1136c:	00120213          	addi	tp,tp,1 # 1 <_start+0x1>
   11370:	00200293          	li	t0,2
   11374:	fe5216e3          	bne	tp,t0,11360 <test_9+0x8>

0000000000011378 <test_10>:
   11378:	00a00e13          	li	t3,10
   1137c:	00000213          	li	tp,0
   11380:	00000093          	li	ra,0
   11384:	fff00113          	li	sp,-1
   11388:	00000013          	nop
   1138c:	1a208e63          	beq	ra,sp,11548 <fail>
   11390:	00120213          	addi	tp,tp,1 # 1 <_start+0x1>
   11394:	00200293          	li	t0,2
   11398:	fe5214e3          	bne	tp,t0,11380 <test_10+0x8>

000000000001139c <test_11>:
   1139c:	00b00e13          	li	t3,11
   113a0:	00000213          	li	tp,0
   113a4:	00000093          	li	ra,0
   113a8:	fff00113          	li	sp,-1
   113ac:	00000013          	nop
   113b0:	00000013          	nop
   113b4:	18208a63          	beq	ra,sp,11548 <fail>
   113b8:	00120213          	addi	tp,tp,1 # 1 <_start+0x1>
   113bc:	00200293          	li	t0,2
   113c0:	fe5212e3          	bne	tp,t0,113a4 <test_11+0x8>

00000000000113c4 <test_12>:
   113c4:	00c00e13          	li	t3,12
   113c8:	00000213          	li	tp,0
   113cc:	00000093          	li	ra,0
   113d0:	00000013          	nop
   113d4:	fff00113          	li	sp,-1
   113d8:	16208863          	beq	ra,sp,11548 <fail>
   113dc:	00120213          	addi	tp,tp,1 # 1 <_start+0x1>
   113e0:	00200293          	li	t0,2
   113e4:	fe5214e3          	bne	tp,t0,113cc <test_12+0x8>

00000000000113e8 <test_13>:
   113e8:	00d00e13          	li	t3,13
   113ec:	00000213          	li	tp,0
   113f0:	00000093          	li	ra,0
   113f4:	00000013          	nop
   113f8:	fff00113          	li	sp,-1
   113fc:	00000013          	nop
   11400:	14208463          	beq	ra,sp,11548 <fail>
   11404:	00120213          	addi	tp,tp,1 # 1 <_start+0x1>
   11408:	00200293          	li	t0,2
   1140c:	fe5212e3          	bne	tp,t0,113f0 <test_13+0x8>

0000000000011410 <test_14>:
   11410:	00e00e13          	li	t3,14
   11414:	00000213          	li	tp,0
   11418:	00000093          	li	ra,0
   1141c:	00000013          	nop
   11420:	00000013          	nop
   11424:	fff00113          	li	sp,-1
   11428:	12208063          	beq	ra,sp,11548 <fail>
   1142c:	00120213          	addi	tp,tp,1 # 1 <_start+0x1>
   11430:	00200293          	li	t0,2
   11434:	fe5212e3          	bne	tp,t0,11418 <test_14+0x8>

0000000000011438 <test_15>:
   11438:	00f00e13          	li	t3,15
   1143c:	00000213          	li	tp,0
   11440:	00000093          	li	ra,0
   11444:	fff00113          	li	sp,-1
   11448:	10208063          	beq	ra,sp,11548 <fail>
   1144c:	00120213          	addi	tp,tp,1 # 1 <_start+0x1>
   11450:	00200293          	li	t0,2
   11454:	fe5216e3          	bne	tp,t0,11440 <test_15+0x8>

0000000000011458 <test_16>:
   11458:	01000e13          	li	t3,16
   1145c:	00000213          	li	tp,0
   11460:	00000093          	li	ra,0
   11464:	fff00113          	li	sp,-1
   11468:	00000013          	nop
   1146c:	0c208e63          	beq	ra,sp,11548 <fail>
   11470:	00120213          	addi	tp,tp,1 # 1 <_start+0x1>
   11474:	00200293          	li	t0,2
   11478:	fe5214e3          	bne	tp,t0,11460 <test_16+0x8>

000000000001147c <test_17>:
   1147c:	01100e13          	li	t3,17
   11480:	00000213          	li	tp,0
   11484:	00000093          	li	ra,0
   11488:	fff00113          	li	sp,-1
   1148c:	00000013          	nop
   11490:	00000013          	nop
   11494:	0a208a63          	beq	ra,sp,11548 <fail>
   11498:	00120213          	addi	tp,tp,1 # 1 <_start+0x1>
   1149c:	00200293          	li	t0,2
   114a0:	fe5212e3          	bne	tp,t0,11484 <test_17+0x8>

00000000000114a4 <test_18>:
   114a4:	01200e13          	li	t3,18
   114a8:	00000213          	li	tp,0
   114ac:	00000093          	li	ra,0
   114b0:	00000013          	nop
   114b4:	fff00113          	li	sp,-1
   114b8:	08208863          	beq	ra,sp,11548 <fail>
   114bc:	00120213          	addi	tp,tp,1 # 1 <_start+0x1>
   114c0:	00200293          	li	t0,2
   114c4:	fe5214e3          	bne	tp,t0,114ac <test_18+0x8>

00000000000114c8 <test_19>:
   114c8:	01300e13          	li	t3,19
   114cc:	00000213          	li	tp,0
   114d0:	00000093          	li	ra,0
   114d4:	00000013          	nop
   114d8:	fff00113          	li	sp,-1
   114dc:	00000013          	nop
   114e0:	06208463          	beq	ra,sp,11548 <fail>
   114e4:	00120213          	addi	tp,tp,1 # 1 <_start+0x1>
   114e8:	00200293          	li	t0,2
   114ec:	fe5212e3          	bne	tp,t0,114d0 <test_19+0x8>

00000000000114f0 <test_20>:
   114f0:	01400e13          	li	t3,20
   114f4:	00000213          	li	tp,0
   114f8:	00000093          	li	ra,0
   114fc:	00000013          	nop
   11500:	00000013          	nop
   11504:	fff00113          	li	sp,-1
   11508:	04208063          	beq	ra,sp,11548 <fail>
   1150c:	00120213          	addi	tp,tp,1 # 1 <_start+0x1>
   11510:	00200293          	li	t0,2
   11514:	fe5212e3          	bne	tp,t0,114f8 <test_20+0x8>

0000000000011518 <test_21>:
   11518:	00100093          	li	ra,1
   1151c:	00000a63          	beqz	zero,11530 <test_21+0x18>
   11520:	00108093          	addi	ra,ra,1 # ff0001 <heap_memory_used+0xfcdd49>
   11524:	00108093          	addi	ra,ra,1
   11528:	00108093          	addi	ra,ra,1
   1152c:	00108093          	addi	ra,ra,1
   11530:	00108093          	addi	ra,ra,1
   11534:	00108093          	addi	ra,ra,1
   11538:	00300e93          	li	t4,3
   1153c:	01500e13          	li	t3,21
   11540:	01d09463          	bne	ra,t4,11548 <fail>
   11544:	05c01863          	bne	zero,t3,11594 <pass>

0000000000011548 <fail>:
   11548:	04500513          	li	a0,69
   1154c:	00004137          	lui	sp,0x4
   11550:	1b90c0ef          	jal	ra,1df08 <printf_c>
   11554:	05200513          	li	a0,82
   11558:	00004137          	lui	sp,0x4
   1155c:	1ad0c0ef          	jal	ra,1df08 <printf_c>
   11560:	00004137          	lui	sp,0x4
   11564:	1a50c0ef          	jal	ra,1df08 <printf_c>
   11568:	04f00513          	li	a0,79
   1156c:	00004137          	lui	sp,0x4
   11570:	1990c0ef          	jal	ra,1df08 <printf_c>
   11574:	00004137          	lui	sp,0x4
   11578:	05200513          	li	a0,82
   1157c:	00004137          	lui	sp,0x4
   11580:	1890c0ef          	jal	ra,1df08 <printf_c>
   11584:	00a00513          	li	a0,10
   11588:	00004137          	lui	sp,0x4
   1158c:	17d0c0ef          	jal	ra,1df08 <printf_c>
   11590:	0340006f          	j	115c4 <bge>

0000000000011594 <pass>:
   11594:	04f00513          	li	a0,79
   11598:	00004137          	lui	sp,0x4
   1159c:	16d0c0ef          	jal	ra,1df08 <printf_c>
   115a0:	04b00513          	li	a0,75
   115a4:	00004137          	lui	sp,0x4
   115a8:	1610c0ef          	jal	ra,1df08 <printf_c>
   115ac:	00a00513          	li	a0,10
   115b0:	00004137          	lui	sp,0x4
   115b4:	1550c0ef          	jal	ra,1df08 <printf_c>
   115b8:	00c0006f          	j	115c4 <bge>

00000000000115bc <.test_name>:
   115bc:	6762                	ld	a4,24(sp)
   115be:	2065                	0x2065
   115c0:	0009                	c.addi	zero,2
	...

00000000000115c4 <bge>:
   115c4:	00011537          	lui	a0,0x11
   115c8:	5bc50513          	addi	a0,a0,1468 # 115bc <.test_name>

00000000000115cc <.prname_next>:
   115cc:	00004137          	lui	sp,0x4
   115d0:	1650c0ef          	jal	ra,1df34 <printf_s>

00000000000115d4 <test_2>:
   115d4:	00200e13          	li	t3,2
   115d8:	00000093          	li	ra,0
   115dc:	00000113          	li	sp,0
   115e0:	0020d663          	ble	sp,ra,115ec <test_2+0x18>
   115e4:	31c01863          	bne	zero,t3,118f4 <fail>
   115e8:	01c01663          	bne	zero,t3,115f4 <test_3>
   115ec:	fe20dee3          	ble	sp,ra,115e8 <test_2+0x14>
   115f0:	31c01263          	bne	zero,t3,118f4 <fail>

00000000000115f4 <test_3>:
   115f4:	00300e13          	li	t3,3
   115f8:	00100093          	li	ra,1
   115fc:	00100113          	li	sp,1
   11600:	0020d663          	ble	sp,ra,1160c <test_3+0x18>
   11604:	2fc01863          	bne	zero,t3,118f4 <fail>
   11608:	01c01663          	bne	zero,t3,11614 <test_4>
   1160c:	fe20dee3          	ble	sp,ra,11608 <test_3+0x14>
   11610:	2fc01263          	bne	zero,t3,118f4 <fail>

0000000000011614 <test_4>:
   11614:	00400e13          	li	t3,4
   11618:	fff00093          	li	ra,-1
   1161c:	fff00113          	li	sp,-1
   11620:	0020d663          	ble	sp,ra,1162c <test_4+0x18>
   11624:	2dc01863          	bne	zero,t3,118f4 <fail>
   11628:	01c01663          	bne	zero,t3,11634 <test_5>
   1162c:	fe20dee3          	ble	sp,ra,11628 <test_4+0x14>
   11630:	2dc01263          	bne	zero,t3,118f4 <fail>

0000000000011634 <test_5>:
   11634:	00500e13          	li	t3,5
   11638:	00100093          	li	ra,1
   1163c:	00000113          	li	sp,0
   11640:	0020d663          	ble	sp,ra,1164c <test_5+0x18>
   11644:	2bc01863          	bne	zero,t3,118f4 <fail>
   11648:	01c01663          	bne	zero,t3,11654 <test_6>
   1164c:	fe20dee3          	ble	sp,ra,11648 <test_5+0x14>
   11650:	2bc01263          	bne	zero,t3,118f4 <fail>

0000000000011654 <test_6>:
   11654:	00600e13          	li	t3,6
   11658:	00100093          	li	ra,1
   1165c:	fff00113          	li	sp,-1
   11660:	0020d663          	ble	sp,ra,1166c <test_6+0x18>
   11664:	29c01863          	bne	zero,t3,118f4 <fail>
   11668:	01c01663          	bne	zero,t3,11674 <test_7>
   1166c:	fe20dee3          	ble	sp,ra,11668 <test_6+0x14>
   11670:	29c01263          	bne	zero,t3,118f4 <fail>

0000000000011674 <test_7>:
   11674:	00700e13          	li	t3,7
   11678:	fff00093          	li	ra,-1
   1167c:	ffe00113          	li	sp,-2
   11680:	0020d663          	ble	sp,ra,1168c <test_7+0x18>
   11684:	27c01863          	bne	zero,t3,118f4 <fail>
   11688:	01c01663          	bne	zero,t3,11694 <test_8>
   1168c:	fe20dee3          	ble	sp,ra,11688 <test_7+0x14>
   11690:	27c01263          	bne	zero,t3,118f4 <fail>

0000000000011694 <test_8>:
   11694:	00800e13          	li	t3,8
   11698:	00000093          	li	ra,0
   1169c:	00100113          	li	sp,1
   116a0:	0020d463          	ble	sp,ra,116a8 <test_8+0x14>
   116a4:	01c01463          	bne	zero,t3,116ac <test_8+0x18>
   116a8:	25c01663          	bne	zero,t3,118f4 <fail>
   116ac:	fe20dee3          	ble	sp,ra,116a8 <test_8+0x14>

00000000000116b0 <test_9>:
   116b0:	00900e13          	li	t3,9
   116b4:	fff00093          	li	ra,-1
   116b8:	00100113          	li	sp,1
   116bc:	0020d463          	ble	sp,ra,116c4 <test_9+0x14>
   116c0:	01c01463          	bne	zero,t3,116c8 <test_9+0x18>
   116c4:	23c01863          	bne	zero,t3,118f4 <fail>
   116c8:	fe20dee3          	ble	sp,ra,116c4 <test_9+0x14>

00000000000116cc <test_10>:
   116cc:	00a00e13          	li	t3,10
   116d0:	ffe00093          	li	ra,-2
   116d4:	fff00113          	li	sp,-1
   116d8:	0020d463          	ble	sp,ra,116e0 <test_10+0x14>
   116dc:	01c01463          	bne	zero,t3,116e4 <test_10+0x18>
   116e0:	21c01a63          	bne	zero,t3,118f4 <fail>
   116e4:	fe20dee3          	ble	sp,ra,116e0 <test_10+0x14>

00000000000116e8 <test_11>:
   116e8:	00b00e13          	li	t3,11
   116ec:	ffe00093          	li	ra,-2
   116f0:	00100113          	li	sp,1
   116f4:	0020d463          	ble	sp,ra,116fc <test_11+0x14>
   116f8:	01c01463          	bne	zero,t3,11700 <test_11+0x18>
   116fc:	1fc01c63          	bne	zero,t3,118f4 <fail>
   11700:	fe20dee3          	ble	sp,ra,116fc <test_11+0x14>

0000000000011704 <test_12>:
   11704:	00c00e13          	li	t3,12
   11708:	00000213          	li	tp,0
   1170c:	fff00093          	li	ra,-1
   11710:	00000113          	li	sp,0
   11714:	1e20d063          	ble	sp,ra,118f4 <fail>
   11718:	00120213          	addi	tp,tp,1 # 1 <_start+0x1>
   1171c:	00200293          	li	t0,2
   11720:	fe5216e3          	bne	tp,t0,1170c <test_12+0x8>

0000000000011724 <test_13>:
   11724:	00d00e13          	li	t3,13
   11728:	00000213          	li	tp,0
   1172c:	fff00093          	li	ra,-1
   11730:	00000113          	li	sp,0
   11734:	00000013          	nop
   11738:	1a20de63          	ble	sp,ra,118f4 <fail>
   1173c:	00120213          	addi	tp,tp,1 # 1 <_start+0x1>
   11740:	00200293          	li	t0,2
   11744:	fe5214e3          	bne	tp,t0,1172c <test_13+0x8>

0000000000011748 <test_14>:
   11748:	00e00e13          	li	t3,14
   1174c:	00000213          	li	tp,0
   11750:	fff00093          	li	ra,-1
   11754:	00000113          	li	sp,0
   11758:	00000013          	nop
   1175c:	00000013          	nop
   11760:	1820da63          	ble	sp,ra,118f4 <fail>
   11764:	00120213          	addi	tp,tp,1 # 1 <_start+0x1>
   11768:	00200293          	li	t0,2
   1176c:	fe5212e3          	bne	tp,t0,11750 <test_14+0x8>

0000000000011770 <test_15>:
   11770:	00f00e13          	li	t3,15
   11774:	00000213          	li	tp,0
   11778:	fff00093          	li	ra,-1
   1177c:	00000013          	nop
   11780:	00000113          	li	sp,0
   11784:	1620d863          	ble	sp,ra,118f4 <fail>
   11788:	00120213          	addi	tp,tp,1 # 1 <_start+0x1>
   1178c:	00200293          	li	t0,2
   11790:	fe5214e3          	bne	tp,t0,11778 <test_15+0x8>

0000000000011794 <test_16>:
   11794:	01000e13          	li	t3,16
   11798:	00000213          	li	tp,0
   1179c:	fff00093          	li	ra,-1
   117a0:	00000013          	nop
   117a4:	00000113          	li	sp,0
   117a8:	00000013          	nop
   117ac:	1420d463          	ble	sp,ra,118f4 <fail>
   117b0:	00120213          	addi	tp,tp,1 # 1 <_start+0x1>
   117b4:	00200293          	li	t0,2
   117b8:	fe5212e3          	bne	tp,t0,1179c <test_16+0x8>

00000000000117bc <test_17>:
   117bc:	01100e13          	li	t3,17
   117c0:	00000213          	li	tp,0
   117c4:	fff00093          	li	ra,-1
   117c8:	00000013          	nop
   117cc:	00000013          	nop
   117d0:	00000113          	li	sp,0
   117d4:	1220d063          	ble	sp,ra,118f4 <fail>
   117d8:	00120213          	addi	tp,tp,1 # 1 <_start+0x1>
   117dc:	00200293          	li	t0,2
   117e0:	fe5212e3          	bne	tp,t0,117c4 <test_17+0x8>

00000000000117e4 <test_18>:
   117e4:	01200e13          	li	t3,18
   117e8:	00000213          	li	tp,0
   117ec:	fff00093          	li	ra,-1
   117f0:	00000113          	li	sp,0
   117f4:	1020d063          	ble	sp,ra,118f4 <fail>
   117f8:	00120213          	addi	tp,tp,1 # 1 <_start+0x1>
   117fc:	00200293          	li	t0,2
   11800:	fe5216e3          	bne	tp,t0,117ec <test_18+0x8>

0000000000011804 <test_19>:
   11804:	01300e13          	li	t3,19
   11808:	00000213          	li	tp,0
   1180c:	fff00093          	li	ra,-1
   11810:	00000113          	li	sp,0
   11814:	00000013          	nop
   11818:	0c20de63          	ble	sp,ra,118f4 <fail>
   1181c:	00120213          	addi	tp,tp,1 # 1 <_start+0x1>
   11820:	00200293          	li	t0,2
   11824:	fe5214e3          	bne	tp,t0,1180c <test_19+0x8>

0000000000011828 <test_20>:
   11828:	01400e13          	li	t3,20
   1182c:	00000213          	li	tp,0
   11830:	fff00093          	li	ra,-1
   11834:	00000113          	li	sp,0
   11838:	00000013          	nop
   1183c:	00000013          	nop
   11840:	0a20da63          	ble	sp,ra,118f4 <fail>
   11844:	00120213          	addi	tp,tp,1 # 1 <_start+0x1>
   11848:	00200293          	li	t0,2
   1184c:	fe5212e3          	bne	tp,t0,11830 <test_20+0x8>

0000000000011850 <test_21>:
   11850:	01500e13          	li	t3,21
   11854:	00000213          	li	tp,0
   11858:	fff00093          	li	ra,-1
   1185c:	00000013          	nop
   11860:	00000113          	li	sp,0
   11864:	0820d863          	ble	sp,ra,118f4 <fail>
   11868:	00120213          	addi	tp,tp,1 # 1 <_start+0x1>
   1186c:	00200293          	li	t0,2
   11870:	fe5214e3          	bne	tp,t0,11858 <test_21+0x8>

0000000000011874 <test_22>:
   11874:	01600e13          	li	t3,22
   11878:	00000213          	li	tp,0
   1187c:	fff00093          	li	ra,-1
   11880:	00000013          	nop
   11884:	00000113          	li	sp,0
   11888:	00000013          	nop
   1188c:	0620d463          	ble	sp,ra,118f4 <fail>
   11890:	00120213          	addi	tp,tp,1 # 1 <_start+0x1>
   11894:	00200293          	li	t0,2
   11898:	fe5212e3          	bne	tp,t0,1187c <test_22+0x8>

000000000001189c <test_23>:
   1189c:	01700e13          	li	t3,23
   118a0:	00000213          	li	tp,0
   118a4:	fff00093          	li	ra,-1
   118a8:	00000013          	nop
   118ac:	00000013          	nop
   118b0:	00000113          	li	sp,0
   118b4:	0420d063          	ble	sp,ra,118f4 <fail>
   118b8:	00120213          	addi	tp,tp,1 # 1 <_start+0x1>
   118bc:	00200293          	li	t0,2
   118c0:	fe5212e3          	bne	tp,t0,118a4 <test_23+0x8>

00000000000118c4 <test_24>:
   118c4:	00100093          	li	ra,1
   118c8:	0000da63          	bgez	ra,118dc <test_24+0x18>
   118cc:	00108093          	addi	ra,ra,1
   118d0:	00108093          	addi	ra,ra,1
   118d4:	00108093          	addi	ra,ra,1
   118d8:	00108093          	addi	ra,ra,1
   118dc:	00108093          	addi	ra,ra,1
   118e0:	00108093          	addi	ra,ra,1
   118e4:	00300e93          	li	t4,3
   118e8:	01800e13          	li	t3,24
   118ec:	01d09463          	bne	ra,t4,118f4 <fail>
   118f0:	05c01863          	bne	zero,t3,11940 <pass>

00000000000118f4 <fail>:
   118f4:	04500513          	li	a0,69
   118f8:	00004137          	lui	sp,0x4
   118fc:	60c0c0ef          	jal	ra,1df08 <printf_c>
   11900:	05200513          	li	a0,82
   11904:	00004137          	lui	sp,0x4
   11908:	6000c0ef          	jal	ra,1df08 <printf_c>
   1190c:	00004137          	lui	sp,0x4
   11910:	5f80c0ef          	jal	ra,1df08 <printf_c>
   11914:	04f00513          	li	a0,79
   11918:	00004137          	lui	sp,0x4
   1191c:	5ec0c0ef          	jal	ra,1df08 <printf_c>
   11920:	00004137          	lui	sp,0x4
   11924:	05200513          	li	a0,82
   11928:	00004137          	lui	sp,0x4
   1192c:	5dc0c0ef          	jal	ra,1df08 <printf_c>
   11930:	00a00513          	li	a0,10
   11934:	00004137          	lui	sp,0x4
   11938:	5d00c0ef          	jal	ra,1df08 <printf_c>
   1193c:	0340006f          	j	11970 <bgeu>

0000000000011940 <pass>:
   11940:	04f00513          	li	a0,79
   11944:	00004137          	lui	sp,0x4
   11948:	5c00c0ef          	jal	ra,1df08 <printf_c>
   1194c:	04b00513          	li	a0,75
   11950:	00004137          	lui	sp,0x4
   11954:	5b40c0ef          	jal	ra,1df08 <printf_c>
   11958:	00a00513          	li	a0,10
   1195c:	00004137          	lui	sp,0x4
   11960:	5a80c0ef          	jal	ra,1df08 <printf_c>
   11964:	00c0006f          	j	11970 <bgeu>

0000000000011968 <.test_name>:
   11968:	6762                	ld	a4,24(sp)
   1196a:	7565                	lui	a0,0xffff9
   1196c:	0920                	addi	s0,sp,152
	...

0000000000011970 <bgeu>:
   11970:	00012537          	lui	a0,0x12
   11974:	96850513          	addi	a0,a0,-1688 # 11968 <.test_name>

0000000000011978 <.prname_next>:
   11978:	00004137          	lui	sp,0x4
   1197c:	5b80c0ef          	jal	ra,1df34 <printf_s>

0000000000011980 <test_2>:
   11980:	00200e13          	li	t3,2
   11984:	00000093          	li	ra,0
   11988:	00000113          	li	sp,0
   1198c:	0020f663          	bleu	sp,ra,11998 <test_2+0x18>
   11990:	3fc01463          	bne	zero,t3,11d78 <fail>
   11994:	01c01663          	bne	zero,t3,119a0 <test_3>
   11998:	fe20fee3          	bleu	sp,ra,11994 <test_2+0x14>
   1199c:	3dc01e63          	bne	zero,t3,11d78 <fail>

00000000000119a0 <test_3>:
   119a0:	00300e13          	li	t3,3
   119a4:	00100093          	li	ra,1
   119a8:	00100113          	li	sp,1
   119ac:	0020f663          	bleu	sp,ra,119b8 <test_3+0x18>
   119b0:	3dc01463          	bne	zero,t3,11d78 <fail>
   119b4:	01c01663          	bne	zero,t3,119c0 <test_4>
   119b8:	fe20fee3          	bleu	sp,ra,119b4 <test_3+0x14>
   119bc:	3bc01e63          	bne	zero,t3,11d78 <fail>

00000000000119c0 <test_4>:
   119c0:	00400e13          	li	t3,4
   119c4:	0010009b          	addiw	ra,zero,1
   119c8:	02009093          	slli	ra,ra,0x20
   119cc:	fff08093          	addi	ra,ra,-1
   119d0:	0010011b          	addiw	sp,zero,1
   119d4:	02011113          	slli	sp,sp,0x20
   119d8:	fff10113          	addi	sp,sp,-1 # 3fff <coremarkBenchmark+0x3f57>
   119dc:	0020f663          	bleu	sp,ra,119e8 <test_4+0x28>
   119e0:	39c01c63          	bne	zero,t3,11d78 <fail>
   119e4:	01c01663          	bne	zero,t3,119f0 <test_5>
   119e8:	fe20fee3          	bleu	sp,ra,119e4 <test_4+0x24>
   119ec:	39c01663          	bne	zero,t3,11d78 <fail>

00000000000119f0 <test_5>:
   119f0:	00500e13          	li	t3,5
   119f4:	00100093          	li	ra,1
   119f8:	00000113          	li	sp,0
   119fc:	0020f663          	bleu	sp,ra,11a08 <test_5+0x18>
   11a00:	37c01c63          	bne	zero,t3,11d78 <fail>
   11a04:	01c01663          	bne	zero,t3,11a10 <test_6>
   11a08:	fe20fee3          	bleu	sp,ra,11a04 <test_5+0x14>
   11a0c:	37c01663          	bne	zero,t3,11d78 <fail>

0000000000011a10 <test_6>:
   11a10:	00600e13          	li	t3,6
   11a14:	0010009b          	addiw	ra,zero,1
   11a18:	02009093          	slli	ra,ra,0x20
   11a1c:	fff08093          	addi	ra,ra,-1
   11a20:	0010011b          	addiw	sp,zero,1
   11a24:	02011113          	slli	sp,sp,0x20
   11a28:	ffe10113          	addi	sp,sp,-2
   11a2c:	0020f663          	bleu	sp,ra,11a38 <test_6+0x28>
   11a30:	35c01463          	bne	zero,t3,11d78 <fail>
   11a34:	01c01663          	bne	zero,t3,11a40 <test_7>
   11a38:	fe20fee3          	bleu	sp,ra,11a34 <test_6+0x24>
   11a3c:	33c01e63          	bne	zero,t3,11d78 <fail>

0000000000011a40 <test_7>:
   11a40:	00700e13          	li	t3,7
   11a44:	0010009b          	addiw	ra,zero,1
   11a48:	02009093          	slli	ra,ra,0x20
   11a4c:	fff08093          	addi	ra,ra,-1
   11a50:	00000113          	li	sp,0
   11a54:	0020f663          	bleu	sp,ra,11a60 <test_7+0x20>
   11a58:	33c01063          	bne	zero,t3,11d78 <fail>
   11a5c:	01c01663          	bne	zero,t3,11a68 <test_8>
   11a60:	fe20fee3          	bleu	sp,ra,11a5c <test_7+0x1c>
   11a64:	31c01a63          	bne	zero,t3,11d78 <fail>

0000000000011a68 <test_8>:
   11a68:	00800e13          	li	t3,8
   11a6c:	00000093          	li	ra,0
   11a70:	00100113          	li	sp,1
   11a74:	0020f463          	bleu	sp,ra,11a7c <test_8+0x14>
   11a78:	01c01463          	bne	zero,t3,11a80 <test_8+0x18>
   11a7c:	2fc01e63          	bne	zero,t3,11d78 <fail>
   11a80:	fe20fee3          	bleu	sp,ra,11a7c <test_8+0x14>

0000000000011a84 <test_9>:
   11a84:	00900e13          	li	t3,9
   11a88:	0010009b          	addiw	ra,zero,1
   11a8c:	02009093          	slli	ra,ra,0x20
   11a90:	ffe08093          	addi	ra,ra,-2
   11a94:	0010011b          	addiw	sp,zero,1
   11a98:	02011113          	slli	sp,sp,0x20
   11a9c:	fff10113          	addi	sp,sp,-1
   11aa0:	0020f463          	bleu	sp,ra,11aa8 <test_9+0x24>
   11aa4:	01c01463          	bne	zero,t3,11aac <test_9+0x28>
   11aa8:	2dc01863          	bne	zero,t3,11d78 <fail>
   11aac:	fe20fee3          	bleu	sp,ra,11aa8 <test_9+0x24>

0000000000011ab0 <test_10>:
   11ab0:	00a00e13          	li	t3,10
   11ab4:	00000093          	li	ra,0
   11ab8:	0010011b          	addiw	sp,zero,1
   11abc:	02011113          	slli	sp,sp,0x20
   11ac0:	fff10113          	addi	sp,sp,-1
   11ac4:	0020f463          	bleu	sp,ra,11acc <test_10+0x1c>
   11ac8:	01c01463          	bne	zero,t3,11ad0 <test_10+0x20>
   11acc:	2bc01663          	bne	zero,t3,11d78 <fail>
   11ad0:	fe20fee3          	bleu	sp,ra,11acc <test_10+0x1c>

0000000000011ad4 <test_11>:
   11ad4:	00b00e13          	li	t3,11
   11ad8:	800000b7          	lui	ra,0x80000
   11adc:	fff0809b          	addiw	ra,ra,-1
   11ae0:	0010011b          	addiw	sp,zero,1
   11ae4:	01f11113          	slli	sp,sp,0x1f
   11ae8:	0020f463          	bleu	sp,ra,11af0 <test_11+0x1c>
   11aec:	01c01463          	bne	zero,t3,11af4 <test_11+0x20>
   11af0:	29c01463          	bne	zero,t3,11d78 <fail>
   11af4:	fe20fee3          	bleu	sp,ra,11af0 <test_11+0x1c>

0000000000011af8 <test_12>:
   11af8:	00c00e13          	li	t3,12
   11afc:	00000213          	li	tp,0
   11b00:	00f0009b          	addiw	ra,zero,15
   11b04:	01c09093          	slli	ra,ra,0x1c
   11b08:	fff08093          	addi	ra,ra,-1 # ffffffff7fffffff <heap_memory_used+0xffffffff7ffddd47>
   11b0c:	00f0011b          	addiw	sp,zero,15
   11b10:	01c11113          	slli	sp,sp,0x1c
   11b14:	2620f263          	bleu	sp,ra,11d78 <fail>
   11b18:	00120213          	addi	tp,tp,1 # 1 <_start+0x1>
   11b1c:	00200293          	li	t0,2
   11b20:	fe5210e3          	bne	tp,t0,11b00 <test_12+0x8>

0000000000011b24 <test_13>:
   11b24:	00d00e13          	li	t3,13
   11b28:	00000213          	li	tp,0
   11b2c:	00f0009b          	addiw	ra,zero,15
   11b30:	01c09093          	slli	ra,ra,0x1c
   11b34:	fff08093          	addi	ra,ra,-1
   11b38:	00f0011b          	addiw	sp,zero,15
   11b3c:	01c11113          	slli	sp,sp,0x1c
   11b40:	00000013          	nop
   11b44:	2220fa63          	bleu	sp,ra,11d78 <fail>
   11b48:	00120213          	addi	tp,tp,1 # 1 <_start+0x1>
   11b4c:	00200293          	li	t0,2
   11b50:	fc521ee3          	bne	tp,t0,11b2c <test_13+0x8>

0000000000011b54 <test_14>:
   11b54:	00e00e13          	li	t3,14
   11b58:	00000213          	li	tp,0
   11b5c:	00f0009b          	addiw	ra,zero,15
   11b60:	01c09093          	slli	ra,ra,0x1c
   11b64:	fff08093          	addi	ra,ra,-1
   11b68:	00f0011b          	addiw	sp,zero,15
   11b6c:	01c11113          	slli	sp,sp,0x1c
   11b70:	00000013          	nop
   11b74:	00000013          	nop
   11b78:	2020f063          	bleu	sp,ra,11d78 <fail>
   11b7c:	00120213          	addi	tp,tp,1 # 1 <_start+0x1>
   11b80:	00200293          	li	t0,2
   11b84:	fc521ce3          	bne	tp,t0,11b5c <test_14+0x8>

0000000000011b88 <test_15>:
   11b88:	00f00e13          	li	t3,15
   11b8c:	00000213          	li	tp,0
   11b90:	00f0009b          	addiw	ra,zero,15
   11b94:	01c09093          	slli	ra,ra,0x1c
   11b98:	fff08093          	addi	ra,ra,-1
   11b9c:	00000013          	nop
   11ba0:	00f0011b          	addiw	sp,zero,15
   11ba4:	01c11113          	slli	sp,sp,0x1c
   11ba8:	1c20f863          	bleu	sp,ra,11d78 <fail>
   11bac:	00120213          	addi	tp,tp,1 # 1 <_start+0x1>
   11bb0:	00200293          	li	t0,2
   11bb4:	fc521ee3          	bne	tp,t0,11b90 <test_15+0x8>

0000000000011bb8 <test_16>:
   11bb8:	01000e13          	li	t3,16
   11bbc:	00000213          	li	tp,0
   11bc0:	00f0009b          	addiw	ra,zero,15
   11bc4:	01c09093          	slli	ra,ra,0x1c
   11bc8:	fff08093          	addi	ra,ra,-1
   11bcc:	00000013          	nop
   11bd0:	00f0011b          	addiw	sp,zero,15
   11bd4:	01c11113          	slli	sp,sp,0x1c
   11bd8:	00000013          	nop
   11bdc:	1820fe63          	bleu	sp,ra,11d78 <fail>
   11be0:	00120213          	addi	tp,tp,1 # 1 <_start+0x1>
   11be4:	00200293          	li	t0,2
   11be8:	fc521ce3          	bne	tp,t0,11bc0 <test_16+0x8>

0000000000011bec <test_17>:
   11bec:	01100e13          	li	t3,17
   11bf0:	00000213          	li	tp,0
   11bf4:	00f0009b          	addiw	ra,zero,15
   11bf8:	01c09093          	slli	ra,ra,0x1c
   11bfc:	fff08093          	addi	ra,ra,-1
   11c00:	00000013          	nop
   11c04:	00000013          	nop
   11c08:	00f0011b          	addiw	sp,zero,15
   11c0c:	01c11113          	slli	sp,sp,0x1c
   11c10:	1620f463          	bleu	sp,ra,11d78 <fail>
   11c14:	00120213          	addi	tp,tp,1 # 1 <_start+0x1>
   11c18:	00200293          	li	t0,2
   11c1c:	fc521ce3          	bne	tp,t0,11bf4 <test_17+0x8>

0000000000011c20 <test_18>:
   11c20:	01200e13          	li	t3,18
   11c24:	00000213          	li	tp,0
   11c28:	00f0009b          	addiw	ra,zero,15
   11c2c:	01c09093          	slli	ra,ra,0x1c
   11c30:	fff08093          	addi	ra,ra,-1
   11c34:	00f0011b          	addiw	sp,zero,15
   11c38:	01c11113          	slli	sp,sp,0x1c
   11c3c:	1220fe63          	bleu	sp,ra,11d78 <fail>
   11c40:	00120213          	addi	tp,tp,1 # 1 <_start+0x1>
   11c44:	00200293          	li	t0,2
   11c48:	fe5210e3          	bne	tp,t0,11c28 <test_18+0x8>

0000000000011c4c <test_19>:
   11c4c:	01300e13          	li	t3,19
   11c50:	00000213          	li	tp,0
   11c54:	00f0009b          	addiw	ra,zero,15
   11c58:	01c09093          	slli	ra,ra,0x1c
   11c5c:	fff08093          	addi	ra,ra,-1
   11c60:	00f0011b          	addiw	sp,zero,15
   11c64:	01c11113          	slli	sp,sp,0x1c
   11c68:	00000013          	nop
   11c6c:	1020f663          	bleu	sp,ra,11d78 <fail>
   11c70:	00120213          	addi	tp,tp,1 # 1 <_start+0x1>
   11c74:	00200293          	li	t0,2
   11c78:	fc521ee3          	bne	tp,t0,11c54 <test_19+0x8>

0000000000011c7c <test_20>:
   11c7c:	01400e13          	li	t3,20
   11c80:	00000213          	li	tp,0
   11c84:	00f0009b          	addiw	ra,zero,15
   11c88:	01c09093          	slli	ra,ra,0x1c
   11c8c:	fff08093          	addi	ra,ra,-1
   11c90:	00f0011b          	addiw	sp,zero,15
   11c94:	01c11113          	slli	sp,sp,0x1c
   11c98:	00000013          	nop
   11c9c:	00000013          	nop
   11ca0:	0c20fc63          	bleu	sp,ra,11d78 <fail>
   11ca4:	00120213          	addi	tp,tp,1 # 1 <_start+0x1>
   11ca8:	00200293          	li	t0,2
   11cac:	fc521ce3          	bne	tp,t0,11c84 <test_20+0x8>

0000000000011cb0 <test_21>:
   11cb0:	01500e13          	li	t3,21
   11cb4:	00000213          	li	tp,0
   11cb8:	00f0009b          	addiw	ra,zero,15
   11cbc:	01c09093          	slli	ra,ra,0x1c
   11cc0:	fff08093          	addi	ra,ra,-1
   11cc4:	00000013          	nop
   11cc8:	00f0011b          	addiw	sp,zero,15
   11ccc:	01c11113          	slli	sp,sp,0x1c
   11cd0:	0a20f463          	bleu	sp,ra,11d78 <fail>
   11cd4:	00120213          	addi	tp,tp,1 # 1 <_start+0x1>
   11cd8:	00200293          	li	t0,2
   11cdc:	fc521ee3          	bne	tp,t0,11cb8 <test_21+0x8>

0000000000011ce0 <test_22>:
   11ce0:	01600e13          	li	t3,22
   11ce4:	00000213          	li	tp,0
   11ce8:	00f0009b          	addiw	ra,zero,15
   11cec:	01c09093          	slli	ra,ra,0x1c
   11cf0:	fff08093          	addi	ra,ra,-1
   11cf4:	00000013          	nop
   11cf8:	00f0011b          	addiw	sp,zero,15
   11cfc:	01c11113          	slli	sp,sp,0x1c
   11d00:	00000013          	nop
   11d04:	0620fa63          	bleu	sp,ra,11d78 <fail>
   11d08:	00120213          	addi	tp,tp,1 # 1 <_start+0x1>
   11d0c:	00200293          	li	t0,2
   11d10:	fc521ce3          	bne	tp,t0,11ce8 <test_22+0x8>

0000000000011d14 <test_23>:
   11d14:	01700e13          	li	t3,23
   11d18:	00000213          	li	tp,0
   11d1c:	00f0009b          	addiw	ra,zero,15
   11d20:	01c09093          	slli	ra,ra,0x1c
   11d24:	fff08093          	addi	ra,ra,-1
   11d28:	00000013          	nop
   11d2c:	00000013          	nop
   11d30:	00f0011b          	addiw	sp,zero,15
   11d34:	01c11113          	slli	sp,sp,0x1c
   11d38:	0420f063          	bleu	sp,ra,11d78 <fail>
   11d3c:	00120213          	addi	tp,tp,1 # 1 <_start+0x1>
   11d40:	00200293          	li	t0,2
   11d44:	fc521ce3          	bne	tp,t0,11d1c <test_23+0x8>

0000000000011d48 <test_24>:
   11d48:	00100093          	li	ra,1
   11d4c:	0000fa63          	bleu	zero,ra,11d60 <test_24+0x18>
   11d50:	00108093          	addi	ra,ra,1
   11d54:	00108093          	addi	ra,ra,1
   11d58:	00108093          	addi	ra,ra,1
   11d5c:	00108093          	addi	ra,ra,1
   11d60:	00108093          	addi	ra,ra,1
   11d64:	00108093          	addi	ra,ra,1
   11d68:	00300e93          	li	t4,3
   11d6c:	01800e13          	li	t3,24
   11d70:	01d09463          	bne	ra,t4,11d78 <fail>
   11d74:	05c01863          	bne	zero,t3,11dc4 <pass>

0000000000011d78 <fail>:
   11d78:	04500513          	li	a0,69
   11d7c:	00004137          	lui	sp,0x4
   11d80:	1880c0ef          	jal	ra,1df08 <printf_c>
   11d84:	05200513          	li	a0,82
   11d88:	00004137          	lui	sp,0x4
   11d8c:	17c0c0ef          	jal	ra,1df08 <printf_c>
   11d90:	00004137          	lui	sp,0x4
   11d94:	1740c0ef          	jal	ra,1df08 <printf_c>
   11d98:	04f00513          	li	a0,79
   11d9c:	00004137          	lui	sp,0x4
   11da0:	1680c0ef          	jal	ra,1df08 <printf_c>
   11da4:	00004137          	lui	sp,0x4
   11da8:	05200513          	li	a0,82
   11dac:	00004137          	lui	sp,0x4
   11db0:	1580c0ef          	jal	ra,1df08 <printf_c>
   11db4:	00a00513          	li	a0,10
   11db8:	00004137          	lui	sp,0x4
   11dbc:	14c0c0ef          	jal	ra,1df08 <printf_c>
   11dc0:	0340006f          	j	11df4 <blt>

0000000000011dc4 <pass>:
   11dc4:	04f00513          	li	a0,79
   11dc8:	00004137          	lui	sp,0x4
   11dcc:	13c0c0ef          	jal	ra,1df08 <printf_c>
   11dd0:	04b00513          	li	a0,75
   11dd4:	00004137          	lui	sp,0x4
   11dd8:	1300c0ef          	jal	ra,1df08 <printf_c>
   11ddc:	00a00513          	li	a0,10
   11de0:	00004137          	lui	sp,0x4
   11de4:	1240c0ef          	jal	ra,1df08 <printf_c>
   11de8:	00c0006f          	j	11df4 <blt>

0000000000011dec <.test_name>:
   11dec:	6c62                	ld	s8,24(sp)
   11dee:	2074                	fld	fa3,192(s0)
   11df0:	0009                	c.addi	zero,2
	...

0000000000011df4 <blt>:
   11df4:	00012537          	lui	a0,0x12
   11df8:	dec50513          	addi	a0,a0,-532 # 11dec <.test_name>

0000000000011dfc <.prname_next>:
   11dfc:	00004137          	lui	sp,0x4
   11e00:	1340c0ef          	jal	ra,1df34 <printf_s>

0000000000011e04 <test_2>:
   11e04:	00200e13          	li	t3,2
   11e08:	00000093          	li	ra,0
   11e0c:	00100113          	li	sp,1
   11e10:	0020c663          	blt	ra,sp,11e1c <test_2+0x18>
   11e14:	2bc01863          	bne	zero,t3,120c4 <fail>
   11e18:	01c01663          	bne	zero,t3,11e24 <test_3>
   11e1c:	fe20cee3          	blt	ra,sp,11e18 <test_2+0x14>
   11e20:	2bc01263          	bne	zero,t3,120c4 <fail>

0000000000011e24 <test_3>:
   11e24:	00300e13          	li	t3,3
   11e28:	fff00093          	li	ra,-1
   11e2c:	00100113          	li	sp,1
   11e30:	0020c663          	blt	ra,sp,11e3c <test_3+0x18>
   11e34:	29c01863          	bne	zero,t3,120c4 <fail>
   11e38:	01c01663          	bne	zero,t3,11e44 <test_4>
   11e3c:	fe20cee3          	blt	ra,sp,11e38 <test_3+0x14>
   11e40:	29c01263          	bne	zero,t3,120c4 <fail>

0000000000011e44 <test_4>:
   11e44:	00400e13          	li	t3,4
   11e48:	ffe00093          	li	ra,-2
   11e4c:	fff00113          	li	sp,-1
   11e50:	0020c663          	blt	ra,sp,11e5c <test_4+0x18>
   11e54:	27c01863          	bne	zero,t3,120c4 <fail>
   11e58:	01c01663          	bne	zero,t3,11e64 <test_5>
   11e5c:	fe20cee3          	blt	ra,sp,11e58 <test_4+0x14>
   11e60:	27c01263          	bne	zero,t3,120c4 <fail>

0000000000011e64 <test_5>:
   11e64:	00500e13          	li	t3,5
   11e68:	00100093          	li	ra,1
   11e6c:	00000113          	li	sp,0
   11e70:	0020c463          	blt	ra,sp,11e78 <test_5+0x14>
   11e74:	01c01463          	bne	zero,t3,11e7c <test_5+0x18>
   11e78:	25c01663          	bne	zero,t3,120c4 <fail>
   11e7c:	fe20cee3          	blt	ra,sp,11e78 <test_5+0x14>

0000000000011e80 <test_6>:
   11e80:	00600e13          	li	t3,6
   11e84:	00100093          	li	ra,1
   11e88:	fff00113          	li	sp,-1
   11e8c:	0020c463          	blt	ra,sp,11e94 <test_6+0x14>
   11e90:	01c01463          	bne	zero,t3,11e98 <test_6+0x18>
   11e94:	23c01863          	bne	zero,t3,120c4 <fail>
   11e98:	fe20cee3          	blt	ra,sp,11e94 <test_6+0x14>

0000000000011e9c <test_7>:
   11e9c:	00700e13          	li	t3,7
   11ea0:	fff00093          	li	ra,-1
   11ea4:	ffe00113          	li	sp,-2
   11ea8:	0020c463          	blt	ra,sp,11eb0 <test_7+0x14>
   11eac:	01c01463          	bne	zero,t3,11eb4 <test_7+0x18>
   11eb0:	21c01a63          	bne	zero,t3,120c4 <fail>
   11eb4:	fe20cee3          	blt	ra,sp,11eb0 <test_7+0x14>

0000000000011eb8 <test_8>:
   11eb8:	00800e13          	li	t3,8
   11ebc:	00100093          	li	ra,1
   11ec0:	ffe00113          	li	sp,-2
   11ec4:	0020c463          	blt	ra,sp,11ecc <test_8+0x14>
   11ec8:	01c01463          	bne	zero,t3,11ed0 <test_8+0x18>
   11ecc:	1fc01c63          	bne	zero,t3,120c4 <fail>
   11ed0:	fe20cee3          	blt	ra,sp,11ecc <test_8+0x14>

0000000000011ed4 <test_9>:
   11ed4:	00900e13          	li	t3,9
   11ed8:	00000213          	li	tp,0
   11edc:	00000093          	li	ra,0
   11ee0:	fff00113          	li	sp,-1
   11ee4:	1e20c063          	blt	ra,sp,120c4 <fail>
   11ee8:	00120213          	addi	tp,tp,1 # 1 <_start+0x1>
   11eec:	00200293          	li	t0,2
   11ef0:	fe5216e3          	bne	tp,t0,11edc <test_9+0x8>

0000000000011ef4 <test_10>:
   11ef4:	00a00e13          	li	t3,10
   11ef8:	00000213          	li	tp,0
   11efc:	00000093          	li	ra,0
   11f00:	fff00113          	li	sp,-1
   11f04:	00000013          	nop
   11f08:	1a20ce63          	blt	ra,sp,120c4 <fail>
   11f0c:	00120213          	addi	tp,tp,1 # 1 <_start+0x1>
   11f10:	00200293          	li	t0,2
   11f14:	fe5214e3          	bne	tp,t0,11efc <test_10+0x8>

0000000000011f18 <test_11>:
   11f18:	00b00e13          	li	t3,11
   11f1c:	00000213          	li	tp,0
   11f20:	00000093          	li	ra,0
   11f24:	fff00113          	li	sp,-1
   11f28:	00000013          	nop
   11f2c:	00000013          	nop
   11f30:	1820ca63          	blt	ra,sp,120c4 <fail>
   11f34:	00120213          	addi	tp,tp,1 # 1 <_start+0x1>
   11f38:	00200293          	li	t0,2
   11f3c:	fe5212e3          	bne	tp,t0,11f20 <test_11+0x8>

0000000000011f40 <test_12>:
   11f40:	00c00e13          	li	t3,12
   11f44:	00000213          	li	tp,0
   11f48:	00000093          	li	ra,0
   11f4c:	00000013          	nop
   11f50:	fff00113          	li	sp,-1
   11f54:	1620c863          	blt	ra,sp,120c4 <fail>
   11f58:	00120213          	addi	tp,tp,1 # 1 <_start+0x1>
   11f5c:	00200293          	li	t0,2
   11f60:	fe5214e3          	bne	tp,t0,11f48 <test_12+0x8>

0000000000011f64 <test_13>:
   11f64:	00d00e13          	li	t3,13
   11f68:	00000213          	li	tp,0
   11f6c:	00000093          	li	ra,0
   11f70:	00000013          	nop
   11f74:	fff00113          	li	sp,-1
   11f78:	00000013          	nop
   11f7c:	1420c463          	blt	ra,sp,120c4 <fail>
   11f80:	00120213          	addi	tp,tp,1 # 1 <_start+0x1>
   11f84:	00200293          	li	t0,2
   11f88:	fe5212e3          	bne	tp,t0,11f6c <test_13+0x8>

0000000000011f8c <test_14>:
   11f8c:	00e00e13          	li	t3,14
   11f90:	00000213          	li	tp,0
   11f94:	00000093          	li	ra,0
   11f98:	00000013          	nop
   11f9c:	00000013          	nop
   11fa0:	fff00113          	li	sp,-1
   11fa4:	1220c063          	blt	ra,sp,120c4 <fail>
   11fa8:	00120213          	addi	tp,tp,1 # 1 <_start+0x1>
   11fac:	00200293          	li	t0,2
   11fb0:	fe5212e3          	bne	tp,t0,11f94 <test_14+0x8>

0000000000011fb4 <test_15>:
   11fb4:	00f00e13          	li	t3,15
   11fb8:	00000213          	li	tp,0
   11fbc:	00000093          	li	ra,0
   11fc0:	fff00113          	li	sp,-1
   11fc4:	1020c063          	blt	ra,sp,120c4 <fail>
   11fc8:	00120213          	addi	tp,tp,1 # 1 <_start+0x1>
   11fcc:	00200293          	li	t0,2
   11fd0:	fe5216e3          	bne	tp,t0,11fbc <test_15+0x8>

0000000000011fd4 <test_16>:
   11fd4:	01000e13          	li	t3,16
   11fd8:	00000213          	li	tp,0
   11fdc:	00000093          	li	ra,0
   11fe0:	fff00113          	li	sp,-1
   11fe4:	00000013          	nop
   11fe8:	0c20ce63          	blt	ra,sp,120c4 <fail>
   11fec:	00120213          	addi	tp,tp,1 # 1 <_start+0x1>
   11ff0:	00200293          	li	t0,2
   11ff4:	fe5214e3          	bne	tp,t0,11fdc <test_16+0x8>

0000000000011ff8 <test_17>:
   11ff8:	01100e13          	li	t3,17
   11ffc:	00000213          	li	tp,0
   12000:	00000093          	li	ra,0
   12004:	fff00113          	li	sp,-1
   12008:	00000013          	nop
   1200c:	00000013          	nop
   12010:	0a20ca63          	blt	ra,sp,120c4 <fail>
   12014:	00120213          	addi	tp,tp,1 # 1 <_start+0x1>
   12018:	00200293          	li	t0,2
   1201c:	fe5212e3          	bne	tp,t0,12000 <test_17+0x8>

0000000000012020 <test_18>:
   12020:	01200e13          	li	t3,18
   12024:	00000213          	li	tp,0
   12028:	00000093          	li	ra,0
   1202c:	00000013          	nop
   12030:	fff00113          	li	sp,-1
   12034:	0820c863          	blt	ra,sp,120c4 <fail>
   12038:	00120213          	addi	tp,tp,1 # 1 <_start+0x1>
   1203c:	00200293          	li	t0,2
   12040:	fe5214e3          	bne	tp,t0,12028 <test_18+0x8>

0000000000012044 <test_19>:
   12044:	01300e13          	li	t3,19
   12048:	00000213          	li	tp,0
   1204c:	00000093          	li	ra,0
   12050:	00000013          	nop
   12054:	fff00113          	li	sp,-1
   12058:	00000013          	nop
   1205c:	0620c463          	blt	ra,sp,120c4 <fail>
   12060:	00120213          	addi	tp,tp,1 # 1 <_start+0x1>
   12064:	00200293          	li	t0,2
   12068:	fe5212e3          	bne	tp,t0,1204c <test_19+0x8>

000000000001206c <test_20>:
   1206c:	01400e13          	li	t3,20
   12070:	00000213          	li	tp,0
   12074:	00000093          	li	ra,0
   12078:	00000013          	nop
   1207c:	00000013          	nop
   12080:	fff00113          	li	sp,-1
   12084:	0420c063          	blt	ra,sp,120c4 <fail>
   12088:	00120213          	addi	tp,tp,1 # 1 <_start+0x1>
   1208c:	00200293          	li	t0,2
   12090:	fe5212e3          	bne	tp,t0,12074 <test_20+0x8>

0000000000012094 <test_21>:
   12094:	00100093          	li	ra,1
   12098:	00104a63          	bgtz	ra,120ac <test_21+0x18>
   1209c:	00108093          	addi	ra,ra,1
   120a0:	00108093          	addi	ra,ra,1
   120a4:	00108093          	addi	ra,ra,1
   120a8:	00108093          	addi	ra,ra,1
   120ac:	00108093          	addi	ra,ra,1
   120b0:	00108093          	addi	ra,ra,1
   120b4:	00300e93          	li	t4,3
   120b8:	01500e13          	li	t3,21
   120bc:	01d09463          	bne	ra,t4,120c4 <fail>
   120c0:	05c01863          	bne	zero,t3,12110 <pass>

00000000000120c4 <fail>:
   120c4:	04500513          	li	a0,69
   120c8:	00004137          	lui	sp,0x4
   120cc:	63d0b0ef          	jal	ra,1df08 <printf_c>
   120d0:	05200513          	li	a0,82
   120d4:	00004137          	lui	sp,0x4
   120d8:	6310b0ef          	jal	ra,1df08 <printf_c>
   120dc:	00004137          	lui	sp,0x4
   120e0:	6290b0ef          	jal	ra,1df08 <printf_c>
   120e4:	04f00513          	li	a0,79
   120e8:	00004137          	lui	sp,0x4
   120ec:	61d0b0ef          	jal	ra,1df08 <printf_c>
   120f0:	00004137          	lui	sp,0x4
   120f4:	05200513          	li	a0,82
   120f8:	00004137          	lui	sp,0x4
   120fc:	60d0b0ef          	jal	ra,1df08 <printf_c>
   12100:	00a00513          	li	a0,10
   12104:	00004137          	lui	sp,0x4
   12108:	6010b0ef          	jal	ra,1df08 <printf_c>
   1210c:	0340006f          	j	12140 <bltu>

0000000000012110 <pass>:
   12110:	04f00513          	li	a0,79
   12114:	00004137          	lui	sp,0x4
   12118:	5f10b0ef          	jal	ra,1df08 <printf_c>
   1211c:	04b00513          	li	a0,75
   12120:	00004137          	lui	sp,0x4
   12124:	5e50b0ef          	jal	ra,1df08 <printf_c>
   12128:	00a00513          	li	a0,10
   1212c:	00004137          	lui	sp,0x4
   12130:	5d90b0ef          	jal	ra,1df08 <printf_c>
   12134:	00c0006f          	j	12140 <bltu>

0000000000012138 <.test_name>:
   12138:	6c62                	ld	s8,24(sp)
   1213a:	7574                	ld	a3,232(a0)
   1213c:	0920                	addi	s0,sp,152
	...

0000000000012140 <bltu>:
   12140:	00012537          	lui	a0,0x12
   12144:	13850513          	addi	a0,a0,312 # 12138 <.test_name>

0000000000012148 <.prname_next>:
   12148:	00004137          	lui	sp,0x4
   1214c:	5e90b0ef          	jal	ra,1df34 <printf_s>

0000000000012150 <test_2>:
   12150:	00200e13          	li	t3,2
   12154:	00000093          	li	ra,0
   12158:	00100113          	li	sp,1
   1215c:	0020e663          	bltu	ra,sp,12168 <test_2+0x18>
   12160:	37c01c63          	bne	zero,t3,124d8 <fail>
   12164:	01c01663          	bne	zero,t3,12170 <test_3>
   12168:	fe20eee3          	bltu	ra,sp,12164 <test_2+0x14>
   1216c:	37c01663          	bne	zero,t3,124d8 <fail>

0000000000012170 <test_3>:
   12170:	00300e13          	li	t3,3
   12174:	0010009b          	addiw	ra,zero,1
   12178:	02009093          	slli	ra,ra,0x20
   1217c:	ffe08093          	addi	ra,ra,-2
   12180:	0010011b          	addiw	sp,zero,1
   12184:	02011113          	slli	sp,sp,0x20
   12188:	fff10113          	addi	sp,sp,-1 # 3fff <coremarkBenchmark+0x3f57>
   1218c:	0020e663          	bltu	ra,sp,12198 <test_3+0x28>
   12190:	35c01463          	bne	zero,t3,124d8 <fail>
   12194:	01c01663          	bne	zero,t3,121a0 <test_4>
   12198:	fe20eee3          	bltu	ra,sp,12194 <test_3+0x24>
   1219c:	33c01e63          	bne	zero,t3,124d8 <fail>

00000000000121a0 <test_4>:
   121a0:	00400e13          	li	t3,4
   121a4:	00000093          	li	ra,0
   121a8:	0010011b          	addiw	sp,zero,1
   121ac:	02011113          	slli	sp,sp,0x20
   121b0:	fff10113          	addi	sp,sp,-1
   121b4:	0020e663          	bltu	ra,sp,121c0 <test_4+0x20>
   121b8:	33c01063          	bne	zero,t3,124d8 <fail>
   121bc:	01c01663          	bne	zero,t3,121c8 <test_5>
   121c0:	fe20eee3          	bltu	ra,sp,121bc <test_4+0x1c>
   121c4:	31c01a63          	bne	zero,t3,124d8 <fail>

00000000000121c8 <test_5>:
   121c8:	00500e13          	li	t3,5
   121cc:	00100093          	li	ra,1
   121d0:	00000113          	li	sp,0
   121d4:	0020e463          	bltu	ra,sp,121dc <test_5+0x14>
   121d8:	01c01463          	bne	zero,t3,121e0 <test_5+0x18>
   121dc:	2fc01e63          	bne	zero,t3,124d8 <fail>
   121e0:	fe20eee3          	bltu	ra,sp,121dc <test_5+0x14>

00000000000121e4 <test_6>:
   121e4:	00600e13          	li	t3,6
   121e8:	0010009b          	addiw	ra,zero,1
   121ec:	02009093          	slli	ra,ra,0x20
   121f0:	fff08093          	addi	ra,ra,-1
   121f4:	0010011b          	addiw	sp,zero,1
   121f8:	02011113          	slli	sp,sp,0x20
   121fc:	ffe10113          	addi	sp,sp,-2
   12200:	0020e463          	bltu	ra,sp,12208 <test_6+0x24>
   12204:	01c01463          	bne	zero,t3,1220c <test_6+0x28>
   12208:	2dc01863          	bne	zero,t3,124d8 <fail>
   1220c:	fe20eee3          	bltu	ra,sp,12208 <test_6+0x24>

0000000000012210 <test_7>:
   12210:	00700e13          	li	t3,7
   12214:	0010009b          	addiw	ra,zero,1
   12218:	02009093          	slli	ra,ra,0x20
   1221c:	fff08093          	addi	ra,ra,-1
   12220:	00000113          	li	sp,0
   12224:	0020e463          	bltu	ra,sp,1222c <test_7+0x1c>
   12228:	01c01463          	bne	zero,t3,12230 <test_7+0x20>
   1222c:	2bc01663          	bne	zero,t3,124d8 <fail>
   12230:	fe20eee3          	bltu	ra,sp,1222c <test_7+0x1c>

0000000000012234 <test_8>:
   12234:	00800e13          	li	t3,8
   12238:	0010009b          	addiw	ra,zero,1
   1223c:	01f09093          	slli	ra,ra,0x1f
   12240:	80000137          	lui	sp,0x80000
   12244:	fff1011b          	addiw	sp,sp,-1
   12248:	0020e463          	bltu	ra,sp,12250 <test_8+0x1c>
   1224c:	01c01463          	bne	zero,t3,12254 <test_8+0x20>
   12250:	29c01463          	bne	zero,t3,124d8 <fail>
   12254:	fe20eee3          	bltu	ra,sp,12250 <test_8+0x1c>

0000000000012258 <test_9>:
   12258:	00900e13          	li	t3,9
   1225c:	00000213          	li	tp,0
   12260:	00f0009b          	addiw	ra,zero,15
   12264:	01c09093          	slli	ra,ra,0x1c
   12268:	00f0011b          	addiw	sp,zero,15
   1226c:	01c11113          	slli	sp,sp,0x1c
   12270:	fff10113          	addi	sp,sp,-1 # ffffffff7fffffff <heap_memory_used+0xffffffff7ffddd47>
   12274:	2620e263          	bltu	ra,sp,124d8 <fail>
   12278:	00120213          	addi	tp,tp,1 # 1 <_start+0x1>
   1227c:	00200293          	li	t0,2
   12280:	fe5210e3          	bne	tp,t0,12260 <test_9+0x8>

0000000000012284 <test_10>:
   12284:	00a00e13          	li	t3,10
   12288:	00000213          	li	tp,0
   1228c:	00f0009b          	addiw	ra,zero,15
   12290:	01c09093          	slli	ra,ra,0x1c
   12294:	00f0011b          	addiw	sp,zero,15
   12298:	01c11113          	slli	sp,sp,0x1c
   1229c:	fff10113          	addi	sp,sp,-1
   122a0:	00000013          	nop
   122a4:	2220ea63          	bltu	ra,sp,124d8 <fail>
   122a8:	00120213          	addi	tp,tp,1 # 1 <_start+0x1>
   122ac:	00200293          	li	t0,2
   122b0:	fc521ee3          	bne	tp,t0,1228c <test_10+0x8>

00000000000122b4 <test_11>:
   122b4:	00b00e13          	li	t3,11
   122b8:	00000213          	li	tp,0
   122bc:	00f0009b          	addiw	ra,zero,15
   122c0:	01c09093          	slli	ra,ra,0x1c
   122c4:	00f0011b          	addiw	sp,zero,15
   122c8:	01c11113          	slli	sp,sp,0x1c
   122cc:	fff10113          	addi	sp,sp,-1
   122d0:	00000013          	nop
   122d4:	00000013          	nop
   122d8:	2020e063          	bltu	ra,sp,124d8 <fail>
   122dc:	00120213          	addi	tp,tp,1 # 1 <_start+0x1>
   122e0:	00200293          	li	t0,2
   122e4:	fc521ce3          	bne	tp,t0,122bc <test_11+0x8>

00000000000122e8 <test_12>:
   122e8:	00c00e13          	li	t3,12
   122ec:	00000213          	li	tp,0
   122f0:	00f0009b          	addiw	ra,zero,15
   122f4:	01c09093          	slli	ra,ra,0x1c
   122f8:	00000013          	nop
   122fc:	00f0011b          	addiw	sp,zero,15
   12300:	01c11113          	slli	sp,sp,0x1c
   12304:	fff10113          	addi	sp,sp,-1
   12308:	1c20e863          	bltu	ra,sp,124d8 <fail>
   1230c:	00120213          	addi	tp,tp,1 # 1 <_start+0x1>
   12310:	00200293          	li	t0,2
   12314:	fc521ee3          	bne	tp,t0,122f0 <test_12+0x8>

0000000000012318 <test_13>:
   12318:	00d00e13          	li	t3,13
   1231c:	00000213          	li	tp,0
   12320:	00f0009b          	addiw	ra,zero,15
   12324:	01c09093          	slli	ra,ra,0x1c
   12328:	00000013          	nop
   1232c:	00f0011b          	addiw	sp,zero,15
   12330:	01c11113          	slli	sp,sp,0x1c
   12334:	fff10113          	addi	sp,sp,-1
   12338:	00000013          	nop
   1233c:	1820ee63          	bltu	ra,sp,124d8 <fail>
   12340:	00120213          	addi	tp,tp,1 # 1 <_start+0x1>
   12344:	00200293          	li	t0,2
   12348:	fc521ce3          	bne	tp,t0,12320 <test_13+0x8>

000000000001234c <test_14>:
   1234c:	00e00e13          	li	t3,14
   12350:	00000213          	li	tp,0
   12354:	00f0009b          	addiw	ra,zero,15
   12358:	01c09093          	slli	ra,ra,0x1c
   1235c:	00000013          	nop
   12360:	00000013          	nop
   12364:	00f0011b          	addiw	sp,zero,15
   12368:	01c11113          	slli	sp,sp,0x1c
   1236c:	fff10113          	addi	sp,sp,-1
   12370:	1620e463          	bltu	ra,sp,124d8 <fail>
   12374:	00120213          	addi	tp,tp,1 # 1 <_start+0x1>
   12378:	00200293          	li	t0,2
   1237c:	fc521ce3          	bne	tp,t0,12354 <test_14+0x8>

0000000000012380 <test_15>:
   12380:	00f00e13          	li	t3,15
   12384:	00000213          	li	tp,0
   12388:	00f0009b          	addiw	ra,zero,15
   1238c:	01c09093          	slli	ra,ra,0x1c
   12390:	00f0011b          	addiw	sp,zero,15
   12394:	01c11113          	slli	sp,sp,0x1c
   12398:	fff10113          	addi	sp,sp,-1
   1239c:	1220ee63          	bltu	ra,sp,124d8 <fail>
   123a0:	00120213          	addi	tp,tp,1 # 1 <_start+0x1>
   123a4:	00200293          	li	t0,2
   123a8:	fe5210e3          	bne	tp,t0,12388 <test_15+0x8>

00000000000123ac <test_16>:
   123ac:	01000e13          	li	t3,16
   123b0:	00000213          	li	tp,0
   123b4:	00f0009b          	addiw	ra,zero,15
   123b8:	01c09093          	slli	ra,ra,0x1c
   123bc:	00f0011b          	addiw	sp,zero,15
   123c0:	01c11113          	slli	sp,sp,0x1c
   123c4:	fff10113          	addi	sp,sp,-1
   123c8:	00000013          	nop
   123cc:	1020e663          	bltu	ra,sp,124d8 <fail>
   123d0:	00120213          	addi	tp,tp,1 # 1 <_start+0x1>
   123d4:	00200293          	li	t0,2
   123d8:	fc521ee3          	bne	tp,t0,123b4 <test_16+0x8>

00000000000123dc <test_17>:
   123dc:	01100e13          	li	t3,17
   123e0:	00000213          	li	tp,0
   123e4:	00f0009b          	addiw	ra,zero,15
   123e8:	01c09093          	slli	ra,ra,0x1c
   123ec:	00f0011b          	addiw	sp,zero,15
   123f0:	01c11113          	slli	sp,sp,0x1c
   123f4:	fff10113          	addi	sp,sp,-1
   123f8:	00000013          	nop
   123fc:	00000013          	nop
   12400:	0c20ec63          	bltu	ra,sp,124d8 <fail>
   12404:	00120213          	addi	tp,tp,1 # 1 <_start+0x1>
   12408:	00200293          	li	t0,2
   1240c:	fc521ce3          	bne	tp,t0,123e4 <test_17+0x8>

0000000000012410 <test_18>:
   12410:	01200e13          	li	t3,18
   12414:	00000213          	li	tp,0
   12418:	00f0009b          	addiw	ra,zero,15
   1241c:	01c09093          	slli	ra,ra,0x1c
   12420:	00000013          	nop
   12424:	00f0011b          	addiw	sp,zero,15
   12428:	01c11113          	slli	sp,sp,0x1c
   1242c:	fff10113          	addi	sp,sp,-1
   12430:	0a20e463          	bltu	ra,sp,124d8 <fail>
   12434:	00120213          	addi	tp,tp,1 # 1 <_start+0x1>
   12438:	00200293          	li	t0,2
   1243c:	fc521ee3          	bne	tp,t0,12418 <test_18+0x8>

0000000000012440 <test_19>:
   12440:	01300e13          	li	t3,19
   12444:	00000213          	li	tp,0
   12448:	00f0009b          	addiw	ra,zero,15
   1244c:	01c09093          	slli	ra,ra,0x1c
   12450:	00000013          	nop
   12454:	00f0011b          	addiw	sp,zero,15
   12458:	01c11113          	slli	sp,sp,0x1c
   1245c:	fff10113          	addi	sp,sp,-1
   12460:	00000013          	nop
   12464:	0620ea63          	bltu	ra,sp,124d8 <fail>
   12468:	00120213          	addi	tp,tp,1 # 1 <_start+0x1>
   1246c:	00200293          	li	t0,2
   12470:	fc521ce3          	bne	tp,t0,12448 <test_19+0x8>

0000000000012474 <test_20>:
   12474:	01400e13          	li	t3,20
   12478:	00000213          	li	tp,0
   1247c:	00f0009b          	addiw	ra,zero,15
   12480:	01c09093          	slli	ra,ra,0x1c
   12484:	00000013          	nop
   12488:	00000013          	nop
   1248c:	00f0011b          	addiw	sp,zero,15
   12490:	01c11113          	slli	sp,sp,0x1c
   12494:	fff10113          	addi	sp,sp,-1
   12498:	0420e063          	bltu	ra,sp,124d8 <fail>
   1249c:	00120213          	addi	tp,tp,1 # 1 <_start+0x1>
   124a0:	00200293          	li	t0,2
   124a4:	fc521ce3          	bne	tp,t0,1247c <test_20+0x8>

00000000000124a8 <test_21>:
   124a8:	00100093          	li	ra,1
   124ac:	00106a63          	bltu	zero,ra,124c0 <test_21+0x18>
   124b0:	00108093          	addi	ra,ra,1
   124b4:	00108093          	addi	ra,ra,1
   124b8:	00108093          	addi	ra,ra,1
   124bc:	00108093          	addi	ra,ra,1
   124c0:	00108093          	addi	ra,ra,1
   124c4:	00108093          	addi	ra,ra,1
   124c8:	00300e93          	li	t4,3
   124cc:	01500e13          	li	t3,21
   124d0:	01d09463          	bne	ra,t4,124d8 <fail>
   124d4:	05c01863          	bne	zero,t3,12524 <pass>

00000000000124d8 <fail>:
   124d8:	04500513          	li	a0,69
   124dc:	00004137          	lui	sp,0x4
   124e0:	2290b0ef          	jal	ra,1df08 <printf_c>
   124e4:	05200513          	li	a0,82
   124e8:	00004137          	lui	sp,0x4
   124ec:	21d0b0ef          	jal	ra,1df08 <printf_c>
   124f0:	00004137          	lui	sp,0x4
   124f4:	2150b0ef          	jal	ra,1df08 <printf_c>
   124f8:	04f00513          	li	a0,79
   124fc:	00004137          	lui	sp,0x4
   12500:	2090b0ef          	jal	ra,1df08 <printf_c>
   12504:	00004137          	lui	sp,0x4
   12508:	05200513          	li	a0,82
   1250c:	00004137          	lui	sp,0x4
   12510:	1f90b0ef          	jal	ra,1df08 <printf_c>
   12514:	00a00513          	li	a0,10
   12518:	00004137          	lui	sp,0x4
   1251c:	1ed0b0ef          	jal	ra,1df08 <printf_c>
   12520:	0340006f          	j	12554 <bne>

0000000000012524 <pass>:
   12524:	04f00513          	li	a0,79
   12528:	00004137          	lui	sp,0x4
   1252c:	1dd0b0ef          	jal	ra,1df08 <printf_c>
   12530:	04b00513          	li	a0,75
   12534:	00004137          	lui	sp,0x4
   12538:	1d10b0ef          	jal	ra,1df08 <printf_c>
   1253c:	00a00513          	li	a0,10
   12540:	00004137          	lui	sp,0x4
   12544:	1c50b0ef          	jal	ra,1df08 <printf_c>
   12548:	00c0006f          	j	12554 <bne>

000000000001254c <.test_name>:
   1254c:	6e62                	ld	t3,24(sp)
   1254e:	2065                	0x2065
   12550:	0009                	c.addi	zero,2
	...

0000000000012554 <bne>:
   12554:	00012537          	lui	a0,0x12
   12558:	54c50513          	addi	a0,a0,1356 # 1254c <.test_name>

000000000001255c <.prname_next>:
   1255c:	00004137          	lui	sp,0x4
   12560:	1d50b0ef          	jal	ra,1df34 <printf_s>

0000000000012564 <test_2>:
   12564:	00200e13          	li	t3,2
   12568:	00000093          	li	ra,0
   1256c:	00100113          	li	sp,1
   12570:	00209663          	bne	ra,sp,1257c <test_2+0x18>
   12574:	2bc01a63          	bne	zero,t3,12828 <fail>
   12578:	01c01663          	bne	zero,t3,12584 <test_3>
   1257c:	fe209ee3          	bne	ra,sp,12578 <test_2+0x14>
   12580:	2bc01463          	bne	zero,t3,12828 <fail>

0000000000012584 <test_3>:
   12584:	00300e13          	li	t3,3
   12588:	00100093          	li	ra,1
   1258c:	00000113          	li	sp,0
   12590:	00209663          	bne	ra,sp,1259c <test_3+0x18>
   12594:	29c01a63          	bne	zero,t3,12828 <fail>
   12598:	01c01663          	bne	zero,t3,125a4 <test_4>
   1259c:	fe209ee3          	bne	ra,sp,12598 <test_3+0x14>
   125a0:	29c01463          	bne	zero,t3,12828 <fail>

00000000000125a4 <test_4>:
   125a4:	00400e13          	li	t3,4
   125a8:	fff00093          	li	ra,-1
   125ac:	00100113          	li	sp,1
   125b0:	00209663          	bne	ra,sp,125bc <test_4+0x18>
   125b4:	27c01a63          	bne	zero,t3,12828 <fail>
   125b8:	01c01663          	bne	zero,t3,125c4 <test_5>
   125bc:	fe209ee3          	bne	ra,sp,125b8 <test_4+0x14>
   125c0:	27c01463          	bne	zero,t3,12828 <fail>

00000000000125c4 <test_5>:
   125c4:	00500e13          	li	t3,5
   125c8:	00100093          	li	ra,1
   125cc:	fff00113          	li	sp,-1
   125d0:	00209663          	bne	ra,sp,125dc <test_5+0x18>
   125d4:	25c01a63          	bne	zero,t3,12828 <fail>
   125d8:	01c01663          	bne	zero,t3,125e4 <test_6>
   125dc:	fe209ee3          	bne	ra,sp,125d8 <test_5+0x14>
   125e0:	25c01463          	bne	zero,t3,12828 <fail>

00000000000125e4 <test_6>:
   125e4:	00600e13          	li	t3,6
   125e8:	00000093          	li	ra,0
   125ec:	00000113          	li	sp,0
   125f0:	00209463          	bne	ra,sp,125f8 <test_6+0x14>
   125f4:	01c01463          	bne	zero,t3,125fc <test_6+0x18>
   125f8:	23c01863          	bne	zero,t3,12828 <fail>
   125fc:	fe209ee3          	bne	ra,sp,125f8 <test_6+0x14>

0000000000012600 <test_7>:
   12600:	00700e13          	li	t3,7
   12604:	00100093          	li	ra,1
   12608:	00100113          	li	sp,1
   1260c:	00209463          	bne	ra,sp,12614 <test_7+0x14>
   12610:	01c01463          	bne	zero,t3,12618 <test_7+0x18>
   12614:	21c01a63          	bne	zero,t3,12828 <fail>
   12618:	fe209ee3          	bne	ra,sp,12614 <test_7+0x14>

000000000001261c <test_8>:
   1261c:	00800e13          	li	t3,8
   12620:	fff00093          	li	ra,-1
   12624:	fff00113          	li	sp,-1
   12628:	00209463          	bne	ra,sp,12630 <test_8+0x14>
   1262c:	01c01463          	bne	zero,t3,12634 <test_8+0x18>
   12630:	1fc01c63          	bne	zero,t3,12828 <fail>
   12634:	fe209ee3          	bne	ra,sp,12630 <test_8+0x14>

0000000000012638 <test_9>:
   12638:	00900e13          	li	t3,9
   1263c:	00000213          	li	tp,0
   12640:	00000093          	li	ra,0
   12644:	00000113          	li	sp,0
   12648:	1e209063          	bne	ra,sp,12828 <fail>
   1264c:	00120213          	addi	tp,tp,1 # 1 <_start+0x1>
   12650:	00200293          	li	t0,2
   12654:	fe5216e3          	bne	tp,t0,12640 <test_9+0x8>

0000000000012658 <test_10>:
   12658:	00a00e13          	li	t3,10
   1265c:	00000213          	li	tp,0
   12660:	00000093          	li	ra,0
   12664:	00000113          	li	sp,0
   12668:	00000013          	nop
   1266c:	1a209e63          	bne	ra,sp,12828 <fail>
   12670:	00120213          	addi	tp,tp,1 # 1 <_start+0x1>
   12674:	00200293          	li	t0,2
   12678:	fe5214e3          	bne	tp,t0,12660 <test_10+0x8>

000000000001267c <test_11>:
   1267c:	00b00e13          	li	t3,11
   12680:	00000213          	li	tp,0
   12684:	00000093          	li	ra,0
   12688:	00000113          	li	sp,0
   1268c:	00000013          	nop
   12690:	00000013          	nop
   12694:	18209a63          	bne	ra,sp,12828 <fail>
   12698:	00120213          	addi	tp,tp,1 # 1 <_start+0x1>
   1269c:	00200293          	li	t0,2
   126a0:	fe5212e3          	bne	tp,t0,12684 <test_11+0x8>

00000000000126a4 <test_12>:
   126a4:	00c00e13          	li	t3,12
   126a8:	00000213          	li	tp,0
   126ac:	00000093          	li	ra,0
   126b0:	00000013          	nop
   126b4:	00000113          	li	sp,0
   126b8:	16209863          	bne	ra,sp,12828 <fail>
   126bc:	00120213          	addi	tp,tp,1 # 1 <_start+0x1>
   126c0:	00200293          	li	t0,2
   126c4:	fe5214e3          	bne	tp,t0,126ac <test_12+0x8>

00000000000126c8 <test_13>:
   126c8:	00d00e13          	li	t3,13
   126cc:	00000213          	li	tp,0
   126d0:	00000093          	li	ra,0
   126d4:	00000013          	nop
   126d8:	00000113          	li	sp,0
   126dc:	00000013          	nop
   126e0:	14209463          	bne	ra,sp,12828 <fail>
   126e4:	00120213          	addi	tp,tp,1 # 1 <_start+0x1>
   126e8:	00200293          	li	t0,2
   126ec:	fe5212e3          	bne	tp,t0,126d0 <test_13+0x8>

00000000000126f0 <test_14>:
   126f0:	00e00e13          	li	t3,14
   126f4:	00000213          	li	tp,0
   126f8:	00000093          	li	ra,0
   126fc:	00000013          	nop
   12700:	00000013          	nop
   12704:	00000113          	li	sp,0
   12708:	12209063          	bne	ra,sp,12828 <fail>
   1270c:	00120213          	addi	tp,tp,1 # 1 <_start+0x1>
   12710:	00200293          	li	t0,2
   12714:	fe5212e3          	bne	tp,t0,126f8 <test_14+0x8>

0000000000012718 <test_15>:
   12718:	00f00e13          	li	t3,15
   1271c:	00000213          	li	tp,0
   12720:	00000093          	li	ra,0
   12724:	00000113          	li	sp,0
   12728:	10209063          	bne	ra,sp,12828 <fail>
   1272c:	00120213          	addi	tp,tp,1 # 1 <_start+0x1>
   12730:	00200293          	li	t0,2
   12734:	fe5216e3          	bne	tp,t0,12720 <test_15+0x8>

0000000000012738 <test_16>:
   12738:	01000e13          	li	t3,16
   1273c:	00000213          	li	tp,0
   12740:	00000093          	li	ra,0
   12744:	00000113          	li	sp,0
   12748:	00000013          	nop
   1274c:	0c209e63          	bne	ra,sp,12828 <fail>
   12750:	00120213          	addi	tp,tp,1 # 1 <_start+0x1>
   12754:	00200293          	li	t0,2
   12758:	fe5214e3          	bne	tp,t0,12740 <test_16+0x8>

000000000001275c <test_17>:
   1275c:	01100e13          	li	t3,17
   12760:	00000213          	li	tp,0
   12764:	00000093          	li	ra,0
   12768:	00000113          	li	sp,0
   1276c:	00000013          	nop
   12770:	00000013          	nop
   12774:	0a209a63          	bne	ra,sp,12828 <fail>
   12778:	00120213          	addi	tp,tp,1 # 1 <_start+0x1>
   1277c:	00200293          	li	t0,2
   12780:	fe5212e3          	bne	tp,t0,12764 <test_17+0x8>

0000000000012784 <test_18>:
   12784:	01200e13          	li	t3,18
   12788:	00000213          	li	tp,0
   1278c:	00000093          	li	ra,0
   12790:	00000013          	nop
   12794:	00000113          	li	sp,0
   12798:	08209863          	bne	ra,sp,12828 <fail>
   1279c:	00120213          	addi	tp,tp,1 # 1 <_start+0x1>
   127a0:	00200293          	li	t0,2
   127a4:	fe5214e3          	bne	tp,t0,1278c <test_18+0x8>

00000000000127a8 <test_19>:
   127a8:	01300e13          	li	t3,19
   127ac:	00000213          	li	tp,0
   127b0:	00000093          	li	ra,0
   127b4:	00000013          	nop
   127b8:	00000113          	li	sp,0
   127bc:	00000013          	nop
   127c0:	06209463          	bne	ra,sp,12828 <fail>
   127c4:	00120213          	addi	tp,tp,1 # 1 <_start+0x1>
   127c8:	00200293          	li	t0,2
   127cc:	fe5212e3          	bne	tp,t0,127b0 <test_19+0x8>

00000000000127d0 <test_20>:
   127d0:	01400e13          	li	t3,20
   127d4:	00000213          	li	tp,0
   127d8:	00000093          	li	ra,0
   127dc:	00000013          	nop
   127e0:	00000013          	nop
   127e4:	00000113          	li	sp,0
   127e8:	04209063          	bne	ra,sp,12828 <fail>
   127ec:	00120213          	addi	tp,tp,1 # 1 <_start+0x1>
   127f0:	00200293          	li	t0,2
   127f4:	fe5212e3          	bne	tp,t0,127d8 <test_20+0x8>

00000000000127f8 <test_21>:
   127f8:	00100093          	li	ra,1
   127fc:	00009a63          	bnez	ra,12810 <test_21+0x18>
   12800:	00108093          	addi	ra,ra,1
   12804:	00108093          	addi	ra,ra,1
   12808:	00108093          	addi	ra,ra,1
   1280c:	00108093          	addi	ra,ra,1
   12810:	00108093          	addi	ra,ra,1
   12814:	00108093          	addi	ra,ra,1
   12818:	00300e93          	li	t4,3
   1281c:	01500e13          	li	t3,21
   12820:	01d09463          	bne	ra,t4,12828 <fail>
   12824:	05c01863          	bne	zero,t3,12874 <pass>

0000000000012828 <fail>:
   12828:	04500513          	li	a0,69
   1282c:	00004137          	lui	sp,0x4
   12830:	6d80b0ef          	jal	ra,1df08 <printf_c>
   12834:	05200513          	li	a0,82
   12838:	00004137          	lui	sp,0x4
   1283c:	6cc0b0ef          	jal	ra,1df08 <printf_c>
   12840:	00004137          	lui	sp,0x4
   12844:	6c40b0ef          	jal	ra,1df08 <printf_c>
   12848:	04f00513          	li	a0,79
   1284c:	00004137          	lui	sp,0x4
   12850:	6b80b0ef          	jal	ra,1df08 <printf_c>
   12854:	00004137          	lui	sp,0x4
   12858:	05200513          	li	a0,82
   1285c:	00004137          	lui	sp,0x4
   12860:	6a80b0ef          	jal	ra,1df08 <printf_c>
   12864:	00a00513          	li	a0,10
   12868:	00004137          	lui	sp,0x4
   1286c:	69c0b0ef          	jal	ra,1df08 <printf_c>
   12870:	3040006f          	j	12b74 <j>

0000000000012874 <pass>:
   12874:	04f00513          	li	a0,79
   12878:	00004137          	lui	sp,0x4
   1287c:	68c0b0ef          	jal	ra,1df08 <printf_c>
   12880:	04b00513          	li	a0,75
   12884:	00004137          	lui	sp,0x4
   12888:	6800b0ef          	jal	ra,1df08 <printf_c>
   1288c:	00a00513          	li	a0,10
   12890:	00004137          	lui	sp,0x4
   12894:	6740b0ef          	jal	ra,1df08 <printf_c>
   12898:	2dc0006f          	j	12b74 <j>

000000000001289c <.test_name>:
   1289c:	6964                	ld	s1,208(a0)
   1289e:	2076                	fld	ft0,344(sp)
   128a0:	0009                	c.addi	zero,2
	...

00000000000128a4 <div>:
   128a4:	00013537          	lui	a0,0x13
   128a8:	89c50513          	addi	a0,a0,-1892 # 1289c <.test_name>

00000000000128ac <.prname_next>:
   128ac:	00004137          	lui	sp,0x4
   128b0:	6840b0ef          	jal	ra,1df34 <printf_s>

00000000000128b4 <test_2>:
   128b4:	01400093          	li	ra,20
   128b8:	00600113          	li	sp,6
   128bc:	0220c1b3          	div	gp,ra,sp
   128c0:	00300e93          	li	t4,3
   128c4:	00200e13          	li	t3,2
   128c8:	0dd19463          	bne	gp,t4,12990 <fail>

00000000000128cc <test_3>:
   128cc:	fec00093          	li	ra,-20
   128d0:	00600113          	li	sp,6
   128d4:	0220c1b3          	div	gp,ra,sp
   128d8:	ffd00e93          	li	t4,-3
   128dc:	00300e13          	li	t3,3
   128e0:	0bd19863          	bne	gp,t4,12990 <fail>

00000000000128e4 <test_4>:
   128e4:	01400093          	li	ra,20
   128e8:	ffa00113          	li	sp,-6
   128ec:	0220c1b3          	div	gp,ra,sp
   128f0:	ffd00e93          	li	t4,-3
   128f4:	00400e13          	li	t3,4
   128f8:	09d19c63          	bne	gp,t4,12990 <fail>

00000000000128fc <test_5>:
   128fc:	fec00093          	li	ra,-20
   12900:	ffa00113          	li	sp,-6
   12904:	0220c1b3          	div	gp,ra,sp
   12908:	00300e93          	li	t4,3
   1290c:	00500e13          	li	t3,5
   12910:	09d19063          	bne	gp,t4,12990 <fail>

0000000000012914 <test_6>:
   12914:	800000b7          	lui	ra,0x80000
   12918:	00100113          	li	sp,1
   1291c:	0220c1b3          	div	gp,ra,sp
   12920:	80000eb7          	lui	t4,0x80000
   12924:	00600e13          	li	t3,6
   12928:	07d19463          	bne	gp,t4,12990 <fail>

000000000001292c <test_7>:
   1292c:	800000b7          	lui	ra,0x80000
   12930:	fff00113          	li	sp,-1
   12934:	0220c1b3          	div	gp,ra,sp
   12938:	80000eb7          	lui	t4,0x80000
   1293c:	00700e13          	li	t3,7
   12940:	05d19863          	bne	gp,t4,12990 <fail>

0000000000012944 <test_8>:
   12944:	800000b7          	lui	ra,0x80000
   12948:	00000113          	li	sp,0
   1294c:	0220c1b3          	div	gp,ra,sp
   12950:	00100e93          	li	t4,1
   12954:	00800e13          	li	t3,8
   12958:	03d19c63          	bne	gp,t4,12990 <fail>

000000000001295c <test_9>:
   1295c:	00100093          	li	ra,1
   12960:	00000113          	li	sp,0
   12964:	0220c1b3          	div	gp,ra,sp
   12968:	fff00e93          	li	t4,-1
   1296c:	00900e13          	li	t3,9
   12970:	03d19063          	bne	gp,t4,12990 <fail>

0000000000012974 <test_10>:
   12974:	00000093          	li	ra,0
   12978:	00000113          	li	sp,0
   1297c:	0220c1b3          	div	gp,ra,sp
   12980:	fff00e93          	li	t4,-1
   12984:	00a00e13          	li	t3,10
   12988:	01d19463          	bne	gp,t4,12990 <fail>
   1298c:	05c01863          	bne	zero,t3,129dc <pass>

0000000000012990 <fail>:
   12990:	04500513          	li	a0,69
   12994:	00004137          	lui	sp,0x4
   12998:	5700b0ef          	jal	ra,1df08 <printf_c>
   1299c:	05200513          	li	a0,82
   129a0:	00004137          	lui	sp,0x4
   129a4:	5640b0ef          	jal	ra,1df08 <printf_c>
   129a8:	00004137          	lui	sp,0x4
   129ac:	55c0b0ef          	jal	ra,1df08 <printf_c>
   129b0:	04f00513          	li	a0,79
   129b4:	00004137          	lui	sp,0x4
   129b8:	5500b0ef          	jal	ra,1df08 <printf_c>
   129bc:	00004137          	lui	sp,0x4
   129c0:	05200513          	li	a0,82
   129c4:	00004137          	lui	sp,0x4
   129c8:	5400b0ef          	jal	ra,1df08 <printf_c>
   129cc:	00a00513          	li	a0,10
   129d0:	00004137          	lui	sp,0x4
   129d4:	5340b0ef          	jal	ra,1df08 <printf_c>
   129d8:	0340006f          	j	12a0c <divu>

00000000000129dc <pass>:
   129dc:	04f00513          	li	a0,79
   129e0:	00004137          	lui	sp,0x4
   129e4:	5240b0ef          	jal	ra,1df08 <printf_c>
   129e8:	04b00513          	li	a0,75
   129ec:	00004137          	lui	sp,0x4
   129f0:	5180b0ef          	jal	ra,1df08 <printf_c>
   129f4:	00a00513          	li	a0,10
   129f8:	00004137          	lui	sp,0x4
   129fc:	50c0b0ef          	jal	ra,1df08 <printf_c>
   12a00:	00c0006f          	j	12a0c <divu>

0000000000012a04 <.test_name>:
   12a04:	6964                	ld	s1,208(a0)
   12a06:	7576                	ld	a0,376(sp)
   12a08:	0009                	c.addi	zero,2
	...

0000000000012a0c <divu>:
   12a0c:	00013537          	lui	a0,0x13
   12a10:	a0450513          	addi	a0,a0,-1532 # 12a04 <.test_name>

0000000000012a14 <.prname_next>:
   12a14:	00004137          	lui	sp,0x4
   12a18:	51c0b0ef          	jal	ra,1df34 <printf_s>

0000000000012a1c <test_2>:
   12a1c:	01400093          	li	ra,20
   12a20:	00600113          	li	sp,6
   12a24:	0220d1b3          	divu	gp,ra,sp
   12a28:	00300e93          	li	t4,3
   12a2c:	00200e13          	li	t3,2
   12a30:	0dd19663          	bne	gp,t4,12afc <fail>

0000000000012a34 <test_3>:
   12a34:	fec00093          	li	ra,-20
   12a38:	00600113          	li	sp,6
   12a3c:	0220d1b3          	divu	gp,ra,sp
   12a40:	2aaabeb7          	lui	t4,0x2aaab
   12a44:	aa7e8e9b          	addiw	t4,t4,-1369
   12a48:	00300e13          	li	t3,3
   12a4c:	0bd19863          	bne	gp,t4,12afc <fail>

0000000000012a50 <test_4>:
   12a50:	01400093          	li	ra,20
   12a54:	ffa00113          	li	sp,-6
   12a58:	0220d1b3          	divu	gp,ra,sp
   12a5c:	00000e93          	li	t4,0
   12a60:	00400e13          	li	t3,4
   12a64:	09d19c63          	bne	gp,t4,12afc <fail>

0000000000012a68 <test_5>:
   12a68:	fec00093          	li	ra,-20
   12a6c:	ffa00113          	li	sp,-6
   12a70:	0220d1b3          	divu	gp,ra,sp
   12a74:	00000e93          	li	t4,0
   12a78:	00500e13          	li	t3,5
   12a7c:	09d19063          	bne	gp,t4,12afc <fail>

0000000000012a80 <test_6>:
   12a80:	800000b7          	lui	ra,0x80000
   12a84:	00100113          	li	sp,1
   12a88:	0220d1b3          	divu	gp,ra,sp
   12a8c:	80000eb7          	lui	t4,0x80000
   12a90:	00600e13          	li	t3,6
   12a94:	07d19463          	bne	gp,t4,12afc <fail>

0000000000012a98 <test_7>:
   12a98:	800000b7          	lui	ra,0x80000
   12a9c:	fff00113          	li	sp,-1
   12aa0:	0220d1b3          	divu	gp,ra,sp
   12aa4:	00000e93          	li	t4,0
   12aa8:	00700e13          	li	t3,7
   12aac:	05d19863          	bne	gp,t4,12afc <fail>

0000000000012ab0 <test_8>:
   12ab0:	800000b7          	lui	ra,0x80000
   12ab4:	00000113          	li	sp,0
   12ab8:	0220d1b3          	divu	gp,ra,sp
   12abc:	fff00e93          	li	t4,-1
   12ac0:	00800e13          	li	t3,8
   12ac4:	03d19c63          	bne	gp,t4,12afc <fail>

0000000000012ac8 <test_9>:
   12ac8:	00100093          	li	ra,1
   12acc:	00000113          	li	sp,0
   12ad0:	0220d1b3          	divu	gp,ra,sp
   12ad4:	fff00e93          	li	t4,-1
   12ad8:	00900e13          	li	t3,9
   12adc:	03d19063          	bne	gp,t4,12afc <fail>

0000000000012ae0 <test_10>:
   12ae0:	00000093          	li	ra,0
   12ae4:	00000113          	li	sp,0
   12ae8:	0220d1b3          	divu	gp,ra,sp
   12aec:	fff00e93          	li	t4,-1
   12af0:	00a00e13          	li	t3,10
   12af4:	01d19463          	bne	gp,t4,12afc <fail>
   12af8:	05c01863          	bne	zero,t3,12b48 <pass>

0000000000012afc <fail>:
   12afc:	04500513          	li	a0,69
   12b00:	00004137          	lui	sp,0x4
   12b04:	4040b0ef          	jal	ra,1df08 <printf_c>
   12b08:	05200513          	li	a0,82
   12b0c:	00004137          	lui	sp,0x4
   12b10:	3f80b0ef          	jal	ra,1df08 <printf_c>
   12b14:	00004137          	lui	sp,0x4
   12b18:	3f00b0ef          	jal	ra,1df08 <printf_c>
   12b1c:	04f00513          	li	a0,79
   12b20:	00004137          	lui	sp,0x4
   12b24:	3e40b0ef          	jal	ra,1df08 <printf_c>
   12b28:	00004137          	lui	sp,0x4
   12b2c:	05200513          	li	a0,82
   12b30:	00004137          	lui	sp,0x4
   12b34:	3d40b0ef          	jal	ra,1df08 <printf_c>
   12b38:	00a00513          	li	a0,10
   12b3c:	00004137          	lui	sp,0x4
   12b40:	3c80b0ef          	jal	ra,1df08 <printf_c>
   12b44:	41c0306f          	j	15f60 <rem>

0000000000012b48 <pass>:
   12b48:	04f00513          	li	a0,79
   12b4c:	00004137          	lui	sp,0x4
   12b50:	3b80b0ef          	jal	ra,1df08 <printf_c>
   12b54:	04b00513          	li	a0,75
   12b58:	00004137          	lui	sp,0x4
   12b5c:	3ac0b0ef          	jal	ra,1df08 <printf_c>
   12b60:	00a00513          	li	a0,10
   12b64:	00004137          	lui	sp,0x4
   12b68:	3a00b0ef          	jal	ra,1df08 <printf_c>
   12b6c:	3f40306f          	j	15f60 <rem>

0000000000012b70 <.test_name>:
   12b70:	206a                	fld	ft0,152(sp)
   12b72:	0009                	c.addi	zero,2

0000000000012b74 <j>:
   12b74:	00013537          	lui	a0,0x13
   12b78:	b7050513          	addi	a0,a0,-1168 # 12b70 <.test_name>

0000000000012b7c <.prname_next>:
   12b7c:	00004137          	lui	sp,0x4
   12b80:	3b40b0ef          	jal	ra,1df34 <printf_s>
   12b84:	00200e13          	li	t3,2
   12b88:	0080006f          	j	12b90 <test_2>
   12b8c:	0340006f          	j	12bc0 <fail>

0000000000012b90 <test_2>:
   12b90:	00100093          	li	ra,1
   12b94:	0140006f          	j	12ba8 <test_2+0x18>
   12b98:	00108093          	addi	ra,ra,1 # ffffffff80000001 <heap_memory_used+0xffffffff7ffddd49>
   12b9c:	00108093          	addi	ra,ra,1
   12ba0:	00108093          	addi	ra,ra,1
   12ba4:	00108093          	addi	ra,ra,1
   12ba8:	00108093          	addi	ra,ra,1
   12bac:	00108093          	addi	ra,ra,1
   12bb0:	00300e93          	li	t4,3
   12bb4:	00300e13          	li	t3,3
   12bb8:	01d09463          	bne	ra,t4,12bc0 <fail>
   12bbc:	05c01863          	bne	zero,t3,12c0c <pass>

0000000000012bc0 <fail>:
   12bc0:	04500513          	li	a0,69
   12bc4:	00004137          	lui	sp,0x4
   12bc8:	3400b0ef          	jal	ra,1df08 <printf_c>
   12bcc:	05200513          	li	a0,82
   12bd0:	00004137          	lui	sp,0x4
   12bd4:	3340b0ef          	jal	ra,1df08 <printf_c>
   12bd8:	00004137          	lui	sp,0x4
   12bdc:	32c0b0ef          	jal	ra,1df08 <printf_c>
   12be0:	04f00513          	li	a0,79
   12be4:	00004137          	lui	sp,0x4
   12be8:	3200b0ef          	jal	ra,1df08 <printf_c>
   12bec:	00004137          	lui	sp,0x4
   12bf0:	05200513          	li	a0,82
   12bf4:	00004137          	lui	sp,0x4
   12bf8:	3100b0ef          	jal	ra,1df08 <printf_c>
   12bfc:	00a00513          	li	a0,10
   12c00:	00004137          	lui	sp,0x4
   12c04:	3040b0ef          	jal	ra,1df08 <printf_c>
   12c08:	0340006f          	j	12c3c <jal>

0000000000012c0c <pass>:
   12c0c:	04f00513          	li	a0,79
   12c10:	00004137          	lui	sp,0x4
   12c14:	2f40b0ef          	jal	ra,1df08 <printf_c>
   12c18:	04b00513          	li	a0,75
   12c1c:	00004137          	lui	sp,0x4
   12c20:	2e80b0ef          	jal	ra,1df08 <printf_c>
   12c24:	00a00513          	li	a0,10
   12c28:	00004137          	lui	sp,0x4
   12c2c:	2dc0b0ef          	jal	ra,1df08 <printf_c>
   12c30:	00c0006f          	j	12c3c <jal>

0000000000012c34 <.test_name>:
   12c34:	616a                	ld	sp,152(sp)
   12c36:	206c                	fld	fa1,192(s0)
   12c38:	0009                	c.addi	zero,2
	...

0000000000012c3c <jal>:
   12c3c:	00013537          	lui	a0,0x13
   12c40:	c3450513          	addi	a0,a0,-972 # 12c34 <.test_name>

0000000000012c44 <.prname_next>:
   12c44:	00004137          	lui	sp,0x4
   12c48:	2ec0b0ef          	jal	ra,1df34 <printf_s>

0000000000012c4c <test_2>:
   12c4c:	00200e13          	li	t3,2
   12c50:	00000093          	li	ra,0

0000000000012c54 <linkaddr_2>:
   12c54:	010000ef          	jal	ra,12c64 <target_2>
   12c58:	00000013          	nop
   12c5c:	00000013          	nop
   12c60:	0440006f          	j	12ca4 <fail>

0000000000012c64 <target_2>:
   12c64:	00000117          	auipc	sp,0x0
   12c68:	ff010113          	addi	sp,sp,-16 # 12c54 <linkaddr_2>
   12c6c:	00410113          	addi	sp,sp,4
   12c70:	02111a63          	bne	sp,ra,12ca4 <fail>

0000000000012c74 <test_3>:
   12c74:	00100113          	li	sp,1
   12c78:	014000ef          	jal	ra,12c8c <test_3+0x18>
   12c7c:	00110113          	addi	sp,sp,1
   12c80:	00110113          	addi	sp,sp,1
   12c84:	00110113          	addi	sp,sp,1
   12c88:	00110113          	addi	sp,sp,1
   12c8c:	00110113          	addi	sp,sp,1
   12c90:	00110113          	addi	sp,sp,1
   12c94:	00300e93          	li	t4,3
   12c98:	00300e13          	li	t3,3
   12c9c:	01d11463          	bne	sp,t4,12ca4 <fail>
   12ca0:	05c01863          	bne	zero,t3,12cf0 <pass>

0000000000012ca4 <fail>:
   12ca4:	04500513          	li	a0,69
   12ca8:	00004137          	lui	sp,0x4
   12cac:	25c0b0ef          	jal	ra,1df08 <printf_c>
   12cb0:	05200513          	li	a0,82
   12cb4:	00004137          	lui	sp,0x4
   12cb8:	2500b0ef          	jal	ra,1df08 <printf_c>
   12cbc:	00004137          	lui	sp,0x4
   12cc0:	2480b0ef          	jal	ra,1df08 <printf_c>
   12cc4:	04f00513          	li	a0,79
   12cc8:	00004137          	lui	sp,0x4
   12ccc:	23c0b0ef          	jal	ra,1df08 <printf_c>
   12cd0:	00004137          	lui	sp,0x4
   12cd4:	05200513          	li	a0,82
   12cd8:	00004137          	lui	sp,0x4
   12cdc:	22c0b0ef          	jal	ra,1df08 <printf_c>
   12ce0:	00a00513          	li	a0,10
   12ce4:	00004137          	lui	sp,0x4
   12ce8:	2200b0ef          	jal	ra,1df08 <printf_c>
   12cec:	0340006f          	j	12d20 <jalr>

0000000000012cf0 <pass>:
   12cf0:	04f00513          	li	a0,79
   12cf4:	00004137          	lui	sp,0x4
   12cf8:	2100b0ef          	jal	ra,1df08 <printf_c>
   12cfc:	04b00513          	li	a0,75
   12d00:	00004137          	lui	sp,0x4
   12d04:	2040b0ef          	jal	ra,1df08 <printf_c>
   12d08:	00a00513          	li	a0,10
   12d0c:	00004137          	lui	sp,0x4
   12d10:	1f80b0ef          	jal	ra,1df08 <printf_c>
   12d14:	00c0006f          	j	12d20 <jalr>

0000000000012d18 <.test_name>:
   12d18:	616a                	ld	sp,152(sp)
   12d1a:	726c                	ld	a1,224(a2)
   12d1c:	0920                	addi	s0,sp,152
	...

0000000000012d20 <jalr>:
   12d20:	00013537          	lui	a0,0x13
   12d24:	d1850513          	addi	a0,a0,-744 # 12d18 <.test_name>

0000000000012d28 <.prname_next>:
   12d28:	00004137          	lui	sp,0x4
   12d2c:	2080b0ef          	jal	ra,1df34 <printf_s>

0000000000012d30 <test_2>:
   12d30:	00200e13          	li	t3,2
   12d34:	00000f93          	li	t6,0
   12d38:	00000117          	auipc	sp,0x0
   12d3c:	01810113          	addi	sp,sp,24 # 12d50 <target_2>

0000000000012d40 <linkaddr_2>:
   12d40:	000109e7          	jalr	s3,sp
   12d44:	00000013          	nop
   12d48:	00000013          	nop
   12d4c:	0e40006f          	j	12e30 <fail>

0000000000012d50 <target_2>:
   12d50:	00000097          	auipc	ra,0x0
   12d54:	ff008093          	addi	ra,ra,-16 # 12d40 <linkaddr_2>
   12d58:	00408093          	addi	ra,ra,4
   12d5c:	0d309a63          	bne	ra,s3,12e30 <fail>

0000000000012d60 <test_3>:
   12d60:	00300e13          	li	t3,3
   12d64:	00000f93          	li	t6,0
   12d68:	00000197          	auipc	gp,0x0
   12d6c:	01418193          	addi	gp,gp,20 # 12d7c <target_3>

0000000000012d70 <linkaddr_3>:
   12d70:	00018067          	jr	gp
   12d74:	00000013          	nop
   12d78:	0b80006f          	j	12e30 <fail>

0000000000012d7c <target_3>:
   12d7c:	0a0f9a63          	bnez	t6,12e30 <fail>

0000000000012d80 <test_4>:
   12d80:	00400e13          	li	t3,4
   12d84:	00000213          	li	tp,0
   12d88:	00000317          	auipc	t1,0x0
   12d8c:	01030313          	addi	t1,t1,16 # 12d98 <test_4+0x18>
   12d90:	000309e7          	jalr	s3,t1
   12d94:	09c01e63          	bne	zero,t3,12e30 <fail>
   12d98:	00120213          	addi	tp,tp,1 # 1 <_start+0x1>
   12d9c:	00200293          	li	t0,2
   12da0:	fe5214e3          	bne	tp,t0,12d88 <test_4+0x8>

0000000000012da4 <test_5>:
   12da4:	00500e13          	li	t3,5
   12da8:	00000213          	li	tp,0
   12dac:	00000317          	auipc	t1,0x0
   12db0:	01430313          	addi	t1,t1,20 # 12dc0 <test_5+0x1c>
   12db4:	00000013          	nop
   12db8:	000309e7          	jalr	s3,t1
   12dbc:	07c01a63          	bne	zero,t3,12e30 <fail>
   12dc0:	00120213          	addi	tp,tp,1 # 1 <_start+0x1>
   12dc4:	00200293          	li	t0,2
   12dc8:	fe5212e3          	bne	tp,t0,12dac <test_5+0x8>

0000000000012dcc <test_6>:
   12dcc:	00600e13          	li	t3,6
   12dd0:	00000213          	li	tp,0
   12dd4:	00000317          	auipc	t1,0x0
   12dd8:	01830313          	addi	t1,t1,24 # 12dec <test_6+0x20>
   12ddc:	00000013          	nop
   12de0:	00000013          	nop
   12de4:	000309e7          	jalr	s3,t1
   12de8:	05c01463          	bne	zero,t3,12e30 <fail>
   12dec:	00120213          	addi	tp,tp,1 # 1 <_start+0x1>
   12df0:	00200293          	li	t0,2
   12df4:	fe5210e3          	bne	tp,t0,12dd4 <test_6+0x8>

0000000000012df8 <test_7>:
   12df8:	00100093          	li	ra,1
   12dfc:	00000117          	auipc	sp,0x0
   12e00:	01c10113          	addi	sp,sp,28 # 12e18 <test_7+0x20>
   12e04:	ffc109e7          	jalr	s3,-4(sp)
   12e08:	00108093          	addi	ra,ra,1
   12e0c:	00108093          	addi	ra,ra,1
   12e10:	00108093          	addi	ra,ra,1
   12e14:	00108093          	addi	ra,ra,1
   12e18:	00108093          	addi	ra,ra,1
   12e1c:	00108093          	addi	ra,ra,1
   12e20:	00400e93          	li	t4,4
   12e24:	00700e13          	li	t3,7
   12e28:	01d09463          	bne	ra,t4,12e30 <fail>
   12e2c:	05c01863          	bne	zero,t3,12e7c <pass>

0000000000012e30 <fail>:
   12e30:	04500513          	li	a0,69
   12e34:	00004137          	lui	sp,0x4
   12e38:	0d00b0ef          	jal	ra,1df08 <printf_c>
   12e3c:	05200513          	li	a0,82
   12e40:	00004137          	lui	sp,0x4
   12e44:	0c40b0ef          	jal	ra,1df08 <printf_c>
   12e48:	00004137          	lui	sp,0x4
   12e4c:	0bc0b0ef          	jal	ra,1df08 <printf_c>
   12e50:	04f00513          	li	a0,79
   12e54:	00004137          	lui	sp,0x4
   12e58:	0b00b0ef          	jal	ra,1df08 <printf_c>
   12e5c:	00004137          	lui	sp,0x4
   12e60:	05200513          	li	a0,82
   12e64:	00004137          	lui	sp,0x4
   12e68:	0a00b0ef          	jal	ra,1df08 <printf_c>
   12e6c:	00a00513          	li	a0,10
   12e70:	00004137          	lui	sp,0x4
   12e74:	0940b0ef          	jal	ra,1df08 <printf_c>
   12e78:	0300006f          	j	12ea8 <lb>

0000000000012e7c <pass>:
   12e7c:	04f00513          	li	a0,79
   12e80:	00004137          	lui	sp,0x4
   12e84:	0840b0ef          	jal	ra,1df08 <printf_c>
   12e88:	04b00513          	li	a0,75
   12e8c:	00004137          	lui	sp,0x4
   12e90:	0780b0ef          	jal	ra,1df08 <printf_c>
   12e94:	00a00513          	li	a0,10
   12e98:	00004137          	lui	sp,0x4
   12e9c:	06c0b0ef          	jal	ra,1df08 <printf_c>
   12ea0:	0080006f          	j	12ea8 <lb>

0000000000012ea4 <.test_name>:
   12ea4:	626c                	ld	a1,192(a2)
   12ea6:	0009                	c.addi	zero,2

0000000000012ea8 <lb>:
   12ea8:	00013537          	lui	a0,0x13
   12eac:	ea450513          	addi	a0,a0,-348 # 12ea4 <.test_name>

0000000000012eb0 <.prname_next>:
   12eb0:	00004137          	lui	sp,0x4
   12eb4:	0800b0ef          	jal	ra,1df34 <printf_s>

0000000000012eb8 <test_2>:
   12eb8:	0000c097          	auipc	ra,0xc
   12ebc:	71808093          	addi	ra,ra,1816 # 1f5d0 <tdat>
   12ec0:	00008183          	lb	gp,0(ra)
   12ec4:	00100e9b          	addiw	t4,zero,1
   12ec8:	020e9e93          	slli	t4,t4,0x20
   12ecc:	fffe8e93          	addi	t4,t4,-1 # ffffffff7fffffff <heap_memory_used+0xffffffff7ffddd47>
   12ed0:	00200e13          	li	t3,2
   12ed4:	27d19463          	bne	gp,t4,1313c <fail>

0000000000012ed8 <test_3>:
   12ed8:	0000c097          	auipc	ra,0xc
   12edc:	6f808093          	addi	ra,ra,1784 # 1f5d0 <tdat>
   12ee0:	00108183          	lb	gp,1(ra)
   12ee4:	00000e93          	li	t4,0
   12ee8:	00300e13          	li	t3,3
   12eec:	25d19863          	bne	gp,t4,1313c <fail>

0000000000012ef0 <test_4>:
   12ef0:	0000c097          	auipc	ra,0xc
   12ef4:	6e008093          	addi	ra,ra,1760 # 1f5d0 <tdat>
   12ef8:	00208183          	lb	gp,2(ra)
   12efc:	00100e9b          	addiw	t4,zero,1
   12f00:	020e9e93          	slli	t4,t4,0x20
   12f04:	ff0e8e93          	addi	t4,t4,-16
   12f08:	00400e13          	li	t3,4
   12f0c:	23d19863          	bne	gp,t4,1313c <fail>

0000000000012f10 <test_5>:
   12f10:	0000c097          	auipc	ra,0xc
   12f14:	6c008093          	addi	ra,ra,1728 # 1f5d0 <tdat>
   12f18:	00308183          	lb	gp,3(ra)
   12f1c:	00f00e93          	li	t4,15
   12f20:	00500e13          	li	t3,5
   12f24:	21d19c63          	bne	gp,t4,1313c <fail>

0000000000012f28 <test_6>:
   12f28:	0000c097          	auipc	ra,0xc
   12f2c:	6ab08093          	addi	ra,ra,1707 # 1f5d3 <tdat4>
   12f30:	ffd08183          	lb	gp,-3(ra)
   12f34:	00100e9b          	addiw	t4,zero,1
   12f38:	020e9e93          	slli	t4,t4,0x20
   12f3c:	fffe8e93          	addi	t4,t4,-1
   12f40:	00600e13          	li	t3,6
   12f44:	1fd19c63          	bne	gp,t4,1313c <fail>

0000000000012f48 <test_7>:
   12f48:	0000c097          	auipc	ra,0xc
   12f4c:	68b08093          	addi	ra,ra,1675 # 1f5d3 <tdat4>
   12f50:	ffe08183          	lb	gp,-2(ra)
   12f54:	00000e93          	li	t4,0
   12f58:	00700e13          	li	t3,7
   12f5c:	1fd19063          	bne	gp,t4,1313c <fail>

0000000000012f60 <test_8>:
   12f60:	0000c097          	auipc	ra,0xc
   12f64:	67308093          	addi	ra,ra,1651 # 1f5d3 <tdat4>
   12f68:	fff08183          	lb	gp,-1(ra)
   12f6c:	00100e9b          	addiw	t4,zero,1
   12f70:	020e9e93          	slli	t4,t4,0x20
   12f74:	ff0e8e93          	addi	t4,t4,-16
   12f78:	00800e13          	li	t3,8
   12f7c:	1dd19063          	bne	gp,t4,1313c <fail>

0000000000012f80 <test_9>:
   12f80:	0000c097          	auipc	ra,0xc
   12f84:	65308093          	addi	ra,ra,1619 # 1f5d3 <tdat4>
   12f88:	00008183          	lb	gp,0(ra)
   12f8c:	00f00e93          	li	t4,15
   12f90:	00900e13          	li	t3,9
   12f94:	1bd19463          	bne	gp,t4,1313c <fail>

0000000000012f98 <test_10>:
   12f98:	0000c097          	auipc	ra,0xc
   12f9c:	63808093          	addi	ra,ra,1592 # 1f5d0 <tdat>
   12fa0:	fe008093          	addi	ra,ra,-32
   12fa4:	02008183          	lb	gp,32(ra)
   12fa8:	00100e9b          	addiw	t4,zero,1
   12fac:	020e9e93          	slli	t4,t4,0x20
   12fb0:	fffe8e93          	addi	t4,t4,-1
   12fb4:	00a00e13          	li	t3,10
   12fb8:	19d19263          	bne	gp,t4,1313c <fail>

0000000000012fbc <test_11>:
   12fbc:	0000c097          	auipc	ra,0xc
   12fc0:	61408093          	addi	ra,ra,1556 # 1f5d0 <tdat>
   12fc4:	ffa08093          	addi	ra,ra,-6
   12fc8:	00708183          	lb	gp,7(ra)
   12fcc:	00000e93          	li	t4,0
   12fd0:	00b00e13          	li	t3,11
   12fd4:	17d19463          	bne	gp,t4,1313c <fail>

0000000000012fd8 <test_12>:
   12fd8:	00c00e13          	li	t3,12
   12fdc:	00000213          	li	tp,0
   12fe0:	0000c097          	auipc	ra,0xc
   12fe4:	5f108093          	addi	ra,ra,1521 # 1f5d1 <tdat2>
   12fe8:	00108183          	lb	gp,1(ra)
   12fec:	00018313          	mv	t1,gp
   12ff0:	00100e9b          	addiw	t4,zero,1
   12ff4:	020e9e93          	slli	t4,t4,0x20
   12ff8:	ff0e8e93          	addi	t4,t4,-16
   12ffc:	15d31063          	bne	t1,t4,1313c <fail>
   13000:	00120213          	addi	tp,tp,1 # 1 <_start+0x1>
   13004:	00200293          	li	t0,2
   13008:	fc521ce3          	bne	tp,t0,12fe0 <test_12+0x8>

000000000001300c <test_13>:
   1300c:	00d00e13          	li	t3,13
   13010:	00000213          	li	tp,0
   13014:	0000c097          	auipc	ra,0xc
   13018:	5be08093          	addi	ra,ra,1470 # 1f5d2 <tdat3>
   1301c:	00108183          	lb	gp,1(ra)
   13020:	00000013          	nop
   13024:	00018313          	mv	t1,gp
   13028:	00f00e93          	li	t4,15
   1302c:	11d31863          	bne	t1,t4,1313c <fail>
   13030:	00120213          	addi	tp,tp,1 # 1 <_start+0x1>
   13034:	00200293          	li	t0,2
   13038:	fc521ee3          	bne	tp,t0,13014 <test_13+0x8>

000000000001303c <test_14>:
   1303c:	00e00e13          	li	t3,14
   13040:	00000213          	li	tp,0
   13044:	0000c097          	auipc	ra,0xc
   13048:	58c08093          	addi	ra,ra,1420 # 1f5d0 <tdat>
   1304c:	00108183          	lb	gp,1(ra)
   13050:	00000013          	nop
   13054:	00000013          	nop
   13058:	00018313          	mv	t1,gp
   1305c:	00000e93          	li	t4,0
   13060:	0dd31e63          	bne	t1,t4,1313c <fail>
   13064:	00120213          	addi	tp,tp,1 # 1 <_start+0x1>
   13068:	00200293          	li	t0,2
   1306c:	fc521ce3          	bne	tp,t0,13044 <test_14+0x8>

0000000000013070 <test_15>:
   13070:	00f00e13          	li	t3,15
   13074:	00000213          	li	tp,0
   13078:	0000c097          	auipc	ra,0xc
   1307c:	55908093          	addi	ra,ra,1369 # 1f5d1 <tdat2>
   13080:	00108183          	lb	gp,1(ra)
   13084:	00100e9b          	addiw	t4,zero,1
   13088:	020e9e93          	slli	t4,t4,0x20
   1308c:	ff0e8e93          	addi	t4,t4,-16
   13090:	0bd19663          	bne	gp,t4,1313c <fail>
   13094:	00120213          	addi	tp,tp,1 # 1 <_start+0x1>
   13098:	00200293          	li	t0,2
   1309c:	fc521ee3          	bne	tp,t0,13078 <test_15+0x8>

00000000000130a0 <test_16>:
   130a0:	01000e13          	li	t3,16
   130a4:	00000213          	li	tp,0
   130a8:	0000c097          	auipc	ra,0xc
   130ac:	52a08093          	addi	ra,ra,1322 # 1f5d2 <tdat3>
   130b0:	00000013          	nop
   130b4:	00108183          	lb	gp,1(ra)
   130b8:	00f00e93          	li	t4,15
   130bc:	09d19063          	bne	gp,t4,1313c <fail>
   130c0:	00120213          	addi	tp,tp,1 # 1 <_start+0x1>
   130c4:	00200293          	li	t0,2
   130c8:	fe5210e3          	bne	tp,t0,130a8 <test_16+0x8>

00000000000130cc <test_17>:
   130cc:	01100e13          	li	t3,17
   130d0:	00000213          	li	tp,0
   130d4:	0000c097          	auipc	ra,0xc
   130d8:	4fc08093          	addi	ra,ra,1276 # 1f5d0 <tdat>
   130dc:	00000013          	nop
   130e0:	00000013          	nop
   130e4:	00108183          	lb	gp,1(ra)
   130e8:	00000e93          	li	t4,0
   130ec:	05d19863          	bne	gp,t4,1313c <fail>
   130f0:	00120213          	addi	tp,tp,1 # 1 <_start+0x1>
   130f4:	00200293          	li	t0,2
   130f8:	fc521ee3          	bne	tp,t0,130d4 <test_17+0x8>

00000000000130fc <test_18>:
   130fc:	0000c197          	auipc	gp,0xc
   13100:	4d418193          	addi	gp,gp,1236 # 1f5d0 <tdat>
   13104:	00018103          	lb	sp,0(gp)
   13108:	00200113          	li	sp,2
   1310c:	00200e93          	li	t4,2
   13110:	01200e13          	li	t3,18
   13114:	03d11463          	bne	sp,t4,1313c <fail>

0000000000013118 <test_19>:
   13118:	0000c197          	auipc	gp,0xc
   1311c:	4b818193          	addi	gp,gp,1208 # 1f5d0 <tdat>
   13120:	00018103          	lb	sp,0(gp)
   13124:	00000013          	nop
   13128:	00200113          	li	sp,2
   1312c:	00200e93          	li	t4,2
   13130:	01300e13          	li	t3,19
   13134:	01d11463          	bne	sp,t4,1313c <fail>
   13138:	05c01863          	bne	zero,t3,13188 <pass>

000000000001313c <fail>:
   1313c:	04500513          	li	a0,69
   13140:	00004137          	lui	sp,0x4
   13144:	5c50a0ef          	jal	ra,1df08 <printf_c>
   13148:	05200513          	li	a0,82
   1314c:	00004137          	lui	sp,0x4
   13150:	5b90a0ef          	jal	ra,1df08 <printf_c>
   13154:	00004137          	lui	sp,0x4
   13158:	5b10a0ef          	jal	ra,1df08 <printf_c>
   1315c:	04f00513          	li	a0,79
   13160:	00004137          	lui	sp,0x4
   13164:	5a50a0ef          	jal	ra,1df08 <printf_c>
   13168:	00004137          	lui	sp,0x4
   1316c:	05200513          	li	a0,82
   13170:	00004137          	lui	sp,0x4
   13174:	5950a0ef          	jal	ra,1df08 <printf_c>
   13178:	00a00513          	li	a0,10
   1317c:	00004137          	lui	sp,0x4
   13180:	5890a0ef          	jal	ra,1df08 <printf_c>
   13184:	0340006f          	j	131b8 <lbu>

0000000000013188 <pass>:
   13188:	04f00513          	li	a0,79
   1318c:	00004137          	lui	sp,0x4
   13190:	5790a0ef          	jal	ra,1df08 <printf_c>
   13194:	04b00513          	li	a0,75
   13198:	00004137          	lui	sp,0x4
   1319c:	56d0a0ef          	jal	ra,1df08 <printf_c>
   131a0:	00a00513          	li	a0,10
   131a4:	00004137          	lui	sp,0x4
   131a8:	5610a0ef          	jal	ra,1df08 <printf_c>
   131ac:	00c0006f          	j	131b8 <lbu>

00000000000131b0 <.test_name>:
   131b0:	626c                	ld	a1,192(a2)
   131b2:	2075                	0x2075
   131b4:	0009                	c.addi	zero,2
	...

00000000000131b8 <lbu>:
   131b8:	00013537          	lui	a0,0x13
   131bc:	1b050513          	addi	a0,a0,432 # 131b0 <.test_name>

00000000000131c0 <.prname_next>:
   131c0:	00004137          	lui	sp,0x4
   131c4:	5710a0ef          	jal	ra,1df34 <printf_s>

00000000000131c8 <test_2>:
   131c8:	0000c097          	auipc	ra,0xc
   131cc:	40c08093          	addi	ra,ra,1036 # 1f5d4 <tdat>
   131d0:	0000c183          	lbu	gp,0(ra)
   131d4:	0ff00e93          	li	t4,255
   131d8:	00200e13          	li	t3,2
   131dc:	23d19c63          	bne	gp,t4,13414 <fail>

00000000000131e0 <test_3>:
   131e0:	0000c097          	auipc	ra,0xc
   131e4:	3f408093          	addi	ra,ra,1012 # 1f5d4 <tdat>
   131e8:	0010c183          	lbu	gp,1(ra)
   131ec:	00000e93          	li	t4,0
   131f0:	00300e13          	li	t3,3
   131f4:	23d19063          	bne	gp,t4,13414 <fail>

00000000000131f8 <test_4>:
   131f8:	0000c097          	auipc	ra,0xc
   131fc:	3dc08093          	addi	ra,ra,988 # 1f5d4 <tdat>
   13200:	0020c183          	lbu	gp,2(ra)
   13204:	0f000e93          	li	t4,240
   13208:	00400e13          	li	t3,4
   1320c:	21d19463          	bne	gp,t4,13414 <fail>

0000000000013210 <test_5>:
   13210:	0000c097          	auipc	ra,0xc
   13214:	3c408093          	addi	ra,ra,964 # 1f5d4 <tdat>
   13218:	0030c183          	lbu	gp,3(ra)
   1321c:	00f00e93          	li	t4,15
   13220:	00500e13          	li	t3,5
   13224:	1fd19863          	bne	gp,t4,13414 <fail>

0000000000013228 <test_6>:
   13228:	0000c097          	auipc	ra,0xc
   1322c:	3af08093          	addi	ra,ra,943 # 1f5d7 <tdat4>
   13230:	ffd0c183          	lbu	gp,-3(ra)
   13234:	0ff00e93          	li	t4,255
   13238:	00600e13          	li	t3,6
   1323c:	1dd19c63          	bne	gp,t4,13414 <fail>

0000000000013240 <test_7>:
   13240:	0000c097          	auipc	ra,0xc
   13244:	39708093          	addi	ra,ra,919 # 1f5d7 <tdat4>
   13248:	ffe0c183          	lbu	gp,-2(ra)
   1324c:	00000e93          	li	t4,0
   13250:	00700e13          	li	t3,7
   13254:	1dd19063          	bne	gp,t4,13414 <fail>

0000000000013258 <test_8>:
   13258:	0000c097          	auipc	ra,0xc
   1325c:	37f08093          	addi	ra,ra,895 # 1f5d7 <tdat4>
   13260:	fff0c183          	lbu	gp,-1(ra)
   13264:	0f000e93          	li	t4,240
   13268:	00800e13          	li	t3,8
   1326c:	1bd19463          	bne	gp,t4,13414 <fail>

0000000000013270 <test_9>:
   13270:	0000c097          	auipc	ra,0xc
   13274:	36708093          	addi	ra,ra,871 # 1f5d7 <tdat4>
   13278:	0000c183          	lbu	gp,0(ra)
   1327c:	00f00e93          	li	t4,15
   13280:	00900e13          	li	t3,9
   13284:	19d19863          	bne	gp,t4,13414 <fail>

0000000000013288 <test_10>:
   13288:	0000c097          	auipc	ra,0xc
   1328c:	34c08093          	addi	ra,ra,844 # 1f5d4 <tdat>
   13290:	fe008093          	addi	ra,ra,-32
   13294:	0200c183          	lbu	gp,32(ra)
   13298:	0ff00e93          	li	t4,255
   1329c:	00a00e13          	li	t3,10
   132a0:	17d19a63          	bne	gp,t4,13414 <fail>

00000000000132a4 <test_11>:
   132a4:	0000c097          	auipc	ra,0xc
   132a8:	33008093          	addi	ra,ra,816 # 1f5d4 <tdat>
   132ac:	ffa08093          	addi	ra,ra,-6
   132b0:	0070c183          	lbu	gp,7(ra)
   132b4:	00000e93          	li	t4,0
   132b8:	00b00e13          	li	t3,11
   132bc:	15d19c63          	bne	gp,t4,13414 <fail>

00000000000132c0 <test_12>:
   132c0:	00c00e13          	li	t3,12
   132c4:	00000213          	li	tp,0
   132c8:	0000c097          	auipc	ra,0xc
   132cc:	30d08093          	addi	ra,ra,781 # 1f5d5 <tdat2>
   132d0:	0010c183          	lbu	gp,1(ra)
   132d4:	00018313          	mv	t1,gp
   132d8:	0f000e93          	li	t4,240
   132dc:	13d31c63          	bne	t1,t4,13414 <fail>
   132e0:	00120213          	addi	tp,tp,1 # 1 <_start+0x1>
   132e4:	00200293          	li	t0,2
   132e8:	fe5210e3          	bne	tp,t0,132c8 <test_12+0x8>

00000000000132ec <test_13>:
   132ec:	00d00e13          	li	t3,13
   132f0:	00000213          	li	tp,0
   132f4:	0000c097          	auipc	ra,0xc
   132f8:	2e208093          	addi	ra,ra,738 # 1f5d6 <tdat3>
   132fc:	0010c183          	lbu	gp,1(ra)
   13300:	00000013          	nop
   13304:	00018313          	mv	t1,gp
   13308:	00f00e93          	li	t4,15
   1330c:	11d31463          	bne	t1,t4,13414 <fail>
   13310:	00120213          	addi	tp,tp,1 # 1 <_start+0x1>
   13314:	00200293          	li	t0,2
   13318:	fc521ee3          	bne	tp,t0,132f4 <test_13+0x8>

000000000001331c <test_14>:
   1331c:	00e00e13          	li	t3,14
   13320:	00000213          	li	tp,0
   13324:	0000c097          	auipc	ra,0xc
   13328:	2b008093          	addi	ra,ra,688 # 1f5d4 <tdat>
   1332c:	0010c183          	lbu	gp,1(ra)
   13330:	00000013          	nop
   13334:	00000013          	nop
   13338:	00018313          	mv	t1,gp
   1333c:	00000e93          	li	t4,0
   13340:	0dd31a63          	bne	t1,t4,13414 <fail>
   13344:	00120213          	addi	tp,tp,1 # 1 <_start+0x1>
   13348:	00200293          	li	t0,2
   1334c:	fc521ce3          	bne	tp,t0,13324 <test_14+0x8>

0000000000013350 <test_15>:
   13350:	00f00e13          	li	t3,15
   13354:	00000213          	li	tp,0
   13358:	0000c097          	auipc	ra,0xc
   1335c:	27d08093          	addi	ra,ra,637 # 1f5d5 <tdat2>
   13360:	0010c183          	lbu	gp,1(ra)
   13364:	0f000e93          	li	t4,240
   13368:	0bd19663          	bne	gp,t4,13414 <fail>
   1336c:	00120213          	addi	tp,tp,1 # 1 <_start+0x1>
   13370:	00200293          	li	t0,2
   13374:	fe5212e3          	bne	tp,t0,13358 <test_15+0x8>

0000000000013378 <test_16>:
   13378:	01000e13          	li	t3,16
   1337c:	00000213          	li	tp,0
   13380:	0000c097          	auipc	ra,0xc
   13384:	25608093          	addi	ra,ra,598 # 1f5d6 <tdat3>
   13388:	00000013          	nop
   1338c:	0010c183          	lbu	gp,1(ra)
   13390:	00f00e93          	li	t4,15
   13394:	09d19063          	bne	gp,t4,13414 <fail>
   13398:	00120213          	addi	tp,tp,1 # 1 <_start+0x1>
   1339c:	00200293          	li	t0,2
   133a0:	fe5210e3          	bne	tp,t0,13380 <test_16+0x8>

00000000000133a4 <test_17>:
   133a4:	01100e13          	li	t3,17
   133a8:	00000213          	li	tp,0
   133ac:	0000c097          	auipc	ra,0xc
   133b0:	22808093          	addi	ra,ra,552 # 1f5d4 <tdat>
   133b4:	00000013          	nop
   133b8:	00000013          	nop
   133bc:	0010c183          	lbu	gp,1(ra)
   133c0:	00000e93          	li	t4,0
   133c4:	05d19863          	bne	gp,t4,13414 <fail>
   133c8:	00120213          	addi	tp,tp,1 # 1 <_start+0x1>
   133cc:	00200293          	li	t0,2
   133d0:	fc521ee3          	bne	tp,t0,133ac <test_17+0x8>

00000000000133d4 <test_18>:
   133d4:	0000c197          	auipc	gp,0xc
   133d8:	20018193          	addi	gp,gp,512 # 1f5d4 <tdat>
   133dc:	0001c103          	lbu	sp,0(gp)
   133e0:	00200113          	li	sp,2
   133e4:	00200e93          	li	t4,2
   133e8:	01200e13          	li	t3,18
   133ec:	03d11463          	bne	sp,t4,13414 <fail>

00000000000133f0 <test_19>:
   133f0:	0000c197          	auipc	gp,0xc
   133f4:	1e418193          	addi	gp,gp,484 # 1f5d4 <tdat>
   133f8:	0001c103          	lbu	sp,0(gp)
   133fc:	00000013          	nop
   13400:	00200113          	li	sp,2
   13404:	00200e93          	li	t4,2
   13408:	01300e13          	li	t3,19
   1340c:	01d11463          	bne	sp,t4,13414 <fail>
   13410:	05c01863          	bne	zero,t3,13460 <pass>

0000000000013414 <fail>:
   13414:	04500513          	li	a0,69
   13418:	00004137          	lui	sp,0x4
   1341c:	2ed0a0ef          	jal	ra,1df08 <printf_c>
   13420:	05200513          	li	a0,82
   13424:	00004137          	lui	sp,0x4
   13428:	2e10a0ef          	jal	ra,1df08 <printf_c>
   1342c:	00004137          	lui	sp,0x4
   13430:	2d90a0ef          	jal	ra,1df08 <printf_c>
   13434:	04f00513          	li	a0,79
   13438:	00004137          	lui	sp,0x4
   1343c:	2cd0a0ef          	jal	ra,1df08 <printf_c>
   13440:	00004137          	lui	sp,0x4
   13444:	05200513          	li	a0,82
   13448:	00004137          	lui	sp,0x4
   1344c:	2bd0a0ef          	jal	ra,1df08 <printf_c>
   13450:	00a00513          	li	a0,10
   13454:	00004137          	lui	sp,0x4
   13458:	2b10a0ef          	jal	ra,1df08 <printf_c>
   1345c:	0300006f          	j	1348c <lh>

0000000000013460 <pass>:
   13460:	04f00513          	li	a0,79
   13464:	00004137          	lui	sp,0x4
   13468:	2a10a0ef          	jal	ra,1df08 <printf_c>
   1346c:	04b00513          	li	a0,75
   13470:	00004137          	lui	sp,0x4
   13474:	2950a0ef          	jal	ra,1df08 <printf_c>
   13478:	00a00513          	li	a0,10
   1347c:	00004137          	lui	sp,0x4
   13480:	2890a0ef          	jal	ra,1df08 <printf_c>
   13484:	0080006f          	j	1348c <lh>

0000000000013488 <.test_name>:
   13488:	686c                	ld	a1,208(s0)
   1348a:	0009                	c.addi	zero,2

000000000001348c <lh>:
   1348c:	00013537          	lui	a0,0x13
   13490:	48850513          	addi	a0,a0,1160 # 13488 <.test_name>

0000000000013494 <.prname_next>:
   13494:	00004137          	lui	sp,0x4
   13498:	29d0a0ef          	jal	ra,1df34 <printf_s>

000000000001349c <test_2>:
   1349c:	0000c097          	auipc	ra,0xc
   134a0:	13c08093          	addi	ra,ra,316 # 1f5d8 <tdat>
   134a4:	00009183          	lh	gp,0(ra)
   134a8:	0ff00e93          	li	t4,255
   134ac:	00200e13          	li	t3,2
   134b0:	2bd19063          	bne	gp,t4,13750 <fail>

00000000000134b4 <test_3>:
   134b4:	0000c097          	auipc	ra,0xc
   134b8:	12408093          	addi	ra,ra,292 # 1f5d8 <tdat>
   134bc:	00209183          	lh	gp,2(ra)
   134c0:	00100e9b          	addiw	t4,zero,1
   134c4:	020e9e93          	slli	t4,t4,0x20
   134c8:	f00e8e93          	addi	t4,t4,-256
   134cc:	00300e13          	li	t3,3
   134d0:	29d19063          	bne	gp,t4,13750 <fail>

00000000000134d4 <test_4>:
   134d4:	0000c097          	auipc	ra,0xc
   134d8:	10408093          	addi	ra,ra,260 # 1f5d8 <tdat>
   134dc:	00409183          	lh	gp,4(ra)
   134e0:	00001eb7          	lui	t4,0x1
   134e4:	ff0e8e9b          	addiw	t4,t4,-16
   134e8:	00400e13          	li	t3,4
   134ec:	27d19263          	bne	gp,t4,13750 <fail>

00000000000134f0 <test_5>:
   134f0:	0000c097          	auipc	ra,0xc
   134f4:	0e808093          	addi	ra,ra,232 # 1f5d8 <tdat>
   134f8:	00609183          	lh	gp,6(ra)
   134fc:	00100eb7          	lui	t4,0x100
   13500:	fffe8e9b          	addiw	t4,t4,-1
   13504:	00ce9e93          	slli	t4,t4,0xc
   13508:	00fe8e93          	addi	t4,t4,15 # 10000f <heap_memory_used+0xddd57>
   1350c:	00500e13          	li	t3,5
   13510:	25d19063          	bne	gp,t4,13750 <fail>

0000000000013514 <test_6>:
   13514:	0000c097          	auipc	ra,0xc
   13518:	0ca08093          	addi	ra,ra,202 # 1f5de <tdat4>
   1351c:	ffa09183          	lh	gp,-6(ra)
   13520:	0ff00e93          	li	t4,255
   13524:	00600e13          	li	t3,6
   13528:	23d19463          	bne	gp,t4,13750 <fail>

000000000001352c <test_7>:
   1352c:	0000c097          	auipc	ra,0xc
   13530:	0b208093          	addi	ra,ra,178 # 1f5de <tdat4>
   13534:	ffc09183          	lh	gp,-4(ra)
   13538:	00100e9b          	addiw	t4,zero,1
   1353c:	020e9e93          	slli	t4,t4,0x20
   13540:	f00e8e93          	addi	t4,t4,-256
   13544:	00700e13          	li	t3,7
   13548:	21d19463          	bne	gp,t4,13750 <fail>

000000000001354c <test_8>:
   1354c:	0000c097          	auipc	ra,0xc
   13550:	09208093          	addi	ra,ra,146 # 1f5de <tdat4>
   13554:	ffe09183          	lh	gp,-2(ra)
   13558:	00001eb7          	lui	t4,0x1
   1355c:	ff0e8e9b          	addiw	t4,t4,-16
   13560:	00800e13          	li	t3,8
   13564:	1fd19663          	bne	gp,t4,13750 <fail>

0000000000013568 <test_9>:
   13568:	0000c097          	auipc	ra,0xc
   1356c:	07608093          	addi	ra,ra,118 # 1f5de <tdat4>
   13570:	00009183          	lh	gp,0(ra)
   13574:	00100eb7          	lui	t4,0x100
   13578:	fffe8e9b          	addiw	t4,t4,-1
   1357c:	00ce9e93          	slli	t4,t4,0xc
   13580:	00fe8e93          	addi	t4,t4,15 # 10000f <heap_memory_used+0xddd57>
   13584:	00900e13          	li	t3,9
   13588:	1dd19463          	bne	gp,t4,13750 <fail>

000000000001358c <test_10>:
   1358c:	0000c097          	auipc	ra,0xc
   13590:	04c08093          	addi	ra,ra,76 # 1f5d8 <tdat>
   13594:	fe008093          	addi	ra,ra,-32
   13598:	02009183          	lh	gp,32(ra)
   1359c:	0ff00e93          	li	t4,255
   135a0:	00a00e13          	li	t3,10
   135a4:	1bd19663          	bne	gp,t4,13750 <fail>

00000000000135a8 <test_11>:
   135a8:	0000c097          	auipc	ra,0xc
   135ac:	03008093          	addi	ra,ra,48 # 1f5d8 <tdat>
   135b0:	ffb08093          	addi	ra,ra,-5
   135b4:	00709183          	lh	gp,7(ra)
   135b8:	00100e9b          	addiw	t4,zero,1
   135bc:	020e9e93          	slli	t4,t4,0x20
   135c0:	f00e8e93          	addi	t4,t4,-256
   135c4:	00b00e13          	li	t3,11
   135c8:	19d19463          	bne	gp,t4,13750 <fail>

00000000000135cc <test_12>:
   135cc:	00c00e13          	li	t3,12
   135d0:	00000213          	li	tp,0
   135d4:	0000c097          	auipc	ra,0xc
   135d8:	00608093          	addi	ra,ra,6 # 1f5da <tdat2>
   135dc:	00209183          	lh	gp,2(ra)
   135e0:	00018313          	mv	t1,gp
   135e4:	00001eb7          	lui	t4,0x1
   135e8:	ff0e8e9b          	addiw	t4,t4,-16
   135ec:	17d31263          	bne	t1,t4,13750 <fail>
   135f0:	00120213          	addi	tp,tp,1 # 1 <_start+0x1>
   135f4:	00200293          	li	t0,2
   135f8:	fc521ee3          	bne	tp,t0,135d4 <test_12+0x8>

00000000000135fc <test_13>:
   135fc:	00d00e13          	li	t3,13
   13600:	00000213          	li	tp,0
   13604:	0000c097          	auipc	ra,0xc
   13608:	fd808093          	addi	ra,ra,-40 # 1f5dc <tdat3>
   1360c:	00209183          	lh	gp,2(ra)
   13610:	00000013          	nop
   13614:	00018313          	mv	t1,gp
   13618:	00100eb7          	lui	t4,0x100
   1361c:	fffe8e9b          	addiw	t4,t4,-1
   13620:	00ce9e93          	slli	t4,t4,0xc
   13624:	00fe8e93          	addi	t4,t4,15 # 10000f <heap_memory_used+0xddd57>
   13628:	13d31463          	bne	t1,t4,13750 <fail>
   1362c:	00120213          	addi	tp,tp,1 # 1 <_start+0x1>
   13630:	00200293          	li	t0,2
   13634:	fc5218e3          	bne	tp,t0,13604 <test_13+0x8>

0000000000013638 <test_14>:
   13638:	00e00e13          	li	t3,14
   1363c:	00000213          	li	tp,0
   13640:	0000c097          	auipc	ra,0xc
   13644:	f9808093          	addi	ra,ra,-104 # 1f5d8 <tdat>
   13648:	00209183          	lh	gp,2(ra)
   1364c:	00000013          	nop
   13650:	00000013          	nop
   13654:	00018313          	mv	t1,gp
   13658:	00100e9b          	addiw	t4,zero,1
   1365c:	020e9e93          	slli	t4,t4,0x20
   13660:	f00e8e93          	addi	t4,t4,-256
   13664:	0fd31663          	bne	t1,t4,13750 <fail>
   13668:	00120213          	addi	tp,tp,1 # 1 <_start+0x1>
   1366c:	00200293          	li	t0,2
   13670:	fc5218e3          	bne	tp,t0,13640 <test_14+0x8>

0000000000013674 <test_15>:
   13674:	00f00e13          	li	t3,15
   13678:	00000213          	li	tp,0
   1367c:	0000c097          	auipc	ra,0xc
   13680:	f5e08093          	addi	ra,ra,-162 # 1f5da <tdat2>
   13684:	00209183          	lh	gp,2(ra)
   13688:	00001eb7          	lui	t4,0x1
   1368c:	ff0e8e9b          	addiw	t4,t4,-16
   13690:	0dd19063          	bne	gp,t4,13750 <fail>
   13694:	00120213          	addi	tp,tp,1 # 1 <_start+0x1>
   13698:	00200293          	li	t0,2
   1369c:	fe5210e3          	bne	tp,t0,1367c <test_15+0x8>

00000000000136a0 <test_16>:
   136a0:	01000e13          	li	t3,16
   136a4:	00000213          	li	tp,0
   136a8:	0000c097          	auipc	ra,0xc
   136ac:	f3408093          	addi	ra,ra,-204 # 1f5dc <tdat3>
   136b0:	00000013          	nop
   136b4:	00209183          	lh	gp,2(ra)
   136b8:	00100eb7          	lui	t4,0x100
   136bc:	fffe8e9b          	addiw	t4,t4,-1
   136c0:	00ce9e93          	slli	t4,t4,0xc
   136c4:	00fe8e93          	addi	t4,t4,15 # 10000f <heap_memory_used+0xddd57>
   136c8:	09d19463          	bne	gp,t4,13750 <fail>
   136cc:	00120213          	addi	tp,tp,1 # 1 <_start+0x1>
   136d0:	00200293          	li	t0,2
   136d4:	fc521ae3          	bne	tp,t0,136a8 <test_16+0x8>

00000000000136d8 <test_17>:
   136d8:	01100e13          	li	t3,17
   136dc:	00000213          	li	tp,0
   136e0:	0000c097          	auipc	ra,0xc
   136e4:	ef808093          	addi	ra,ra,-264 # 1f5d8 <tdat>
   136e8:	00000013          	nop
   136ec:	00000013          	nop
   136f0:	00209183          	lh	gp,2(ra)
   136f4:	00100e9b          	addiw	t4,zero,1
   136f8:	020e9e93          	slli	t4,t4,0x20
   136fc:	f00e8e93          	addi	t4,t4,-256
   13700:	05d19863          	bne	gp,t4,13750 <fail>
   13704:	00120213          	addi	tp,tp,1 # 1 <_start+0x1>
   13708:	00200293          	li	t0,2
   1370c:	fc521ae3          	bne	tp,t0,136e0 <test_17+0x8>

0000000000013710 <test_18>:
   13710:	0000c197          	auipc	gp,0xc
   13714:	ec818193          	addi	gp,gp,-312 # 1f5d8 <tdat>
   13718:	00019103          	lh	sp,0(gp)
   1371c:	00200113          	li	sp,2
   13720:	00200e93          	li	t4,2
   13724:	01200e13          	li	t3,18
   13728:	03d11463          	bne	sp,t4,13750 <fail>

000000000001372c <test_19>:
   1372c:	0000c197          	auipc	gp,0xc
   13730:	eac18193          	addi	gp,gp,-340 # 1f5d8 <tdat>
   13734:	00019103          	lh	sp,0(gp)
   13738:	00000013          	nop
   1373c:	00200113          	li	sp,2
   13740:	00200e93          	li	t4,2
   13744:	01300e13          	li	t3,19
   13748:	01d11463          	bne	sp,t4,13750 <fail>
   1374c:	05c01863          	bne	zero,t3,1379c <pass>

0000000000013750 <fail>:
   13750:	04500513          	li	a0,69
   13754:	00004137          	lui	sp,0x4
   13758:	7b00a0ef          	jal	ra,1df08 <printf_c>
   1375c:	05200513          	li	a0,82
   13760:	00004137          	lui	sp,0x4
   13764:	7a40a0ef          	jal	ra,1df08 <printf_c>
   13768:	00004137          	lui	sp,0x4
   1376c:	79c0a0ef          	jal	ra,1df08 <printf_c>
   13770:	04f00513          	li	a0,79
   13774:	00004137          	lui	sp,0x4
   13778:	7900a0ef          	jal	ra,1df08 <printf_c>
   1377c:	00004137          	lui	sp,0x4
   13780:	05200513          	li	a0,82
   13784:	00004137          	lui	sp,0x4
   13788:	7800a0ef          	jal	ra,1df08 <printf_c>
   1378c:	00a00513          	li	a0,10
   13790:	00004137          	lui	sp,0x4
   13794:	7740a0ef          	jal	ra,1df08 <printf_c>
   13798:	0340006f          	j	137cc <lhu>

000000000001379c <pass>:
   1379c:	04f00513          	li	a0,79
   137a0:	00004137          	lui	sp,0x4
   137a4:	7640a0ef          	jal	ra,1df08 <printf_c>
   137a8:	04b00513          	li	a0,75
   137ac:	00004137          	lui	sp,0x4
   137b0:	7580a0ef          	jal	ra,1df08 <printf_c>
   137b4:	00a00513          	li	a0,10
   137b8:	00004137          	lui	sp,0x4
   137bc:	74c0a0ef          	jal	ra,1df08 <printf_c>
   137c0:	00c0006f          	j	137cc <lhu>

00000000000137c4 <.test_name>:
   137c4:	686c                	ld	a1,208(s0)
   137c6:	2075                	0x2075
   137c8:	0009                	c.addi	zero,2
	...

00000000000137cc <lhu>:
   137cc:	00013537          	lui	a0,0x13
   137d0:	7c450513          	addi	a0,a0,1988 # 137c4 <.test_name>

00000000000137d4 <.prname_next>:
   137d4:	00004137          	lui	sp,0x4
   137d8:	75c0a0ef          	jal	ra,1df34 <printf_s>

00000000000137dc <test_2>:
   137dc:	0000c097          	auipc	ra,0xc
   137e0:	e0408093          	addi	ra,ra,-508 # 1f5e0 <tdat>
   137e4:	0000d183          	lhu	gp,0(ra)
   137e8:	0ff00e93          	li	t4,255
   137ec:	00200e13          	li	t3,2
   137f0:	27d19663          	bne	gp,t4,13a5c <fail>

00000000000137f4 <test_3>:
   137f4:	0000c097          	auipc	ra,0xc
   137f8:	dec08093          	addi	ra,ra,-532 # 1f5e0 <tdat>
   137fc:	0020d183          	lhu	gp,2(ra)
   13800:	00010eb7          	lui	t4,0x10
   13804:	f00e8e9b          	addiw	t4,t4,-256
   13808:	00300e13          	li	t3,3
   1380c:	25d19863          	bne	gp,t4,13a5c <fail>

0000000000013810 <test_4>:
   13810:	0000c097          	auipc	ra,0xc
   13814:	dd008093          	addi	ra,ra,-560 # 1f5e0 <tdat>
   13818:	0040d183          	lhu	gp,4(ra)
   1381c:	00001eb7          	lui	t4,0x1
   13820:	ff0e8e9b          	addiw	t4,t4,-16
   13824:	00400e13          	li	t3,4
   13828:	23d19a63          	bne	gp,t4,13a5c <fail>

000000000001382c <test_5>:
   1382c:	0000c097          	auipc	ra,0xc
   13830:	db408093          	addi	ra,ra,-588 # 1f5e0 <tdat>
   13834:	0060d183          	lhu	gp,6(ra)
   13838:	0000feb7          	lui	t4,0xf
   1383c:	00fe8e9b          	addiw	t4,t4,15
   13840:	00500e13          	li	t3,5
   13844:	21d19c63          	bne	gp,t4,13a5c <fail>

0000000000013848 <test_6>:
   13848:	0000c097          	auipc	ra,0xc
   1384c:	d9e08093          	addi	ra,ra,-610 # 1f5e6 <tdat4>
   13850:	ffa0d183          	lhu	gp,-6(ra)
   13854:	0ff00e93          	li	t4,255
   13858:	00600e13          	li	t3,6
   1385c:	21d19063          	bne	gp,t4,13a5c <fail>

0000000000013860 <test_7>:
   13860:	0000c097          	auipc	ra,0xc
   13864:	d8608093          	addi	ra,ra,-634 # 1f5e6 <tdat4>
   13868:	ffc0d183          	lhu	gp,-4(ra)
   1386c:	00010eb7          	lui	t4,0x10
   13870:	f00e8e9b          	addiw	t4,t4,-256
   13874:	00700e13          	li	t3,7
   13878:	1fd19263          	bne	gp,t4,13a5c <fail>

000000000001387c <test_8>:
   1387c:	0000c097          	auipc	ra,0xc
   13880:	d6a08093          	addi	ra,ra,-662 # 1f5e6 <tdat4>
   13884:	ffe0d183          	lhu	gp,-2(ra)
   13888:	00001eb7          	lui	t4,0x1
   1388c:	ff0e8e9b          	addiw	t4,t4,-16
   13890:	00800e13          	li	t3,8
   13894:	1dd19463          	bne	gp,t4,13a5c <fail>

0000000000013898 <test_9>:
   13898:	0000c097          	auipc	ra,0xc
   1389c:	d4e08093          	addi	ra,ra,-690 # 1f5e6 <tdat4>
   138a0:	0000d183          	lhu	gp,0(ra)
   138a4:	0000feb7          	lui	t4,0xf
   138a8:	00fe8e9b          	addiw	t4,t4,15
   138ac:	00900e13          	li	t3,9
   138b0:	1bd19663          	bne	gp,t4,13a5c <fail>

00000000000138b4 <test_10>:
   138b4:	0000c097          	auipc	ra,0xc
   138b8:	d2c08093          	addi	ra,ra,-724 # 1f5e0 <tdat>
   138bc:	fe008093          	addi	ra,ra,-32
   138c0:	0200d183          	lhu	gp,32(ra)
   138c4:	0ff00e93          	li	t4,255
   138c8:	00a00e13          	li	t3,10
   138cc:	19d19863          	bne	gp,t4,13a5c <fail>

00000000000138d0 <test_11>:
   138d0:	0000c097          	auipc	ra,0xc
   138d4:	d1008093          	addi	ra,ra,-752 # 1f5e0 <tdat>
   138d8:	ffb08093          	addi	ra,ra,-5
   138dc:	0070d183          	lhu	gp,7(ra)
   138e0:	00010eb7          	lui	t4,0x10
   138e4:	f00e8e9b          	addiw	t4,t4,-256
   138e8:	00b00e13          	li	t3,11
   138ec:	17d19863          	bne	gp,t4,13a5c <fail>

00000000000138f0 <test_12>:
   138f0:	00c00e13          	li	t3,12
   138f4:	00000213          	li	tp,0
   138f8:	0000c097          	auipc	ra,0xc
   138fc:	cea08093          	addi	ra,ra,-790 # 1f5e2 <tdat2>
   13900:	0020d183          	lhu	gp,2(ra)
   13904:	00018313          	mv	t1,gp
   13908:	00001eb7          	lui	t4,0x1
   1390c:	ff0e8e9b          	addiw	t4,t4,-16
   13910:	15d31663          	bne	t1,t4,13a5c <fail>
   13914:	00120213          	addi	tp,tp,1 # 1 <_start+0x1>
   13918:	00200293          	li	t0,2
   1391c:	fc521ee3          	bne	tp,t0,138f8 <test_12+0x8>

0000000000013920 <test_13>:
   13920:	00d00e13          	li	t3,13
   13924:	00000213          	li	tp,0
   13928:	0000c097          	auipc	ra,0xc
   1392c:	cbc08093          	addi	ra,ra,-836 # 1f5e4 <tdat3>
   13930:	0020d183          	lhu	gp,2(ra)
   13934:	00000013          	nop
   13938:	00018313          	mv	t1,gp
   1393c:	0000feb7          	lui	t4,0xf
   13940:	00fe8e9b          	addiw	t4,t4,15
   13944:	11d31c63          	bne	t1,t4,13a5c <fail>
   13948:	00120213          	addi	tp,tp,1 # 1 <_start+0x1>
   1394c:	00200293          	li	t0,2
   13950:	fc521ce3          	bne	tp,t0,13928 <test_13+0x8>

0000000000013954 <test_14>:
   13954:	00e00e13          	li	t3,14
   13958:	00000213          	li	tp,0
   1395c:	0000c097          	auipc	ra,0xc
   13960:	c8408093          	addi	ra,ra,-892 # 1f5e0 <tdat>
   13964:	0020d183          	lhu	gp,2(ra)
   13968:	00000013          	nop
   1396c:	00000013          	nop
   13970:	00018313          	mv	t1,gp
   13974:	00010eb7          	lui	t4,0x10
   13978:	f00e8e9b          	addiw	t4,t4,-256
   1397c:	0fd31063          	bne	t1,t4,13a5c <fail>
   13980:	00120213          	addi	tp,tp,1 # 1 <_start+0x1>
   13984:	00200293          	li	t0,2
   13988:	fc521ae3          	bne	tp,t0,1395c <test_14+0x8>

000000000001398c <test_15>:
   1398c:	00f00e13          	li	t3,15
   13990:	00000213          	li	tp,0
   13994:	0000c097          	auipc	ra,0xc
   13998:	c4e08093          	addi	ra,ra,-946 # 1f5e2 <tdat2>
   1399c:	0020d183          	lhu	gp,2(ra)
   139a0:	00001eb7          	lui	t4,0x1
   139a4:	ff0e8e9b          	addiw	t4,t4,-16
   139a8:	0bd19a63          	bne	gp,t4,13a5c <fail>
   139ac:	00120213          	addi	tp,tp,1 # 1 <_start+0x1>
   139b0:	00200293          	li	t0,2
   139b4:	fe5210e3          	bne	tp,t0,13994 <test_15+0x8>

00000000000139b8 <test_16>:
   139b8:	01000e13          	li	t3,16
   139bc:	00000213          	li	tp,0
   139c0:	0000c097          	auipc	ra,0xc
   139c4:	c2408093          	addi	ra,ra,-988 # 1f5e4 <tdat3>
   139c8:	00000013          	nop
   139cc:	0020d183          	lhu	gp,2(ra)
   139d0:	0000feb7          	lui	t4,0xf
   139d4:	00fe8e9b          	addiw	t4,t4,15
   139d8:	09d19263          	bne	gp,t4,13a5c <fail>
   139dc:	00120213          	addi	tp,tp,1 # 1 <_start+0x1>
   139e0:	00200293          	li	t0,2
   139e4:	fc521ee3          	bne	tp,t0,139c0 <test_16+0x8>

00000000000139e8 <test_17>:
   139e8:	01100e13          	li	t3,17
   139ec:	00000213          	li	tp,0
   139f0:	0000c097          	auipc	ra,0xc
   139f4:	bf008093          	addi	ra,ra,-1040 # 1f5e0 <tdat>
   139f8:	00000013          	nop
   139fc:	00000013          	nop
   13a00:	0020d183          	lhu	gp,2(ra)
   13a04:	00010eb7          	lui	t4,0x10
   13a08:	f00e8e9b          	addiw	t4,t4,-256
   13a0c:	05d19863          	bne	gp,t4,13a5c <fail>
   13a10:	00120213          	addi	tp,tp,1 # 1 <_start+0x1>
   13a14:	00200293          	li	t0,2
   13a18:	fc521ce3          	bne	tp,t0,139f0 <test_17+0x8>

0000000000013a1c <test_18>:
   13a1c:	0000c197          	auipc	gp,0xc
   13a20:	bc418193          	addi	gp,gp,-1084 # 1f5e0 <tdat>
   13a24:	0001d103          	lhu	sp,0(gp)
   13a28:	00200113          	li	sp,2
   13a2c:	00200e93          	li	t4,2
   13a30:	01200e13          	li	t3,18
   13a34:	03d11463          	bne	sp,t4,13a5c <fail>

0000000000013a38 <test_19>:
   13a38:	0000c197          	auipc	gp,0xc
   13a3c:	ba818193          	addi	gp,gp,-1112 # 1f5e0 <tdat>
   13a40:	0001d103          	lhu	sp,0(gp)
   13a44:	00000013          	nop
   13a48:	00200113          	li	sp,2
   13a4c:	00200e93          	li	t4,2
   13a50:	01300e13          	li	t3,19
   13a54:	01d11463          	bne	sp,t4,13a5c <fail>
   13a58:	05c01863          	bne	zero,t3,13aa8 <pass>

0000000000013a5c <fail>:
   13a5c:	04500513          	li	a0,69
   13a60:	00004137          	lui	sp,0x4
   13a64:	4a40a0ef          	jal	ra,1df08 <printf_c>
   13a68:	05200513          	li	a0,82
   13a6c:	00004137          	lui	sp,0x4
   13a70:	4980a0ef          	jal	ra,1df08 <printf_c>
   13a74:	00004137          	lui	sp,0x4
   13a78:	4900a0ef          	jal	ra,1df08 <printf_c>
   13a7c:	04f00513          	li	a0,79
   13a80:	00004137          	lui	sp,0x4
   13a84:	4840a0ef          	jal	ra,1df08 <printf_c>
   13a88:	00004137          	lui	sp,0x4
   13a8c:	05200513          	li	a0,82
   13a90:	00004137          	lui	sp,0x4
   13a94:	4740a0ef          	jal	ra,1df08 <printf_c>
   13a98:	00a00513          	li	a0,10
   13a9c:	00004137          	lui	sp,0x4
   13aa0:	4680a0ef          	jal	ra,1df08 <printf_c>
   13aa4:	0340006f          	j	13ad8 <lui>

0000000000013aa8 <pass>:
   13aa8:	04f00513          	li	a0,79
   13aac:	00004137          	lui	sp,0x4
   13ab0:	4580a0ef          	jal	ra,1df08 <printf_c>
   13ab4:	04b00513          	li	a0,75
   13ab8:	00004137          	lui	sp,0x4
   13abc:	44c0a0ef          	jal	ra,1df08 <printf_c>
   13ac0:	00a00513          	li	a0,10
   13ac4:	00004137          	lui	sp,0x4
   13ac8:	4400a0ef          	jal	ra,1df08 <printf_c>
   13acc:	00c0006f          	j	13ad8 <lui>

0000000000013ad0 <.test_name>:
   13ad0:	756c                	ld	a1,232(a0)
   13ad2:	2069                	0x2069
   13ad4:	0009                	c.addi	zero,2
	...

0000000000013ad8 <lui>:
   13ad8:	00014537          	lui	a0,0x14
   13adc:	ad050513          	addi	a0,a0,-1328 # 13ad0 <.test_name>

0000000000013ae0 <.prname_next>:
   13ae0:	00004137          	lui	sp,0x4
   13ae4:	4500a0ef          	jal	ra,1df34 <printf_s>

0000000000013ae8 <test_2>:
   13ae8:	000000b7          	lui	ra,0x0
   13aec:	00000e93          	li	t4,0
   13af0:	00200e13          	li	t3,2
   13af4:	07d09263          	bne	ra,t4,13b58 <fail>

0000000000013af8 <test_3>:
   13af8:	fffff0b7          	lui	ra,0xfffff
   13afc:	4010d093          	srai	ra,ra,0x1
   13b00:	00100e9b          	addiw	t4,zero,1
   13b04:	020e9e93          	slli	t4,t4,0x20
   13b08:	800e8e93          	addi	t4,t4,-2048 # f800 <coremarkBenchmark+0xf758>
   13b0c:	00300e13          	li	t3,3
   13b10:	05d09463          	bne	ra,t4,13b58 <fail>

0000000000013b14 <test_4>:
   13b14:	7ffff0b7          	lui	ra,0x7ffff
   13b18:	4140d093          	srai	ra,ra,0x14
   13b1c:	7ff00e93          	li	t4,2047
   13b20:	00400e13          	li	t3,4
   13b24:	03d09a63          	bne	ra,t4,13b58 <fail>

0000000000013b28 <test_5>:
   13b28:	800000b7          	lui	ra,0x80000
   13b2c:	4140d093          	srai	ra,ra,0x14
   13b30:	00100e9b          	addiw	t4,zero,1
   13b34:	020e9e93          	slli	t4,t4,0x20
   13b38:	800e8e93          	addi	t4,t4,-2048
   13b3c:	00500e13          	li	t3,5
   13b40:	01d09c63          	bne	ra,t4,13b58 <fail>

0000000000013b44 <test_6>:
   13b44:	80000037          	lui	zero,0x80000
   13b48:	00000e93          	li	t4,0
   13b4c:	00600e13          	li	t3,6
   13b50:	01d01463          	bne	zero,t4,13b58 <fail>
   13b54:	05c01863          	bne	zero,t3,13ba4 <pass>

0000000000013b58 <fail>:
   13b58:	04500513          	li	a0,69
   13b5c:	00004137          	lui	sp,0x4
   13b60:	3a80a0ef          	jal	ra,1df08 <printf_c>
   13b64:	05200513          	li	a0,82
   13b68:	00004137          	lui	sp,0x4
   13b6c:	39c0a0ef          	jal	ra,1df08 <printf_c>
   13b70:	00004137          	lui	sp,0x4
   13b74:	3940a0ef          	jal	ra,1df08 <printf_c>
   13b78:	04f00513          	li	a0,79
   13b7c:	00004137          	lui	sp,0x4
   13b80:	3880a0ef          	jal	ra,1df08 <printf_c>
   13b84:	00004137          	lui	sp,0x4
   13b88:	05200513          	li	a0,82
   13b8c:	00004137          	lui	sp,0x4
   13b90:	3780a0ef          	jal	ra,1df08 <printf_c>
   13b94:	00a00513          	li	a0,10
   13b98:	00004137          	lui	sp,0x4
   13b9c:	36c0a0ef          	jal	ra,1df08 <printf_c>
   13ba0:	0300006f          	j	13bd0 <lw>

0000000000013ba4 <pass>:
   13ba4:	04f00513          	li	a0,79
   13ba8:	00004137          	lui	sp,0x4
   13bac:	35c0a0ef          	jal	ra,1df08 <printf_c>
   13bb0:	04b00513          	li	a0,75
   13bb4:	00004137          	lui	sp,0x4
   13bb8:	3500a0ef          	jal	ra,1df08 <printf_c>
   13bbc:	00a00513          	li	a0,10
   13bc0:	00004137          	lui	sp,0x4
   13bc4:	3440a0ef          	jal	ra,1df08 <printf_c>
   13bc8:	0080006f          	j	13bd0 <lw>

0000000000013bcc <.test_name>:
   13bcc:	776c                	ld	a1,232(a4)
   13bce:	0009                	c.addi	zero,2

0000000000013bd0 <lw>:
   13bd0:	00014537          	lui	a0,0x14
   13bd4:	bcc50513          	addi	a0,a0,-1076 # 13bcc <.test_name>

0000000000013bd8 <.prname_next>:
   13bd8:	00004137          	lui	sp,0x4
   13bdc:	3580a0ef          	jal	ra,1df34 <printf_s>

0000000000013be0 <test_2>:
   13be0:	0000c097          	auipc	ra,0xc
   13be4:	a0808093          	addi	ra,ra,-1528 # 1f5e8 <tdat>
   13be8:	0000a183          	lw	gp,0(ra)
   13bec:	00ff0eb7          	lui	t4,0xff0
   13bf0:	0ffe8e9b          	addiw	t4,t4,255
   13bf4:	00200e13          	li	t3,2
   13bf8:	2bd19e63          	bne	gp,t4,13eb4 <fail>

0000000000013bfc <test_3>:
   13bfc:	0000c097          	auipc	ra,0xc
   13c00:	9ec08093          	addi	ra,ra,-1556 # 1f5e8 <tdat>
   13c04:	0040a183          	lw	gp,4(ra)
   13c08:	00010eb7          	lui	t4,0x10
   13c0c:	f01e8e9b          	addiw	t4,t4,-255
   13c10:	010e9e93          	slli	t4,t4,0x10
   13c14:	f00e8e93          	addi	t4,t4,-256 # ff00 <coremarkBenchmark+0xfe58>
   13c18:	00300e13          	li	t3,3
   13c1c:	29d19c63          	bne	gp,t4,13eb4 <fail>

0000000000013c20 <test_4>:
   13c20:	0000c097          	auipc	ra,0xc
   13c24:	9c808093          	addi	ra,ra,-1592 # 1f5e8 <tdat>
   13c28:	0080a183          	lw	gp,8(ra)
   13c2c:	0ff01eb7          	lui	t4,0xff01
   13c30:	ff0e8e9b          	addiw	t4,t4,-16
   13c34:	00400e13          	li	t3,4
   13c38:	27d19e63          	bne	gp,t4,13eb4 <fail>

0000000000013c3c <test_5>:
   13c3c:	0000c097          	auipc	ra,0xc
   13c40:	9ac08093          	addi	ra,ra,-1620 # 1f5e8 <tdat>
   13c44:	00c0a183          	lw	gp,12(ra)
   13c48:	000f0eb7          	lui	t4,0xf0
   13c4c:	0ffe8e9b          	addiw	t4,t4,255
   13c50:	00ce9e93          	slli	t4,t4,0xc
   13c54:	00fe8e93          	addi	t4,t4,15 # f000f <heap_memory_used+0xcdd57>
   13c58:	00500e13          	li	t3,5
   13c5c:	25d19c63          	bne	gp,t4,13eb4 <fail>

0000000000013c60 <test_6>:
   13c60:	0000c097          	auipc	ra,0xc
   13c64:	99408093          	addi	ra,ra,-1644 # 1f5f4 <tdat4>
   13c68:	ff40a183          	lw	gp,-12(ra)
   13c6c:	00ff0eb7          	lui	t4,0xff0
   13c70:	0ffe8e9b          	addiw	t4,t4,255
   13c74:	00600e13          	li	t3,6
   13c78:	23d19e63          	bne	gp,t4,13eb4 <fail>

0000000000013c7c <test_7>:
   13c7c:	0000c097          	auipc	ra,0xc
   13c80:	97808093          	addi	ra,ra,-1672 # 1f5f4 <tdat4>
   13c84:	ff80a183          	lw	gp,-8(ra)
   13c88:	00010eb7          	lui	t4,0x10
   13c8c:	f01e8e9b          	addiw	t4,t4,-255
   13c90:	010e9e93          	slli	t4,t4,0x10
   13c94:	f00e8e93          	addi	t4,t4,-256 # ff00 <coremarkBenchmark+0xfe58>
   13c98:	00700e13          	li	t3,7
   13c9c:	21d19c63          	bne	gp,t4,13eb4 <fail>

0000000000013ca0 <test_8>:
   13ca0:	0000c097          	auipc	ra,0xc
   13ca4:	95408093          	addi	ra,ra,-1708 # 1f5f4 <tdat4>
   13ca8:	ffc0a183          	lw	gp,-4(ra)
   13cac:	0ff01eb7          	lui	t4,0xff01
   13cb0:	ff0e8e9b          	addiw	t4,t4,-16
   13cb4:	00800e13          	li	t3,8
   13cb8:	1fd19e63          	bne	gp,t4,13eb4 <fail>

0000000000013cbc <test_9>:
   13cbc:	0000c097          	auipc	ra,0xc
   13cc0:	93808093          	addi	ra,ra,-1736 # 1f5f4 <tdat4>
   13cc4:	0000a183          	lw	gp,0(ra)
   13cc8:	000f0eb7          	lui	t4,0xf0
   13ccc:	0ffe8e9b          	addiw	t4,t4,255
   13cd0:	00ce9e93          	slli	t4,t4,0xc
   13cd4:	00fe8e93          	addi	t4,t4,15 # f000f <heap_memory_used+0xcdd57>
   13cd8:	00900e13          	li	t3,9
   13cdc:	1dd19c63          	bne	gp,t4,13eb4 <fail>

0000000000013ce0 <test_10>:
   13ce0:	0000c097          	auipc	ra,0xc
   13ce4:	90808093          	addi	ra,ra,-1784 # 1f5e8 <tdat>
   13ce8:	fe008093          	addi	ra,ra,-32
   13cec:	0200a183          	lw	gp,32(ra)
   13cf0:	00ff0eb7          	lui	t4,0xff0
   13cf4:	0ffe8e9b          	addiw	t4,t4,255
   13cf8:	00a00e13          	li	t3,10
   13cfc:	1bd19c63          	bne	gp,t4,13eb4 <fail>

0000000000013d00 <test_11>:
   13d00:	0000c097          	auipc	ra,0xc
   13d04:	8e808093          	addi	ra,ra,-1816 # 1f5e8 <tdat>
   13d08:	ffd08093          	addi	ra,ra,-3
   13d0c:	0070a183          	lw	gp,7(ra)
   13d10:	00010eb7          	lui	t4,0x10
   13d14:	f01e8e9b          	addiw	t4,t4,-255
   13d18:	010e9e93          	slli	t4,t4,0x10
   13d1c:	f00e8e93          	addi	t4,t4,-256 # ff00 <coremarkBenchmark+0xfe58>
   13d20:	00b00e13          	li	t3,11
   13d24:	19d19863          	bne	gp,t4,13eb4 <fail>

0000000000013d28 <test_12>:
   13d28:	00c00e13          	li	t3,12
   13d2c:	00000213          	li	tp,0
   13d30:	0000c097          	auipc	ra,0xc
   13d34:	8bc08093          	addi	ra,ra,-1860 # 1f5ec <tdat2>
   13d38:	0040a183          	lw	gp,4(ra)
   13d3c:	00018313          	mv	t1,gp
   13d40:	0ff01eb7          	lui	t4,0xff01
   13d44:	ff0e8e9b          	addiw	t4,t4,-16
   13d48:	17d31663          	bne	t1,t4,13eb4 <fail>
   13d4c:	00120213          	addi	tp,tp,1 # 1 <_start+0x1>
   13d50:	00200293          	li	t0,2
   13d54:	fc521ee3          	bne	tp,t0,13d30 <test_12+0x8>

0000000000013d58 <test_13>:
   13d58:	00d00e13          	li	t3,13
   13d5c:	00000213          	li	tp,0
   13d60:	0000c097          	auipc	ra,0xc
   13d64:	89008093          	addi	ra,ra,-1904 # 1f5f0 <tdat3>
   13d68:	0040a183          	lw	gp,4(ra)
   13d6c:	00000013          	nop
   13d70:	00018313          	mv	t1,gp
   13d74:	000f0eb7          	lui	t4,0xf0
   13d78:	0ffe8e9b          	addiw	t4,t4,255
   13d7c:	00ce9e93          	slli	t4,t4,0xc
   13d80:	00fe8e93          	addi	t4,t4,15 # f000f <heap_memory_used+0xcdd57>
   13d84:	13d31863          	bne	t1,t4,13eb4 <fail>
   13d88:	00120213          	addi	tp,tp,1 # 1 <_start+0x1>
   13d8c:	00200293          	li	t0,2
   13d90:	fc5218e3          	bne	tp,t0,13d60 <test_13+0x8>

0000000000013d94 <test_14>:
   13d94:	00e00e13          	li	t3,14
   13d98:	00000213          	li	tp,0
   13d9c:	0000c097          	auipc	ra,0xc
   13da0:	84c08093          	addi	ra,ra,-1972 # 1f5e8 <tdat>
   13da4:	0040a183          	lw	gp,4(ra)
   13da8:	00000013          	nop
   13dac:	00000013          	nop
   13db0:	00018313          	mv	t1,gp
   13db4:	00010eb7          	lui	t4,0x10
   13db8:	f01e8e9b          	addiw	t4,t4,-255
   13dbc:	010e9e93          	slli	t4,t4,0x10
   13dc0:	f00e8e93          	addi	t4,t4,-256 # ff00 <coremarkBenchmark+0xfe58>
   13dc4:	0fd31863          	bne	t1,t4,13eb4 <fail>
   13dc8:	00120213          	addi	tp,tp,1 # 1 <_start+0x1>
   13dcc:	00200293          	li	t0,2
   13dd0:	fc5216e3          	bne	tp,t0,13d9c <test_14+0x8>

0000000000013dd4 <test_15>:
   13dd4:	00f00e13          	li	t3,15
   13dd8:	00000213          	li	tp,0
   13ddc:	0000c097          	auipc	ra,0xc
   13de0:	81008093          	addi	ra,ra,-2032 # 1f5ec <tdat2>
   13de4:	0040a183          	lw	gp,4(ra)
   13de8:	0ff01eb7          	lui	t4,0xff01
   13dec:	ff0e8e9b          	addiw	t4,t4,-16
   13df0:	0dd19263          	bne	gp,t4,13eb4 <fail>
   13df4:	00120213          	addi	tp,tp,1 # 1 <_start+0x1>
   13df8:	00200293          	li	t0,2
   13dfc:	fe5210e3          	bne	tp,t0,13ddc <test_15+0x8>

0000000000013e00 <test_16>:
   13e00:	01000e13          	li	t3,16
   13e04:	00000213          	li	tp,0
   13e08:	0000b097          	auipc	ra,0xb
   13e0c:	7e808093          	addi	ra,ra,2024 # 1f5f0 <tdat3>
   13e10:	00000013          	nop
   13e14:	0040a183          	lw	gp,4(ra)
   13e18:	000f0eb7          	lui	t4,0xf0
   13e1c:	0ffe8e9b          	addiw	t4,t4,255
   13e20:	00ce9e93          	slli	t4,t4,0xc
   13e24:	00fe8e93          	addi	t4,t4,15 # f000f <heap_memory_used+0xcdd57>
   13e28:	09d19663          	bne	gp,t4,13eb4 <fail>
   13e2c:	00120213          	addi	tp,tp,1 # 1 <_start+0x1>
   13e30:	00200293          	li	t0,2
   13e34:	fc521ae3          	bne	tp,t0,13e08 <test_16+0x8>

0000000000013e38 <test_17>:
   13e38:	01100e13          	li	t3,17
   13e3c:	00000213          	li	tp,0
   13e40:	0000b097          	auipc	ra,0xb
   13e44:	7a808093          	addi	ra,ra,1960 # 1f5e8 <tdat>
   13e48:	00000013          	nop
   13e4c:	00000013          	nop
   13e50:	0040a183          	lw	gp,4(ra)
   13e54:	00010eb7          	lui	t4,0x10
   13e58:	f01e8e9b          	addiw	t4,t4,-255
   13e5c:	010e9e93          	slli	t4,t4,0x10
   13e60:	f00e8e93          	addi	t4,t4,-256 # ff00 <coremarkBenchmark+0xfe58>
   13e64:	05d19863          	bne	gp,t4,13eb4 <fail>
   13e68:	00120213          	addi	tp,tp,1 # 1 <_start+0x1>
   13e6c:	00200293          	li	t0,2
   13e70:	fc5218e3          	bne	tp,t0,13e40 <test_17+0x8>

0000000000013e74 <test_18>:
   13e74:	0000b197          	auipc	gp,0xb
   13e78:	77418193          	addi	gp,gp,1908 # 1f5e8 <tdat>
   13e7c:	0001a103          	lw	sp,0(gp)
   13e80:	00200113          	li	sp,2
   13e84:	00200e93          	li	t4,2
   13e88:	01200e13          	li	t3,18
   13e8c:	03d11463          	bne	sp,t4,13eb4 <fail>

0000000000013e90 <test_19>:
   13e90:	0000b197          	auipc	gp,0xb
   13e94:	75818193          	addi	gp,gp,1880 # 1f5e8 <tdat>
   13e98:	0001a103          	lw	sp,0(gp)
   13e9c:	00000013          	nop
   13ea0:	00200113          	li	sp,2
   13ea4:	00200e93          	li	t4,2
   13ea8:	01300e13          	li	t3,19
   13eac:	01d11463          	bne	sp,t4,13eb4 <fail>
   13eb0:	05c01863          	bne	zero,t3,13f00 <pass>

0000000000013eb4 <fail>:
   13eb4:	04500513          	li	a0,69
   13eb8:	00004137          	lui	sp,0x4
   13ebc:	04c0a0ef          	jal	ra,1df08 <printf_c>
   13ec0:	05200513          	li	a0,82
   13ec4:	00004137          	lui	sp,0x4
   13ec8:	0400a0ef          	jal	ra,1df08 <printf_c>
   13ecc:	00004137          	lui	sp,0x4
   13ed0:	0380a0ef          	jal	ra,1df08 <printf_c>
   13ed4:	04f00513          	li	a0,79
   13ed8:	00004137          	lui	sp,0x4
   13edc:	02c0a0ef          	jal	ra,1df08 <printf_c>
   13ee0:	00004137          	lui	sp,0x4
   13ee4:	05200513          	li	a0,82
   13ee8:	00004137          	lui	sp,0x4
   13eec:	01c0a0ef          	jal	ra,1df08 <printf_c>
   13ef0:	00a00513          	li	a0,10
   13ef4:	00004137          	lui	sp,0x4
   13ef8:	0100a0ef          	jal	ra,1df08 <printf_c>
   13efc:	73c0106f          	j	15638 <or>

0000000000013f00 <pass>:
   13f00:	04f00513          	li	a0,79
   13f04:	00004137          	lui	sp,0x4
   13f08:	0000a0ef          	jal	ra,1df08 <printf_c>
   13f0c:	04b00513          	li	a0,75
   13f10:	00004137          	lui	sp,0x4
   13f14:	7f5090ef          	jal	ra,1df08 <printf_c>
   13f18:	00a00513          	li	a0,10
   13f1c:	00004137          	lui	sp,0x4
   13f20:	7e9090ef          	jal	ra,1df08 <printf_c>
   13f24:	7140106f          	j	15638 <or>

0000000000013f28 <.test_name>:
   13f28:	756d                	lui	a0,0xffffb
   13f2a:	206c                	fld	fa1,192(s0)
   13f2c:	0009                	c.addi	zero,2
	...

0000000000013f30 <mul>:
   13f30:	00014537          	lui	a0,0x14
   13f34:	f2850513          	addi	a0,a0,-216 # 13f28 <.test_name>

0000000000013f38 <.prname_next>:
   13f38:	00004137          	lui	sp,0x4
   13f3c:	7f9090ef          	jal	ra,1df34 <printf_s>

0000000000013f40 <test_32>:
   13f40:	000080b7          	lui	ra,0x8
   13f44:	e000809b          	addiw	ra,ra,-512
   13f48:	000b7137          	lui	sp,0xb7
   13f4c:	db71011b          	addiw	sp,sp,-585
   13f50:	00c11113          	slli	sp,sp,0xc
   13f54:	db710113          	addi	sp,sp,-585 # b6db7 <heap_memory_used+0x94aff>
   13f58:	022081b3          	mul	gp,ra,sp
   13f5c:	00001eb7          	lui	t4,0x1
   13f60:	200e8e9b          	addiw	t4,t4,512
   13f64:	02000e13          	li	t3,32
   13f68:	51d19863          	bne	gp,t4,14478 <fail>

0000000000013f6c <test_33>:
   13f6c:	000080b7          	lui	ra,0x8
   13f70:	fc00809b          	addiw	ra,ra,-64
   13f74:	000b7137          	lui	sp,0xb7
   13f78:	db71011b          	addiw	sp,sp,-585
   13f7c:	00c11113          	slli	sp,sp,0xc
   13f80:	db710113          	addi	sp,sp,-585 # b6db7 <heap_memory_used+0x94aff>
   13f84:	022081b3          	mul	gp,ra,sp
   13f88:	00001eb7          	lui	t4,0x1
   13f8c:	240e8e9b          	addiw	t4,t4,576
   13f90:	02100e13          	li	t3,33
   13f94:	4fd19263          	bne	gp,t4,14478 <fail>

0000000000013f98 <test_2>:
   13f98:	00000093          	li	ra,0
   13f9c:	00000113          	li	sp,0
   13fa0:	022081b3          	mul	gp,ra,sp
   13fa4:	00000e93          	li	t4,0
   13fa8:	00200e13          	li	t3,2
   13fac:	4dd19663          	bne	gp,t4,14478 <fail>

0000000000013fb0 <test_3>:
   13fb0:	00100093          	li	ra,1
   13fb4:	00100113          	li	sp,1
   13fb8:	022081b3          	mul	gp,ra,sp
   13fbc:	00100e93          	li	t4,1
   13fc0:	00300e13          	li	t3,3
   13fc4:	4bd19a63          	bne	gp,t4,14478 <fail>

0000000000013fc8 <test_4>:
   13fc8:	00300093          	li	ra,3
   13fcc:	00700113          	li	sp,7
   13fd0:	022081b3          	mul	gp,ra,sp
   13fd4:	01500e93          	li	t4,21
   13fd8:	00400e13          	li	t3,4
   13fdc:	49d19e63          	bne	gp,t4,14478 <fail>

0000000000013fe0 <test_5>:
   13fe0:	00000093          	li	ra,0
   13fe4:	00020137          	lui	sp,0x20
   13fe8:	fff1011b          	addiw	sp,sp,-1
   13fec:	00f11113          	slli	sp,sp,0xf
   13ff0:	022081b3          	mul	gp,ra,sp
   13ff4:	00000e93          	li	t4,0
   13ff8:	00500e13          	li	t3,5
   13ffc:	47d19e63          	bne	gp,t4,14478 <fail>

0000000000014000 <test_6>:
   14000:	0010009b          	addiw	ra,zero,1
   14004:	01f09093          	slli	ra,ra,0x1f
   14008:	00000113          	li	sp,0
   1400c:	022081b3          	mul	gp,ra,sp
   14010:	00000e93          	li	t4,0
   14014:	00600e13          	li	t3,6
   14018:	47d19063          	bne	gp,t4,14478 <fail>

000000000001401c <test_7>:
   1401c:	0010009b          	addiw	ra,zero,1
   14020:	01f09093          	slli	ra,ra,0x1f
   14024:	00020137          	lui	sp,0x20
   14028:	fff1011b          	addiw	sp,sp,-1
   1402c:	00f11113          	slli	sp,sp,0xf
   14030:	022081b3          	mul	gp,ra,sp
   14034:	00000e93          	li	t4,0
   14038:	00700e13          	li	t3,7
   1403c:	43d19e63          	bne	gp,t4,14478 <fail>

0000000000014040 <test_30>:
   14040:	000ab0b7          	lui	ra,0xab
   14044:	aab0809b          	addiw	ra,ra,-1365
   14048:	00c09093          	slli	ra,ra,0xc
   1404c:	aab08093          	addi	ra,ra,-1365 # aaaab <heap_memory_used+0x887f3>
   14050:	00030137          	lui	sp,0x30
   14054:	e7d1011b          	addiw	sp,sp,-387
   14058:	022081b3          	mul	gp,ra,sp
   1405c:	00010eb7          	lui	t4,0x10
   14060:	f7fe8e9b          	addiw	t4,t4,-129
   14064:	01e00e13          	li	t3,30
   14068:	41d19863          	bne	gp,t4,14478 <fail>

000000000001406c <test_31>:
   1406c:	000300b7          	lui	ra,0x30
   14070:	e7d0809b          	addiw	ra,ra,-387
   14074:	000ab137          	lui	sp,0xab
   14078:	aab1011b          	addiw	sp,sp,-1365
   1407c:	00c11113          	slli	sp,sp,0xc
   14080:	aab10113          	addi	sp,sp,-1365 # aaaab <heap_memory_used+0x887f3>
   14084:	022081b3          	mul	gp,ra,sp
   14088:	00010eb7          	lui	t4,0x10
   1408c:	f7fe8e9b          	addiw	t4,t4,-129
   14090:	01f00e13          	li	t3,31
   14094:	3fd19263          	bne	gp,t4,14478 <fail>

0000000000014098 <test_34>:
   14098:	0ff0009b          	addiw	ra,zero,255
   1409c:	01809093          	slli	ra,ra,0x18
   140a0:	0ff0011b          	addiw	sp,zero,255
   140a4:	01811113          	slli	sp,sp,0x18
   140a8:	022081b3          	mul	gp,ra,sp
   140ac:	00000e93          	li	t4,0
   140b0:	02200e13          	li	t3,34
   140b4:	3dd19263          	bne	gp,t4,14478 <fail>

00000000000140b8 <test_35>:
   140b8:	0010009b          	addiw	ra,zero,1
   140bc:	02009093          	slli	ra,ra,0x20
   140c0:	fff08093          	addi	ra,ra,-1 # 2ffff <heap_memory_used+0xdd47>
   140c4:	0010011b          	addiw	sp,zero,1
   140c8:	02011113          	slli	sp,sp,0x20
   140cc:	fff10113          	addi	sp,sp,-1
   140d0:	022081b3          	mul	gp,ra,sp
   140d4:	00100e93          	li	t4,1
   140d8:	02300e13          	li	t3,35
   140dc:	39d19e63          	bne	gp,t4,14478 <fail>

00000000000140e0 <test_36>:
   140e0:	0010009b          	addiw	ra,zero,1
   140e4:	02009093          	slli	ra,ra,0x20
   140e8:	fff08093          	addi	ra,ra,-1
   140ec:	00100113          	li	sp,1
   140f0:	022081b3          	mul	gp,ra,sp
   140f4:	00100e9b          	addiw	t4,zero,1
   140f8:	020e9e93          	slli	t4,t4,0x20
   140fc:	fffe8e93          	addi	t4,t4,-1 # ffff <coremarkBenchmark+0xff57>
   14100:	02400e13          	li	t3,36
   14104:	37d19a63          	bne	gp,t4,14478 <fail>

0000000000014108 <test_37>:
   14108:	00100093          	li	ra,1
   1410c:	0010011b          	addiw	sp,zero,1
   14110:	02011113          	slli	sp,sp,0x20
   14114:	fff10113          	addi	sp,sp,-1
   14118:	022081b3          	mul	gp,ra,sp
   1411c:	00100e9b          	addiw	t4,zero,1
   14120:	020e9e93          	slli	t4,t4,0x20
   14124:	fffe8e93          	addi	t4,t4,-1
   14128:	02500e13          	li	t3,37
   1412c:	35d19663          	bne	gp,t4,14478 <fail>

0000000000014130 <test_8>:
   14130:	00d00093          	li	ra,13
   14134:	00b00113          	li	sp,11
   14138:	022080b3          	mul	ra,ra,sp
   1413c:	08f00e93          	li	t4,143
   14140:	00800e13          	li	t3,8
   14144:	33d09a63          	bne	ra,t4,14478 <fail>

0000000000014148 <test_9>:
   14148:	00e00093          	li	ra,14
   1414c:	00b00113          	li	sp,11
   14150:	02208133          	mul	sp,ra,sp
   14154:	09a00e93          	li	t4,154
   14158:	00900e13          	li	t3,9
   1415c:	31d11e63          	bne	sp,t4,14478 <fail>

0000000000014160 <test_10>:
   14160:	00d00093          	li	ra,13
   14164:	021080b3          	mul	ra,ra,ra
   14168:	0a900e93          	li	t4,169
   1416c:	00a00e13          	li	t3,10
   14170:	31d09463          	bne	ra,t4,14478 <fail>

0000000000014174 <test_11>:
   14174:	00000213          	li	tp,0
   14178:	00d00093          	li	ra,13
   1417c:	00b00113          	li	sp,11
   14180:	022081b3          	mul	gp,ra,sp
   14184:	00018313          	mv	t1,gp
   14188:	00120213          	addi	tp,tp,1 # 1 <_start+0x1>
   1418c:	00200293          	li	t0,2
   14190:	fe5214e3          	bne	tp,t0,14178 <test_11+0x4>
   14194:	08f00e93          	li	t4,143
   14198:	00b00e13          	li	t3,11
   1419c:	2dd31e63          	bne	t1,t4,14478 <fail>

00000000000141a0 <test_12>:
   141a0:	00000213          	li	tp,0
   141a4:	00e00093          	li	ra,14
   141a8:	00b00113          	li	sp,11
   141ac:	022081b3          	mul	gp,ra,sp
   141b0:	00000013          	nop
   141b4:	00018313          	mv	t1,gp
   141b8:	00120213          	addi	tp,tp,1 # 1 <_start+0x1>
   141bc:	00200293          	li	t0,2
   141c0:	fe5212e3          	bne	tp,t0,141a4 <test_12+0x4>
   141c4:	09a00e93          	li	t4,154
   141c8:	00c00e13          	li	t3,12
   141cc:	2bd31663          	bne	t1,t4,14478 <fail>

00000000000141d0 <test_13>:
   141d0:	00000213          	li	tp,0
   141d4:	00f00093          	li	ra,15
   141d8:	00b00113          	li	sp,11
   141dc:	022081b3          	mul	gp,ra,sp
   141e0:	00000013          	nop
   141e4:	00000013          	nop
   141e8:	00018313          	mv	t1,gp
   141ec:	00120213          	addi	tp,tp,1 # 1 <_start+0x1>
   141f0:	00200293          	li	t0,2
   141f4:	fe5210e3          	bne	tp,t0,141d4 <test_13+0x4>
   141f8:	0a500e93          	li	t4,165
   141fc:	00d00e13          	li	t3,13
   14200:	27d31c63          	bne	t1,t4,14478 <fail>

0000000000014204 <test_14>:
   14204:	00000213          	li	tp,0
   14208:	00d00093          	li	ra,13
   1420c:	00b00113          	li	sp,11
   14210:	022081b3          	mul	gp,ra,sp
   14214:	00120213          	addi	tp,tp,1 # 1 <_start+0x1>
   14218:	00200293          	li	t0,2
   1421c:	fe5216e3          	bne	tp,t0,14208 <test_14+0x4>
   14220:	08f00e93          	li	t4,143
   14224:	00e00e13          	li	t3,14
   14228:	25d19863          	bne	gp,t4,14478 <fail>

000000000001422c <test_15>:
   1422c:	00000213          	li	tp,0
   14230:	00e00093          	li	ra,14
   14234:	00b00113          	li	sp,11
   14238:	00000013          	nop
   1423c:	022081b3          	mul	gp,ra,sp
   14240:	00120213          	addi	tp,tp,1 # 1 <_start+0x1>
   14244:	00200293          	li	t0,2
   14248:	fe5214e3          	bne	tp,t0,14230 <test_15+0x4>
   1424c:	09a00e93          	li	t4,154
   14250:	00f00e13          	li	t3,15
   14254:	23d19263          	bne	gp,t4,14478 <fail>

0000000000014258 <test_16>:
   14258:	00000213          	li	tp,0
   1425c:	00f00093          	li	ra,15
   14260:	00b00113          	li	sp,11
   14264:	00000013          	nop
   14268:	00000013          	nop
   1426c:	022081b3          	mul	gp,ra,sp
   14270:	00120213          	addi	tp,tp,1 # 1 <_start+0x1>
   14274:	00200293          	li	t0,2
   14278:	fe5212e3          	bne	tp,t0,1425c <test_16+0x4>
   1427c:	0a500e93          	li	t4,165
   14280:	01000e13          	li	t3,16
   14284:	1fd19a63          	bne	gp,t4,14478 <fail>

0000000000014288 <test_17>:
   14288:	00000213          	li	tp,0
   1428c:	00d00093          	li	ra,13
   14290:	00000013          	nop
   14294:	00b00113          	li	sp,11
   14298:	022081b3          	mul	gp,ra,sp
   1429c:	00120213          	addi	tp,tp,1 # 1 <_start+0x1>
   142a0:	00200293          	li	t0,2
   142a4:	fe5214e3          	bne	tp,t0,1428c <test_17+0x4>
   142a8:	08f00e93          	li	t4,143
   142ac:	01100e13          	li	t3,17
   142b0:	1dd19463          	bne	gp,t4,14478 <fail>

00000000000142b4 <test_18>:
   142b4:	00000213          	li	tp,0
   142b8:	00e00093          	li	ra,14
   142bc:	00000013          	nop
   142c0:	00b00113          	li	sp,11
   142c4:	00000013          	nop
   142c8:	022081b3          	mul	gp,ra,sp
   142cc:	00120213          	addi	tp,tp,1 # 1 <_start+0x1>
   142d0:	00200293          	li	t0,2
   142d4:	fe5212e3          	bne	tp,t0,142b8 <test_18+0x4>
   142d8:	09a00e93          	li	t4,154
   142dc:	01200e13          	li	t3,18
   142e0:	19d19c63          	bne	gp,t4,14478 <fail>

00000000000142e4 <test_19>:
   142e4:	00000213          	li	tp,0
   142e8:	00f00093          	li	ra,15
   142ec:	00000013          	nop
   142f0:	00000013          	nop
   142f4:	00b00113          	li	sp,11
   142f8:	022081b3          	mul	gp,ra,sp
   142fc:	00120213          	addi	tp,tp,1 # 1 <_start+0x1>
   14300:	00200293          	li	t0,2
   14304:	fe5212e3          	bne	tp,t0,142e8 <test_19+0x4>
   14308:	0a500e93          	li	t4,165
   1430c:	01300e13          	li	t3,19
   14310:	17d19463          	bne	gp,t4,14478 <fail>

0000000000014314 <test_20>:
   14314:	00000213          	li	tp,0
   14318:	00b00113          	li	sp,11
   1431c:	00d00093          	li	ra,13
   14320:	022081b3          	mul	gp,ra,sp
   14324:	00120213          	addi	tp,tp,1 # 1 <_start+0x1>
   14328:	00200293          	li	t0,2
   1432c:	fe5216e3          	bne	tp,t0,14318 <test_20+0x4>
   14330:	08f00e93          	li	t4,143
   14334:	01400e13          	li	t3,20
   14338:	15d19063          	bne	gp,t4,14478 <fail>

000000000001433c <test_21>:
   1433c:	00000213          	li	tp,0
   14340:	00b00113          	li	sp,11
   14344:	00e00093          	li	ra,14
   14348:	00000013          	nop
   1434c:	022081b3          	mul	gp,ra,sp
   14350:	00120213          	addi	tp,tp,1 # 1 <_start+0x1>
   14354:	00200293          	li	t0,2
   14358:	fe5214e3          	bne	tp,t0,14340 <test_21+0x4>
   1435c:	09a00e93          	li	t4,154
   14360:	01500e13          	li	t3,21
   14364:	11d19a63          	bne	gp,t4,14478 <fail>

0000000000014368 <test_22>:
   14368:	00000213          	li	tp,0
   1436c:	00b00113          	li	sp,11
   14370:	00f00093          	li	ra,15
   14374:	00000013          	nop
   14378:	00000013          	nop
   1437c:	022081b3          	mul	gp,ra,sp
   14380:	00120213          	addi	tp,tp,1 # 1 <_start+0x1>
   14384:	00200293          	li	t0,2
   14388:	fe5212e3          	bne	tp,t0,1436c <test_22+0x4>
   1438c:	0a500e93          	li	t4,165
   14390:	01600e13          	li	t3,22
   14394:	0fd19263          	bne	gp,t4,14478 <fail>

0000000000014398 <test_23>:
   14398:	00000213          	li	tp,0
   1439c:	00b00113          	li	sp,11
   143a0:	00000013          	nop
   143a4:	00d00093          	li	ra,13
   143a8:	022081b3          	mul	gp,ra,sp
   143ac:	00120213          	addi	tp,tp,1 # 1 <_start+0x1>
   143b0:	00200293          	li	t0,2
   143b4:	fe5214e3          	bne	tp,t0,1439c <test_23+0x4>
   143b8:	08f00e93          	li	t4,143
   143bc:	01700e13          	li	t3,23
   143c0:	0bd19c63          	bne	gp,t4,14478 <fail>

00000000000143c4 <test_24>:
   143c4:	00000213          	li	tp,0
   143c8:	00b00113          	li	sp,11
   143cc:	00000013          	nop
   143d0:	00e00093          	li	ra,14
   143d4:	00000013          	nop
   143d8:	022081b3          	mul	gp,ra,sp
   143dc:	00120213          	addi	tp,tp,1 # 1 <_start+0x1>
   143e0:	00200293          	li	t0,2
   143e4:	fe5212e3          	bne	tp,t0,143c8 <test_24+0x4>
   143e8:	09a00e93          	li	t4,154
   143ec:	01800e13          	li	t3,24
   143f0:	09d19463          	bne	gp,t4,14478 <fail>

00000000000143f4 <test_25>:
   143f4:	00000213          	li	tp,0
   143f8:	00b00113          	li	sp,11
   143fc:	00000013          	nop
   14400:	00000013          	nop
   14404:	00f00093          	li	ra,15
   14408:	022081b3          	mul	gp,ra,sp
   1440c:	00120213          	addi	tp,tp,1 # 1 <_start+0x1>
   14410:	00200293          	li	t0,2
   14414:	fe5212e3          	bne	tp,t0,143f8 <test_25+0x4>
   14418:	0a500e93          	li	t4,165
   1441c:	01900e13          	li	t3,25
   14420:	05d19c63          	bne	gp,t4,14478 <fail>

0000000000014424 <test_26>:
   14424:	01f00093          	li	ra,31
   14428:	02100133          	mul	sp,zero,ra
   1442c:	00000e93          	li	t4,0
   14430:	01a00e13          	li	t3,26
   14434:	05d11263          	bne	sp,t4,14478 <fail>

0000000000014438 <test_27>:
   14438:	02000093          	li	ra,32
   1443c:	02008133          	mul	sp,ra,zero
   14440:	00000e93          	li	t4,0
   14444:	01b00e13          	li	t3,27
   14448:	03d11863          	bne	sp,t4,14478 <fail>

000000000001444c <test_28>:
   1444c:	020000b3          	mul	ra,zero,zero
   14450:	00000e93          	li	t4,0
   14454:	01c00e13          	li	t3,28
   14458:	03d09063          	bne	ra,t4,14478 <fail>

000000000001445c <test_29>:
   1445c:	02100093          	li	ra,33
   14460:	02200113          	li	sp,34
   14464:	02208033          	mul	zero,ra,sp
   14468:	00000e93          	li	t4,0
   1446c:	01d00e13          	li	t3,29
   14470:	01d01463          	bne	zero,t4,14478 <fail>
   14474:	05c01863          	bne	zero,t3,144c4 <pass>

0000000000014478 <fail>:
   14478:	04500513          	li	a0,69
   1447c:	00004137          	lui	sp,0x4
   14480:	289090ef          	jal	ra,1df08 <printf_c>
   14484:	05200513          	li	a0,82
   14488:	00004137          	lui	sp,0x4
   1448c:	27d090ef          	jal	ra,1df08 <printf_c>
   14490:	00004137          	lui	sp,0x4
   14494:	275090ef          	jal	ra,1df08 <printf_c>
   14498:	04f00513          	li	a0,79
   1449c:	00004137          	lui	sp,0x4
   144a0:	269090ef          	jal	ra,1df08 <printf_c>
   144a4:	00004137          	lui	sp,0x4
   144a8:	05200513          	li	a0,82
   144ac:	00004137          	lui	sp,0x4
   144b0:	259090ef          	jal	ra,1df08 <printf_c>
   144b4:	00a00513          	li	a0,10
   144b8:	00004137          	lui	sp,0x4
   144bc:	24d090ef          	jal	ra,1df08 <printf_c>
   144c0:	0340006f          	j	144f4 <mulh>

00000000000144c4 <pass>:
   144c4:	04f00513          	li	a0,79
   144c8:	00004137          	lui	sp,0x4
   144cc:	23d090ef          	jal	ra,1df08 <printf_c>
   144d0:	04b00513          	li	a0,75
   144d4:	00004137          	lui	sp,0x4
   144d8:	231090ef          	jal	ra,1df08 <printf_c>
   144dc:	00a00513          	li	a0,10
   144e0:	00004137          	lui	sp,0x4
   144e4:	225090ef          	jal	ra,1df08 <printf_c>
   144e8:	00c0006f          	j	144f4 <mulh>

00000000000144ec <.test_name>:
   144ec:	756d                	lui	a0,0xffffb
   144ee:	686c                	ld	a1,208(s0)
   144f0:	0009                	c.addi	zero,2
	...

00000000000144f4 <mulh>:
   144f4:	00014537          	lui	a0,0x14
   144f8:	4ec50513          	addi	a0,a0,1260 # 144ec <.test_name>

00000000000144fc <.prname_next>:
   144fc:	00004137          	lui	sp,0x4
   14500:	235090ef          	jal	ra,1df34 <printf_s>

0000000000014504 <test_2>:
   14504:	00000093          	li	ra,0
   14508:	00000113          	li	sp,0
   1450c:	022091b3          	mulh	gp,ra,sp
   14510:	00000e93          	li	t4,0
   14514:	00200e13          	li	t3,2
   14518:	53d19063          	bne	gp,t4,14a38 <fail>

000000000001451c <test_3>:
   1451c:	00100093          	li	ra,1
   14520:	00100113          	li	sp,1
   14524:	022091b3          	mulh	gp,ra,sp
   14528:	00000e93          	li	t4,0
   1452c:	00300e13          	li	t3,3
   14530:	51d19463          	bne	gp,t4,14a38 <fail>

0000000000014534 <test_4>:
   14534:	00300093          	li	ra,3
   14538:	00700113          	li	sp,7
   1453c:	022091b3          	mulh	gp,ra,sp
   14540:	00000e93          	li	t4,0
   14544:	00400e13          	li	t3,4
   14548:	4fd19863          	bne	gp,t4,14a38 <fail>

000000000001454c <test_5>:
   1454c:	00000093          	li	ra,0
   14550:	00020137          	lui	sp,0x20
   14554:	fff1011b          	addiw	sp,sp,-1
   14558:	00f11113          	slli	sp,sp,0xf
   1455c:	022091b3          	mulh	gp,ra,sp
   14560:	00000e93          	li	t4,0
   14564:	00500e13          	li	t3,5
   14568:	4dd19863          	bne	gp,t4,14a38 <fail>

000000000001456c <test_6>:
   1456c:	0010009b          	addiw	ra,zero,1
   14570:	01f09093          	slli	ra,ra,0x1f
   14574:	00000113          	li	sp,0
   14578:	022091b3          	mulh	gp,ra,sp
   1457c:	00000e93          	li	t4,0
   14580:	00600e13          	li	t3,6
   14584:	4bd19a63          	bne	gp,t4,14a38 <fail>

0000000000014588 <test_7>:
   14588:	0010009b          	addiw	ra,zero,1
   1458c:	01f09093          	slli	ra,ra,0x1f
   14590:	00000113          	li	sp,0
   14594:	022091b3          	mulh	gp,ra,sp
   14598:	00000e93          	li	t4,0
   1459c:	00700e13          	li	t3,7
   145a0:	49d19c63          	bne	gp,t4,14a38 <fail>

00000000000145a4 <test_30>:
   145a4:	000ab0b7          	lui	ra,0xab
   145a8:	aab0809b          	addiw	ra,ra,-1365
   145ac:	00c09093          	slli	ra,ra,0xc
   145b0:	aab08093          	addi	ra,ra,-1365 # aaaab <heap_memory_used+0x887f3>
   145b4:	00030137          	lui	sp,0x30
   145b8:	e7d1011b          	addiw	sp,sp,-387
   145bc:	022091b3          	mulh	gp,ra,sp
   145c0:	00010eb7          	lui	t4,0x10
   145c4:	fffe8e9b          	addiw	t4,t4,-1
   145c8:	010e9e93          	slli	t4,t4,0x10
   145cc:	081e8e93          	addi	t4,t4,129 # 10081 <test_5+0x21>
   145d0:	01e00e13          	li	t3,30
   145d4:	47d19263          	bne	gp,t4,14a38 <fail>

00000000000145d8 <test_31>:
   145d8:	000300b7          	lui	ra,0x30
   145dc:	e7d0809b          	addiw	ra,ra,-387
   145e0:	000ab137          	lui	sp,0xab
   145e4:	aab1011b          	addiw	sp,sp,-1365
   145e8:	00c11113          	slli	sp,sp,0xc
   145ec:	aab10113          	addi	sp,sp,-1365 # aaaab <heap_memory_used+0x887f3>
   145f0:	022091b3          	mulh	gp,ra,sp
   145f4:	00010eb7          	lui	t4,0x10
   145f8:	fffe8e9b          	addiw	t4,t4,-1
   145fc:	010e9e93          	slli	t4,t4,0x10
   14600:	081e8e93          	addi	t4,t4,129 # 10081 <test_5+0x21>
   14604:	01f00e13          	li	t3,31
   14608:	43d19863          	bne	gp,t4,14a38 <fail>

000000000001460c <test_32>:
   1460c:	0ff0009b          	addiw	ra,zero,255
   14610:	01809093          	slli	ra,ra,0x18
   14614:	0ff0011b          	addiw	sp,zero,255
   14618:	01811113          	slli	sp,sp,0x18
   1461c:	022091b3          	mulh	gp,ra,sp
   14620:	00010eb7          	lui	t4,0x10
   14624:	02000e13          	li	t3,32
   14628:	41d19863          	bne	gp,t4,14a38 <fail>

000000000001462c <test_33>:
   1462c:	0010009b          	addiw	ra,zero,1
   14630:	02009093          	slli	ra,ra,0x20
   14634:	fff08093          	addi	ra,ra,-1 # 2ffff <heap_memory_used+0xdd47>
   14638:	0010011b          	addiw	sp,zero,1
   1463c:	02011113          	slli	sp,sp,0x20
   14640:	fff10113          	addi	sp,sp,-1
   14644:	022091b3          	mulh	gp,ra,sp
   14648:	00000e93          	li	t4,0
   1464c:	02100e13          	li	t3,33
   14650:	3fd19463          	bne	gp,t4,14a38 <fail>

0000000000014654 <test_34>:
   14654:	0010009b          	addiw	ra,zero,1
   14658:	02009093          	slli	ra,ra,0x20
   1465c:	fff08093          	addi	ra,ra,-1
   14660:	00100113          	li	sp,1
   14664:	022091b3          	mulh	gp,ra,sp
   14668:	00100e9b          	addiw	t4,zero,1
   1466c:	020e9e93          	slli	t4,t4,0x20
   14670:	fffe8e93          	addi	t4,t4,-1 # ffff <coremarkBenchmark+0xff57>
   14674:	02200e13          	li	t3,34
   14678:	3dd19063          	bne	gp,t4,14a38 <fail>

000000000001467c <test_35>:
   1467c:	00100093          	li	ra,1
   14680:	0010011b          	addiw	sp,zero,1
   14684:	02011113          	slli	sp,sp,0x20
   14688:	fff10113          	addi	sp,sp,-1
   1468c:	022091b3          	mulh	gp,ra,sp
   14690:	00100e9b          	addiw	t4,zero,1
   14694:	020e9e93          	slli	t4,t4,0x20
   14698:	fffe8e93          	addi	t4,t4,-1
   1469c:	02300e13          	li	t3,35
   146a0:	39d19c63          	bne	gp,t4,14a38 <fail>

00000000000146a4 <test_8>:
   146a4:	00d000b7          	lui	ra,0xd00
   146a8:	00b00137          	lui	sp,0xb00
   146ac:	022090b3          	mulh	ra,ra,sp
   146b0:	00009eb7          	lui	t4,0x9
   146b4:	f00e8e9b          	addiw	t4,t4,-256
   146b8:	00800e13          	li	t3,8
   146bc:	37d09e63          	bne	ra,t4,14a38 <fail>

00000000000146c0 <test_9>:
   146c0:	00e000b7          	lui	ra,0xe00
   146c4:	00b00137          	lui	sp,0xb00
   146c8:	02209133          	mulh	sp,ra,sp
   146cc:	0000aeb7          	lui	t4,0xa
   146d0:	a00e8e9b          	addiw	t4,t4,-1536
   146d4:	00900e13          	li	t3,9
   146d8:	37d11063          	bne	sp,t4,14a38 <fail>

00000000000146dc <test_10>:
   146dc:	00d000b7          	lui	ra,0xd00
   146e0:	021090b3          	mulh	ra,ra,ra
   146e4:	0000beb7          	lui	t4,0xb
   146e8:	900e8e9b          	addiw	t4,t4,-1792
   146ec:	00a00e13          	li	t3,10
   146f0:	35d09463          	bne	ra,t4,14a38 <fail>

00000000000146f4 <test_11>:
   146f4:	00000213          	li	tp,0
   146f8:	00d000b7          	lui	ra,0xd00
   146fc:	00b00137          	lui	sp,0xb00
   14700:	022091b3          	mulh	gp,ra,sp
   14704:	00018313          	mv	t1,gp
   14708:	00120213          	addi	tp,tp,1 # 1 <_start+0x1>
   1470c:	00200293          	li	t0,2
   14710:	fe5214e3          	bne	tp,t0,146f8 <test_11+0x4>
   14714:	00009eb7          	lui	t4,0x9
   14718:	f00e8e9b          	addiw	t4,t4,-256
   1471c:	00b00e13          	li	t3,11
   14720:	31d31c63          	bne	t1,t4,14a38 <fail>

0000000000014724 <test_12>:
   14724:	00000213          	li	tp,0
   14728:	00e000b7          	lui	ra,0xe00
   1472c:	00b00137          	lui	sp,0xb00
   14730:	022091b3          	mulh	gp,ra,sp
   14734:	00000013          	nop
   14738:	00018313          	mv	t1,gp
   1473c:	00120213          	addi	tp,tp,1 # 1 <_start+0x1>
   14740:	00200293          	li	t0,2
   14744:	fe5212e3          	bne	tp,t0,14728 <test_12+0x4>
   14748:	0000aeb7          	lui	t4,0xa
   1474c:	a00e8e9b          	addiw	t4,t4,-1536
   14750:	00c00e13          	li	t3,12
   14754:	2fd31263          	bne	t1,t4,14a38 <fail>

0000000000014758 <test_13>:
   14758:	00000213          	li	tp,0
   1475c:	00f000b7          	lui	ra,0xf00
   14760:	00b00137          	lui	sp,0xb00
   14764:	022091b3          	mulh	gp,ra,sp
   14768:	00000013          	nop
   1476c:	00000013          	nop
   14770:	00018313          	mv	t1,gp
   14774:	00120213          	addi	tp,tp,1 # 1 <_start+0x1>
   14778:	00200293          	li	t0,2
   1477c:	fe5210e3          	bne	tp,t0,1475c <test_13+0x4>
   14780:	0000aeb7          	lui	t4,0xa
   14784:	500e8e9b          	addiw	t4,t4,1280
   14788:	00d00e13          	li	t3,13
   1478c:	2bd31663          	bne	t1,t4,14a38 <fail>

0000000000014790 <test_14>:
   14790:	00000213          	li	tp,0
   14794:	00d000b7          	lui	ra,0xd00
   14798:	00b00137          	lui	sp,0xb00
   1479c:	022091b3          	mulh	gp,ra,sp
   147a0:	00120213          	addi	tp,tp,1 # 1 <_start+0x1>
   147a4:	00200293          	li	t0,2
   147a8:	fe5216e3          	bne	tp,t0,14794 <test_14+0x4>
   147ac:	00009eb7          	lui	t4,0x9
   147b0:	f00e8e9b          	addiw	t4,t4,-256
   147b4:	00e00e13          	li	t3,14
   147b8:	29d19063          	bne	gp,t4,14a38 <fail>

00000000000147bc <test_15>:
   147bc:	00000213          	li	tp,0
   147c0:	00e000b7          	lui	ra,0xe00
   147c4:	00b00137          	lui	sp,0xb00
   147c8:	00000013          	nop
   147cc:	022091b3          	mulh	gp,ra,sp
   147d0:	00120213          	addi	tp,tp,1 # 1 <_start+0x1>
   147d4:	00200293          	li	t0,2
   147d8:	fe5214e3          	bne	tp,t0,147c0 <test_15+0x4>
   147dc:	0000aeb7          	lui	t4,0xa
   147e0:	a00e8e9b          	addiw	t4,t4,-1536
   147e4:	00f00e13          	li	t3,15
   147e8:	25d19863          	bne	gp,t4,14a38 <fail>

00000000000147ec <test_16>:
   147ec:	00000213          	li	tp,0
   147f0:	00f000b7          	lui	ra,0xf00
   147f4:	00b00137          	lui	sp,0xb00
   147f8:	00000013          	nop
   147fc:	00000013          	nop
   14800:	022091b3          	mulh	gp,ra,sp
   14804:	00120213          	addi	tp,tp,1 # 1 <_start+0x1>
   14808:	00200293          	li	t0,2
   1480c:	fe5212e3          	bne	tp,t0,147f0 <test_16+0x4>
   14810:	0000aeb7          	lui	t4,0xa
   14814:	500e8e9b          	addiw	t4,t4,1280
   14818:	01000e13          	li	t3,16
   1481c:	21d19e63          	bne	gp,t4,14a38 <fail>

0000000000014820 <test_17>:
   14820:	00000213          	li	tp,0
   14824:	00d000b7          	lui	ra,0xd00
   14828:	00000013          	nop
   1482c:	00b00137          	lui	sp,0xb00
   14830:	022091b3          	mulh	gp,ra,sp
   14834:	00120213          	addi	tp,tp,1 # 1 <_start+0x1>
   14838:	00200293          	li	t0,2
   1483c:	fe5214e3          	bne	tp,t0,14824 <test_17+0x4>
   14840:	00009eb7          	lui	t4,0x9
   14844:	f00e8e9b          	addiw	t4,t4,-256
   14848:	01100e13          	li	t3,17
   1484c:	1fd19663          	bne	gp,t4,14a38 <fail>

0000000000014850 <test_18>:
   14850:	00000213          	li	tp,0
   14854:	00e000b7          	lui	ra,0xe00
   14858:	00000013          	nop
   1485c:	00b00137          	lui	sp,0xb00
   14860:	00000013          	nop
   14864:	022091b3          	mulh	gp,ra,sp
   14868:	00120213          	addi	tp,tp,1 # 1 <_start+0x1>
   1486c:	00200293          	li	t0,2
   14870:	fe5212e3          	bne	tp,t0,14854 <test_18+0x4>
   14874:	0000aeb7          	lui	t4,0xa
   14878:	a00e8e9b          	addiw	t4,t4,-1536
   1487c:	01200e13          	li	t3,18
   14880:	1bd19c63          	bne	gp,t4,14a38 <fail>

0000000000014884 <test_19>:
   14884:	00000213          	li	tp,0
   14888:	00f000b7          	lui	ra,0xf00
   1488c:	00000013          	nop
   14890:	00000013          	nop
   14894:	00b00137          	lui	sp,0xb00
   14898:	022091b3          	mulh	gp,ra,sp
   1489c:	00120213          	addi	tp,tp,1 # 1 <_start+0x1>
   148a0:	00200293          	li	t0,2
   148a4:	fe5212e3          	bne	tp,t0,14888 <test_19+0x4>
   148a8:	0000aeb7          	lui	t4,0xa
   148ac:	500e8e9b          	addiw	t4,t4,1280
   148b0:	01300e13          	li	t3,19
   148b4:	19d19263          	bne	gp,t4,14a38 <fail>

00000000000148b8 <test_20>:
   148b8:	00000213          	li	tp,0
   148bc:	00b00137          	lui	sp,0xb00
   148c0:	00d000b7          	lui	ra,0xd00
   148c4:	022091b3          	mulh	gp,ra,sp
   148c8:	00120213          	addi	tp,tp,1 # 1 <_start+0x1>
   148cc:	00200293          	li	t0,2
   148d0:	fe5216e3          	bne	tp,t0,148bc <test_20+0x4>
   148d4:	00009eb7          	lui	t4,0x9
   148d8:	f00e8e9b          	addiw	t4,t4,-256
   148dc:	01400e13          	li	t3,20
   148e0:	15d19c63          	bne	gp,t4,14a38 <fail>

00000000000148e4 <test_21>:
   148e4:	00000213          	li	tp,0
   148e8:	00b00137          	lui	sp,0xb00
   148ec:	00e000b7          	lui	ra,0xe00
   148f0:	00000013          	nop
   148f4:	022091b3          	mulh	gp,ra,sp
   148f8:	00120213          	addi	tp,tp,1 # 1 <_start+0x1>
   148fc:	00200293          	li	t0,2
   14900:	fe5214e3          	bne	tp,t0,148e8 <test_21+0x4>
   14904:	0000aeb7          	lui	t4,0xa
   14908:	a00e8e9b          	addiw	t4,t4,-1536
   1490c:	01500e13          	li	t3,21
   14910:	13d19463          	bne	gp,t4,14a38 <fail>

0000000000014914 <test_22>:
   14914:	00000213          	li	tp,0
   14918:	00b00137          	lui	sp,0xb00
   1491c:	00f000b7          	lui	ra,0xf00
   14920:	00000013          	nop
   14924:	00000013          	nop
   14928:	022091b3          	mulh	gp,ra,sp
   1492c:	00120213          	addi	tp,tp,1 # 1 <_start+0x1>
   14930:	00200293          	li	t0,2
   14934:	fe5212e3          	bne	tp,t0,14918 <test_22+0x4>
   14938:	0000aeb7          	lui	t4,0xa
   1493c:	500e8e9b          	addiw	t4,t4,1280
   14940:	01600e13          	li	t3,22
   14944:	0fd19a63          	bne	gp,t4,14a38 <fail>

0000000000014948 <test_23>:
   14948:	00000213          	li	tp,0
   1494c:	00b00137          	lui	sp,0xb00
   14950:	00000013          	nop
   14954:	00d000b7          	lui	ra,0xd00
   14958:	022091b3          	mulh	gp,ra,sp
   1495c:	00120213          	addi	tp,tp,1 # 1 <_start+0x1>
   14960:	00200293          	li	t0,2
   14964:	fe5214e3          	bne	tp,t0,1494c <test_23+0x4>
   14968:	00009eb7          	lui	t4,0x9
   1496c:	f00e8e9b          	addiw	t4,t4,-256
   14970:	01700e13          	li	t3,23
   14974:	0dd19263          	bne	gp,t4,14a38 <fail>

0000000000014978 <test_24>:
   14978:	00000213          	li	tp,0
   1497c:	00b00137          	lui	sp,0xb00
   14980:	00000013          	nop
   14984:	00e000b7          	lui	ra,0xe00
   14988:	00000013          	nop
   1498c:	022091b3          	mulh	gp,ra,sp
   14990:	00120213          	addi	tp,tp,1 # 1 <_start+0x1>
   14994:	00200293          	li	t0,2
   14998:	fe5212e3          	bne	tp,t0,1497c <test_24+0x4>
   1499c:	0000aeb7          	lui	t4,0xa
   149a0:	a00e8e9b          	addiw	t4,t4,-1536
   149a4:	01800e13          	li	t3,24
   149a8:	09d19863          	bne	gp,t4,14a38 <fail>

00000000000149ac <test_25>:
   149ac:	00000213          	li	tp,0
   149b0:	00b00137          	lui	sp,0xb00
   149b4:	00000013          	nop
   149b8:	00000013          	nop
   149bc:	00f000b7          	lui	ra,0xf00
   149c0:	022091b3          	mulh	gp,ra,sp
   149c4:	00120213          	addi	tp,tp,1 # 1 <_start+0x1>
   149c8:	00200293          	li	t0,2
   149cc:	fe5212e3          	bne	tp,t0,149b0 <test_25+0x4>
   149d0:	0000aeb7          	lui	t4,0xa
   149d4:	500e8e9b          	addiw	t4,t4,1280
   149d8:	01900e13          	li	t3,25
   149dc:	05d19e63          	bne	gp,t4,14a38 <fail>

00000000000149e0 <test_26>:
   149e0:	7c0000b7          	lui	ra,0x7c000
   149e4:	02101133          	mulh	sp,zero,ra
   149e8:	00000e93          	li	t4,0
   149ec:	01a00e13          	li	t3,26
   149f0:	05d11463          	bne	sp,t4,14a38 <fail>

00000000000149f4 <test_27>:
   149f4:	0010009b          	addiw	ra,zero,1
   149f8:	01f09093          	slli	ra,ra,0x1f
   149fc:	02009133          	mulh	sp,ra,zero
   14a00:	00000e93          	li	t4,0
   14a04:	01b00e13          	li	t3,27
   14a08:	03d11863          	bne	sp,t4,14a38 <fail>

0000000000014a0c <test_28>:
   14a0c:	020010b3          	mulh	ra,zero,zero
   14a10:	00000e93          	li	t4,0
   14a14:	01c00e13          	li	t3,28
   14a18:	03d09063          	bne	ra,t4,14a38 <fail>

0000000000014a1c <test_29>:
   14a1c:	021000b7          	lui	ra,0x2100
   14a20:	02200137          	lui	sp,0x2200
   14a24:	02209033          	mulh	zero,ra,sp
   14a28:	00000e93          	li	t4,0
   14a2c:	01d00e13          	li	t3,29
   14a30:	01d01463          	bne	zero,t4,14a38 <fail>
   14a34:	05c01863          	bne	zero,t3,14a84 <pass>

0000000000014a38 <fail>:
   14a38:	04500513          	li	a0,69
   14a3c:	00004137          	lui	sp,0x4
   14a40:	4c8090ef          	jal	ra,1df08 <printf_c>
   14a44:	05200513          	li	a0,82
   14a48:	00004137          	lui	sp,0x4
   14a4c:	4bc090ef          	jal	ra,1df08 <printf_c>
   14a50:	00004137          	lui	sp,0x4
   14a54:	4b4090ef          	jal	ra,1df08 <printf_c>
   14a58:	04f00513          	li	a0,79
   14a5c:	00004137          	lui	sp,0x4
   14a60:	4a8090ef          	jal	ra,1df08 <printf_c>
   14a64:	00004137          	lui	sp,0x4
   14a68:	05200513          	li	a0,82
   14a6c:	00004137          	lui	sp,0x4
   14a70:	498090ef          	jal	ra,1df08 <printf_c>
   14a74:	00a00513          	li	a0,10
   14a78:	00004137          	lui	sp,0x4
   14a7c:	48c090ef          	jal	ra,1df08 <printf_c>
   14a80:	0340006f          	j	14ab4 <mulhsu>

0000000000014a84 <pass>:
   14a84:	04f00513          	li	a0,79
   14a88:	00004137          	lui	sp,0x4
   14a8c:	47c090ef          	jal	ra,1df08 <printf_c>
   14a90:	04b00513          	li	a0,75
   14a94:	00004137          	lui	sp,0x4
   14a98:	470090ef          	jal	ra,1df08 <printf_c>
   14a9c:	00a00513          	li	a0,10
   14aa0:	00004137          	lui	sp,0x4
   14aa4:	464090ef          	jal	ra,1df08 <printf_c>
   14aa8:	00c0006f          	j	14ab4 <mulhsu>

0000000000014aac <.test_name>:
   14aac:	756d                	lui	a0,0xffffb
   14aae:	686c                	ld	a1,208(s0)
   14ab0:	00097573          	csrrci	a0,0x0,18

0000000000014ab4 <mulhsu>:
   14ab4:	00015537          	lui	a0,0x15
   14ab8:	aac50513          	addi	a0,a0,-1364 # 14aac <.test_name>

0000000000014abc <.prname_next>:
   14abc:	00004137          	lui	sp,0x4
   14ac0:	474090ef          	jal	ra,1df34 <printf_s>

0000000000014ac4 <test_2>:
   14ac4:	00000093          	li	ra,0
   14ac8:	00000113          	li	sp,0
   14acc:	0220a1b3          	mulhsu	gp,ra,sp
   14ad0:	00000e93          	li	t4,0
   14ad4:	00200e13          	li	t3,2
   14ad8:	53d19863          	bne	gp,t4,15008 <fail>

0000000000014adc <test_3>:
   14adc:	00100093          	li	ra,1
   14ae0:	00100113          	li	sp,1
   14ae4:	0220a1b3          	mulhsu	gp,ra,sp
   14ae8:	00000e93          	li	t4,0
   14aec:	00300e13          	li	t3,3
   14af0:	51d19c63          	bne	gp,t4,15008 <fail>

0000000000014af4 <test_4>:
   14af4:	00300093          	li	ra,3
   14af8:	00700113          	li	sp,7
   14afc:	0220a1b3          	mulhsu	gp,ra,sp
   14b00:	00000e93          	li	t4,0
   14b04:	00400e13          	li	t3,4
   14b08:	51d19063          	bne	gp,t4,15008 <fail>

0000000000014b0c <test_5>:
   14b0c:	00000093          	li	ra,0
   14b10:	00020137          	lui	sp,0x20
   14b14:	fff1011b          	addiw	sp,sp,-1
   14b18:	00f11113          	slli	sp,sp,0xf
   14b1c:	0220a1b3          	mulhsu	gp,ra,sp
   14b20:	00000e93          	li	t4,0
   14b24:	00500e13          	li	t3,5
   14b28:	4fd19063          	bne	gp,t4,15008 <fail>

0000000000014b2c <test_6>:
   14b2c:	0010009b          	addiw	ra,zero,1
   14b30:	01f09093          	slli	ra,ra,0x1f
   14b34:	00000113          	li	sp,0
   14b38:	0220a1b3          	mulhsu	gp,ra,sp
   14b3c:	00000e93          	li	t4,0
   14b40:	00600e13          	li	t3,6
   14b44:	4dd19263          	bne	gp,t4,15008 <fail>

0000000000014b48 <test_7>:
   14b48:	0010009b          	addiw	ra,zero,1
   14b4c:	01f09093          	slli	ra,ra,0x1f
   14b50:	00020137          	lui	sp,0x20
   14b54:	fff1011b          	addiw	sp,sp,-1
   14b58:	00f11113          	slli	sp,sp,0xf
   14b5c:	0220a1b3          	mulhsu	gp,ra,sp
   14b60:	00020eb7          	lui	t4,0x20
   14b64:	001e8e9b          	addiw	t4,t4,1
   14b68:	00ee9e93          	slli	t4,t4,0xe
   14b6c:	00700e13          	li	t3,7
   14b70:	49d19c63          	bne	gp,t4,15008 <fail>

0000000000014b74 <test_30>:
   14b74:	000ab0b7          	lui	ra,0xab
   14b78:	aab0809b          	addiw	ra,ra,-1365
   14b7c:	00c09093          	slli	ra,ra,0xc
   14b80:	aab08093          	addi	ra,ra,-1365 # aaaab <heap_memory_used+0x887f3>
   14b84:	00030137          	lui	sp,0x30
   14b88:	e7d1011b          	addiw	sp,sp,-387
   14b8c:	0220a1b3          	mulhsu	gp,ra,sp
   14b90:	00010eb7          	lui	t4,0x10
   14b94:	fffe8e9b          	addiw	t4,t4,-1
   14b98:	010e9e93          	slli	t4,t4,0x10
   14b9c:	081e8e93          	addi	t4,t4,129 # 10081 <test_5+0x21>
   14ba0:	01e00e13          	li	t3,30
   14ba4:	47d19263          	bne	gp,t4,15008 <fail>

0000000000014ba8 <test_31>:
   14ba8:	000300b7          	lui	ra,0x30
   14bac:	e7d0809b          	addiw	ra,ra,-387
   14bb0:	000ab137          	lui	sp,0xab
   14bb4:	aab1011b          	addiw	sp,sp,-1365
   14bb8:	00c11113          	slli	sp,sp,0xc
   14bbc:	aab10113          	addi	sp,sp,-1365 # aaaab <heap_memory_used+0x887f3>
   14bc0:	0220a1b3          	mulhsu	gp,ra,sp
   14bc4:	00020eb7          	lui	t4,0x20
   14bc8:	efee8e9b          	addiw	t4,t4,-258
   14bcc:	01f00e13          	li	t3,31
   14bd0:	43d19c63          	bne	gp,t4,15008 <fail>

0000000000014bd4 <test_32>:
   14bd4:	0ff0009b          	addiw	ra,zero,255
   14bd8:	01809093          	slli	ra,ra,0x18
   14bdc:	0ff0011b          	addiw	sp,zero,255
   14be0:	01811113          	slli	sp,sp,0x18
   14be4:	0220a1b3          	mulhsu	gp,ra,sp
   14be8:	00010eb7          	lui	t4,0x10
   14bec:	f01e8e9b          	addiw	t4,t4,-255
   14bf0:	010e9e93          	slli	t4,t4,0x10
   14bf4:	02000e13          	li	t3,32
   14bf8:	41d19863          	bne	gp,t4,15008 <fail>

0000000000014bfc <test_33>:
   14bfc:	0010009b          	addiw	ra,zero,1
   14c00:	02009093          	slli	ra,ra,0x20
   14c04:	fff08093          	addi	ra,ra,-1 # 2ffff <heap_memory_used+0xdd47>
   14c08:	0010011b          	addiw	sp,zero,1
   14c0c:	02011113          	slli	sp,sp,0x20
   14c10:	fff10113          	addi	sp,sp,-1
   14c14:	0220a1b3          	mulhsu	gp,ra,sp
   14c18:	00100e9b          	addiw	t4,zero,1
   14c1c:	020e9e93          	slli	t4,t4,0x20
   14c20:	fffe8e93          	addi	t4,t4,-1 # ffff <coremarkBenchmark+0xff57>
   14c24:	02100e13          	li	t3,33
   14c28:	3fd19063          	bne	gp,t4,15008 <fail>

0000000000014c2c <test_34>:
   14c2c:	0010009b          	addiw	ra,zero,1
   14c30:	02009093          	slli	ra,ra,0x20
   14c34:	fff08093          	addi	ra,ra,-1
   14c38:	00100113          	li	sp,1
   14c3c:	0220a1b3          	mulhsu	gp,ra,sp
   14c40:	00100e9b          	addiw	t4,zero,1
   14c44:	020e9e93          	slli	t4,t4,0x20
   14c48:	fffe8e93          	addi	t4,t4,-1
   14c4c:	02200e13          	li	t3,34
   14c50:	3bd19c63          	bne	gp,t4,15008 <fail>

0000000000014c54 <test_35>:
   14c54:	00100093          	li	ra,1
   14c58:	0010011b          	addiw	sp,zero,1
   14c5c:	02011113          	slli	sp,sp,0x20
   14c60:	fff10113          	addi	sp,sp,-1
   14c64:	0220a1b3          	mulhsu	gp,ra,sp
   14c68:	00000e93          	li	t4,0
   14c6c:	02300e13          	li	t3,35
   14c70:	39d19c63          	bne	gp,t4,15008 <fail>

0000000000014c74 <test_8>:
   14c74:	00d000b7          	lui	ra,0xd00
   14c78:	00b00137          	lui	sp,0xb00
   14c7c:	0220a0b3          	mulhsu	ra,ra,sp
   14c80:	00009eb7          	lui	t4,0x9
   14c84:	f00e8e9b          	addiw	t4,t4,-256
   14c88:	00800e13          	li	t3,8
   14c8c:	37d09e63          	bne	ra,t4,15008 <fail>

0000000000014c90 <test_9>:
   14c90:	00e000b7          	lui	ra,0xe00
   14c94:	00b00137          	lui	sp,0xb00
   14c98:	0220a133          	mulhsu	sp,ra,sp
   14c9c:	0000aeb7          	lui	t4,0xa
   14ca0:	a00e8e9b          	addiw	t4,t4,-1536
   14ca4:	00900e13          	li	t3,9
   14ca8:	37d11063          	bne	sp,t4,15008 <fail>

0000000000014cac <test_10>:
   14cac:	00d000b7          	lui	ra,0xd00
   14cb0:	0210a0b3          	mulhsu	ra,ra,ra
   14cb4:	0000beb7          	lui	t4,0xb
   14cb8:	900e8e9b          	addiw	t4,t4,-1792
   14cbc:	00a00e13          	li	t3,10
   14cc0:	35d09463          	bne	ra,t4,15008 <fail>

0000000000014cc4 <test_11>:
   14cc4:	00000213          	li	tp,0
   14cc8:	00d000b7          	lui	ra,0xd00
   14ccc:	00b00137          	lui	sp,0xb00
   14cd0:	0220a1b3          	mulhsu	gp,ra,sp
   14cd4:	00018313          	mv	t1,gp
   14cd8:	00120213          	addi	tp,tp,1 # 1 <_start+0x1>
   14cdc:	00200293          	li	t0,2
   14ce0:	fe5214e3          	bne	tp,t0,14cc8 <test_11+0x4>
   14ce4:	00009eb7          	lui	t4,0x9
   14ce8:	f00e8e9b          	addiw	t4,t4,-256
   14cec:	00b00e13          	li	t3,11
   14cf0:	31d31c63          	bne	t1,t4,15008 <fail>

0000000000014cf4 <test_12>:
   14cf4:	00000213          	li	tp,0
   14cf8:	00e000b7          	lui	ra,0xe00
   14cfc:	00b00137          	lui	sp,0xb00
   14d00:	0220a1b3          	mulhsu	gp,ra,sp
   14d04:	00000013          	nop
   14d08:	00018313          	mv	t1,gp
   14d0c:	00120213          	addi	tp,tp,1 # 1 <_start+0x1>
   14d10:	00200293          	li	t0,2
   14d14:	fe5212e3          	bne	tp,t0,14cf8 <test_12+0x4>
   14d18:	0000aeb7          	lui	t4,0xa
   14d1c:	a00e8e9b          	addiw	t4,t4,-1536
   14d20:	00c00e13          	li	t3,12
   14d24:	2fd31263          	bne	t1,t4,15008 <fail>

0000000000014d28 <test_13>:
   14d28:	00000213          	li	tp,0
   14d2c:	00f000b7          	lui	ra,0xf00
   14d30:	00b00137          	lui	sp,0xb00
   14d34:	0220a1b3          	mulhsu	gp,ra,sp
   14d38:	00000013          	nop
   14d3c:	00000013          	nop
   14d40:	00018313          	mv	t1,gp
   14d44:	00120213          	addi	tp,tp,1 # 1 <_start+0x1>
   14d48:	00200293          	li	t0,2
   14d4c:	fe5210e3          	bne	tp,t0,14d2c <test_13+0x4>
   14d50:	0000aeb7          	lui	t4,0xa
   14d54:	500e8e9b          	addiw	t4,t4,1280
   14d58:	00d00e13          	li	t3,13
   14d5c:	2bd31663          	bne	t1,t4,15008 <fail>

0000000000014d60 <test_14>:
   14d60:	00000213          	li	tp,0
   14d64:	00d000b7          	lui	ra,0xd00
   14d68:	00b00137          	lui	sp,0xb00
   14d6c:	0220a1b3          	mulhsu	gp,ra,sp
   14d70:	00120213          	addi	tp,tp,1 # 1 <_start+0x1>
   14d74:	00200293          	li	t0,2
   14d78:	fe5216e3          	bne	tp,t0,14d64 <test_14+0x4>
   14d7c:	00009eb7          	lui	t4,0x9
   14d80:	f00e8e9b          	addiw	t4,t4,-256
   14d84:	00e00e13          	li	t3,14
   14d88:	29d19063          	bne	gp,t4,15008 <fail>

0000000000014d8c <test_15>:
   14d8c:	00000213          	li	tp,0
   14d90:	00e000b7          	lui	ra,0xe00
   14d94:	00b00137          	lui	sp,0xb00
   14d98:	00000013          	nop
   14d9c:	0220a1b3          	mulhsu	gp,ra,sp
   14da0:	00120213          	addi	tp,tp,1 # 1 <_start+0x1>
   14da4:	00200293          	li	t0,2
   14da8:	fe5214e3          	bne	tp,t0,14d90 <test_15+0x4>
   14dac:	0000aeb7          	lui	t4,0xa
   14db0:	a00e8e9b          	addiw	t4,t4,-1536
   14db4:	00f00e13          	li	t3,15
   14db8:	25d19863          	bne	gp,t4,15008 <fail>

0000000000014dbc <test_16>:
   14dbc:	00000213          	li	tp,0
   14dc0:	00f000b7          	lui	ra,0xf00
   14dc4:	00b00137          	lui	sp,0xb00
   14dc8:	00000013          	nop
   14dcc:	00000013          	nop
   14dd0:	0220a1b3          	mulhsu	gp,ra,sp
   14dd4:	00120213          	addi	tp,tp,1 # 1 <_start+0x1>
   14dd8:	00200293          	li	t0,2
   14ddc:	fe5212e3          	bne	tp,t0,14dc0 <test_16+0x4>
   14de0:	0000aeb7          	lui	t4,0xa
   14de4:	500e8e9b          	addiw	t4,t4,1280
   14de8:	01000e13          	li	t3,16
   14dec:	21d19e63          	bne	gp,t4,15008 <fail>

0000000000014df0 <test_17>:
   14df0:	00000213          	li	tp,0
   14df4:	00d000b7          	lui	ra,0xd00
   14df8:	00000013          	nop
   14dfc:	00b00137          	lui	sp,0xb00
   14e00:	0220a1b3          	mulhsu	gp,ra,sp
   14e04:	00120213          	addi	tp,tp,1 # 1 <_start+0x1>
   14e08:	00200293          	li	t0,2
   14e0c:	fe5214e3          	bne	tp,t0,14df4 <test_17+0x4>
   14e10:	00009eb7          	lui	t4,0x9
   14e14:	f00e8e9b          	addiw	t4,t4,-256
   14e18:	01100e13          	li	t3,17
   14e1c:	1fd19663          	bne	gp,t4,15008 <fail>

0000000000014e20 <test_18>:
   14e20:	00000213          	li	tp,0
   14e24:	00e000b7          	lui	ra,0xe00
   14e28:	00000013          	nop
   14e2c:	00b00137          	lui	sp,0xb00
   14e30:	00000013          	nop
   14e34:	0220a1b3          	mulhsu	gp,ra,sp
   14e38:	00120213          	addi	tp,tp,1 # 1 <_start+0x1>
   14e3c:	00200293          	li	t0,2
   14e40:	fe5212e3          	bne	tp,t0,14e24 <test_18+0x4>
   14e44:	0000aeb7          	lui	t4,0xa
   14e48:	a00e8e9b          	addiw	t4,t4,-1536
   14e4c:	01200e13          	li	t3,18
   14e50:	1bd19c63          	bne	gp,t4,15008 <fail>

0000000000014e54 <test_19>:
   14e54:	00000213          	li	tp,0
   14e58:	00f000b7          	lui	ra,0xf00
   14e5c:	00000013          	nop
   14e60:	00000013          	nop
   14e64:	00b00137          	lui	sp,0xb00
   14e68:	0220a1b3          	mulhsu	gp,ra,sp
   14e6c:	00120213          	addi	tp,tp,1 # 1 <_start+0x1>
   14e70:	00200293          	li	t0,2
   14e74:	fe5212e3          	bne	tp,t0,14e58 <test_19+0x4>
   14e78:	0000aeb7          	lui	t4,0xa
   14e7c:	500e8e9b          	addiw	t4,t4,1280
   14e80:	01300e13          	li	t3,19
   14e84:	19d19263          	bne	gp,t4,15008 <fail>

0000000000014e88 <test_20>:
   14e88:	00000213          	li	tp,0
   14e8c:	00b00137          	lui	sp,0xb00
   14e90:	00d000b7          	lui	ra,0xd00
   14e94:	0220a1b3          	mulhsu	gp,ra,sp
   14e98:	00120213          	addi	tp,tp,1 # 1 <_start+0x1>
   14e9c:	00200293          	li	t0,2
   14ea0:	fe5216e3          	bne	tp,t0,14e8c <test_20+0x4>
   14ea4:	00009eb7          	lui	t4,0x9
   14ea8:	f00e8e9b          	addiw	t4,t4,-256
   14eac:	01400e13          	li	t3,20
   14eb0:	15d19c63          	bne	gp,t4,15008 <fail>

0000000000014eb4 <test_21>:
   14eb4:	00000213          	li	tp,0
   14eb8:	00b00137          	lui	sp,0xb00
   14ebc:	00e000b7          	lui	ra,0xe00
   14ec0:	00000013          	nop
   14ec4:	0220a1b3          	mulhsu	gp,ra,sp
   14ec8:	00120213          	addi	tp,tp,1 # 1 <_start+0x1>
   14ecc:	00200293          	li	t0,2
   14ed0:	fe5214e3          	bne	tp,t0,14eb8 <test_21+0x4>
   14ed4:	0000aeb7          	lui	t4,0xa
   14ed8:	a00e8e9b          	addiw	t4,t4,-1536
   14edc:	01500e13          	li	t3,21
   14ee0:	13d19463          	bne	gp,t4,15008 <fail>

0000000000014ee4 <test_22>:
   14ee4:	00000213          	li	tp,0
   14ee8:	00b00137          	lui	sp,0xb00
   14eec:	00f000b7          	lui	ra,0xf00
   14ef0:	00000013          	nop
   14ef4:	00000013          	nop
   14ef8:	0220a1b3          	mulhsu	gp,ra,sp
   14efc:	00120213          	addi	tp,tp,1 # 1 <_start+0x1>
   14f00:	00200293          	li	t0,2
   14f04:	fe5212e3          	bne	tp,t0,14ee8 <test_22+0x4>
   14f08:	0000aeb7          	lui	t4,0xa
   14f0c:	500e8e9b          	addiw	t4,t4,1280
   14f10:	01600e13          	li	t3,22
   14f14:	0fd19a63          	bne	gp,t4,15008 <fail>

0000000000014f18 <test_23>:
   14f18:	00000213          	li	tp,0
   14f1c:	00b00137          	lui	sp,0xb00
   14f20:	00000013          	nop
   14f24:	00d000b7          	lui	ra,0xd00
   14f28:	0220a1b3          	mulhsu	gp,ra,sp
   14f2c:	00120213          	addi	tp,tp,1 # 1 <_start+0x1>
   14f30:	00200293          	li	t0,2
   14f34:	fe5214e3          	bne	tp,t0,14f1c <test_23+0x4>
   14f38:	00009eb7          	lui	t4,0x9
   14f3c:	f00e8e9b          	addiw	t4,t4,-256
   14f40:	01700e13          	li	t3,23
   14f44:	0dd19263          	bne	gp,t4,15008 <fail>

0000000000014f48 <test_24>:
   14f48:	00000213          	li	tp,0
   14f4c:	00b00137          	lui	sp,0xb00
   14f50:	00000013          	nop
   14f54:	00e000b7          	lui	ra,0xe00
   14f58:	00000013          	nop
   14f5c:	0220a1b3          	mulhsu	gp,ra,sp
   14f60:	00120213          	addi	tp,tp,1 # 1 <_start+0x1>
   14f64:	00200293          	li	t0,2
   14f68:	fe5212e3          	bne	tp,t0,14f4c <test_24+0x4>
   14f6c:	0000aeb7          	lui	t4,0xa
   14f70:	a00e8e9b          	addiw	t4,t4,-1536
   14f74:	01800e13          	li	t3,24
   14f78:	09d19863          	bne	gp,t4,15008 <fail>

0000000000014f7c <test_25>:
   14f7c:	00000213          	li	tp,0
   14f80:	00b00137          	lui	sp,0xb00
   14f84:	00000013          	nop
   14f88:	00000013          	nop
   14f8c:	00f000b7          	lui	ra,0xf00
   14f90:	0220a1b3          	mulhsu	gp,ra,sp
   14f94:	00120213          	addi	tp,tp,1 # 1 <_start+0x1>
   14f98:	00200293          	li	t0,2
   14f9c:	fe5212e3          	bne	tp,t0,14f80 <test_25+0x4>
   14fa0:	0000aeb7          	lui	t4,0xa
   14fa4:	500e8e9b          	addiw	t4,t4,1280
   14fa8:	01900e13          	li	t3,25
   14fac:	05d19e63          	bne	gp,t4,15008 <fail>

0000000000014fb0 <test_26>:
   14fb0:	7c0000b7          	lui	ra,0x7c000
   14fb4:	02102133          	mulhsu	sp,zero,ra
   14fb8:	00000e93          	li	t4,0
   14fbc:	01a00e13          	li	t3,26
   14fc0:	05d11463          	bne	sp,t4,15008 <fail>

0000000000014fc4 <test_27>:
   14fc4:	0010009b          	addiw	ra,zero,1
   14fc8:	01f09093          	slli	ra,ra,0x1f
   14fcc:	0200a133          	mulhsu	sp,ra,zero
   14fd0:	00000e93          	li	t4,0
   14fd4:	01b00e13          	li	t3,27
   14fd8:	03d11863          	bne	sp,t4,15008 <fail>

0000000000014fdc <test_28>:
   14fdc:	020020b3          	mulhsu	ra,zero,zero
   14fe0:	00000e93          	li	t4,0
   14fe4:	01c00e13          	li	t3,28
   14fe8:	03d09063          	bne	ra,t4,15008 <fail>

0000000000014fec <test_29>:
   14fec:	021000b7          	lui	ra,0x2100
   14ff0:	02200137          	lui	sp,0x2200
   14ff4:	0220a033          	mulhsu	zero,ra,sp
   14ff8:	00000e93          	li	t4,0
   14ffc:	01d00e13          	li	t3,29
   15000:	01d01463          	bne	zero,t4,15008 <fail>
   15004:	05c01863          	bne	zero,t3,15054 <pass>

0000000000015008 <fail>:
   15008:	04500513          	li	a0,69
   1500c:	00004137          	lui	sp,0x4
   15010:	6f9080ef          	jal	ra,1df08 <printf_c>
   15014:	05200513          	li	a0,82
   15018:	00004137          	lui	sp,0x4
   1501c:	6ed080ef          	jal	ra,1df08 <printf_c>
   15020:	00004137          	lui	sp,0x4
   15024:	6e5080ef          	jal	ra,1df08 <printf_c>
   15028:	04f00513          	li	a0,79
   1502c:	00004137          	lui	sp,0x4
   15030:	6d9080ef          	jal	ra,1df08 <printf_c>
   15034:	00004137          	lui	sp,0x4
   15038:	05200513          	li	a0,82
   1503c:	00004137          	lui	sp,0x4
   15040:	6c9080ef          	jal	ra,1df08 <printf_c>
   15044:	00a00513          	li	a0,10
   15048:	00004137          	lui	sp,0x4
   1504c:	6bd080ef          	jal	ra,1df08 <printf_c>
   15050:	0340006f          	j	15084 <mulhu>

0000000000015054 <pass>:
   15054:	04f00513          	li	a0,79
   15058:	00004137          	lui	sp,0x4
   1505c:	6ad080ef          	jal	ra,1df08 <printf_c>
   15060:	04b00513          	li	a0,75
   15064:	00004137          	lui	sp,0x4
   15068:	6a1080ef          	jal	ra,1df08 <printf_c>
   1506c:	00a00513          	li	a0,10
   15070:	00004137          	lui	sp,0x4
   15074:	695080ef          	jal	ra,1df08 <printf_c>
   15078:	00c0006f          	j	15084 <mulhu>

000000000001507c <.test_name>:
   1507c:	756d                	lui	a0,0xffffb
   1507e:	686c                	ld	a1,208(s0)
   15080:	0975                	addi	s2,s2,29
	...

0000000000015084 <mulhu>:
   15084:	00015537          	lui	a0,0x15
   15088:	07c50513          	addi	a0,a0,124 # 1507c <.test_name>

000000000001508c <.prname_next>:
   1508c:	00004137          	lui	sp,0x4
   15090:	6a5080ef          	jal	ra,1df34 <printf_s>

0000000000015094 <test_2>:
   15094:	00000093          	li	ra,0
   15098:	00000113          	li	sp,0
   1509c:	0220b1b3          	mulhu	gp,ra,sp
   150a0:	00000e93          	li	t4,0
   150a4:	00200e13          	li	t3,2
   150a8:	51d19c63          	bne	gp,t4,155c0 <fail>

00000000000150ac <test_3>:
   150ac:	00100093          	li	ra,1
   150b0:	00100113          	li	sp,1
   150b4:	0220b1b3          	mulhu	gp,ra,sp
   150b8:	00000e93          	li	t4,0
   150bc:	00300e13          	li	t3,3
   150c0:	51d19063          	bne	gp,t4,155c0 <fail>

00000000000150c4 <test_4>:
   150c4:	00300093          	li	ra,3
   150c8:	00700113          	li	sp,7
   150cc:	0220b1b3          	mulhu	gp,ra,sp
   150d0:	00000e93          	li	t4,0
   150d4:	00400e13          	li	t3,4
   150d8:	4fd19463          	bne	gp,t4,155c0 <fail>

00000000000150dc <test_5>:
   150dc:	00000093          	li	ra,0
   150e0:	00020137          	lui	sp,0x20
   150e4:	fff1011b          	addiw	sp,sp,-1
   150e8:	00f11113          	slli	sp,sp,0xf
   150ec:	0220b1b3          	mulhu	gp,ra,sp
   150f0:	00000e93          	li	t4,0
   150f4:	00500e13          	li	t3,5
   150f8:	4dd19463          	bne	gp,t4,155c0 <fail>

00000000000150fc <test_6>:
   150fc:	0010009b          	addiw	ra,zero,1
   15100:	01f09093          	slli	ra,ra,0x1f
   15104:	00000113          	li	sp,0
   15108:	0220b1b3          	mulhu	gp,ra,sp
   1510c:	00000e93          	li	t4,0
   15110:	00600e13          	li	t3,6
   15114:	4bd19663          	bne	gp,t4,155c0 <fail>

0000000000015118 <test_7>:
   15118:	0010009b          	addiw	ra,zero,1
   1511c:	01f09093          	slli	ra,ra,0x1f
   15120:	00020137          	lui	sp,0x20
   15124:	fff1011b          	addiw	sp,sp,-1
   15128:	00f11113          	slli	sp,sp,0xf
   1512c:	0220b1b3          	mulhu	gp,ra,sp
   15130:	7fffceb7          	lui	t4,0x7fffc
   15134:	00700e13          	li	t3,7
   15138:	49d19463          	bne	gp,t4,155c0 <fail>

000000000001513c <test_30>:
   1513c:	000ab0b7          	lui	ra,0xab
   15140:	aab0809b          	addiw	ra,ra,-1365
   15144:	00c09093          	slli	ra,ra,0xc
   15148:	aab08093          	addi	ra,ra,-1365 # aaaab <heap_memory_used+0x887f3>
   1514c:	00030137          	lui	sp,0x30
   15150:	e7d1011b          	addiw	sp,sp,-387
   15154:	0220b1b3          	mulhu	gp,ra,sp
   15158:	00020eb7          	lui	t4,0x20
   1515c:	efee8e9b          	addiw	t4,t4,-258
   15160:	01e00e13          	li	t3,30
   15164:	45d19e63          	bne	gp,t4,155c0 <fail>

0000000000015168 <test_31>:
   15168:	000300b7          	lui	ra,0x30
   1516c:	e7d0809b          	addiw	ra,ra,-387
   15170:	000ab137          	lui	sp,0xab
   15174:	aab1011b          	addiw	sp,sp,-1365
   15178:	00c11113          	slli	sp,sp,0xc
   1517c:	aab10113          	addi	sp,sp,-1365 # aaaab <heap_memory_used+0x887f3>
   15180:	0220b1b3          	mulhu	gp,ra,sp
   15184:	00020eb7          	lui	t4,0x20
   15188:	efee8e9b          	addiw	t4,t4,-258
   1518c:	01f00e13          	li	t3,31
   15190:	43d19863          	bne	gp,t4,155c0 <fail>

0000000000015194 <test_32>:
   15194:	0ff0009b          	addiw	ra,zero,255
   15198:	01809093          	slli	ra,ra,0x18
   1519c:	0ff0011b          	addiw	sp,zero,255
   151a0:	01811113          	slli	sp,sp,0x18
   151a4:	0220b1b3          	mulhu	gp,ra,sp
   151a8:	00010eb7          	lui	t4,0x10
   151ac:	e01e8e9b          	addiw	t4,t4,-511
   151b0:	010e9e93          	slli	t4,t4,0x10
   151b4:	02000e13          	li	t3,32
   151b8:	41d19463          	bne	gp,t4,155c0 <fail>

00000000000151bc <test_33>:
   151bc:	0010009b          	addiw	ra,zero,1
   151c0:	02009093          	slli	ra,ra,0x20
   151c4:	fff08093          	addi	ra,ra,-1 # 2ffff <heap_memory_used+0xdd47>
   151c8:	0010011b          	addiw	sp,zero,1
   151cc:	02011113          	slli	sp,sp,0x20
   151d0:	fff10113          	addi	sp,sp,-1
   151d4:	0220b1b3          	mulhu	gp,ra,sp
   151d8:	00100e9b          	addiw	t4,zero,1
   151dc:	020e9e93          	slli	t4,t4,0x20
   151e0:	ffee8e93          	addi	t4,t4,-2 # fffe <coremarkBenchmark+0xff56>
   151e4:	02100e13          	li	t3,33
   151e8:	3dd19c63          	bne	gp,t4,155c0 <fail>

00000000000151ec <test_34>:
   151ec:	0010009b          	addiw	ra,zero,1
   151f0:	02009093          	slli	ra,ra,0x20
   151f4:	fff08093          	addi	ra,ra,-1
   151f8:	00100113          	li	sp,1
   151fc:	0220b1b3          	mulhu	gp,ra,sp
   15200:	00000e93          	li	t4,0
   15204:	02200e13          	li	t3,34
   15208:	3bd19c63          	bne	gp,t4,155c0 <fail>

000000000001520c <test_35>:
   1520c:	00100093          	li	ra,1
   15210:	0010011b          	addiw	sp,zero,1
   15214:	02011113          	slli	sp,sp,0x20
   15218:	fff10113          	addi	sp,sp,-1
   1521c:	0220b1b3          	mulhu	gp,ra,sp
   15220:	00000e93          	li	t4,0
   15224:	02300e13          	li	t3,35
   15228:	39d19c63          	bne	gp,t4,155c0 <fail>

000000000001522c <test_8>:
   1522c:	00d000b7          	lui	ra,0xd00
   15230:	00b00137          	lui	sp,0xb00
   15234:	0220b0b3          	mulhu	ra,ra,sp
   15238:	00009eb7          	lui	t4,0x9
   1523c:	f00e8e9b          	addiw	t4,t4,-256
   15240:	00800e13          	li	t3,8
   15244:	37d09e63          	bne	ra,t4,155c0 <fail>

0000000000015248 <test_9>:
   15248:	00e000b7          	lui	ra,0xe00
   1524c:	00b00137          	lui	sp,0xb00
   15250:	0220b133          	mulhu	sp,ra,sp
   15254:	0000aeb7          	lui	t4,0xa
   15258:	a00e8e9b          	addiw	t4,t4,-1536
   1525c:	00900e13          	li	t3,9
   15260:	37d11063          	bne	sp,t4,155c0 <fail>

0000000000015264 <test_10>:
   15264:	00d000b7          	lui	ra,0xd00
   15268:	0210b0b3          	mulhu	ra,ra,ra
   1526c:	0000beb7          	lui	t4,0xb
   15270:	900e8e9b          	addiw	t4,t4,-1792
   15274:	00a00e13          	li	t3,10
   15278:	35d09463          	bne	ra,t4,155c0 <fail>

000000000001527c <test_11>:
   1527c:	00000213          	li	tp,0
   15280:	00d000b7          	lui	ra,0xd00
   15284:	00b00137          	lui	sp,0xb00
   15288:	0220b1b3          	mulhu	gp,ra,sp
   1528c:	00018313          	mv	t1,gp
   15290:	00120213          	addi	tp,tp,1 # 1 <_start+0x1>
   15294:	00200293          	li	t0,2
   15298:	fe5214e3          	bne	tp,t0,15280 <test_11+0x4>
   1529c:	00009eb7          	lui	t4,0x9
   152a0:	f00e8e9b          	addiw	t4,t4,-256
   152a4:	00b00e13          	li	t3,11
   152a8:	31d31c63          	bne	t1,t4,155c0 <fail>

00000000000152ac <test_12>:
   152ac:	00000213          	li	tp,0
   152b0:	00e000b7          	lui	ra,0xe00
   152b4:	00b00137          	lui	sp,0xb00
   152b8:	0220b1b3          	mulhu	gp,ra,sp
   152bc:	00000013          	nop
   152c0:	00018313          	mv	t1,gp
   152c4:	00120213          	addi	tp,tp,1 # 1 <_start+0x1>
   152c8:	00200293          	li	t0,2
   152cc:	fe5212e3          	bne	tp,t0,152b0 <test_12+0x4>
   152d0:	0000aeb7          	lui	t4,0xa
   152d4:	a00e8e9b          	addiw	t4,t4,-1536
   152d8:	00c00e13          	li	t3,12
   152dc:	2fd31263          	bne	t1,t4,155c0 <fail>

00000000000152e0 <test_13>:
   152e0:	00000213          	li	tp,0
   152e4:	00f000b7          	lui	ra,0xf00
   152e8:	00b00137          	lui	sp,0xb00
   152ec:	0220b1b3          	mulhu	gp,ra,sp
   152f0:	00000013          	nop
   152f4:	00000013          	nop
   152f8:	00018313          	mv	t1,gp
   152fc:	00120213          	addi	tp,tp,1 # 1 <_start+0x1>
   15300:	00200293          	li	t0,2
   15304:	fe5210e3          	bne	tp,t0,152e4 <test_13+0x4>
   15308:	0000aeb7          	lui	t4,0xa
   1530c:	500e8e9b          	addiw	t4,t4,1280
   15310:	00d00e13          	li	t3,13
   15314:	2bd31663          	bne	t1,t4,155c0 <fail>

0000000000015318 <test_14>:
   15318:	00000213          	li	tp,0
   1531c:	00d000b7          	lui	ra,0xd00
   15320:	00b00137          	lui	sp,0xb00
   15324:	0220b1b3          	mulhu	gp,ra,sp
   15328:	00120213          	addi	tp,tp,1 # 1 <_start+0x1>
   1532c:	00200293          	li	t0,2
   15330:	fe5216e3          	bne	tp,t0,1531c <test_14+0x4>
   15334:	00009eb7          	lui	t4,0x9
   15338:	f00e8e9b          	addiw	t4,t4,-256
   1533c:	00e00e13          	li	t3,14
   15340:	29d19063          	bne	gp,t4,155c0 <fail>

0000000000015344 <test_15>:
   15344:	00000213          	li	tp,0
   15348:	00e000b7          	lui	ra,0xe00
   1534c:	00b00137          	lui	sp,0xb00
   15350:	00000013          	nop
   15354:	0220b1b3          	mulhu	gp,ra,sp
   15358:	00120213          	addi	tp,tp,1 # 1 <_start+0x1>
   1535c:	00200293          	li	t0,2
   15360:	fe5214e3          	bne	tp,t0,15348 <test_15+0x4>
   15364:	0000aeb7          	lui	t4,0xa
   15368:	a00e8e9b          	addiw	t4,t4,-1536
   1536c:	00f00e13          	li	t3,15
   15370:	25d19863          	bne	gp,t4,155c0 <fail>

0000000000015374 <test_16>:
   15374:	00000213          	li	tp,0
   15378:	00f000b7          	lui	ra,0xf00
   1537c:	00b00137          	lui	sp,0xb00
   15380:	00000013          	nop
   15384:	00000013          	nop
   15388:	0220b1b3          	mulhu	gp,ra,sp
   1538c:	00120213          	addi	tp,tp,1 # 1 <_start+0x1>
   15390:	00200293          	li	t0,2
   15394:	fe5212e3          	bne	tp,t0,15378 <test_16+0x4>
   15398:	0000aeb7          	lui	t4,0xa
   1539c:	500e8e9b          	addiw	t4,t4,1280
   153a0:	01000e13          	li	t3,16
   153a4:	21d19e63          	bne	gp,t4,155c0 <fail>

00000000000153a8 <test_17>:
   153a8:	00000213          	li	tp,0
   153ac:	00d000b7          	lui	ra,0xd00
   153b0:	00000013          	nop
   153b4:	00b00137          	lui	sp,0xb00
   153b8:	0220b1b3          	mulhu	gp,ra,sp
   153bc:	00120213          	addi	tp,tp,1 # 1 <_start+0x1>
   153c0:	00200293          	li	t0,2
   153c4:	fe5214e3          	bne	tp,t0,153ac <test_17+0x4>
   153c8:	00009eb7          	lui	t4,0x9
   153cc:	f00e8e9b          	addiw	t4,t4,-256
   153d0:	01100e13          	li	t3,17
   153d4:	1fd19663          	bne	gp,t4,155c0 <fail>

00000000000153d8 <test_18>:
   153d8:	00000213          	li	tp,0
   153dc:	00e000b7          	lui	ra,0xe00
   153e0:	00000013          	nop
   153e4:	00b00137          	lui	sp,0xb00
   153e8:	00000013          	nop
   153ec:	0220b1b3          	mulhu	gp,ra,sp
   153f0:	00120213          	addi	tp,tp,1 # 1 <_start+0x1>
   153f4:	00200293          	li	t0,2
   153f8:	fe5212e3          	bne	tp,t0,153dc <test_18+0x4>
   153fc:	0000aeb7          	lui	t4,0xa
   15400:	a00e8e9b          	addiw	t4,t4,-1536
   15404:	01200e13          	li	t3,18
   15408:	1bd19c63          	bne	gp,t4,155c0 <fail>

000000000001540c <test_19>:
   1540c:	00000213          	li	tp,0
   15410:	00f000b7          	lui	ra,0xf00
   15414:	00000013          	nop
   15418:	00000013          	nop
   1541c:	00b00137          	lui	sp,0xb00
   15420:	0220b1b3          	mulhu	gp,ra,sp
   15424:	00120213          	addi	tp,tp,1 # 1 <_start+0x1>
   15428:	00200293          	li	t0,2
   1542c:	fe5212e3          	bne	tp,t0,15410 <test_19+0x4>
   15430:	0000aeb7          	lui	t4,0xa
   15434:	500e8e9b          	addiw	t4,t4,1280
   15438:	01300e13          	li	t3,19
   1543c:	19d19263          	bne	gp,t4,155c0 <fail>

0000000000015440 <test_20>:
   15440:	00000213          	li	tp,0
   15444:	00b00137          	lui	sp,0xb00
   15448:	00d000b7          	lui	ra,0xd00
   1544c:	0220b1b3          	mulhu	gp,ra,sp
   15450:	00120213          	addi	tp,tp,1 # 1 <_start+0x1>
   15454:	00200293          	li	t0,2
   15458:	fe5216e3          	bne	tp,t0,15444 <test_20+0x4>
   1545c:	00009eb7          	lui	t4,0x9
   15460:	f00e8e9b          	addiw	t4,t4,-256
   15464:	01400e13          	li	t3,20
   15468:	15d19c63          	bne	gp,t4,155c0 <fail>

000000000001546c <test_21>:
   1546c:	00000213          	li	tp,0
   15470:	00b00137          	lui	sp,0xb00
   15474:	00e000b7          	lui	ra,0xe00
   15478:	00000013          	nop
   1547c:	0220b1b3          	mulhu	gp,ra,sp
   15480:	00120213          	addi	tp,tp,1 # 1 <_start+0x1>
   15484:	00200293          	li	t0,2
   15488:	fe5214e3          	bne	tp,t0,15470 <test_21+0x4>
   1548c:	0000aeb7          	lui	t4,0xa
   15490:	a00e8e9b          	addiw	t4,t4,-1536
   15494:	01500e13          	li	t3,21
   15498:	13d19463          	bne	gp,t4,155c0 <fail>

000000000001549c <test_22>:
   1549c:	00000213          	li	tp,0
   154a0:	00b00137          	lui	sp,0xb00
   154a4:	00f000b7          	lui	ra,0xf00
   154a8:	00000013          	nop
   154ac:	00000013          	nop
   154b0:	0220b1b3          	mulhu	gp,ra,sp
   154b4:	00120213          	addi	tp,tp,1 # 1 <_start+0x1>
   154b8:	00200293          	li	t0,2
   154bc:	fe5212e3          	bne	tp,t0,154a0 <test_22+0x4>
   154c0:	0000aeb7          	lui	t4,0xa
   154c4:	500e8e9b          	addiw	t4,t4,1280
   154c8:	01600e13          	li	t3,22
   154cc:	0fd19a63          	bne	gp,t4,155c0 <fail>

00000000000154d0 <test_23>:
   154d0:	00000213          	li	tp,0
   154d4:	00b00137          	lui	sp,0xb00
   154d8:	00000013          	nop
   154dc:	00d000b7          	lui	ra,0xd00
   154e0:	0220b1b3          	mulhu	gp,ra,sp
   154e4:	00120213          	addi	tp,tp,1 # 1 <_start+0x1>
   154e8:	00200293          	li	t0,2
   154ec:	fe5214e3          	bne	tp,t0,154d4 <test_23+0x4>
   154f0:	00009eb7          	lui	t4,0x9
   154f4:	f00e8e9b          	addiw	t4,t4,-256
   154f8:	01700e13          	li	t3,23
   154fc:	0dd19263          	bne	gp,t4,155c0 <fail>

0000000000015500 <test_24>:
   15500:	00000213          	li	tp,0
   15504:	00b00137          	lui	sp,0xb00
   15508:	00000013          	nop
   1550c:	00e000b7          	lui	ra,0xe00
   15510:	00000013          	nop
   15514:	0220b1b3          	mulhu	gp,ra,sp
   15518:	00120213          	addi	tp,tp,1 # 1 <_start+0x1>
   1551c:	00200293          	li	t0,2
   15520:	fe5212e3          	bne	tp,t0,15504 <test_24+0x4>
   15524:	0000aeb7          	lui	t4,0xa
   15528:	a00e8e9b          	addiw	t4,t4,-1536
   1552c:	01800e13          	li	t3,24
   15530:	09d19863          	bne	gp,t4,155c0 <fail>

0000000000015534 <test_25>:
   15534:	00000213          	li	tp,0
   15538:	00b00137          	lui	sp,0xb00
   1553c:	00000013          	nop
   15540:	00000013          	nop
   15544:	00f000b7          	lui	ra,0xf00
   15548:	0220b1b3          	mulhu	gp,ra,sp
   1554c:	00120213          	addi	tp,tp,1 # 1 <_start+0x1>
   15550:	00200293          	li	t0,2
   15554:	fe5212e3          	bne	tp,t0,15538 <test_25+0x4>
   15558:	0000aeb7          	lui	t4,0xa
   1555c:	500e8e9b          	addiw	t4,t4,1280
   15560:	01900e13          	li	t3,25
   15564:	05d19e63          	bne	gp,t4,155c0 <fail>

0000000000015568 <test_26>:
   15568:	7c0000b7          	lui	ra,0x7c000
   1556c:	02103133          	mulhu	sp,zero,ra
   15570:	00000e93          	li	t4,0
   15574:	01a00e13          	li	t3,26
   15578:	05d11463          	bne	sp,t4,155c0 <fail>

000000000001557c <test_27>:
   1557c:	0010009b          	addiw	ra,zero,1
   15580:	01f09093          	slli	ra,ra,0x1f
   15584:	0200b133          	mulhu	sp,ra,zero
   15588:	00000e93          	li	t4,0
   1558c:	01b00e13          	li	t3,27
   15590:	03d11863          	bne	sp,t4,155c0 <fail>

0000000000015594 <test_28>:
   15594:	020030b3          	mulhu	ra,zero,zero
   15598:	00000e93          	li	t4,0
   1559c:	01c00e13          	li	t3,28
   155a0:	03d09063          	bne	ra,t4,155c0 <fail>

00000000000155a4 <test_29>:
   155a4:	021000b7          	lui	ra,0x2100
   155a8:	02200137          	lui	sp,0x2200
   155ac:	0220b033          	mulhu	zero,ra,sp
   155b0:	00000e93          	li	t4,0
   155b4:	01d00e13          	li	t3,29
   155b8:	01d01463          	bne	zero,t4,155c0 <fail>
   155bc:	05c01863          	bne	zero,t3,1560c <pass>

00000000000155c0 <fail>:
   155c0:	04500513          	li	a0,69
   155c4:	00004137          	lui	sp,0x4
   155c8:	141080ef          	jal	ra,1df08 <printf_c>
   155cc:	05200513          	li	a0,82
   155d0:	00004137          	lui	sp,0x4
   155d4:	135080ef          	jal	ra,1df08 <printf_c>
   155d8:	00004137          	lui	sp,0x4
   155dc:	12d080ef          	jal	ra,1df08 <printf_c>
   155e0:	04f00513          	li	a0,79
   155e4:	00004137          	lui	sp,0x4
   155e8:	121080ef          	jal	ra,1df08 <printf_c>
   155ec:	00004137          	lui	sp,0x4
   155f0:	05200513          	li	a0,82
   155f4:	00004137          	lui	sp,0x4
   155f8:	111080ef          	jal	ra,1df08 <printf_c>
   155fc:	00a00513          	li	a0,10
   15600:	00004137          	lui	sp,0x4
   15604:	105080ef          	jal	ra,1df08 <printf_c>
   15608:	a9cfd06f          	j	128a4 <div>

000000000001560c <pass>:
   1560c:	04f00513          	li	a0,79
   15610:	00004137          	lui	sp,0x4
   15614:	0f5080ef          	jal	ra,1df08 <printf_c>
   15618:	04b00513          	li	a0,75
   1561c:	00004137          	lui	sp,0x4
   15620:	0e9080ef          	jal	ra,1df08 <printf_c>
   15624:	00a00513          	li	a0,10
   15628:	00004137          	lui	sp,0x4
   1562c:	0dd080ef          	jal	ra,1df08 <printf_c>
   15630:	a74fd06f          	j	128a4 <div>

0000000000015634 <.test_name>:
   15634:	0009726f          	jal	tp,ac634 <heap_memory_used+0x8a37c>

0000000000015638 <or>:
   15638:	00015537          	lui	a0,0x15
   1563c:	63450513          	addi	a0,a0,1588 # 15634 <.test_name>

0000000000015640 <.prname_next>:
   15640:	00004137          	lui	sp,0x4
   15644:	0f1080ef          	jal	ra,1df34 <printf_s>

0000000000015648 <test_2>:
   15648:	000100b7          	lui	ra,0x10
   1564c:	f010809b          	addiw	ra,ra,-255
   15650:	01009093          	slli	ra,ra,0x10
   15654:	f0008093          	addi	ra,ra,-256 # ff00 <coremarkBenchmark+0xfe58>
   15658:	0f0f1137          	lui	sp,0xf0f1
   1565c:	f0f1011b          	addiw	sp,sp,-241
   15660:	0020e1b3          	or	gp,ra,sp
   15664:	00001eb7          	lui	t4,0x1
   15668:	ff1e8e9b          	addiw	t4,t4,-15
   1566c:	014e9e93          	slli	t4,t4,0x14
   15670:	f0fe8e93          	addi	t4,t4,-241 # f0f <coremarkBenchmark+0xe67>
   15674:	00200e13          	li	t3,2
   15678:	5bd19663          	bne	gp,t4,15c24 <fail>

000000000001567c <test_3>:
   1567c:	0ff010b7          	lui	ra,0xff01
   15680:	ff00809b          	addiw	ra,ra,-16
   15684:	000f1137          	lui	sp,0xf1
   15688:	f0f1011b          	addiw	sp,sp,-241
   1568c:	00c11113          	slli	sp,sp,0xc
   15690:	0f010113          	addi	sp,sp,240 # f10f0 <heap_memory_used+0xcee38>
   15694:	0020e1b3          	or	gp,ra,sp
   15698:	00010eb7          	lui	t4,0x10
   1569c:	ff1e8e9b          	addiw	t4,t4,-15
   156a0:	010e9e93          	slli	t4,t4,0x10
   156a4:	ff0e8e93          	addi	t4,t4,-16 # fff0 <coremarkBenchmark+0xff48>
   156a8:	00300e13          	li	t3,3
   156ac:	57d19c63          	bne	gp,t4,15c24 <fail>

00000000000156b0 <test_4>:
   156b0:	00ff00b7          	lui	ra,0xff0
   156b4:	0ff0809b          	addiw	ra,ra,255
   156b8:	0f0f1137          	lui	sp,0xf0f1
   156bc:	f0f1011b          	addiw	sp,sp,-241
   156c0:	0020e1b3          	or	gp,ra,sp
   156c4:	0fff1eb7          	lui	t4,0xfff1
   156c8:	fffe8e9b          	addiw	t4,t4,-1
   156cc:	00400e13          	li	t3,4
   156d0:	55d19a63          	bne	gp,t4,15c24 <fail>

00000000000156d4 <test_5>:
   156d4:	000f00b7          	lui	ra,0xf0
   156d8:	0ff0809b          	addiw	ra,ra,255
   156dc:	00c09093          	slli	ra,ra,0xc
   156e0:	00f08093          	addi	ra,ra,15 # f000f <heap_memory_used+0xcdd57>
   156e4:	000f1137          	lui	sp,0xf1
   156e8:	f0f1011b          	addiw	sp,sp,-241
   156ec:	00c11113          	slli	sp,sp,0xc
   156f0:	0f010113          	addi	sp,sp,240 # f10f0 <heap_memory_used+0xcee38>
   156f4:	0020e1b3          	or	gp,ra,sp
   156f8:	000f1eb7          	lui	t4,0xf1
   156fc:	fffe8e9b          	addiw	t4,t4,-1
   15700:	00ce9e93          	slli	t4,t4,0xc
   15704:	0ffe8e93          	addi	t4,t4,255 # f10ff <heap_memory_used+0xcee47>
   15708:	00500e13          	li	t3,5
   1570c:	51d19c63          	bne	gp,t4,15c24 <fail>

0000000000015710 <test_6>:
   15710:	000100b7          	lui	ra,0x10
   15714:	f010809b          	addiw	ra,ra,-255
   15718:	01009093          	slli	ra,ra,0x10
   1571c:	f0008093          	addi	ra,ra,-256 # ff00 <coremarkBenchmark+0xfe58>
   15720:	0f0f1137          	lui	sp,0xf0f1
   15724:	f0f1011b          	addiw	sp,sp,-241
   15728:	0020e0b3          	or	ra,ra,sp
   1572c:	00001eb7          	lui	t4,0x1
   15730:	ff1e8e9b          	addiw	t4,t4,-15
   15734:	014e9e93          	slli	t4,t4,0x14
   15738:	f0fe8e93          	addi	t4,t4,-241 # f0f <coremarkBenchmark+0xe67>
   1573c:	00600e13          	li	t3,6
   15740:	4fd09263          	bne	ra,t4,15c24 <fail>

0000000000015744 <test_7>:
   15744:	000100b7          	lui	ra,0x10
   15748:	f010809b          	addiw	ra,ra,-255
   1574c:	01009093          	slli	ra,ra,0x10
   15750:	f0008093          	addi	ra,ra,-256 # ff00 <coremarkBenchmark+0xfe58>
   15754:	0f0f1137          	lui	sp,0xf0f1
   15758:	f0f1011b          	addiw	sp,sp,-241
   1575c:	0020e133          	or	sp,ra,sp
   15760:	00001eb7          	lui	t4,0x1
   15764:	ff1e8e9b          	addiw	t4,t4,-15
   15768:	014e9e93          	slli	t4,t4,0x14
   1576c:	f0fe8e93          	addi	t4,t4,-241 # f0f <coremarkBenchmark+0xe67>
   15770:	00700e13          	li	t3,7
   15774:	4bd11863          	bne	sp,t4,15c24 <fail>

0000000000015778 <test_8>:
   15778:	000100b7          	lui	ra,0x10
   1577c:	f010809b          	addiw	ra,ra,-255
   15780:	01009093          	slli	ra,ra,0x10
   15784:	f0008093          	addi	ra,ra,-256 # ff00 <coremarkBenchmark+0xfe58>
   15788:	0010e0b3          	or	ra,ra,ra
   1578c:	00010eb7          	lui	t4,0x10
   15790:	f01e8e9b          	addiw	t4,t4,-255
   15794:	010e9e93          	slli	t4,t4,0x10
   15798:	f00e8e93          	addi	t4,t4,-256 # ff00 <coremarkBenchmark+0xfe58>
   1579c:	00800e13          	li	t3,8
   157a0:	49d09263          	bne	ra,t4,15c24 <fail>

00000000000157a4 <test_9>:
   157a4:	00000213          	li	tp,0
   157a8:	000100b7          	lui	ra,0x10
   157ac:	f010809b          	addiw	ra,ra,-255
   157b0:	01009093          	slli	ra,ra,0x10
   157b4:	f0008093          	addi	ra,ra,-256 # ff00 <coremarkBenchmark+0xfe58>
   157b8:	0f0f1137          	lui	sp,0xf0f1
   157bc:	f0f1011b          	addiw	sp,sp,-241
   157c0:	0020e1b3          	or	gp,ra,sp
   157c4:	00018313          	mv	t1,gp
   157c8:	00120213          	addi	tp,tp,1 # 1 <_start+0x1>
   157cc:	00200293          	li	t0,2
   157d0:	fc521ce3          	bne	tp,t0,157a8 <test_9+0x4>
   157d4:	00001eb7          	lui	t4,0x1
   157d8:	ff1e8e9b          	addiw	t4,t4,-15
   157dc:	014e9e93          	slli	t4,t4,0x14
   157e0:	f0fe8e93          	addi	t4,t4,-241 # f0f <coremarkBenchmark+0xe67>
   157e4:	00900e13          	li	t3,9
   157e8:	43d31e63          	bne	t1,t4,15c24 <fail>

00000000000157ec <test_10>:
   157ec:	00000213          	li	tp,0
   157f0:	0ff010b7          	lui	ra,0xff01
   157f4:	ff00809b          	addiw	ra,ra,-16
   157f8:	000f1137          	lui	sp,0xf1
   157fc:	f0f1011b          	addiw	sp,sp,-241
   15800:	00c11113          	slli	sp,sp,0xc
   15804:	0f010113          	addi	sp,sp,240 # f10f0 <heap_memory_used+0xcee38>
   15808:	0020e1b3          	or	gp,ra,sp
   1580c:	00000013          	nop
   15810:	00018313          	mv	t1,gp
   15814:	00120213          	addi	tp,tp,1 # 1 <_start+0x1>
   15818:	00200293          	li	t0,2
   1581c:	fc521ae3          	bne	tp,t0,157f0 <test_10+0x4>
   15820:	00010eb7          	lui	t4,0x10
   15824:	ff1e8e9b          	addiw	t4,t4,-15
   15828:	010e9e93          	slli	t4,t4,0x10
   1582c:	ff0e8e93          	addi	t4,t4,-16 # fff0 <coremarkBenchmark+0xff48>
   15830:	00a00e13          	li	t3,10
   15834:	3fd31863          	bne	t1,t4,15c24 <fail>

0000000000015838 <test_11>:
   15838:	00000213          	li	tp,0
   1583c:	00ff00b7          	lui	ra,0xff0
   15840:	0ff0809b          	addiw	ra,ra,255
   15844:	0f0f1137          	lui	sp,0xf0f1
   15848:	f0f1011b          	addiw	sp,sp,-241
   1584c:	0020e1b3          	or	gp,ra,sp
   15850:	00000013          	nop
   15854:	00000013          	nop
   15858:	00018313          	mv	t1,gp
   1585c:	00120213          	addi	tp,tp,1 # 1 <_start+0x1>
   15860:	00200293          	li	t0,2
   15864:	fc521ce3          	bne	tp,t0,1583c <test_11+0x4>
   15868:	0fff1eb7          	lui	t4,0xfff1
   1586c:	fffe8e9b          	addiw	t4,t4,-1
   15870:	00b00e13          	li	t3,11
   15874:	3bd31863          	bne	t1,t4,15c24 <fail>

0000000000015878 <test_12>:
   15878:	00000213          	li	tp,0
   1587c:	000100b7          	lui	ra,0x10
   15880:	f010809b          	addiw	ra,ra,-255
   15884:	01009093          	slli	ra,ra,0x10
   15888:	f0008093          	addi	ra,ra,-256 # ff00 <coremarkBenchmark+0xfe58>
   1588c:	0f0f1137          	lui	sp,0xf0f1
   15890:	f0f1011b          	addiw	sp,sp,-241
   15894:	0020e1b3          	or	gp,ra,sp
   15898:	00120213          	addi	tp,tp,1 # 1 <_start+0x1>
   1589c:	00200293          	li	t0,2
   158a0:	fc521ee3          	bne	tp,t0,1587c <test_12+0x4>
   158a4:	00001eb7          	lui	t4,0x1
   158a8:	ff1e8e9b          	addiw	t4,t4,-15
   158ac:	014e9e93          	slli	t4,t4,0x14
   158b0:	f0fe8e93          	addi	t4,t4,-241 # f0f <coremarkBenchmark+0xe67>
   158b4:	00c00e13          	li	t3,12
   158b8:	37d19663          	bne	gp,t4,15c24 <fail>

00000000000158bc <test_13>:
   158bc:	00000213          	li	tp,0
   158c0:	0ff010b7          	lui	ra,0xff01
   158c4:	ff00809b          	addiw	ra,ra,-16
   158c8:	000f1137          	lui	sp,0xf1
   158cc:	f0f1011b          	addiw	sp,sp,-241
   158d0:	00c11113          	slli	sp,sp,0xc
   158d4:	0f010113          	addi	sp,sp,240 # f10f0 <heap_memory_used+0xcee38>
   158d8:	00000013          	nop
   158dc:	0020e1b3          	or	gp,ra,sp
   158e0:	00120213          	addi	tp,tp,1 # 1 <_start+0x1>
   158e4:	00200293          	li	t0,2
   158e8:	fc521ce3          	bne	tp,t0,158c0 <test_13+0x4>
   158ec:	00010eb7          	lui	t4,0x10
   158f0:	ff1e8e9b          	addiw	t4,t4,-15
   158f4:	010e9e93          	slli	t4,t4,0x10
   158f8:	ff0e8e93          	addi	t4,t4,-16 # fff0 <coremarkBenchmark+0xff48>
   158fc:	00d00e13          	li	t3,13
   15900:	33d19263          	bne	gp,t4,15c24 <fail>

0000000000015904 <test_14>:
   15904:	00000213          	li	tp,0
   15908:	00ff00b7          	lui	ra,0xff0
   1590c:	0ff0809b          	addiw	ra,ra,255
   15910:	0f0f1137          	lui	sp,0xf0f1
   15914:	f0f1011b          	addiw	sp,sp,-241
   15918:	00000013          	nop
   1591c:	00000013          	nop
   15920:	0020e1b3          	or	gp,ra,sp
   15924:	00120213          	addi	tp,tp,1 # 1 <_start+0x1>
   15928:	00200293          	li	t0,2
   1592c:	fc521ee3          	bne	tp,t0,15908 <test_14+0x4>
   15930:	0fff1eb7          	lui	t4,0xfff1
   15934:	fffe8e9b          	addiw	t4,t4,-1
   15938:	00e00e13          	li	t3,14
   1593c:	2fd19463          	bne	gp,t4,15c24 <fail>

0000000000015940 <test_15>:
   15940:	00000213          	li	tp,0
   15944:	000100b7          	lui	ra,0x10
   15948:	f010809b          	addiw	ra,ra,-255
   1594c:	01009093          	slli	ra,ra,0x10
   15950:	f0008093          	addi	ra,ra,-256 # ff00 <coremarkBenchmark+0xfe58>
   15954:	00000013          	nop
   15958:	0f0f1137          	lui	sp,0xf0f1
   1595c:	f0f1011b          	addiw	sp,sp,-241
   15960:	0020e1b3          	or	gp,ra,sp
   15964:	00120213          	addi	tp,tp,1 # 1 <_start+0x1>
   15968:	00200293          	li	t0,2
   1596c:	fc521ce3          	bne	tp,t0,15944 <test_15+0x4>
   15970:	00001eb7          	lui	t4,0x1
   15974:	ff1e8e9b          	addiw	t4,t4,-15
   15978:	014e9e93          	slli	t4,t4,0x14
   1597c:	f0fe8e93          	addi	t4,t4,-241 # f0f <coremarkBenchmark+0xe67>
   15980:	00f00e13          	li	t3,15
   15984:	2bd19063          	bne	gp,t4,15c24 <fail>

0000000000015988 <test_16>:
   15988:	00000213          	li	tp,0
   1598c:	0ff010b7          	lui	ra,0xff01
   15990:	ff00809b          	addiw	ra,ra,-16
   15994:	00000013          	nop
   15998:	000f1137          	lui	sp,0xf1
   1599c:	f0f1011b          	addiw	sp,sp,-241
   159a0:	00c11113          	slli	sp,sp,0xc
   159a4:	0f010113          	addi	sp,sp,240 # f10f0 <heap_memory_used+0xcee38>
   159a8:	00000013          	nop
   159ac:	0020e1b3          	or	gp,ra,sp
   159b0:	00120213          	addi	tp,tp,1 # 1 <_start+0x1>
   159b4:	00200293          	li	t0,2
   159b8:	fc521ae3          	bne	tp,t0,1598c <test_16+0x4>
   159bc:	00010eb7          	lui	t4,0x10
   159c0:	ff1e8e9b          	addiw	t4,t4,-15
   159c4:	010e9e93          	slli	t4,t4,0x10
   159c8:	ff0e8e93          	addi	t4,t4,-16 # fff0 <coremarkBenchmark+0xff48>
   159cc:	01000e13          	li	t3,16
   159d0:	25d19a63          	bne	gp,t4,15c24 <fail>

00000000000159d4 <test_17>:
   159d4:	00000213          	li	tp,0
   159d8:	00ff00b7          	lui	ra,0xff0
   159dc:	0ff0809b          	addiw	ra,ra,255
   159e0:	00000013          	nop
   159e4:	00000013          	nop
   159e8:	0f0f1137          	lui	sp,0xf0f1
   159ec:	f0f1011b          	addiw	sp,sp,-241
   159f0:	0020e1b3          	or	gp,ra,sp
   159f4:	00120213          	addi	tp,tp,1 # 1 <_start+0x1>
   159f8:	00200293          	li	t0,2
   159fc:	fc521ee3          	bne	tp,t0,159d8 <test_17+0x4>
   15a00:	0fff1eb7          	lui	t4,0xfff1
   15a04:	fffe8e9b          	addiw	t4,t4,-1
   15a08:	01100e13          	li	t3,17
   15a0c:	21d19c63          	bne	gp,t4,15c24 <fail>

0000000000015a10 <test_18>:
   15a10:	00000213          	li	tp,0
   15a14:	0f0f1137          	lui	sp,0xf0f1
   15a18:	f0f1011b          	addiw	sp,sp,-241
   15a1c:	000100b7          	lui	ra,0x10
   15a20:	f010809b          	addiw	ra,ra,-255
   15a24:	01009093          	slli	ra,ra,0x10
   15a28:	f0008093          	addi	ra,ra,-256 # ff00 <coremarkBenchmark+0xfe58>
   15a2c:	0020e1b3          	or	gp,ra,sp
   15a30:	00120213          	addi	tp,tp,1 # 1 <_start+0x1>
   15a34:	00200293          	li	t0,2
   15a38:	fc521ee3          	bne	tp,t0,15a14 <test_18+0x4>
   15a3c:	00001eb7          	lui	t4,0x1
   15a40:	ff1e8e9b          	addiw	t4,t4,-15
   15a44:	014e9e93          	slli	t4,t4,0x14
   15a48:	f0fe8e93          	addi	t4,t4,-241 # f0f <coremarkBenchmark+0xe67>
   15a4c:	01200e13          	li	t3,18
   15a50:	1dd19a63          	bne	gp,t4,15c24 <fail>

0000000000015a54 <test_19>:
   15a54:	00000213          	li	tp,0
   15a58:	000f1137          	lui	sp,0xf1
   15a5c:	f0f1011b          	addiw	sp,sp,-241
   15a60:	00c11113          	slli	sp,sp,0xc
   15a64:	0f010113          	addi	sp,sp,240 # f10f0 <heap_memory_used+0xcee38>
   15a68:	0ff010b7          	lui	ra,0xff01
   15a6c:	ff00809b          	addiw	ra,ra,-16
   15a70:	00000013          	nop
   15a74:	0020e1b3          	or	gp,ra,sp
   15a78:	00120213          	addi	tp,tp,1 # 1 <_start+0x1>
   15a7c:	00200293          	li	t0,2
   15a80:	fc521ce3          	bne	tp,t0,15a58 <test_19+0x4>
   15a84:	00010eb7          	lui	t4,0x10
   15a88:	ff1e8e9b          	addiw	t4,t4,-15
   15a8c:	010e9e93          	slli	t4,t4,0x10
   15a90:	ff0e8e93          	addi	t4,t4,-16 # fff0 <coremarkBenchmark+0xff48>
   15a94:	01300e13          	li	t3,19
   15a98:	19d19663          	bne	gp,t4,15c24 <fail>

0000000000015a9c <test_20>:
   15a9c:	00000213          	li	tp,0
   15aa0:	0f0f1137          	lui	sp,0xf0f1
   15aa4:	f0f1011b          	addiw	sp,sp,-241
   15aa8:	00ff00b7          	lui	ra,0xff0
   15aac:	0ff0809b          	addiw	ra,ra,255
   15ab0:	00000013          	nop
   15ab4:	00000013          	nop
   15ab8:	0020e1b3          	or	gp,ra,sp
   15abc:	00120213          	addi	tp,tp,1 # 1 <_start+0x1>
   15ac0:	00200293          	li	t0,2
   15ac4:	fc521ee3          	bne	tp,t0,15aa0 <test_20+0x4>
   15ac8:	0fff1eb7          	lui	t4,0xfff1
   15acc:	fffe8e9b          	addiw	t4,t4,-1
   15ad0:	01400e13          	li	t3,20
   15ad4:	15d19863          	bne	gp,t4,15c24 <fail>

0000000000015ad8 <test_21>:
   15ad8:	00000213          	li	tp,0
   15adc:	0f0f1137          	lui	sp,0xf0f1
   15ae0:	f0f1011b          	addiw	sp,sp,-241
   15ae4:	00000013          	nop
   15ae8:	000100b7          	lui	ra,0x10
   15aec:	f010809b          	addiw	ra,ra,-255
   15af0:	01009093          	slli	ra,ra,0x10
   15af4:	f0008093          	addi	ra,ra,-256 # ff00 <coremarkBenchmark+0xfe58>
   15af8:	0020e1b3          	or	gp,ra,sp
   15afc:	00120213          	addi	tp,tp,1 # 1 <_start+0x1>
   15b00:	00200293          	li	t0,2
   15b04:	fc521ce3          	bne	tp,t0,15adc <test_21+0x4>
   15b08:	00001eb7          	lui	t4,0x1
   15b0c:	ff1e8e9b          	addiw	t4,t4,-15
   15b10:	014e9e93          	slli	t4,t4,0x14
   15b14:	f0fe8e93          	addi	t4,t4,-241 # f0f <coremarkBenchmark+0xe67>
   15b18:	01500e13          	li	t3,21
   15b1c:	11d19463          	bne	gp,t4,15c24 <fail>

0000000000015b20 <test_22>:
   15b20:	00000213          	li	tp,0
   15b24:	000f1137          	lui	sp,0xf1
   15b28:	f0f1011b          	addiw	sp,sp,-241
   15b2c:	00c11113          	slli	sp,sp,0xc
   15b30:	0f010113          	addi	sp,sp,240 # f10f0 <heap_memory_used+0xcee38>
   15b34:	00000013          	nop
   15b38:	0ff010b7          	lui	ra,0xff01
   15b3c:	ff00809b          	addiw	ra,ra,-16
   15b40:	00000013          	nop
   15b44:	0020e1b3          	or	gp,ra,sp
   15b48:	00120213          	addi	tp,tp,1 # 1 <_start+0x1>
   15b4c:	00200293          	li	t0,2
   15b50:	fc521ae3          	bne	tp,t0,15b24 <test_22+0x4>
   15b54:	00010eb7          	lui	t4,0x10
   15b58:	ff1e8e9b          	addiw	t4,t4,-15
   15b5c:	010e9e93          	slli	t4,t4,0x10
   15b60:	ff0e8e93          	addi	t4,t4,-16 # fff0 <coremarkBenchmark+0xff48>
   15b64:	01600e13          	li	t3,22
   15b68:	0bd19e63          	bne	gp,t4,15c24 <fail>

0000000000015b6c <test_23>:
   15b6c:	00000213          	li	tp,0
   15b70:	0f0f1137          	lui	sp,0xf0f1
   15b74:	f0f1011b          	addiw	sp,sp,-241
   15b78:	00000013          	nop
   15b7c:	00000013          	nop
   15b80:	00ff00b7          	lui	ra,0xff0
   15b84:	0ff0809b          	addiw	ra,ra,255
   15b88:	0020e1b3          	or	gp,ra,sp
   15b8c:	00120213          	addi	tp,tp,1 # 1 <_start+0x1>
   15b90:	00200293          	li	t0,2
   15b94:	fc521ee3          	bne	tp,t0,15b70 <test_23+0x4>
   15b98:	0fff1eb7          	lui	t4,0xfff1
   15b9c:	fffe8e9b          	addiw	t4,t4,-1
   15ba0:	01700e13          	li	t3,23
   15ba4:	09d19063          	bne	gp,t4,15c24 <fail>

0000000000015ba8 <test_24>:
   15ba8:	000100b7          	lui	ra,0x10
   15bac:	f010809b          	addiw	ra,ra,-255
   15bb0:	01009093          	slli	ra,ra,0x10
   15bb4:	f0008093          	addi	ra,ra,-256 # ff00 <coremarkBenchmark+0xfe58>
   15bb8:	00106133          	or	sp,zero,ra
   15bbc:	00010eb7          	lui	t4,0x10
   15bc0:	f01e8e9b          	addiw	t4,t4,-255
   15bc4:	010e9e93          	slli	t4,t4,0x10
   15bc8:	f00e8e93          	addi	t4,t4,-256 # ff00 <coremarkBenchmark+0xfe58>
   15bcc:	01800e13          	li	t3,24
   15bd0:	05d11a63          	bne	sp,t4,15c24 <fail>

0000000000015bd4 <test_25>:
   15bd4:	00ff00b7          	lui	ra,0xff0
   15bd8:	0ff0809b          	addiw	ra,ra,255
   15bdc:	0000e133          	or	sp,ra,zero
   15be0:	00ff0eb7          	lui	t4,0xff0
   15be4:	0ffe8e9b          	addiw	t4,t4,255
   15be8:	01900e13          	li	t3,25
   15bec:	03d11c63          	bne	sp,t4,15c24 <fail>

0000000000015bf0 <test_26>:
   15bf0:	000060b3          	or	ra,zero,zero
   15bf4:	00000e93          	li	t4,0
   15bf8:	01a00e13          	li	t3,26
   15bfc:	03d09463          	bne	ra,t4,15c24 <fail>

0000000000015c00 <test_27>:
   15c00:	111110b7          	lui	ra,0x11111
   15c04:	1110809b          	addiw	ra,ra,273
   15c08:	22222137          	lui	sp,0x22222
   15c0c:	2221011b          	addiw	sp,sp,546
   15c10:	0020e033          	or	zero,ra,sp
   15c14:	00000e93          	li	t4,0
   15c18:	01b00e13          	li	t3,27
   15c1c:	01d01463          	bne	zero,t4,15c24 <fail>
   15c20:	05c01863          	bne	zero,t3,15c70 <pass>

0000000000015c24 <fail>:
   15c24:	04500513          	li	a0,69
   15c28:	00004137          	lui	sp,0x4
   15c2c:	2dc080ef          	jal	ra,1df08 <printf_c>
   15c30:	05200513          	li	a0,82
   15c34:	00004137          	lui	sp,0x4
   15c38:	2d0080ef          	jal	ra,1df08 <printf_c>
   15c3c:	00004137          	lui	sp,0x4
   15c40:	2c8080ef          	jal	ra,1df08 <printf_c>
   15c44:	04f00513          	li	a0,79
   15c48:	00004137          	lui	sp,0x4
   15c4c:	2bc080ef          	jal	ra,1df08 <printf_c>
   15c50:	00004137          	lui	sp,0x4
   15c54:	05200513          	li	a0,82
   15c58:	00004137          	lui	sp,0x4
   15c5c:	2ac080ef          	jal	ra,1df08 <printf_c>
   15c60:	00a00513          	li	a0,10
   15c64:	00004137          	lui	sp,0x4
   15c68:	2a0080ef          	jal	ra,1df08 <printf_c>
   15c6c:	0340006f          	j	15ca0 <ori>

0000000000015c70 <pass>:
   15c70:	04f00513          	li	a0,79
   15c74:	00004137          	lui	sp,0x4
   15c78:	290080ef          	jal	ra,1df08 <printf_c>
   15c7c:	04b00513          	li	a0,75
   15c80:	00004137          	lui	sp,0x4
   15c84:	284080ef          	jal	ra,1df08 <printf_c>
   15c88:	00a00513          	li	a0,10
   15c8c:	00004137          	lui	sp,0x4
   15c90:	278080ef          	jal	ra,1df08 <printf_c>
   15c94:	00c0006f          	j	15ca0 <ori>

0000000000015c98 <.test_name>:
   15c98:	2069726f          	jal	tp,ace9e <heap_memory_used+0x8abe6>
   15c9c:	0009                	c.addi	zero,2
	...

0000000000015ca0 <ori>:
   15ca0:	00016537          	lui	a0,0x16
   15ca4:	c9850513          	addi	a0,a0,-872 # 15c98 <.test_name>

0000000000015ca8 <.prname_next>:
   15ca8:	00004137          	lui	sp,0x4
   15cac:	288080ef          	jal	ra,1df34 <printf_s>

0000000000015cb0 <test_2>:
   15cb0:	000100b7          	lui	ra,0x10
   15cb4:	f010809b          	addiw	ra,ra,-255
   15cb8:	01009093          	slli	ra,ra,0x10
   15cbc:	f0008093          	addi	ra,ra,-256 # ff00 <coremarkBenchmark+0xfe58>
   15cc0:	f0f0e193          	ori	gp,ra,-241
   15cc4:	00100e9b          	addiw	t4,zero,1
   15cc8:	020e9e93          	slli	t4,t4,0x20
   15ccc:	f0fe8e93          	addi	t4,t4,-241 # feff0f <heap_memory_used+0xfcdc57>
   15cd0:	00200e13          	li	t3,2
   15cd4:	21d19863          	bne	gp,t4,15ee4 <fail>

0000000000015cd8 <test_3>:
   15cd8:	0ff010b7          	lui	ra,0xff01
   15cdc:	ff00809b          	addiw	ra,ra,-16
   15ce0:	0f00e193          	ori	gp,ra,240
   15ce4:	0ff01eb7          	lui	t4,0xff01
   15ce8:	ff0e8e9b          	addiw	t4,t4,-16
   15cec:	00300e13          	li	t3,3
   15cf0:	1fd19a63          	bne	gp,t4,15ee4 <fail>

0000000000015cf4 <test_4>:
   15cf4:	00ff00b7          	lui	ra,0xff0
   15cf8:	0ff0809b          	addiw	ra,ra,255
   15cfc:	70f0e193          	ori	gp,ra,1807
   15d00:	00ff0eb7          	lui	t4,0xff0
   15d04:	7ffe8e9b          	addiw	t4,t4,2047
   15d08:	00400e13          	li	t3,4
   15d0c:	1dd19c63          	bne	gp,t4,15ee4 <fail>

0000000000015d10 <test_5>:
   15d10:	000f00b7          	lui	ra,0xf0
   15d14:	0ff0809b          	addiw	ra,ra,255
   15d18:	00c09093          	slli	ra,ra,0xc
   15d1c:	00f08093          	addi	ra,ra,15 # f000f <heap_memory_used+0xcdd57>
   15d20:	0f00e193          	ori	gp,ra,240
   15d24:	000f0eb7          	lui	t4,0xf0
   15d28:	0ffe8e9b          	addiw	t4,t4,255
   15d2c:	00ce9e93          	slli	t4,t4,0xc
   15d30:	0ffe8e93          	addi	t4,t4,255 # f00ff <heap_memory_used+0xcde47>
   15d34:	00500e13          	li	t3,5
   15d38:	1bd19663          	bne	gp,t4,15ee4 <fail>

0000000000015d3c <test_6>:
   15d3c:	000100b7          	lui	ra,0x10
   15d40:	f010809b          	addiw	ra,ra,-255
   15d44:	01009093          	slli	ra,ra,0x10
   15d48:	f0008093          	addi	ra,ra,-256 # ff00 <coremarkBenchmark+0xfe58>
   15d4c:	0f00e093          	ori	ra,ra,240
   15d50:	00010eb7          	lui	t4,0x10
   15d54:	f01e8e9b          	addiw	t4,t4,-255
   15d58:	010e9e93          	slli	t4,t4,0x10
   15d5c:	ff0e8e93          	addi	t4,t4,-16 # fff0 <coremarkBenchmark+0xff48>
   15d60:	00600e13          	li	t3,6
   15d64:	19d09063          	bne	ra,t4,15ee4 <fail>

0000000000015d68 <test_7>:
   15d68:	00000213          	li	tp,0
   15d6c:	0ff010b7          	lui	ra,0xff01
   15d70:	ff00809b          	addiw	ra,ra,-16
   15d74:	0f00e193          	ori	gp,ra,240
   15d78:	00018313          	mv	t1,gp
   15d7c:	00120213          	addi	tp,tp,1 # 1 <_start+0x1>
   15d80:	00200293          	li	t0,2
   15d84:	fe5214e3          	bne	tp,t0,15d6c <test_7+0x4>
   15d88:	0ff01eb7          	lui	t4,0xff01
   15d8c:	ff0e8e9b          	addiw	t4,t4,-16
   15d90:	00700e13          	li	t3,7
   15d94:	15d31863          	bne	t1,t4,15ee4 <fail>

0000000000015d98 <test_8>:
   15d98:	00000213          	li	tp,0
   15d9c:	00ff00b7          	lui	ra,0xff0
   15da0:	0ff0809b          	addiw	ra,ra,255
   15da4:	70f0e193          	ori	gp,ra,1807
   15da8:	00000013          	nop
   15dac:	00018313          	mv	t1,gp
   15db0:	00120213          	addi	tp,tp,1 # 1 <_start+0x1>
   15db4:	00200293          	li	t0,2
   15db8:	fe5212e3          	bne	tp,t0,15d9c <test_8+0x4>
   15dbc:	00ff0eb7          	lui	t4,0xff0
   15dc0:	7ffe8e9b          	addiw	t4,t4,2047
   15dc4:	00800e13          	li	t3,8
   15dc8:	11d31e63          	bne	t1,t4,15ee4 <fail>

0000000000015dcc <test_9>:
   15dcc:	00000213          	li	tp,0
   15dd0:	000f00b7          	lui	ra,0xf0
   15dd4:	0ff0809b          	addiw	ra,ra,255
   15dd8:	00c09093          	slli	ra,ra,0xc
   15ddc:	00f08093          	addi	ra,ra,15 # f000f <heap_memory_used+0xcdd57>
   15de0:	0f00e193          	ori	gp,ra,240
   15de4:	00000013          	nop
   15de8:	00000013          	nop
   15dec:	00018313          	mv	t1,gp
   15df0:	00120213          	addi	tp,tp,1 # 1 <_start+0x1>
   15df4:	00200293          	li	t0,2
   15df8:	fc521ce3          	bne	tp,t0,15dd0 <test_9+0x4>
   15dfc:	000f0eb7          	lui	t4,0xf0
   15e00:	0ffe8e9b          	addiw	t4,t4,255
   15e04:	00ce9e93          	slli	t4,t4,0xc
   15e08:	0ffe8e93          	addi	t4,t4,255 # f00ff <heap_memory_used+0xcde47>
   15e0c:	00900e13          	li	t3,9
   15e10:	0dd31a63          	bne	t1,t4,15ee4 <fail>

0000000000015e14 <test_10>:
   15e14:	00000213          	li	tp,0
   15e18:	0ff010b7          	lui	ra,0xff01
   15e1c:	ff00809b          	addiw	ra,ra,-16
   15e20:	0f00e193          	ori	gp,ra,240
   15e24:	00120213          	addi	tp,tp,1 # 1 <_start+0x1>
   15e28:	00200293          	li	t0,2
   15e2c:	fe5216e3          	bne	tp,t0,15e18 <test_10+0x4>
   15e30:	0ff01eb7          	lui	t4,0xff01
   15e34:	ff0e8e9b          	addiw	t4,t4,-16
   15e38:	00a00e13          	li	t3,10
   15e3c:	0bd19463          	bne	gp,t4,15ee4 <fail>

0000000000015e40 <test_11>:
   15e40:	00000213          	li	tp,0
   15e44:	00ff00b7          	lui	ra,0xff0
   15e48:	0ff0809b          	addiw	ra,ra,255
   15e4c:	00000013          	nop
   15e50:	f0f0e193          	ori	gp,ra,-241
   15e54:	00120213          	addi	tp,tp,1 # 1 <_start+0x1>
   15e58:	00200293          	li	t0,2
   15e5c:	fe5214e3          	bne	tp,t0,15e44 <test_11+0x4>
   15e60:	00100e9b          	addiw	t4,zero,1
   15e64:	020e9e93          	slli	t4,t4,0x20
   15e68:	fffe8e93          	addi	t4,t4,-1 # ff00fff <heap_memory_used+0xfeded47>
   15e6c:	00b00e13          	li	t3,11
   15e70:	07d19a63          	bne	gp,t4,15ee4 <fail>

0000000000015e74 <test_12>:
   15e74:	00000213          	li	tp,0
   15e78:	000f00b7          	lui	ra,0xf0
   15e7c:	0ff0809b          	addiw	ra,ra,255
   15e80:	00c09093          	slli	ra,ra,0xc
   15e84:	00f08093          	addi	ra,ra,15 # f000f <heap_memory_used+0xcdd57>
   15e88:	00000013          	nop
   15e8c:	00000013          	nop
   15e90:	0f00e193          	ori	gp,ra,240
   15e94:	00120213          	addi	tp,tp,1 # 1 <_start+0x1>
   15e98:	00200293          	li	t0,2
   15e9c:	fc521ee3          	bne	tp,t0,15e78 <test_12+0x4>
   15ea0:	000f0eb7          	lui	t4,0xf0
   15ea4:	0ffe8e9b          	addiw	t4,t4,255
   15ea8:	00ce9e93          	slli	t4,t4,0xc
   15eac:	0ffe8e93          	addi	t4,t4,255 # f00ff <heap_memory_used+0xcde47>
   15eb0:	00c00e13          	li	t3,12
   15eb4:	03d19863          	bne	gp,t4,15ee4 <fail>

0000000000015eb8 <test_13>:
   15eb8:	0f006093          	ori	ra,zero,240
   15ebc:	0f000e93          	li	t4,240
   15ec0:	00d00e13          	li	t3,13
   15ec4:	03d09063          	bne	ra,t4,15ee4 <fail>

0000000000015ec8 <test_14>:
   15ec8:	00ff00b7          	lui	ra,0xff0
   15ecc:	0ff0809b          	addiw	ra,ra,255
   15ed0:	70f0e013          	ori	zero,ra,1807
   15ed4:	00000e93          	li	t4,0
   15ed8:	00e00e13          	li	t3,14
   15edc:	01d01463          	bne	zero,t4,15ee4 <fail>
   15ee0:	05c01863          	bne	zero,t3,15f30 <pass>

0000000000015ee4 <fail>:
   15ee4:	04500513          	li	a0,69
   15ee8:	00004137          	lui	sp,0x4
   15eec:	01c080ef          	jal	ra,1df08 <printf_c>
   15ef0:	05200513          	li	a0,82
   15ef4:	00004137          	lui	sp,0x4
   15ef8:	010080ef          	jal	ra,1df08 <printf_c>
   15efc:	00004137          	lui	sp,0x4
   15f00:	008080ef          	jal	ra,1df08 <printf_c>
   15f04:	04f00513          	li	a0,79
   15f08:	00004137          	lui	sp,0x4
   15f0c:	7fd070ef          	jal	ra,1df08 <printf_c>
   15f10:	00004137          	lui	sp,0x4
   15f14:	05200513          	li	a0,82
   15f18:	00004137          	lui	sp,0x4
   15f1c:	7ed070ef          	jal	ra,1df08 <printf_c>
   15f20:	00a00513          	li	a0,10
   15f24:	00004137          	lui	sp,0x4
   15f28:	7e1070ef          	jal	ra,1df08 <printf_c>
   15f2c:	3000006f          	j	1622c <sb>

0000000000015f30 <pass>:
   15f30:	04f00513          	li	a0,79
   15f34:	00004137          	lui	sp,0x4
   15f38:	7d1070ef          	jal	ra,1df08 <printf_c>
   15f3c:	04b00513          	li	a0,75
   15f40:	00004137          	lui	sp,0x4
   15f44:	7c5070ef          	jal	ra,1df08 <printf_c>
   15f48:	00a00513          	li	a0,10
   15f4c:	00004137          	lui	sp,0x4
   15f50:	7b9070ef          	jal	ra,1df08 <printf_c>
   15f54:	2d80006f          	j	1622c <sb>

0000000000015f58 <.test_name>:
   15f58:	6572                	ld	a0,280(sp)
   15f5a:	206d                	0x206d
   15f5c:	0009                	c.addi	zero,2
	...

0000000000015f60 <rem>:
   15f60:	00016537          	lui	a0,0x16
   15f64:	f5850513          	addi	a0,a0,-168 # 15f58 <.test_name>

0000000000015f68 <.prname_next>:
   15f68:	00004137          	lui	sp,0x4
   15f6c:	7c9070ef          	jal	ra,1df34 <printf_s>

0000000000015f70 <test_2>:
   15f70:	01400093          	li	ra,20
   15f74:	00600113          	li	sp,6
   15f78:	0220e1b3          	rem	gp,ra,sp
   15f7c:	00200e93          	li	t4,2
   15f80:	00200e13          	li	t3,2
   15f84:	0dd19463          	bne	gp,t4,1604c <fail>

0000000000015f88 <test_3>:
   15f88:	fec00093          	li	ra,-20
   15f8c:	00600113          	li	sp,6
   15f90:	0220e1b3          	rem	gp,ra,sp
   15f94:	ffe00e93          	li	t4,-2
   15f98:	00300e13          	li	t3,3
   15f9c:	0bd19863          	bne	gp,t4,1604c <fail>

0000000000015fa0 <test_4>:
   15fa0:	01400093          	li	ra,20
   15fa4:	ffa00113          	li	sp,-6
   15fa8:	0220e1b3          	rem	gp,ra,sp
   15fac:	00200e93          	li	t4,2
   15fb0:	00400e13          	li	t3,4
   15fb4:	09d19c63          	bne	gp,t4,1604c <fail>

0000000000015fb8 <test_5>:
   15fb8:	fec00093          	li	ra,-20
   15fbc:	ffa00113          	li	sp,-6
   15fc0:	0220e1b3          	rem	gp,ra,sp
   15fc4:	ffe00e93          	li	t4,-2
   15fc8:	00500e13          	li	t3,5
   15fcc:	09d19063          	bne	gp,t4,1604c <fail>

0000000000015fd0 <test_6>:
   15fd0:	800000b7          	lui	ra,0x80000
   15fd4:	00100113          	li	sp,1
   15fd8:	0220e1b3          	rem	gp,ra,sp
   15fdc:	00000e93          	li	t4,0
   15fe0:	00600e13          	li	t3,6
   15fe4:	07d19463          	bne	gp,t4,1604c <fail>

0000000000015fe8 <test_7>:
   15fe8:	800000b7          	lui	ra,0x80000
   15fec:	fff00113          	li	sp,-1
   15ff0:	0220e1b3          	rem	gp,ra,sp
   15ff4:	00000e93          	li	t4,0
   15ff8:	00700e13          	li	t3,7
   15ffc:	05d19863          	bne	gp,t4,1604c <fail>

0000000000016000 <test_8>:
   16000:	800000b7          	lui	ra,0x80000
   16004:	00000113          	li	sp,0
   16008:	0220e1b3          	rem	gp,ra,sp
   1600c:	80000eb7          	lui	t4,0x80000
   16010:	00800e13          	li	t3,8
   16014:	03d19c63          	bne	gp,t4,1604c <fail>

0000000000016018 <test_9>:
   16018:	00100093          	li	ra,1
   1601c:	00000113          	li	sp,0
   16020:	0220e1b3          	rem	gp,ra,sp
   16024:	00100e93          	li	t4,1
   16028:	00900e13          	li	t3,9
   1602c:	03d19063          	bne	gp,t4,1604c <fail>

0000000000016030 <test_10>:
   16030:	00000093          	li	ra,0
   16034:	00000113          	li	sp,0
   16038:	0220e1b3          	rem	gp,ra,sp
   1603c:	00000e93          	li	t4,0
   16040:	00a00e13          	li	t3,10
   16044:	01d19463          	bne	gp,t4,1604c <fail>
   16048:	05c01863          	bne	zero,t3,16098 <pass>

000000000001604c <fail>:
   1604c:	04500513          	li	a0,69
   16050:	00004137          	lui	sp,0x4
   16054:	6b5070ef          	jal	ra,1df08 <printf_c>
   16058:	05200513          	li	a0,82
   1605c:	00004137          	lui	sp,0x4
   16060:	6a9070ef          	jal	ra,1df08 <printf_c>
   16064:	00004137          	lui	sp,0x4
   16068:	6a1070ef          	jal	ra,1df08 <printf_c>
   1606c:	04f00513          	li	a0,79
   16070:	00004137          	lui	sp,0x4
   16074:	695070ef          	jal	ra,1df08 <printf_c>
   16078:	00004137          	lui	sp,0x4
   1607c:	05200513          	li	a0,82
   16080:	00004137          	lui	sp,0x4
   16084:	685070ef          	jal	ra,1df08 <printf_c>
   16088:	00a00513          	li	a0,10
   1608c:	00004137          	lui	sp,0x4
   16090:	679070ef          	jal	ra,1df08 <printf_c>
   16094:	0340006f          	j	160c8 <remu>

0000000000016098 <pass>:
   16098:	04f00513          	li	a0,79
   1609c:	00004137          	lui	sp,0x4
   160a0:	669070ef          	jal	ra,1df08 <printf_c>
   160a4:	04b00513          	li	a0,75
   160a8:	00004137          	lui	sp,0x4
   160ac:	65d070ef          	jal	ra,1df08 <printf_c>
   160b0:	00a00513          	li	a0,10
   160b4:	00004137          	lui	sp,0x4
   160b8:	651070ef          	jal	ra,1df08 <printf_c>
   160bc:	00c0006f          	j	160c8 <remu>

00000000000160c0 <.test_name>:
   160c0:	6572                	ld	a0,280(sp)
   160c2:	756d                	lui	a0,0xffffb
   160c4:	0009                	c.addi	zero,2
	...

00000000000160c8 <remu>:
   160c8:	00016537          	lui	a0,0x16
   160cc:	0c050513          	addi	a0,a0,192 # 160c0 <.test_name>

00000000000160d0 <.prname_next>:
   160d0:	00004137          	lui	sp,0x4
   160d4:	661070ef          	jal	ra,1df34 <printf_s>

00000000000160d8 <test_2>:
   160d8:	01400093          	li	ra,20
   160dc:	00600113          	li	sp,6
   160e0:	0220f1b3          	remu	gp,ra,sp
   160e4:	00200e93          	li	t4,2
   160e8:	00200e13          	li	t3,2
   160ec:	0dd19463          	bne	gp,t4,161b4 <fail>

00000000000160f0 <test_3>:
   160f0:	fec00093          	li	ra,-20
   160f4:	00600113          	li	sp,6
   160f8:	0220f1b3          	remu	gp,ra,sp
   160fc:	00200e93          	li	t4,2
   16100:	00300e13          	li	t3,3
   16104:	0bd19863          	bne	gp,t4,161b4 <fail>

0000000000016108 <test_4>:
   16108:	01400093          	li	ra,20
   1610c:	ffa00113          	li	sp,-6
   16110:	0220f1b3          	remu	gp,ra,sp
   16114:	01400e93          	li	t4,20
   16118:	00400e13          	li	t3,4
   1611c:	09d19c63          	bne	gp,t4,161b4 <fail>

0000000000016120 <test_5>:
   16120:	fec00093          	li	ra,-20
   16124:	ffa00113          	li	sp,-6
   16128:	0220f1b3          	remu	gp,ra,sp
   1612c:	fec00e93          	li	t4,-20
   16130:	00500e13          	li	t3,5
   16134:	09d19063          	bne	gp,t4,161b4 <fail>

0000000000016138 <test_6>:
   16138:	800000b7          	lui	ra,0x80000
   1613c:	00100113          	li	sp,1
   16140:	0220f1b3          	remu	gp,ra,sp
   16144:	00000e93          	li	t4,0
   16148:	00600e13          	li	t3,6
   1614c:	07d19463          	bne	gp,t4,161b4 <fail>

0000000000016150 <test_7>:
   16150:	800000b7          	lui	ra,0x80000
   16154:	fff00113          	li	sp,-1
   16158:	0220f1b3          	remu	gp,ra,sp
   1615c:	80000eb7          	lui	t4,0x80000
   16160:	00700e13          	li	t3,7
   16164:	05d19863          	bne	gp,t4,161b4 <fail>

0000000000016168 <test_8>:
   16168:	800000b7          	lui	ra,0x80000
   1616c:	00000113          	li	sp,0
   16170:	0220f1b3          	remu	gp,ra,sp
   16174:	80000eb7          	lui	t4,0x80000
   16178:	00800e13          	li	t3,8
   1617c:	03d19c63          	bne	gp,t4,161b4 <fail>

0000000000016180 <test_9>:
   16180:	00100093          	li	ra,1
   16184:	00000113          	li	sp,0
   16188:	0220f1b3          	remu	gp,ra,sp
   1618c:	00100e93          	li	t4,1
   16190:	00900e13          	li	t3,9
   16194:	03d19063          	bne	gp,t4,161b4 <fail>

0000000000016198 <test_10>:
   16198:	00000093          	li	ra,0
   1619c:	00000113          	li	sp,0
   161a0:	0220f1b3          	remu	gp,ra,sp
   161a4:	00000e93          	li	t4,0
   161a8:	00a00e13          	li	t3,10
   161ac:	01d19463          	bne	gp,t4,161b4 <fail>
   161b0:	05c01863          	bne	zero,t3,16200 <pass>

00000000000161b4 <fail>:
   161b4:	04500513          	li	a0,69
   161b8:	00004137          	lui	sp,0x4
   161bc:	54d070ef          	jal	ra,1df08 <printf_c>
   161c0:	05200513          	li	a0,82
   161c4:	00004137          	lui	sp,0x4
   161c8:	541070ef          	jal	ra,1df08 <printf_c>
   161cc:	00004137          	lui	sp,0x4
   161d0:	539070ef          	jal	ra,1df08 <printf_c>
   161d4:	04f00513          	li	a0,79
   161d8:	00004137          	lui	sp,0x4
   161dc:	52d070ef          	jal	ra,1df08 <printf_c>
   161e0:	00004137          	lui	sp,0x4
   161e4:	05200513          	li	a0,82
   161e8:	00004137          	lui	sp,0x4
   161ec:	51d070ef          	jal	ra,1df08 <printf_c>
   161f0:	00a00513          	li	a0,10
   161f4:	00004137          	lui	sp,0x4
   161f8:	511070ef          	jal	ra,1df08 <printf_c>
   161fc:	e95e906f          	j	90 <isaTestEnd>

0000000000016200 <pass>:
   16200:	04f00513          	li	a0,79
   16204:	00004137          	lui	sp,0x4
   16208:	501070ef          	jal	ra,1df08 <printf_c>
   1620c:	04b00513          	li	a0,75
   16210:	00004137          	lui	sp,0x4
   16214:	4f5070ef          	jal	ra,1df08 <printf_c>
   16218:	00a00513          	li	a0,10
   1621c:	00004137          	lui	sp,0x4
   16220:	4e9070ef          	jal	ra,1df08 <printf_c>
   16224:	e6de906f          	j	90 <isaTestEnd>

0000000000016228 <.test_name>:
   16228:	00096273          	csrrsi	tp,0x0,18

000000000001622c <sb>:
   1622c:	00016537          	lui	a0,0x16
   16230:	22850513          	addi	a0,a0,552 # 16228 <.test_name>

0000000000016234 <.prname_next>:
   16234:	00004137          	lui	sp,0x4
   16238:	4fd070ef          	jal	ra,1df34 <printf_s>

000000000001623c <test_2>:
   1623c:	00009097          	auipc	ra,0x9
   16240:	3bc08093          	addi	ra,ra,956 # 1f5f8 <tdat>
   16244:	0010011b          	addiw	sp,zero,1
   16248:	02011113          	slli	sp,sp,0x20
   1624c:	faa10113          	addi	sp,sp,-86 # 3faa <coremarkBenchmark+0x3f02>
   16250:	00208023          	sb	sp,0(ra)
   16254:	00008183          	lb	gp,0(ra)
   16258:	00100e9b          	addiw	t4,zero,1
   1625c:	020e9e93          	slli	t4,t4,0x20
   16260:	faae8e93          	addi	t4,t4,-86 # ffffffff7fffffaa <heap_memory_used+0xffffffff7ffddcf2>
   16264:	00200e13          	li	t3,2
   16268:	47d19863          	bne	gp,t4,166d8 <fail>

000000000001626c <test_3>:
   1626c:	00009097          	auipc	ra,0x9
   16270:	38c08093          	addi	ra,ra,908 # 1f5f8 <tdat>
   16274:	00000113          	li	sp,0
   16278:	002080a3          	sb	sp,1(ra)
   1627c:	00108183          	lb	gp,1(ra)
   16280:	00000e93          	li	t4,0
   16284:	00300e13          	li	t3,3
   16288:	45d19863          	bne	gp,t4,166d8 <fail>

000000000001628c <test_4>:
   1628c:	00009097          	auipc	ra,0x9
   16290:	36c08093          	addi	ra,ra,876 # 1f5f8 <tdat>
   16294:	00100137          	lui	sp,0x100
   16298:	fff1011b          	addiw	sp,sp,-1
   1629c:	00c11113          	slli	sp,sp,0xc
   162a0:	fa010113          	addi	sp,sp,-96 # fffa0 <heap_memory_used+0xddce8>
   162a4:	00208123          	sb	sp,2(ra)
   162a8:	00209183          	lh	gp,2(ra)
   162ac:	00100eb7          	lui	t4,0x100
   162b0:	fffe8e9b          	addiw	t4,t4,-1
   162b4:	00ce9e93          	slli	t4,t4,0xc
   162b8:	fa0e8e93          	addi	t4,t4,-96 # fffa0 <heap_memory_used+0xddce8>
   162bc:	00400e13          	li	t3,4
   162c0:	41d19c63          	bne	gp,t4,166d8 <fail>

00000000000162c4 <test_5>:
   162c4:	00009097          	auipc	ra,0x9
   162c8:	33408093          	addi	ra,ra,820 # 1f5f8 <tdat>
   162cc:	00a00113          	li	sp,10
   162d0:	002081a3          	sb	sp,3(ra)
   162d4:	00308183          	lb	gp,3(ra)
   162d8:	00a00e93          	li	t4,10
   162dc:	00500e13          	li	t3,5
   162e0:	3fd19c63          	bne	gp,t4,166d8 <fail>

00000000000162e4 <test_6>:
   162e4:	00009097          	auipc	ra,0x9
   162e8:	31b08093          	addi	ra,ra,795 # 1f5ff <tdat8>
   162ec:	0010011b          	addiw	sp,zero,1
   162f0:	02011113          	slli	sp,sp,0x20
   162f4:	faa10113          	addi	sp,sp,-86
   162f8:	fe208ea3          	sb	sp,-3(ra)
   162fc:	ffd08183          	lb	gp,-3(ra)
   16300:	00100e9b          	addiw	t4,zero,1
   16304:	020e9e93          	slli	t4,t4,0x20
   16308:	faae8e93          	addi	t4,t4,-86
   1630c:	00600e13          	li	t3,6
   16310:	3dd19463          	bne	gp,t4,166d8 <fail>

0000000000016314 <test_7>:
   16314:	00009097          	auipc	ra,0x9
   16318:	2eb08093          	addi	ra,ra,747 # 1f5ff <tdat8>
   1631c:	00000113          	li	sp,0
   16320:	fe208f23          	sb	sp,-2(ra)
   16324:	ffe08183          	lb	gp,-2(ra)
   16328:	00000e93          	li	t4,0
   1632c:	00700e13          	li	t3,7
   16330:	3bd19463          	bne	gp,t4,166d8 <fail>

0000000000016334 <test_8>:
   16334:	00009097          	auipc	ra,0x9
   16338:	2cb08093          	addi	ra,ra,715 # 1f5ff <tdat8>
   1633c:	0010011b          	addiw	sp,zero,1
   16340:	02011113          	slli	sp,sp,0x20
   16344:	fa010113          	addi	sp,sp,-96
   16348:	fe208fa3          	sb	sp,-1(ra)
   1634c:	fff08183          	lb	gp,-1(ra)
   16350:	00100e9b          	addiw	t4,zero,1
   16354:	020e9e93          	slli	t4,t4,0x20
   16358:	fa0e8e93          	addi	t4,t4,-96
   1635c:	00800e13          	li	t3,8
   16360:	37d19c63          	bne	gp,t4,166d8 <fail>

0000000000016364 <test_9>:
   16364:	00009097          	auipc	ra,0x9
   16368:	29b08093          	addi	ra,ra,667 # 1f5ff <tdat8>
   1636c:	00a00113          	li	sp,10
   16370:	00208023          	sb	sp,0(ra)
   16374:	00008183          	lb	gp,0(ra)
   16378:	00a00e93          	li	t4,10
   1637c:	00900e13          	li	t3,9
   16380:	35d19c63          	bne	gp,t4,166d8 <fail>

0000000000016384 <test_10>:
   16384:	00009097          	auipc	ra,0x9
   16388:	27c08093          	addi	ra,ra,636 # 1f600 <tdat9>
   1638c:	12345137          	lui	sp,0x12345
   16390:	6781011b          	addiw	sp,sp,1656
   16394:	fe008213          	addi	tp,ra,-32
   16398:	02220023          	sb	sp,32(tp) # 20 <initReg+0x18>
   1639c:	00008183          	lb	gp,0(ra)
   163a0:	07800e93          	li	t4,120
   163a4:	00a00e13          	li	t3,10
   163a8:	33d19863          	bne	gp,t4,166d8 <fail>

00000000000163ac <test_11>:
   163ac:	00009097          	auipc	ra,0x9
   163b0:	25408093          	addi	ra,ra,596 # 1f600 <tdat9>
   163b4:	00003137          	lui	sp,0x3
   163b8:	0981011b          	addiw	sp,sp,152
   163bc:	ffa08093          	addi	ra,ra,-6
   163c0:	002083a3          	sb	sp,7(ra)
   163c4:	00009217          	auipc	tp,0x9
   163c8:	23d20213          	addi	tp,tp,573 # 1f601 <tdat10>
   163cc:	00020183          	lb	gp,0(tp) # 0 <_start>
   163d0:	00100e9b          	addiw	t4,zero,1
   163d4:	020e9e93          	slli	t4,t4,0x20
   163d8:	f98e8e93          	addi	t4,t4,-104
   163dc:	00b00e13          	li	t3,11
   163e0:	2fd19c63          	bne	gp,t4,166d8 <fail>

00000000000163e4 <test_12>:
   163e4:	00c00e13          	li	t3,12
   163e8:	00000213          	li	tp,0
   163ec:	0010009b          	addiw	ra,zero,1
   163f0:	02009093          	slli	ra,ra,0x20
   163f4:	fdd08093          	addi	ra,ra,-35
   163f8:	00009117          	auipc	sp,0x9
   163fc:	20010113          	addi	sp,sp,512 # 1f5f8 <tdat>
   16400:	00110023          	sb	ra,0(sp)
   16404:	00010183          	lb	gp,0(sp)
   16408:	00100e9b          	addiw	t4,zero,1
   1640c:	020e9e93          	slli	t4,t4,0x20
   16410:	fdde8e93          	addi	t4,t4,-35
   16414:	2dd19263          	bne	gp,t4,166d8 <fail>
   16418:	00120213          	addi	tp,tp,1 # 1 <_start+0x1>
   1641c:	00200293          	li	t0,2
   16420:	fc5216e3          	bne	tp,t0,163ec <test_12+0x8>

0000000000016424 <test_13>:
   16424:	00d00e13          	li	t3,13
   16428:	00000213          	li	tp,0
   1642c:	0010009b          	addiw	ra,zero,1
   16430:	02009093          	slli	ra,ra,0x20
   16434:	fcd08093          	addi	ra,ra,-51
   16438:	00009117          	auipc	sp,0x9
   1643c:	1c010113          	addi	sp,sp,448 # 1f5f8 <tdat>
   16440:	00000013          	nop
   16444:	001100a3          	sb	ra,1(sp)
   16448:	00110183          	lb	gp,1(sp)
   1644c:	00100e9b          	addiw	t4,zero,1
   16450:	020e9e93          	slli	t4,t4,0x20
   16454:	fcde8e93          	addi	t4,t4,-51
   16458:	29d19063          	bne	gp,t4,166d8 <fail>
   1645c:	00120213          	addi	tp,tp,1 # 1 <_start+0x1>
   16460:	00200293          	li	t0,2
   16464:	fc5214e3          	bne	tp,t0,1642c <test_13+0x8>

0000000000016468 <test_14>:
   16468:	00e00e13          	li	t3,14
   1646c:	00000213          	li	tp,0
   16470:	0010009b          	addiw	ra,zero,1
   16474:	02009093          	slli	ra,ra,0x20
   16478:	fcc08093          	addi	ra,ra,-52
   1647c:	00009117          	auipc	sp,0x9
   16480:	17c10113          	addi	sp,sp,380 # 1f5f8 <tdat>
   16484:	00000013          	nop
   16488:	00000013          	nop
   1648c:	00110123          	sb	ra,2(sp)
   16490:	00210183          	lb	gp,2(sp)
   16494:	00100e9b          	addiw	t4,zero,1
   16498:	020e9e93          	slli	t4,t4,0x20
   1649c:	fcce8e93          	addi	t4,t4,-52
   164a0:	23d19c63          	bne	gp,t4,166d8 <fail>
   164a4:	00120213          	addi	tp,tp,1 # 1 <_start+0x1>
   164a8:	00200293          	li	t0,2
   164ac:	fc5212e3          	bne	tp,t0,16470 <test_14+0x8>

00000000000164b0 <test_15>:
   164b0:	00f00e13          	li	t3,15
   164b4:	00000213          	li	tp,0
   164b8:	0010009b          	addiw	ra,zero,1
   164bc:	02009093          	slli	ra,ra,0x20
   164c0:	fbc08093          	addi	ra,ra,-68
   164c4:	00000013          	nop
   164c8:	00009117          	auipc	sp,0x9
   164cc:	13010113          	addi	sp,sp,304 # 1f5f8 <tdat>
   164d0:	001101a3          	sb	ra,3(sp)
   164d4:	00310183          	lb	gp,3(sp)
   164d8:	00100e9b          	addiw	t4,zero,1
   164dc:	020e9e93          	slli	t4,t4,0x20
   164e0:	fbce8e93          	addi	t4,t4,-68
   164e4:	1fd19a63          	bne	gp,t4,166d8 <fail>
   164e8:	00120213          	addi	tp,tp,1 # 1 <_start+0x1>
   164ec:	00200293          	li	t0,2
   164f0:	fc5214e3          	bne	tp,t0,164b8 <test_15+0x8>

00000000000164f4 <test_16>:
   164f4:	01000e13          	li	t3,16
   164f8:	00000213          	li	tp,0
   164fc:	0010009b          	addiw	ra,zero,1
   16500:	02009093          	slli	ra,ra,0x20
   16504:	fbb08093          	addi	ra,ra,-69
   16508:	00000013          	nop
   1650c:	00009117          	auipc	sp,0x9
   16510:	0ec10113          	addi	sp,sp,236 # 1f5f8 <tdat>
   16514:	00000013          	nop
   16518:	00110223          	sb	ra,4(sp)
   1651c:	00410183          	lb	gp,4(sp)
   16520:	00100e9b          	addiw	t4,zero,1
   16524:	020e9e93          	slli	t4,t4,0x20
   16528:	fbbe8e93          	addi	t4,t4,-69
   1652c:	1bd19663          	bne	gp,t4,166d8 <fail>
   16530:	00120213          	addi	tp,tp,1 # 1 <_start+0x1>
   16534:	00200293          	li	t0,2
   16538:	fc5212e3          	bne	tp,t0,164fc <test_16+0x8>

000000000001653c <test_17>:
   1653c:	01100e13          	li	t3,17
   16540:	00000213          	li	tp,0
   16544:	0010009b          	addiw	ra,zero,1
   16548:	02009093          	slli	ra,ra,0x20
   1654c:	fab08093          	addi	ra,ra,-85
   16550:	00000013          	nop
   16554:	00000013          	nop
   16558:	00009117          	auipc	sp,0x9
   1655c:	0a010113          	addi	sp,sp,160 # 1f5f8 <tdat>
   16560:	001102a3          	sb	ra,5(sp)
   16564:	00510183          	lb	gp,5(sp)
   16568:	00100e9b          	addiw	t4,zero,1
   1656c:	020e9e93          	slli	t4,t4,0x20
   16570:	fabe8e93          	addi	t4,t4,-85
   16574:	17d19263          	bne	gp,t4,166d8 <fail>
   16578:	00120213          	addi	tp,tp,1 # 1 <_start+0x1>
   1657c:	00200293          	li	t0,2
   16580:	fc5212e3          	bne	tp,t0,16544 <test_17+0x8>

0000000000016584 <test_18>:
   16584:	01200e13          	li	t3,18
   16588:	00000213          	li	tp,0
   1658c:	00009117          	auipc	sp,0x9
   16590:	06c10113          	addi	sp,sp,108 # 1f5f8 <tdat>
   16594:	03300093          	li	ra,51
   16598:	00110023          	sb	ra,0(sp)
   1659c:	00010183          	lb	gp,0(sp)
   165a0:	03300e93          	li	t4,51
   165a4:	13d19a63          	bne	gp,t4,166d8 <fail>
   165a8:	00120213          	addi	tp,tp,1 # 1 <_start+0x1>
   165ac:	00200293          	li	t0,2
   165b0:	fc521ee3          	bne	tp,t0,1658c <test_18+0x8>

00000000000165b4 <test_19>:
   165b4:	01300e13          	li	t3,19
   165b8:	00000213          	li	tp,0
   165bc:	00009117          	auipc	sp,0x9
   165c0:	03c10113          	addi	sp,sp,60 # 1f5f8 <tdat>
   165c4:	02300093          	li	ra,35
   165c8:	00000013          	nop
   165cc:	001100a3          	sb	ra,1(sp)
   165d0:	00110183          	lb	gp,1(sp)
   165d4:	02300e93          	li	t4,35
   165d8:	11d19063          	bne	gp,t4,166d8 <fail>
   165dc:	00120213          	addi	tp,tp,1 # 1 <_start+0x1>
   165e0:	00200293          	li	t0,2
   165e4:	fc521ce3          	bne	tp,t0,165bc <test_19+0x8>

00000000000165e8 <test_20>:
   165e8:	01400e13          	li	t3,20
   165ec:	00000213          	li	tp,0
   165f0:	00009117          	auipc	sp,0x9
   165f4:	00810113          	addi	sp,sp,8 # 1f5f8 <tdat>
   165f8:	02200093          	li	ra,34
   165fc:	00000013          	nop
   16600:	00000013          	nop
   16604:	00110123          	sb	ra,2(sp)
   16608:	00210183          	lb	gp,2(sp)
   1660c:	02200e93          	li	t4,34
   16610:	0dd19463          	bne	gp,t4,166d8 <fail>
   16614:	00120213          	addi	tp,tp,1 # 1 <_start+0x1>
   16618:	00200293          	li	t0,2
   1661c:	fc521ae3          	bne	tp,t0,165f0 <test_20+0x8>

0000000000016620 <test_21>:
   16620:	01500e13          	li	t3,21
   16624:	00000213          	li	tp,0
   16628:	00009117          	auipc	sp,0x9
   1662c:	fd010113          	addi	sp,sp,-48 # 1f5f8 <tdat>
   16630:	00000013          	nop
   16634:	01200093          	li	ra,18
   16638:	001101a3          	sb	ra,3(sp)
   1663c:	00310183          	lb	gp,3(sp)
   16640:	01200e93          	li	t4,18
   16644:	09d19a63          	bne	gp,t4,166d8 <fail>
   16648:	00120213          	addi	tp,tp,1 # 1 <_start+0x1>
   1664c:	00200293          	li	t0,2
   16650:	fc521ce3          	bne	tp,t0,16628 <test_21+0x8>

0000000000016654 <test_22>:
   16654:	01600e13          	li	t3,22
   16658:	00000213          	li	tp,0
   1665c:	00009117          	auipc	sp,0x9
   16660:	f9c10113          	addi	sp,sp,-100 # 1f5f8 <tdat>
   16664:	00000013          	nop
   16668:	01100093          	li	ra,17
   1666c:	00000013          	nop
   16670:	00110223          	sb	ra,4(sp)
   16674:	00410183          	lb	gp,4(sp)
   16678:	01100e93          	li	t4,17
   1667c:	05d19e63          	bne	gp,t4,166d8 <fail>
   16680:	00120213          	addi	tp,tp,1 # 1 <_start+0x1>
   16684:	00200293          	li	t0,2
   16688:	fc521ae3          	bne	tp,t0,1665c <test_22+0x8>

000000000001668c <test_23>:
   1668c:	01700e13          	li	t3,23
   16690:	00000213          	li	tp,0
   16694:	00009117          	auipc	sp,0x9
   16698:	f6410113          	addi	sp,sp,-156 # 1f5f8 <tdat>
   1669c:	00000013          	nop
   166a0:	00000013          	nop
   166a4:	00100093          	li	ra,1
   166a8:	001102a3          	sb	ra,5(sp)
   166ac:	00510183          	lb	gp,5(sp)
   166b0:	00100e93          	li	t4,1
   166b4:	03d19263          	bne	gp,t4,166d8 <fail>
   166b8:	00120213          	addi	tp,tp,1 # 1 <_start+0x1>
   166bc:	00200293          	li	t0,2
   166c0:	fc521ae3          	bne	tp,t0,16694 <test_23+0x8>
   166c4:	0ef00513          	li	a0,239
   166c8:	00009597          	auipc	a1,0x9
   166cc:	f3058593          	addi	a1,a1,-208 # 1f5f8 <tdat>
   166d0:	00a581a3          	sb	a0,3(a1)
   166d4:	05c01863          	bne	zero,t3,16724 <pass>

00000000000166d8 <fail>:
   166d8:	04500513          	li	a0,69
   166dc:	00004137          	lui	sp,0x4
   166e0:	029070ef          	jal	ra,1df08 <printf_c>
   166e4:	05200513          	li	a0,82
   166e8:	00004137          	lui	sp,0x4
   166ec:	01d070ef          	jal	ra,1df08 <printf_c>
   166f0:	00004137          	lui	sp,0x4
   166f4:	015070ef          	jal	ra,1df08 <printf_c>
   166f8:	04f00513          	li	a0,79
   166fc:	00004137          	lui	sp,0x4
   16700:	009070ef          	jal	ra,1df08 <printf_c>
   16704:	00004137          	lui	sp,0x4
   16708:	05200513          	li	a0,82
   1670c:	00004137          	lui	sp,0x4
   16710:	7f8070ef          	jal	ra,1df08 <printf_c>
   16714:	00a00513          	li	a0,10
   16718:	00004137          	lui	sp,0x4
   1671c:	7ec070ef          	jal	ra,1df08 <printf_c>
   16720:	0300006f          	j	16750 <sh>

0000000000016724 <pass>:
   16724:	04f00513          	li	a0,79
   16728:	00004137          	lui	sp,0x4
   1672c:	7dc070ef          	jal	ra,1df08 <printf_c>
   16730:	04b00513          	li	a0,75
   16734:	00004137          	lui	sp,0x4
   16738:	7d0070ef          	jal	ra,1df08 <printf_c>
   1673c:	00a00513          	li	a0,10
   16740:	00004137          	lui	sp,0x4
   16744:	7c4070ef          	jal	ra,1df08 <printf_c>
   16748:	0080006f          	j	16750 <sh>

000000000001674c <.test_name>:
   1674c:	00096873          	csrrsi	a6,0x0,18

0000000000016750 <sh>:
   16750:	00016537          	lui	a0,0x16
   16754:	74c50513          	addi	a0,a0,1868 # 1674c <.test_name>

0000000000016758 <.prname_next>:
   16758:	00004137          	lui	sp,0x4
   1675c:	7d8070ef          	jal	ra,1df34 <printf_s>

0000000000016760 <test_2>:
   16760:	00009097          	auipc	ra,0x9
   16764:	ea408093          	addi	ra,ra,-348 # 1f604 <tdat>
   16768:	0aa00113          	li	sp,170
   1676c:	00209023          	sh	sp,0(ra)
   16770:	00009183          	lh	gp,0(ra)
   16774:	0aa00e93          	li	t4,170
   16778:	00200e13          	li	t3,2
   1677c:	51d19663          	bne	gp,t4,16c88 <fail>

0000000000016780 <test_3>:
   16780:	00009097          	auipc	ra,0x9
   16784:	e8408093          	addi	ra,ra,-380 # 1f604 <tdat>
   16788:	00100137          	lui	sp,0x100
   1678c:	ffb1011b          	addiw	sp,sp,-5
   16790:	00c11113          	slli	sp,sp,0xc
   16794:	a0010113          	addi	sp,sp,-1536 # ffa00 <heap_memory_used+0xdd748>
   16798:	00209123          	sh	sp,2(ra)
   1679c:	00209183          	lh	gp,2(ra)
   167a0:	00100eb7          	lui	t4,0x100
   167a4:	ffbe8e9b          	addiw	t4,t4,-5
   167a8:	00ce9e93          	slli	t4,t4,0xc
   167ac:	a00e8e93          	addi	t4,t4,-1536 # ffa00 <heap_memory_used+0xdd748>
   167b0:	00300e13          	li	t3,3
   167b4:	4dd19a63          	bne	gp,t4,16c88 <fail>

00000000000167b8 <test_4>:
   167b8:	00009097          	auipc	ra,0x9
   167bc:	e4c08093          	addi	ra,ra,-436 # 1f604 <tdat>
   167c0:	000bf137          	lui	sp,0xbf
   167c4:	ef11011b          	addiw	sp,sp,-271
   167c8:	00c11113          	slli	sp,sp,0xc
   167cc:	aa010113          	addi	sp,sp,-1376 # beaa0 <heap_memory_used+0x9c7e8>
   167d0:	00209223          	sh	sp,4(ra)
   167d4:	0040a183          	lw	gp,4(ra)
   167d8:	000bfeb7          	lui	t4,0xbf
   167dc:	ef1e8e9b          	addiw	t4,t4,-271
   167e0:	00ce9e93          	slli	t4,t4,0xc
   167e4:	aa0e8e93          	addi	t4,t4,-1376 # beaa0 <heap_memory_used+0x9c7e8>
   167e8:	00400e13          	li	t3,4
   167ec:	49d19e63          	bne	gp,t4,16c88 <fail>

00000000000167f0 <test_5>:
   167f0:	00009097          	auipc	ra,0x9
   167f4:	e1408093          	addi	ra,ra,-492 # 1f604 <tdat>
   167f8:	00080137          	lui	sp,0x80
   167fc:	ffd1011b          	addiw	sp,sp,-3
   16800:	00d11113          	slli	sp,sp,0xd
   16804:	00a10113          	addi	sp,sp,10 # 8000a <heap_memory_used+0x5dd52>
   16808:	00209323          	sh	sp,6(ra)
   1680c:	00609183          	lh	gp,6(ra)
   16810:	00080eb7          	lui	t4,0x80
   16814:	ffde8e9b          	addiw	t4,t4,-3
   16818:	00de9e93          	slli	t4,t4,0xd
   1681c:	00ae8e93          	addi	t4,t4,10 # 8000a <heap_memory_used+0x5dd52>
   16820:	00500e13          	li	t3,5
   16824:	47d19263          	bne	gp,t4,16c88 <fail>

0000000000016828 <test_6>:
   16828:	00009097          	auipc	ra,0x9
   1682c:	dea08093          	addi	ra,ra,-534 # 1f612 <tdat8>
   16830:	0aa00113          	li	sp,170
   16834:	fe209d23          	sh	sp,-6(ra)
   16838:	ffa09183          	lh	gp,-6(ra)
   1683c:	0aa00e93          	li	t4,170
   16840:	00600e13          	li	t3,6
   16844:	45d19263          	bne	gp,t4,16c88 <fail>

0000000000016848 <test_7>:
   16848:	00009097          	auipc	ra,0x9
   1684c:	dca08093          	addi	ra,ra,-566 # 1f612 <tdat8>
   16850:	00100137          	lui	sp,0x100
   16854:	ffb1011b          	addiw	sp,sp,-5
   16858:	00c11113          	slli	sp,sp,0xc
   1685c:	a0010113          	addi	sp,sp,-1536 # ffa00 <heap_memory_used+0xdd748>
   16860:	fe209e23          	sh	sp,-4(ra)
   16864:	ffc09183          	lh	gp,-4(ra)
   16868:	00100eb7          	lui	t4,0x100
   1686c:	ffbe8e9b          	addiw	t4,t4,-5
   16870:	00ce9e93          	slli	t4,t4,0xc
   16874:	a00e8e93          	addi	t4,t4,-1536 # ffa00 <heap_memory_used+0xdd748>
   16878:	00700e13          	li	t3,7
   1687c:	41d19663          	bne	gp,t4,16c88 <fail>

0000000000016880 <test_8>:
   16880:	00009097          	auipc	ra,0x9
   16884:	d9208093          	addi	ra,ra,-622 # 1f612 <tdat8>
   16888:	00001137          	lui	sp,0x1
   1688c:	aa01011b          	addiw	sp,sp,-1376
   16890:	fe209f23          	sh	sp,-2(ra)
   16894:	ffe09183          	lh	gp,-2(ra)
   16898:	00001eb7          	lui	t4,0x1
   1689c:	aa0e8e9b          	addiw	t4,t4,-1376
   168a0:	00800e13          	li	t3,8
   168a4:	3fd19263          	bne	gp,t4,16c88 <fail>

00000000000168a8 <test_9>:
   168a8:	00009097          	auipc	ra,0x9
   168ac:	d6a08093          	addi	ra,ra,-662 # 1f612 <tdat8>
   168b0:	00080137          	lui	sp,0x80
   168b4:	ffd1011b          	addiw	sp,sp,-3
   168b8:	00d11113          	slli	sp,sp,0xd
   168bc:	00a10113          	addi	sp,sp,10 # 8000a <heap_memory_used+0x5dd52>
   168c0:	00209023          	sh	sp,0(ra)
   168c4:	00009183          	lh	gp,0(ra)
   168c8:	00080eb7          	lui	t4,0x80
   168cc:	ffde8e9b          	addiw	t4,t4,-3
   168d0:	00de9e93          	slli	t4,t4,0xd
   168d4:	00ae8e93          	addi	t4,t4,10 # 8000a <heap_memory_used+0x5dd52>
   168d8:	00900e13          	li	t3,9
   168dc:	3bd19663          	bne	gp,t4,16c88 <fail>

00000000000168e0 <test_10>:
   168e0:	00009097          	auipc	ra,0x9
   168e4:	d3408093          	addi	ra,ra,-716 # 1f614 <tdat9>
   168e8:	12345137          	lui	sp,0x12345
   168ec:	6781011b          	addiw	sp,sp,1656
   168f0:	fe008213          	addi	tp,ra,-32
   168f4:	02221023          	sh	sp,32(tp) # 20 <initReg+0x18>
   168f8:	00009183          	lh	gp,0(ra)
   168fc:	00005eb7          	lui	t4,0x5
   16900:	678e8e9b          	addiw	t4,t4,1656
   16904:	00a00e13          	li	t3,10
   16908:	39d19063          	bne	gp,t4,16c88 <fail>

000000000001690c <test_11>:
   1690c:	00009097          	auipc	ra,0x9
   16910:	d0808093          	addi	ra,ra,-760 # 1f614 <tdat9>
   16914:	00003137          	lui	sp,0x3
   16918:	0981011b          	addiw	sp,sp,152
   1691c:	ffb08093          	addi	ra,ra,-5
   16920:	002093a3          	sh	sp,7(ra)
   16924:	00009217          	auipc	tp,0x9
   16928:	cf220213          	addi	tp,tp,-782 # 1f616 <tdat10>
   1692c:	00021183          	lh	gp,0(tp) # 0 <_start>
   16930:	00003eb7          	lui	t4,0x3
   16934:	098e8e9b          	addiw	t4,t4,152
   16938:	00b00e13          	li	t3,11
   1693c:	35d19663          	bne	gp,t4,16c88 <fail>

0000000000016940 <test_12>:
   16940:	00c00e13          	li	t3,12
   16944:	00000213          	li	tp,0
   16948:	001000b7          	lui	ra,0x100
   1694c:	ffd0809b          	addiw	ra,ra,-3
   16950:	00c09093          	slli	ra,ra,0xc
   16954:	cdd08093          	addi	ra,ra,-803 # ffcdd <heap_memory_used+0xdda25>
   16958:	00009117          	auipc	sp,0x9
   1695c:	cac10113          	addi	sp,sp,-852 # 1f604 <tdat>
   16960:	00111023          	sh	ra,0(sp)
   16964:	00011183          	lh	gp,0(sp)
   16968:	00100eb7          	lui	t4,0x100
   1696c:	ffde8e9b          	addiw	t4,t4,-3
   16970:	00ce9e93          	slli	t4,t4,0xc
   16974:	cdde8e93          	addi	t4,t4,-803 # ffcdd <heap_memory_used+0xdda25>
   16978:	31d19863          	bne	gp,t4,16c88 <fail>
   1697c:	00120213          	addi	tp,tp,1 # 1 <_start+0x1>
   16980:	00200293          	li	t0,2
   16984:	fc5212e3          	bne	tp,t0,16948 <test_12+0x8>

0000000000016988 <test_13>:
   16988:	00d00e13          	li	t3,13
   1698c:	00000213          	li	tp,0
   16990:	000400b7          	lui	ra,0x40
   16994:	fff0809b          	addiw	ra,ra,-1
   16998:	00e09093          	slli	ra,ra,0xe
   1699c:	ccd08093          	addi	ra,ra,-819 # 3fccd <heap_memory_used+0x1da15>
   169a0:	00009117          	auipc	sp,0x9
   169a4:	c6410113          	addi	sp,sp,-924 # 1f604 <tdat>
   169a8:	00000013          	nop
   169ac:	00111123          	sh	ra,2(sp)
   169b0:	00211183          	lh	gp,2(sp)
   169b4:	00040eb7          	lui	t4,0x40
   169b8:	fffe8e9b          	addiw	t4,t4,-1
   169bc:	00ee9e93          	slli	t4,t4,0xe
   169c0:	ccde8e93          	addi	t4,t4,-819 # 3fccd <heap_memory_used+0x1da15>
   169c4:	2dd19263          	bne	gp,t4,16c88 <fail>
   169c8:	00120213          	addi	tp,tp,1 # 1 <_start+0x1>
   169cc:	00200293          	li	t0,2
   169d0:	fc5210e3          	bne	tp,t0,16990 <test_13+0x8>

00000000000169d4 <test_14>:
   169d4:	00e00e13          	li	t3,14
   169d8:	00000213          	li	tp,0
   169dc:	000400b7          	lui	ra,0x40
   169e0:	fff0809b          	addiw	ra,ra,-1
   169e4:	00e09093          	slli	ra,ra,0xe
   169e8:	bcc08093          	addi	ra,ra,-1076 # 3fbcc <heap_memory_used+0x1d914>
   169ec:	00009117          	auipc	sp,0x9
   169f0:	c1810113          	addi	sp,sp,-1000 # 1f604 <tdat>
   169f4:	00000013          	nop
   169f8:	00000013          	nop
   169fc:	00111223          	sh	ra,4(sp)
   16a00:	00411183          	lh	gp,4(sp)
   16a04:	00040eb7          	lui	t4,0x40
   16a08:	fffe8e9b          	addiw	t4,t4,-1
   16a0c:	00ee9e93          	slli	t4,t4,0xe
   16a10:	bcce8e93          	addi	t4,t4,-1076 # 3fbcc <heap_memory_used+0x1d914>
   16a14:	27d19a63          	bne	gp,t4,16c88 <fail>
   16a18:	00120213          	addi	tp,tp,1 # 1 <_start+0x1>
   16a1c:	00200293          	li	t0,2
   16a20:	fa521ee3          	bne	tp,t0,169dc <test_14+0x8>

0000000000016a24 <test_15>:
   16a24:	00f00e13          	li	t3,15
   16a28:	00000213          	li	tp,0
   16a2c:	001000b7          	lui	ra,0x100
   16a30:	ffb0809b          	addiw	ra,ra,-5
   16a34:	00c09093          	slli	ra,ra,0xc
   16a38:	bbc08093          	addi	ra,ra,-1092 # ffbbc <heap_memory_used+0xdd904>
   16a3c:	00000013          	nop
   16a40:	00009117          	auipc	sp,0x9
   16a44:	bc410113          	addi	sp,sp,-1084 # 1f604 <tdat>
   16a48:	00111323          	sh	ra,6(sp)
   16a4c:	00611183          	lh	gp,6(sp)
   16a50:	00100eb7          	lui	t4,0x100
   16a54:	ffbe8e9b          	addiw	t4,t4,-5
   16a58:	00ce9e93          	slli	t4,t4,0xc
   16a5c:	bbce8e93          	addi	t4,t4,-1092 # ffbbc <heap_memory_used+0xdd904>
   16a60:	23d19463          	bne	gp,t4,16c88 <fail>
   16a64:	00120213          	addi	tp,tp,1 # 1 <_start+0x1>
   16a68:	00200293          	li	t0,2
   16a6c:	fc5210e3          	bne	tp,t0,16a2c <test_15+0x8>

0000000000016a70 <test_16>:
   16a70:	01000e13          	li	t3,16
   16a74:	00000213          	li	tp,0
   16a78:	001000b7          	lui	ra,0x100
   16a7c:	ffb0809b          	addiw	ra,ra,-5
   16a80:	00c09093          	slli	ra,ra,0xc
   16a84:	abb08093          	addi	ra,ra,-1349 # ffabb <heap_memory_used+0xdd803>
   16a88:	00000013          	nop
   16a8c:	00009117          	auipc	sp,0x9
   16a90:	b7810113          	addi	sp,sp,-1160 # 1f604 <tdat>
   16a94:	00000013          	nop
   16a98:	00111423          	sh	ra,8(sp)
   16a9c:	00811183          	lh	gp,8(sp)
   16aa0:	00100eb7          	lui	t4,0x100
   16aa4:	ffbe8e9b          	addiw	t4,t4,-5
   16aa8:	00ce9e93          	slli	t4,t4,0xc
   16aac:	abbe8e93          	addi	t4,t4,-1349 # ffabb <heap_memory_used+0xdd803>
   16ab0:	1dd19c63          	bne	gp,t4,16c88 <fail>
   16ab4:	00120213          	addi	tp,tp,1 # 1 <_start+0x1>
   16ab8:	00200293          	li	t0,2
   16abc:	fa521ee3          	bne	tp,t0,16a78 <test_16+0x8>

0000000000016ac0 <test_17>:
   16ac0:	01100e13          	li	t3,17
   16ac4:	00000213          	li	tp,0
   16ac8:	000800b7          	lui	ra,0x80
   16acc:	fff0809b          	addiw	ra,ra,-1
   16ad0:	00d09093          	slli	ra,ra,0xd
   16ad4:	aab08093          	addi	ra,ra,-1365 # 7faab <heap_memory_used+0x5d7f3>
   16ad8:	00000013          	nop
   16adc:	00000013          	nop
   16ae0:	00009117          	auipc	sp,0x9
   16ae4:	b2410113          	addi	sp,sp,-1244 # 1f604 <tdat>
   16ae8:	00111523          	sh	ra,10(sp)
   16aec:	00a11183          	lh	gp,10(sp)
   16af0:	00080eb7          	lui	t4,0x80
   16af4:	fffe8e9b          	addiw	t4,t4,-1
   16af8:	00de9e93          	slli	t4,t4,0xd
   16afc:	aabe8e93          	addi	t4,t4,-1365 # 7faab <heap_memory_used+0x5d7f3>
   16b00:	19d19463          	bne	gp,t4,16c88 <fail>
   16b04:	00120213          	addi	tp,tp,1 # 1 <_start+0x1>
   16b08:	00200293          	li	t0,2
   16b0c:	fa521ee3          	bne	tp,t0,16ac8 <test_17+0x8>

0000000000016b10 <test_18>:
   16b10:	01200e13          	li	t3,18
   16b14:	00000213          	li	tp,0
   16b18:	00009117          	auipc	sp,0x9
   16b1c:	aec10113          	addi	sp,sp,-1300 # 1f604 <tdat>
   16b20:	000020b7          	lui	ra,0x2
   16b24:	2330809b          	addiw	ra,ra,563
   16b28:	00111023          	sh	ra,0(sp)
   16b2c:	00011183          	lh	gp,0(sp)
   16b30:	00002eb7          	lui	t4,0x2
   16b34:	233e8e9b          	addiw	t4,t4,563
   16b38:	15d19863          	bne	gp,t4,16c88 <fail>
   16b3c:	00120213          	addi	tp,tp,1 # 1 <_start+0x1>
   16b40:	00200293          	li	t0,2
   16b44:	fc521ae3          	bne	tp,t0,16b18 <test_18+0x8>

0000000000016b48 <test_19>:
   16b48:	01300e13          	li	t3,19
   16b4c:	00000213          	li	tp,0
   16b50:	00009117          	auipc	sp,0x9
   16b54:	ab410113          	addi	sp,sp,-1356 # 1f604 <tdat>
   16b58:	000010b7          	lui	ra,0x1
   16b5c:	2230809b          	addiw	ra,ra,547
   16b60:	00000013          	nop
   16b64:	00111123          	sh	ra,2(sp)
   16b68:	00211183          	lh	gp,2(sp)
   16b6c:	00001eb7          	lui	t4,0x1
   16b70:	223e8e9b          	addiw	t4,t4,547
   16b74:	11d19a63          	bne	gp,t4,16c88 <fail>
   16b78:	00120213          	addi	tp,tp,1 # 1 <_start+0x1>
   16b7c:	00200293          	li	t0,2
   16b80:	fc5218e3          	bne	tp,t0,16b50 <test_19+0x8>

0000000000016b84 <test_20>:
   16b84:	01400e13          	li	t3,20
   16b88:	00000213          	li	tp,0
   16b8c:	00009117          	auipc	sp,0x9
   16b90:	a7810113          	addi	sp,sp,-1416 # 1f604 <tdat>
   16b94:	000010b7          	lui	ra,0x1
   16b98:	1220809b          	addiw	ra,ra,290
   16b9c:	00000013          	nop
   16ba0:	00000013          	nop
   16ba4:	00111223          	sh	ra,4(sp)
   16ba8:	00411183          	lh	gp,4(sp)
   16bac:	00001eb7          	lui	t4,0x1
   16bb0:	122e8e9b          	addiw	t4,t4,290
   16bb4:	0dd19a63          	bne	gp,t4,16c88 <fail>
   16bb8:	00120213          	addi	tp,tp,1 # 1 <_start+0x1>
   16bbc:	00200293          	li	t0,2
   16bc0:	fc5216e3          	bne	tp,t0,16b8c <test_20+0x8>

0000000000016bc4 <test_21>:
   16bc4:	01500e13          	li	t3,21
   16bc8:	00000213          	li	tp,0
   16bcc:	00009117          	auipc	sp,0x9
   16bd0:	a3810113          	addi	sp,sp,-1480 # 1f604 <tdat>
   16bd4:	00000013          	nop
   16bd8:	11200093          	li	ra,274
   16bdc:	00111323          	sh	ra,6(sp)
   16be0:	00611183          	lh	gp,6(sp)
   16be4:	11200e93          	li	t4,274
   16be8:	0bd19063          	bne	gp,t4,16c88 <fail>
   16bec:	00120213          	addi	tp,tp,1 # 1 <_start+0x1>
   16bf0:	00200293          	li	t0,2
   16bf4:	fc521ce3          	bne	tp,t0,16bcc <test_21+0x8>

0000000000016bf8 <test_22>:
   16bf8:	01600e13          	li	t3,22
   16bfc:	00000213          	li	tp,0
   16c00:	00009117          	auipc	sp,0x9
   16c04:	a0410113          	addi	sp,sp,-1532 # 1f604 <tdat>
   16c08:	00000013          	nop
   16c0c:	01100093          	li	ra,17
   16c10:	00000013          	nop
   16c14:	00111423          	sh	ra,8(sp)
   16c18:	00811183          	lh	gp,8(sp)
   16c1c:	01100e93          	li	t4,17
   16c20:	07d19463          	bne	gp,t4,16c88 <fail>
   16c24:	00120213          	addi	tp,tp,1 # 1 <_start+0x1>
   16c28:	00200293          	li	t0,2
   16c2c:	fc521ae3          	bne	tp,t0,16c00 <test_22+0x8>

0000000000016c30 <test_23>:
   16c30:	01700e13          	li	t3,23
   16c34:	00000213          	li	tp,0
   16c38:	00009117          	auipc	sp,0x9
   16c3c:	9cc10113          	addi	sp,sp,-1588 # 1f604 <tdat>
   16c40:	00000013          	nop
   16c44:	00000013          	nop
   16c48:	000030b7          	lui	ra,0x3
   16c4c:	0010809b          	addiw	ra,ra,1
   16c50:	00111523          	sh	ra,10(sp)
   16c54:	00a11183          	lh	gp,10(sp)
   16c58:	00003eb7          	lui	t4,0x3
   16c5c:	001e8e9b          	addiw	t4,t4,1
   16c60:	03d19463          	bne	gp,t4,16c88 <fail>
   16c64:	00120213          	addi	tp,tp,1 # 1 <_start+0x1>
   16c68:	00200293          	li	t0,2
   16c6c:	fc5216e3          	bne	tp,t0,16c38 <test_23+0x8>
   16c70:	0000c537          	lui	a0,0xc
   16c74:	eef5051b          	addiw	a0,a0,-273
   16c78:	00009597          	auipc	a1,0x9
   16c7c:	98c58593          	addi	a1,a1,-1652 # 1f604 <tdat>
   16c80:	00a59323          	sh	a0,6(a1)
   16c84:	05c01863          	bne	zero,t3,16cd4 <pass>

0000000000016c88 <fail>:
   16c88:	04500513          	li	a0,69
   16c8c:	00004137          	lui	sp,0x4
   16c90:	278070ef          	jal	ra,1df08 <printf_c>
   16c94:	05200513          	li	a0,82
   16c98:	00004137          	lui	sp,0x4
   16c9c:	26c070ef          	jal	ra,1df08 <printf_c>
   16ca0:	00004137          	lui	sp,0x4
   16ca4:	264070ef          	jal	ra,1df08 <printf_c>
   16ca8:	04f00513          	li	a0,79
   16cac:	00004137          	lui	sp,0x4
   16cb0:	258070ef          	jal	ra,1df08 <printf_c>
   16cb4:	00004137          	lui	sp,0x4
   16cb8:	05200513          	li	a0,82
   16cbc:	00004137          	lui	sp,0x4
   16cc0:	248070ef          	jal	ra,1df08 <printf_c>
   16cc4:	00a00513          	li	a0,10
   16cc8:	00004137          	lui	sp,0x4
   16ccc:	23c070ef          	jal	ra,1df08 <printf_c>
   16cd0:	0340006f          	j	16d04 <sll>

0000000000016cd4 <pass>:
   16cd4:	04f00513          	li	a0,79
   16cd8:	00004137          	lui	sp,0x4
   16cdc:	22c070ef          	jal	ra,1df08 <printf_c>
   16ce0:	04b00513          	li	a0,75
   16ce4:	00004137          	lui	sp,0x4
   16ce8:	220070ef          	jal	ra,1df08 <printf_c>
   16cec:	00a00513          	li	a0,10
   16cf0:	00004137          	lui	sp,0x4
   16cf4:	214070ef          	jal	ra,1df08 <printf_c>
   16cf8:	00c0006f          	j	16d04 <sll>

0000000000016cfc <.test_name>:
   16cfc:	206c6c73          	csrrsi	s8,0x206,24
   16d00:	0009                	c.addi	zero,2
	...

0000000000016d04 <sll>:
   16d04:	00017537          	lui	a0,0x17
   16d08:	cfc50513          	addi	a0,a0,-772 # 16cfc <.test_name>

0000000000016d0c <.prname_next>:
   16d0c:	00004137          	lui	sp,0x4
   16d10:	224070ef          	jal	ra,1df34 <printf_s>

0000000000016d14 <test_2>:
   16d14:	00100093          	li	ra,1
   16d18:	00000113          	li	sp,0
   16d1c:	002091b3          	sll	gp,ra,sp
   16d20:	00100e93          	li	t4,1
   16d24:	00200e13          	li	t3,2
   16d28:	5fd19c63          	bne	gp,t4,17320 <fail>

0000000000016d2c <test_3>:
   16d2c:	00100093          	li	ra,1
   16d30:	00100113          	li	sp,1
   16d34:	002091b3          	sll	gp,ra,sp
   16d38:	00200e93          	li	t4,2
   16d3c:	00300e13          	li	t3,3
   16d40:	5fd19063          	bne	gp,t4,17320 <fail>

0000000000016d44 <test_4>:
   16d44:	00100093          	li	ra,1
   16d48:	00700113          	li	sp,7
   16d4c:	002091b3          	sll	gp,ra,sp
   16d50:	08000e93          	li	t4,128
   16d54:	00400e13          	li	t3,4
   16d58:	5dd19463          	bne	gp,t4,17320 <fail>

0000000000016d5c <test_5>:
   16d5c:	00100093          	li	ra,1
   16d60:	00e00113          	li	sp,14
   16d64:	002091b3          	sll	gp,ra,sp
   16d68:	00004eb7          	lui	t4,0x4
   16d6c:	00500e13          	li	t3,5
   16d70:	5bd19863          	bne	gp,t4,17320 <fail>

0000000000016d74 <test_6>:
   16d74:	00100093          	li	ra,1
   16d78:	01f00113          	li	sp,31
   16d7c:	002091b3          	sll	gp,ra,sp
   16d80:	00100e9b          	addiw	t4,zero,1
   16d84:	01fe9e93          	slli	t4,t4,0x1f
   16d88:	00600e13          	li	t3,6
   16d8c:	59d19a63          	bne	gp,t4,17320 <fail>

0000000000016d90 <test_7>:
   16d90:	0010009b          	addiw	ra,zero,1
   16d94:	02009093          	slli	ra,ra,0x20
   16d98:	fff08093          	addi	ra,ra,-1 # 2fff <coremarkBenchmark+0x2f57>
   16d9c:	00000113          	li	sp,0
   16da0:	002091b3          	sll	gp,ra,sp
   16da4:	00100e9b          	addiw	t4,zero,1
   16da8:	020e9e93          	slli	t4,t4,0x20
   16dac:	fffe8e93          	addi	t4,t4,-1 # 3fff <coremarkBenchmark+0x3f57>
   16db0:	00700e13          	li	t3,7
   16db4:	57d19663          	bne	gp,t4,17320 <fail>

0000000000016db8 <test_8>:
   16db8:	0010009b          	addiw	ra,zero,1
   16dbc:	02009093          	slli	ra,ra,0x20
   16dc0:	fff08093          	addi	ra,ra,-1
   16dc4:	00100113          	li	sp,1
   16dc8:	002091b3          	sll	gp,ra,sp
   16dcc:	00100e9b          	addiw	t4,zero,1
   16dd0:	020e9e93          	slli	t4,t4,0x20
   16dd4:	ffee8e93          	addi	t4,t4,-2
   16dd8:	00800e13          	li	t3,8
   16ddc:	55d19263          	bne	gp,t4,17320 <fail>

0000000000016de0 <test_9>:
   16de0:	0010009b          	addiw	ra,zero,1
   16de4:	02009093          	slli	ra,ra,0x20
   16de8:	fff08093          	addi	ra,ra,-1
   16dec:	00700113          	li	sp,7
   16df0:	002091b3          	sll	gp,ra,sp
   16df4:	00100e9b          	addiw	t4,zero,1
   16df8:	020e9e93          	slli	t4,t4,0x20
   16dfc:	f80e8e93          	addi	t4,t4,-128
   16e00:	00900e13          	li	t3,9
   16e04:	51d19e63          	bne	gp,t4,17320 <fail>

0000000000016e08 <test_10>:
   16e08:	0010009b          	addiw	ra,zero,1
   16e0c:	02009093          	slli	ra,ra,0x20
   16e10:	fff08093          	addi	ra,ra,-1
   16e14:	00e00113          	li	sp,14
   16e18:	002091b3          	sll	gp,ra,sp
   16e1c:	00040eb7          	lui	t4,0x40
   16e20:	fffe8e9b          	addiw	t4,t4,-1
   16e24:	00ee9e93          	slli	t4,t4,0xe
   16e28:	00a00e13          	li	t3,10
   16e2c:	4fd19a63          	bne	gp,t4,17320 <fail>

0000000000016e30 <test_11>:
   16e30:	0010009b          	addiw	ra,zero,1
   16e34:	02009093          	slli	ra,ra,0x20
   16e38:	fff08093          	addi	ra,ra,-1
   16e3c:	01f00113          	li	sp,31
   16e40:	002091b3          	sll	gp,ra,sp
   16e44:	00100e9b          	addiw	t4,zero,1
   16e48:	01fe9e93          	slli	t4,t4,0x1f
   16e4c:	00b00e13          	li	t3,11
   16e50:	4dd19863          	bne	gp,t4,17320 <fail>

0000000000016e54 <test_12>:
   16e54:	212120b7          	lui	ra,0x21212
   16e58:	1210809b          	addiw	ra,ra,289
   16e5c:	00000113          	li	sp,0
   16e60:	002091b3          	sll	gp,ra,sp
   16e64:	21212eb7          	lui	t4,0x21212
   16e68:	121e8e9b          	addiw	t4,t4,289
   16e6c:	00c00e13          	li	t3,12
   16e70:	4bd19863          	bne	gp,t4,17320 <fail>

0000000000016e74 <test_13>:
   16e74:	212120b7          	lui	ra,0x21212
   16e78:	1210809b          	addiw	ra,ra,289
   16e7c:	00100113          	li	sp,1
   16e80:	002091b3          	sll	gp,ra,sp
   16e84:	42424eb7          	lui	t4,0x42424
   16e88:	242e8e9b          	addiw	t4,t4,578
   16e8c:	00d00e13          	li	t3,13
   16e90:	49d19863          	bne	gp,t4,17320 <fail>

0000000000016e94 <test_14>:
   16e94:	212120b7          	lui	ra,0x21212
   16e98:	1210809b          	addiw	ra,ra,289
   16e9c:	00700113          	li	sp,7
   16ea0:	002091b3          	sll	gp,ra,sp
   16ea4:	00091eb7          	lui	t4,0x91
   16ea8:	909e8e9b          	addiw	t4,t4,-1783
   16eac:	00ce9e93          	slli	t4,t4,0xc
   16eb0:	080e8e93          	addi	t4,t4,128 # 91080 <heap_memory_used+0x6edc8>
   16eb4:	00e00e13          	li	t3,14
   16eb8:	47d19463          	bne	gp,t4,17320 <fail>

0000000000016ebc <test_15>:
   16ebc:	212120b7          	lui	ra,0x21212
   16ec0:	1210809b          	addiw	ra,ra,289
   16ec4:	00e00113          	li	sp,14
   16ec8:	002091b3          	sll	gp,ra,sp
   16ecc:	48484eb7          	lui	t4,0x48484
   16ed0:	00f00e13          	li	t3,15
   16ed4:	45d19663          	bne	gp,t4,17320 <fail>

0000000000016ed8 <test_16>:
   16ed8:	212120b7          	lui	ra,0x21212
   16edc:	1210809b          	addiw	ra,ra,289
   16ee0:	01f00113          	li	sp,31
   16ee4:	002091b3          	sll	gp,ra,sp
   16ee8:	00100e9b          	addiw	t4,zero,1
   16eec:	01fe9e93          	slli	t4,t4,0x1f
   16ef0:	01000e13          	li	t3,16
   16ef4:	43d19663          	bne	gp,t4,17320 <fail>

0000000000016ef8 <test_17>:
   16ef8:	212120b7          	lui	ra,0x21212
   16efc:	1210809b          	addiw	ra,ra,289
   16f00:	0010011b          	addiw	sp,zero,1
   16f04:	02011113          	slli	sp,sp,0x20
   16f08:	fe010113          	addi	sp,sp,-32 # 3fe0 <coremarkBenchmark+0x3f38>
   16f0c:	002091b3          	sll	gp,ra,sp
   16f10:	21212eb7          	lui	t4,0x21212
   16f14:	121e8e9b          	addiw	t4,t4,289
   16f18:	01100e13          	li	t3,17
   16f1c:	41d19263          	bne	gp,t4,17320 <fail>

0000000000016f20 <test_18>:
   16f20:	212120b7          	lui	ra,0x21212
   16f24:	1210809b          	addiw	ra,ra,289
   16f28:	0010011b          	addiw	sp,zero,1
   16f2c:	02011113          	slli	sp,sp,0x20
   16f30:	fe110113          	addi	sp,sp,-31
   16f34:	002091b3          	sll	gp,ra,sp
   16f38:	42424eb7          	lui	t4,0x42424
   16f3c:	242e8e9b          	addiw	t4,t4,578
   16f40:	01200e13          	li	t3,18
   16f44:	3dd19e63          	bne	gp,t4,17320 <fail>

0000000000016f48 <test_19>:
   16f48:	212120b7          	lui	ra,0x21212
   16f4c:	1210809b          	addiw	ra,ra,289
   16f50:	0010011b          	addiw	sp,zero,1
   16f54:	02011113          	slli	sp,sp,0x20
   16f58:	fe710113          	addi	sp,sp,-25
   16f5c:	002091b3          	sll	gp,ra,sp
   16f60:	00091eb7          	lui	t4,0x91
   16f64:	909e8e9b          	addiw	t4,t4,-1783
   16f68:	00ce9e93          	slli	t4,t4,0xc
   16f6c:	080e8e93          	addi	t4,t4,128 # 91080 <heap_memory_used+0x6edc8>
   16f70:	01300e13          	li	t3,19
   16f74:	3bd19663          	bne	gp,t4,17320 <fail>

0000000000016f78 <test_20>:
   16f78:	212120b7          	lui	ra,0x21212
   16f7c:	1210809b          	addiw	ra,ra,289
   16f80:	0010011b          	addiw	sp,zero,1
   16f84:	02011113          	slli	sp,sp,0x20
   16f88:	fee10113          	addi	sp,sp,-18
   16f8c:	002091b3          	sll	gp,ra,sp
   16f90:	48484eb7          	lui	t4,0x48484
   16f94:	01400e13          	li	t3,20
   16f98:	39d19463          	bne	gp,t4,17320 <fail>

0000000000016f9c <test_21>:
   16f9c:	212120b7          	lui	ra,0x21212
   16fa0:	1200809b          	addiw	ra,ra,288
   16fa4:	0010011b          	addiw	sp,zero,1
   16fa8:	02011113          	slli	sp,sp,0x20
   16fac:	fff10113          	addi	sp,sp,-1
   16fb0:	002091b3          	sll	gp,ra,sp
   16fb4:	00000e93          	li	t4,0
   16fb8:	01500e13          	li	t3,21
   16fbc:	37d19263          	bne	gp,t4,17320 <fail>

0000000000016fc0 <test_22>:
   16fc0:	00100093          	li	ra,1
   16fc4:	00700113          	li	sp,7
   16fc8:	002090b3          	sll	ra,ra,sp
   16fcc:	08000e93          	li	t4,128
   16fd0:	01600e13          	li	t3,22
   16fd4:	35d09663          	bne	ra,t4,17320 <fail>

0000000000016fd8 <test_23>:
   16fd8:	00100093          	li	ra,1
   16fdc:	00e00113          	li	sp,14
   16fe0:	00209133          	sll	sp,ra,sp
   16fe4:	00004eb7          	lui	t4,0x4
   16fe8:	01700e13          	li	t3,23
   16fec:	33d11a63          	bne	sp,t4,17320 <fail>

0000000000016ff0 <test_24>:
   16ff0:	00300093          	li	ra,3
   16ff4:	001090b3          	sll	ra,ra,ra
   16ff8:	01800e93          	li	t4,24
   16ffc:	01800e13          	li	t3,24
   17000:	33d09063          	bne	ra,t4,17320 <fail>

0000000000017004 <test_25>:
   17004:	00000213          	li	tp,0
   17008:	00100093          	li	ra,1
   1700c:	00700113          	li	sp,7
   17010:	002091b3          	sll	gp,ra,sp
   17014:	00018313          	mv	t1,gp
   17018:	00120213          	addi	tp,tp,1 # 1 <_start+0x1>
   1701c:	00200293          	li	t0,2
   17020:	fe5214e3          	bne	tp,t0,17008 <test_25+0x4>
   17024:	08000e93          	li	t4,128
   17028:	01900e13          	li	t3,25
   1702c:	2fd31a63          	bne	t1,t4,17320 <fail>

0000000000017030 <test_26>:
   17030:	00000213          	li	tp,0
   17034:	00100093          	li	ra,1
   17038:	00e00113          	li	sp,14
   1703c:	002091b3          	sll	gp,ra,sp
   17040:	00000013          	nop
   17044:	00018313          	mv	t1,gp
   17048:	00120213          	addi	tp,tp,1 # 1 <_start+0x1>
   1704c:	00200293          	li	t0,2
   17050:	fe5212e3          	bne	tp,t0,17034 <test_26+0x4>
   17054:	00004eb7          	lui	t4,0x4
   17058:	01a00e13          	li	t3,26
   1705c:	2dd31263          	bne	t1,t4,17320 <fail>

0000000000017060 <test_27>:
   17060:	00000213          	li	tp,0
   17064:	00100093          	li	ra,1
   17068:	01f00113          	li	sp,31
   1706c:	002091b3          	sll	gp,ra,sp
   17070:	00000013          	nop
   17074:	00000013          	nop
   17078:	00018313          	mv	t1,gp
   1707c:	00120213          	addi	tp,tp,1 # 1 <_start+0x1>
   17080:	00200293          	li	t0,2
   17084:	fe5210e3          	bne	tp,t0,17064 <test_27+0x4>
   17088:	00100e9b          	addiw	t4,zero,1
   1708c:	01fe9e93          	slli	t4,t4,0x1f
   17090:	01b00e13          	li	t3,27
   17094:	29d31663          	bne	t1,t4,17320 <fail>

0000000000017098 <test_28>:
   17098:	00000213          	li	tp,0
   1709c:	00100093          	li	ra,1
   170a0:	00700113          	li	sp,7
   170a4:	002091b3          	sll	gp,ra,sp
   170a8:	00120213          	addi	tp,tp,1 # 1 <_start+0x1>
   170ac:	00200293          	li	t0,2
   170b0:	fe5216e3          	bne	tp,t0,1709c <test_28+0x4>
   170b4:	08000e93          	li	t4,128
   170b8:	01c00e13          	li	t3,28
   170bc:	27d19263          	bne	gp,t4,17320 <fail>

00000000000170c0 <test_29>:
   170c0:	00000213          	li	tp,0
   170c4:	00100093          	li	ra,1
   170c8:	00e00113          	li	sp,14
   170cc:	00000013          	nop
   170d0:	002091b3          	sll	gp,ra,sp
   170d4:	00120213          	addi	tp,tp,1 # 1 <_start+0x1>
   170d8:	00200293          	li	t0,2
   170dc:	fe5214e3          	bne	tp,t0,170c4 <test_29+0x4>
   170e0:	00004eb7          	lui	t4,0x4
   170e4:	01d00e13          	li	t3,29
   170e8:	23d19c63          	bne	gp,t4,17320 <fail>

00000000000170ec <test_30>:
   170ec:	00000213          	li	tp,0
   170f0:	00100093          	li	ra,1
   170f4:	01f00113          	li	sp,31
   170f8:	00000013          	nop
   170fc:	00000013          	nop
   17100:	002091b3          	sll	gp,ra,sp
   17104:	00120213          	addi	tp,tp,1 # 1 <_start+0x1>
   17108:	00200293          	li	t0,2
   1710c:	fe5212e3          	bne	tp,t0,170f0 <test_30+0x4>
   17110:	00100e9b          	addiw	t4,zero,1
   17114:	01fe9e93          	slli	t4,t4,0x1f
   17118:	01e00e13          	li	t3,30
   1711c:	21d19263          	bne	gp,t4,17320 <fail>

0000000000017120 <test_31>:
   17120:	00000213          	li	tp,0
   17124:	00100093          	li	ra,1
   17128:	00000013          	nop
   1712c:	00700113          	li	sp,7
   17130:	002091b3          	sll	gp,ra,sp
   17134:	00120213          	addi	tp,tp,1 # 1 <_start+0x1>
   17138:	00200293          	li	t0,2
   1713c:	fe5214e3          	bne	tp,t0,17124 <test_31+0x4>
   17140:	08000e93          	li	t4,128
   17144:	01f00e13          	li	t3,31
   17148:	1dd19c63          	bne	gp,t4,17320 <fail>

000000000001714c <test_32>:
   1714c:	00000213          	li	tp,0
   17150:	00100093          	li	ra,1
   17154:	00000013          	nop
   17158:	00e00113          	li	sp,14
   1715c:	00000013          	nop
   17160:	002091b3          	sll	gp,ra,sp
   17164:	00120213          	addi	tp,tp,1 # 1 <_start+0x1>
   17168:	00200293          	li	t0,2
   1716c:	fe5212e3          	bne	tp,t0,17150 <test_32+0x4>
   17170:	00004eb7          	lui	t4,0x4
   17174:	02000e13          	li	t3,32
   17178:	1bd19463          	bne	gp,t4,17320 <fail>

000000000001717c <test_33>:
   1717c:	00000213          	li	tp,0
   17180:	00100093          	li	ra,1
   17184:	00000013          	nop
   17188:	00000013          	nop
   1718c:	01f00113          	li	sp,31
   17190:	002091b3          	sll	gp,ra,sp
   17194:	00120213          	addi	tp,tp,1 # 1 <_start+0x1>
   17198:	00200293          	li	t0,2
   1719c:	fe5212e3          	bne	tp,t0,17180 <test_33+0x4>
   171a0:	00100e9b          	addiw	t4,zero,1
   171a4:	01fe9e93          	slli	t4,t4,0x1f
   171a8:	02100e13          	li	t3,33
   171ac:	17d19a63          	bne	gp,t4,17320 <fail>

00000000000171b0 <test_34>:
   171b0:	00000213          	li	tp,0
   171b4:	00700113          	li	sp,7
   171b8:	00100093          	li	ra,1
   171bc:	002091b3          	sll	gp,ra,sp
   171c0:	00120213          	addi	tp,tp,1 # 1 <_start+0x1>
   171c4:	00200293          	li	t0,2
   171c8:	fe5216e3          	bne	tp,t0,171b4 <test_34+0x4>
   171cc:	08000e93          	li	t4,128
   171d0:	02200e13          	li	t3,34
   171d4:	15d19663          	bne	gp,t4,17320 <fail>

00000000000171d8 <test_35>:
   171d8:	00000213          	li	tp,0
   171dc:	00e00113          	li	sp,14
   171e0:	00100093          	li	ra,1
   171e4:	00000013          	nop
   171e8:	002091b3          	sll	gp,ra,sp
   171ec:	00120213          	addi	tp,tp,1 # 1 <_start+0x1>
   171f0:	00200293          	li	t0,2
   171f4:	fe5214e3          	bne	tp,t0,171dc <test_35+0x4>
   171f8:	00004eb7          	lui	t4,0x4
   171fc:	02300e13          	li	t3,35
   17200:	13d19063          	bne	gp,t4,17320 <fail>

0000000000017204 <test_36>:
   17204:	00000213          	li	tp,0
   17208:	01f00113          	li	sp,31
   1720c:	00100093          	li	ra,1
   17210:	00000013          	nop
   17214:	00000013          	nop
   17218:	002091b3          	sll	gp,ra,sp
   1721c:	00120213          	addi	tp,tp,1 # 1 <_start+0x1>
   17220:	00200293          	li	t0,2
   17224:	fe5212e3          	bne	tp,t0,17208 <test_36+0x4>
   17228:	00100e9b          	addiw	t4,zero,1
   1722c:	01fe9e93          	slli	t4,t4,0x1f
   17230:	02400e13          	li	t3,36
   17234:	0fd19663          	bne	gp,t4,17320 <fail>

0000000000017238 <test_37>:
   17238:	00000213          	li	tp,0
   1723c:	00700113          	li	sp,7
   17240:	00000013          	nop
   17244:	00100093          	li	ra,1
   17248:	002091b3          	sll	gp,ra,sp
   1724c:	00120213          	addi	tp,tp,1 # 1 <_start+0x1>
   17250:	00200293          	li	t0,2
   17254:	fe5214e3          	bne	tp,t0,1723c <test_37+0x4>
   17258:	08000e93          	li	t4,128
   1725c:	02500e13          	li	t3,37
   17260:	0dd19063          	bne	gp,t4,17320 <fail>

0000000000017264 <test_38>:
   17264:	00000213          	li	tp,0
   17268:	00e00113          	li	sp,14
   1726c:	00000013          	nop
   17270:	00100093          	li	ra,1
   17274:	00000013          	nop
   17278:	002091b3          	sll	gp,ra,sp
   1727c:	00120213          	addi	tp,tp,1 # 1 <_start+0x1>
   17280:	00200293          	li	t0,2
   17284:	fe5212e3          	bne	tp,t0,17268 <test_38+0x4>
   17288:	00004eb7          	lui	t4,0x4
   1728c:	02600e13          	li	t3,38
   17290:	09d19863          	bne	gp,t4,17320 <fail>

0000000000017294 <test_39>:
   17294:	00000213          	li	tp,0
   17298:	01f00113          	li	sp,31
   1729c:	00000013          	nop
   172a0:	00000013          	nop
   172a4:	00100093          	li	ra,1
   172a8:	002091b3          	sll	gp,ra,sp
   172ac:	00120213          	addi	tp,tp,1 # 1 <_start+0x1>
   172b0:	00200293          	li	t0,2
   172b4:	fe5212e3          	bne	tp,t0,17298 <test_39+0x4>
   172b8:	00100e9b          	addiw	t4,zero,1
   172bc:	01fe9e93          	slli	t4,t4,0x1f
   172c0:	02700e13          	li	t3,39
   172c4:	05d19e63          	bne	gp,t4,17320 <fail>

00000000000172c8 <test_40>:
   172c8:	00f00093          	li	ra,15
   172cc:	00101133          	sll	sp,zero,ra
   172d0:	00000e93          	li	t4,0
   172d4:	02800e13          	li	t3,40
   172d8:	05d11463          	bne	sp,t4,17320 <fail>

00000000000172dc <test_41>:
   172dc:	02000093          	li	ra,32
   172e0:	00009133          	sll	sp,ra,zero
   172e4:	02000e93          	li	t4,32
   172e8:	02900e13          	li	t3,41
   172ec:	03d11a63          	bne	sp,t4,17320 <fail>

00000000000172f0 <test_42>:
   172f0:	000010b3          	sll	ra,zero,zero
   172f4:	00000e93          	li	t4,0
   172f8:	02a00e13          	li	t3,42
   172fc:	03d09263          	bne	ra,t4,17320 <fail>

0000000000017300 <test_43>:
   17300:	40000093          	li	ra,1024
   17304:	00001137          	lui	sp,0x1
   17308:	8001011b          	addiw	sp,sp,-2048
   1730c:	00209033          	sll	zero,ra,sp
   17310:	00000e93          	li	t4,0
   17314:	02b00e13          	li	t3,43
   17318:	01d01463          	bne	zero,t4,17320 <fail>
   1731c:	05c01863          	bne	zero,t3,1736c <pass>

0000000000017320 <fail>:
   17320:	04500513          	li	a0,69
   17324:	00004137          	lui	sp,0x4
   17328:	3e1060ef          	jal	ra,1df08 <printf_c>
   1732c:	05200513          	li	a0,82
   17330:	00004137          	lui	sp,0x4
   17334:	3d5060ef          	jal	ra,1df08 <printf_c>
   17338:	00004137          	lui	sp,0x4
   1733c:	3cd060ef          	jal	ra,1df08 <printf_c>
   17340:	04f00513          	li	a0,79
   17344:	00004137          	lui	sp,0x4
   17348:	3c1060ef          	jal	ra,1df08 <printf_c>
   1734c:	00004137          	lui	sp,0x4
   17350:	05200513          	li	a0,82
   17354:	00004137          	lui	sp,0x4
   17358:	3b1060ef          	jal	ra,1df08 <printf_c>
   1735c:	00a00513          	li	a0,10
   17360:	00004137          	lui	sp,0x4
   17364:	3a5060ef          	jal	ra,1df08 <printf_c>
   17368:	0340006f          	j	1739c <slli>

000000000001736c <pass>:
   1736c:	04f00513          	li	a0,79
   17370:	00004137          	lui	sp,0x4
   17374:	395060ef          	jal	ra,1df08 <printf_c>
   17378:	04b00513          	li	a0,75
   1737c:	00004137          	lui	sp,0x4
   17380:	389060ef          	jal	ra,1df08 <printf_c>
   17384:	00a00513          	li	a0,10
   17388:	00004137          	lui	sp,0x4
   1738c:	37d060ef          	jal	ra,1df08 <printf_c>
   17390:	00c0006f          	j	1739c <slli>

0000000000017394 <.test_name>:
   17394:	696c6c73          	csrrsi	s8,0x696,24
   17398:	0920                	addi	s0,sp,152
	...

000000000001739c <slli>:
   1739c:	00017537          	lui	a0,0x17
   173a0:	39450513          	addi	a0,a0,916 # 17394 <.test_name>

00000000000173a4 <.prname_next>:
   173a4:	00004137          	lui	sp,0x4
   173a8:	38d060ef          	jal	ra,1df34 <printf_s>

00000000000173ac <test_2>:
   173ac:	00100093          	li	ra,1
   173b0:	00009193          	slli	gp,ra,0x0
   173b4:	00100e93          	li	t4,1
   173b8:	00200e13          	li	t3,2
   173bc:	2dd19c63          	bne	gp,t4,17694 <fail>

00000000000173c0 <test_3>:
   173c0:	00100093          	li	ra,1
   173c4:	00109193          	slli	gp,ra,0x1
   173c8:	00200e93          	li	t4,2
   173cc:	00300e13          	li	t3,3
   173d0:	2dd19263          	bne	gp,t4,17694 <fail>

00000000000173d4 <test_4>:
   173d4:	00100093          	li	ra,1
   173d8:	00709193          	slli	gp,ra,0x7
   173dc:	08000e93          	li	t4,128
   173e0:	00400e13          	li	t3,4
   173e4:	2bd19863          	bne	gp,t4,17694 <fail>

00000000000173e8 <test_5>:
   173e8:	00100093          	li	ra,1
   173ec:	00e09193          	slli	gp,ra,0xe
   173f0:	00004eb7          	lui	t4,0x4
   173f4:	00500e13          	li	t3,5
   173f8:	29d19e63          	bne	gp,t4,17694 <fail>

00000000000173fc <test_6>:
   173fc:	00100093          	li	ra,1
   17400:	01f09193          	slli	gp,ra,0x1f
   17404:	00100e9b          	addiw	t4,zero,1
   17408:	01fe9e93          	slli	t4,t4,0x1f
   1740c:	00600e13          	li	t3,6
   17410:	29d19263          	bne	gp,t4,17694 <fail>

0000000000017414 <test_7>:
   17414:	0010009b          	addiw	ra,zero,1
   17418:	02009093          	slli	ra,ra,0x20
   1741c:	fff08093          	addi	ra,ra,-1 # 21211fff <heap_memory_used+0x211efd47>
   17420:	00009193          	slli	gp,ra,0x0
   17424:	00100e9b          	addiw	t4,zero,1
   17428:	020e9e93          	slli	t4,t4,0x20
   1742c:	fffe8e93          	addi	t4,t4,-1 # 3fff <coremarkBenchmark+0x3f57>
   17430:	00700e13          	li	t3,7
   17434:	27d19063          	bne	gp,t4,17694 <fail>

0000000000017438 <test_8>:
   17438:	0010009b          	addiw	ra,zero,1
   1743c:	02009093          	slli	ra,ra,0x20
   17440:	fff08093          	addi	ra,ra,-1
   17444:	00109193          	slli	gp,ra,0x1
   17448:	00100e9b          	addiw	t4,zero,1
   1744c:	020e9e93          	slli	t4,t4,0x20
   17450:	ffee8e93          	addi	t4,t4,-2
   17454:	00800e13          	li	t3,8
   17458:	23d19e63          	bne	gp,t4,17694 <fail>

000000000001745c <test_9>:
   1745c:	0010009b          	addiw	ra,zero,1
   17460:	02009093          	slli	ra,ra,0x20
   17464:	fff08093          	addi	ra,ra,-1
   17468:	00709193          	slli	gp,ra,0x7
   1746c:	00100e9b          	addiw	t4,zero,1
   17470:	020e9e93          	slli	t4,t4,0x20
   17474:	f80e8e93          	addi	t4,t4,-128
   17478:	00900e13          	li	t3,9
   1747c:	21d19c63          	bne	gp,t4,17694 <fail>

0000000000017480 <test_10>:
   17480:	0010009b          	addiw	ra,zero,1
   17484:	02009093          	slli	ra,ra,0x20
   17488:	fff08093          	addi	ra,ra,-1
   1748c:	00e09193          	slli	gp,ra,0xe
   17490:	00040eb7          	lui	t4,0x40
   17494:	fffe8e9b          	addiw	t4,t4,-1
   17498:	00ee9e93          	slli	t4,t4,0xe
   1749c:	00a00e13          	li	t3,10
   174a0:	1fd19a63          	bne	gp,t4,17694 <fail>

00000000000174a4 <test_11>:
   174a4:	0010009b          	addiw	ra,zero,1
   174a8:	02009093          	slli	ra,ra,0x20
   174ac:	fff08093          	addi	ra,ra,-1
   174b0:	01f09193          	slli	gp,ra,0x1f
   174b4:	00100e9b          	addiw	t4,zero,1
   174b8:	01fe9e93          	slli	t4,t4,0x1f
   174bc:	00b00e13          	li	t3,11
   174c0:	1dd19a63          	bne	gp,t4,17694 <fail>

00000000000174c4 <test_12>:
   174c4:	212120b7          	lui	ra,0x21212
   174c8:	1210809b          	addiw	ra,ra,289
   174cc:	00009193          	slli	gp,ra,0x0
   174d0:	21212eb7          	lui	t4,0x21212
   174d4:	121e8e9b          	addiw	t4,t4,289
   174d8:	00c00e13          	li	t3,12
   174dc:	1bd19c63          	bne	gp,t4,17694 <fail>

00000000000174e0 <test_13>:
   174e0:	212120b7          	lui	ra,0x21212
   174e4:	1210809b          	addiw	ra,ra,289
   174e8:	00109193          	slli	gp,ra,0x1
   174ec:	42424eb7          	lui	t4,0x42424
   174f0:	242e8e9b          	addiw	t4,t4,578
   174f4:	00d00e13          	li	t3,13
   174f8:	19d19e63          	bne	gp,t4,17694 <fail>

00000000000174fc <test_14>:
   174fc:	212120b7          	lui	ra,0x21212
   17500:	1210809b          	addiw	ra,ra,289
   17504:	00709193          	slli	gp,ra,0x7
   17508:	00091eb7          	lui	t4,0x91
   1750c:	909e8e9b          	addiw	t4,t4,-1783
   17510:	00ce9e93          	slli	t4,t4,0xc
   17514:	080e8e93          	addi	t4,t4,128 # 91080 <heap_memory_used+0x6edc8>
   17518:	00e00e13          	li	t3,14
   1751c:	17d19c63          	bne	gp,t4,17694 <fail>

0000000000017520 <test_15>:
   17520:	212120b7          	lui	ra,0x21212
   17524:	1210809b          	addiw	ra,ra,289
   17528:	00e09193          	slli	gp,ra,0xe
   1752c:	48484eb7          	lui	t4,0x48484
   17530:	00f00e13          	li	t3,15
   17534:	17d19063          	bne	gp,t4,17694 <fail>

0000000000017538 <test_16>:
   17538:	212120b7          	lui	ra,0x21212
   1753c:	1210809b          	addiw	ra,ra,289
   17540:	01f09193          	slli	gp,ra,0x1f
   17544:	00100e9b          	addiw	t4,zero,1
   17548:	01fe9e93          	slli	t4,t4,0x1f
   1754c:	01000e13          	li	t3,16
   17550:	15d19263          	bne	gp,t4,17694 <fail>

0000000000017554 <test_17>:
   17554:	00100093          	li	ra,1
   17558:	00709093          	slli	ra,ra,0x7
   1755c:	08000e93          	li	t4,128
   17560:	01100e13          	li	t3,17
   17564:	13d09863          	bne	ra,t4,17694 <fail>

0000000000017568 <test_18>:
   17568:	00000213          	li	tp,0
   1756c:	00100093          	li	ra,1
   17570:	00709193          	slli	gp,ra,0x7
   17574:	00018313          	mv	t1,gp
   17578:	00120213          	addi	tp,tp,1 # 1 <_start+0x1>
   1757c:	00200293          	li	t0,2
   17580:	fe5216e3          	bne	tp,t0,1756c <test_18+0x4>
   17584:	08000e93          	li	t4,128
   17588:	01200e13          	li	t3,18
   1758c:	11d31463          	bne	t1,t4,17694 <fail>

0000000000017590 <test_19>:
   17590:	00000213          	li	tp,0
   17594:	00100093          	li	ra,1
   17598:	00e09193          	slli	gp,ra,0xe
   1759c:	00000013          	nop
   175a0:	00018313          	mv	t1,gp
   175a4:	00120213          	addi	tp,tp,1 # 1 <_start+0x1>
   175a8:	00200293          	li	t0,2
   175ac:	fe5214e3          	bne	tp,t0,17594 <test_19+0x4>
   175b0:	00004eb7          	lui	t4,0x4
   175b4:	01300e13          	li	t3,19
   175b8:	0dd31e63          	bne	t1,t4,17694 <fail>

00000000000175bc <test_20>:
   175bc:	00000213          	li	tp,0
   175c0:	00100093          	li	ra,1
   175c4:	01f09193          	slli	gp,ra,0x1f
   175c8:	00000013          	nop
   175cc:	00000013          	nop
   175d0:	00018313          	mv	t1,gp
   175d4:	00120213          	addi	tp,tp,1 # 1 <_start+0x1>
   175d8:	00200293          	li	t0,2
   175dc:	fe5212e3          	bne	tp,t0,175c0 <test_20+0x4>
   175e0:	00100e9b          	addiw	t4,zero,1
   175e4:	01fe9e93          	slli	t4,t4,0x1f
   175e8:	01400e13          	li	t3,20
   175ec:	0bd31463          	bne	t1,t4,17694 <fail>

00000000000175f0 <test_21>:
   175f0:	00000213          	li	tp,0
   175f4:	00100093          	li	ra,1
   175f8:	00709193          	slli	gp,ra,0x7
   175fc:	00120213          	addi	tp,tp,1 # 1 <_start+0x1>
   17600:	00200293          	li	t0,2
   17604:	fe5218e3          	bne	tp,t0,175f4 <test_21+0x4>
   17608:	08000e93          	li	t4,128
   1760c:	01500e13          	li	t3,21
   17610:	09d19263          	bne	gp,t4,17694 <fail>

0000000000017614 <test_22>:
   17614:	00000213          	li	tp,0
   17618:	00100093          	li	ra,1
   1761c:	00000013          	nop
   17620:	00e09193          	slli	gp,ra,0xe
   17624:	00120213          	addi	tp,tp,1 # 1 <_start+0x1>
   17628:	00200293          	li	t0,2
   1762c:	fe5216e3          	bne	tp,t0,17618 <test_22+0x4>
   17630:	00004eb7          	lui	t4,0x4
   17634:	01600e13          	li	t3,22
   17638:	05d19e63          	bne	gp,t4,17694 <fail>

000000000001763c <test_23>:
   1763c:	00000213          	li	tp,0
   17640:	00100093          	li	ra,1
   17644:	00000013          	nop
   17648:	00000013          	nop
   1764c:	01f09193          	slli	gp,ra,0x1f
   17650:	00120213          	addi	tp,tp,1 # 1 <_start+0x1>
   17654:	00200293          	li	t0,2
   17658:	fe5214e3          	bne	tp,t0,17640 <test_23+0x4>
   1765c:	00100e9b          	addiw	t4,zero,1
   17660:	01fe9e93          	slli	t4,t4,0x1f
   17664:	01700e13          	li	t3,23
   17668:	03d19663          	bne	gp,t4,17694 <fail>

000000000001766c <test_24>:
   1766c:	01f01093          	slli	ra,zero,0x1f
   17670:	00000e93          	li	t4,0
   17674:	01800e13          	li	t3,24
   17678:	01d09e63          	bne	ra,t4,17694 <fail>

000000000001767c <test_25>:
   1767c:	02100093          	li	ra,33
   17680:	01409013          	slli	zero,ra,0x14
   17684:	00000e93          	li	t4,0
   17688:	01900e13          	li	t3,25
   1768c:	01d01463          	bne	zero,t4,17694 <fail>
   17690:	05c01863          	bne	zero,t3,176e0 <pass>

0000000000017694 <fail>:
   17694:	04500513          	li	a0,69
   17698:	00004137          	lui	sp,0x4
   1769c:	06d060ef          	jal	ra,1df08 <printf_c>
   176a0:	05200513          	li	a0,82
   176a4:	00004137          	lui	sp,0x4
   176a8:	061060ef          	jal	ra,1df08 <printf_c>
   176ac:	00004137          	lui	sp,0x4
   176b0:	059060ef          	jal	ra,1df08 <printf_c>
   176b4:	04f00513          	li	a0,79
   176b8:	00004137          	lui	sp,0x4
   176bc:	04d060ef          	jal	ra,1df08 <printf_c>
   176c0:	00004137          	lui	sp,0x4
   176c4:	05200513          	li	a0,82
   176c8:	00004137          	lui	sp,0x4
   176cc:	03d060ef          	jal	ra,1df08 <printf_c>
   176d0:	00a00513          	li	a0,10
   176d4:	00004137          	lui	sp,0x4
   176d8:	031060ef          	jal	ra,1df08 <printf_c>
   176dc:	0340006f          	j	17710 <slt>

00000000000176e0 <pass>:
   176e0:	04f00513          	li	a0,79
   176e4:	00004137          	lui	sp,0x4
   176e8:	021060ef          	jal	ra,1df08 <printf_c>
   176ec:	04b00513          	li	a0,75
   176f0:	00004137          	lui	sp,0x4
   176f4:	015060ef          	jal	ra,1df08 <printf_c>
   176f8:	00a00513          	li	a0,10
   176fc:	00004137          	lui	sp,0x4
   17700:	009060ef          	jal	ra,1df08 <printf_c>
   17704:	00c0006f          	j	17710 <slt>

0000000000017708 <.test_name>:
   17708:	20746c73          	csrrsi	s8,0x207,8
   1770c:	0009                	c.addi	zero,2
	...

0000000000017710 <slt>:
   17710:	00017537          	lui	a0,0x17
   17714:	70850513          	addi	a0,a0,1800 # 17708 <.test_name>

0000000000017718 <.prname_next>:
   17718:	00004137          	lui	sp,0x4
   1771c:	019060ef          	jal	ra,1df34 <printf_s>

0000000000017720 <test_2>:
   17720:	00000093          	li	ra,0
   17724:	00000113          	li	sp,0
   17728:	0020a1b3          	slt	gp,ra,sp
   1772c:	00000e93          	li	t4,0
   17730:	00200e13          	li	t3,2
   17734:	4fd19c63          	bne	gp,t4,17c2c <fail>

0000000000017738 <test_3>:
   17738:	00100093          	li	ra,1
   1773c:	00100113          	li	sp,1
   17740:	0020a1b3          	slt	gp,ra,sp
   17744:	00000e93          	li	t4,0
   17748:	00300e13          	li	t3,3
   1774c:	4fd19063          	bne	gp,t4,17c2c <fail>

0000000000017750 <test_4>:
   17750:	00300093          	li	ra,3
   17754:	00700113          	li	sp,7
   17758:	0020a1b3          	slt	gp,ra,sp
   1775c:	00100e93          	li	t4,1
   17760:	00400e13          	li	t3,4
   17764:	4dd19463          	bne	gp,t4,17c2c <fail>

0000000000017768 <test_5>:
   17768:	00700093          	li	ra,7
   1776c:	00300113          	li	sp,3
   17770:	0020a1b3          	slt	gp,ra,sp
   17774:	00000e93          	li	t4,0
   17778:	00500e13          	li	t3,5
   1777c:	4bd19863          	bne	gp,t4,17c2c <fail>

0000000000017780 <test_6>:
   17780:	00000093          	li	ra,0
   17784:	00020137          	lui	sp,0x20
   17788:	fff1011b          	addiw	sp,sp,-1
   1778c:	00f11113          	slli	sp,sp,0xf
   17790:	0020a1b3          	slt	gp,ra,sp
   17794:	00000e93          	li	t4,0
   17798:	00600e13          	li	t3,6
   1779c:	49d19863          	bne	gp,t4,17c2c <fail>

00000000000177a0 <test_7>:
   177a0:	0010009b          	addiw	ra,zero,1
   177a4:	01f09093          	slli	ra,ra,0x1f
   177a8:	00000113          	li	sp,0
   177ac:	0020a1b3          	slt	gp,ra,sp
   177b0:	00100e93          	li	t4,1
   177b4:	00700e13          	li	t3,7
   177b8:	47d19a63          	bne	gp,t4,17c2c <fail>

00000000000177bc <test_8>:
   177bc:	0010009b          	addiw	ra,zero,1
   177c0:	01f09093          	slli	ra,ra,0x1f
   177c4:	00020137          	lui	sp,0x20
   177c8:	fff1011b          	addiw	sp,sp,-1
   177cc:	00f11113          	slli	sp,sp,0xf
   177d0:	0020a1b3          	slt	gp,ra,sp
   177d4:	00100e93          	li	t4,1
   177d8:	00800e13          	li	t3,8
   177dc:	45d19863          	bne	gp,t4,17c2c <fail>

00000000000177e0 <test_9>:
   177e0:	00000093          	li	ra,0
   177e4:	00008137          	lui	sp,0x8
   177e8:	fff1011b          	addiw	sp,sp,-1
   177ec:	0020a1b3          	slt	gp,ra,sp
   177f0:	00100e93          	li	t4,1
   177f4:	00900e13          	li	t3,9
   177f8:	43d19a63          	bne	gp,t4,17c2c <fail>

00000000000177fc <test_10>:
   177fc:	800000b7          	lui	ra,0x80000
   17800:	fff0809b          	addiw	ra,ra,-1
   17804:	00000113          	li	sp,0
   17808:	0020a1b3          	slt	gp,ra,sp
   1780c:	00000e93          	li	t4,0
   17810:	00a00e13          	li	t3,10
   17814:	41d19c63          	bne	gp,t4,17c2c <fail>

0000000000017818 <test_11>:
   17818:	800000b7          	lui	ra,0x80000
   1781c:	fff0809b          	addiw	ra,ra,-1
   17820:	00008137          	lui	sp,0x8
   17824:	fff1011b          	addiw	sp,sp,-1
   17828:	0020a1b3          	slt	gp,ra,sp
   1782c:	00000e93          	li	t4,0
   17830:	00b00e13          	li	t3,11
   17834:	3fd19c63          	bne	gp,t4,17c2c <fail>

0000000000017838 <test_12>:
   17838:	0010009b          	addiw	ra,zero,1
   1783c:	01f09093          	slli	ra,ra,0x1f
   17840:	00008137          	lui	sp,0x8
   17844:	fff1011b          	addiw	sp,sp,-1
   17848:	0020a1b3          	slt	gp,ra,sp
   1784c:	00100e93          	li	t4,1
   17850:	00c00e13          	li	t3,12
   17854:	3dd19c63          	bne	gp,t4,17c2c <fail>

0000000000017858 <test_13>:
   17858:	800000b7          	lui	ra,0x80000
   1785c:	fff0809b          	addiw	ra,ra,-1
   17860:	00020137          	lui	sp,0x20
   17864:	fff1011b          	addiw	sp,sp,-1
   17868:	00f11113          	slli	sp,sp,0xf
   1786c:	0020a1b3          	slt	gp,ra,sp
   17870:	00000e93          	li	t4,0
   17874:	00d00e13          	li	t3,13
   17878:	3bd19a63          	bne	gp,t4,17c2c <fail>

000000000001787c <test_14>:
   1787c:	00000093          	li	ra,0
   17880:	0010011b          	addiw	sp,zero,1
   17884:	02011113          	slli	sp,sp,0x20
   17888:	fff10113          	addi	sp,sp,-1 # 1ffff <Arr_2_Glob+0x97f>
   1788c:	0020a1b3          	slt	gp,ra,sp
   17890:	00000e93          	li	t4,0
   17894:	00e00e13          	li	t3,14
   17898:	39d19a63          	bne	gp,t4,17c2c <fail>

000000000001789c <test_15>:
   1789c:	0010009b          	addiw	ra,zero,1
   178a0:	02009093          	slli	ra,ra,0x20
   178a4:	fff08093          	addi	ra,ra,-1 # ffffffff7fffffff <heap_memory_used+0xffffffff7ffddd47>
   178a8:	00100113          	li	sp,1
   178ac:	0020a1b3          	slt	gp,ra,sp
   178b0:	00100e93          	li	t4,1
   178b4:	00f00e13          	li	t3,15
   178b8:	37d19a63          	bne	gp,t4,17c2c <fail>

00000000000178bc <test_16>:
   178bc:	0010009b          	addiw	ra,zero,1
   178c0:	02009093          	slli	ra,ra,0x20
   178c4:	fff08093          	addi	ra,ra,-1
   178c8:	0010011b          	addiw	sp,zero,1
   178cc:	02011113          	slli	sp,sp,0x20
   178d0:	fff10113          	addi	sp,sp,-1
   178d4:	0020a1b3          	slt	gp,ra,sp
   178d8:	00000e93          	li	t4,0
   178dc:	01000e13          	li	t3,16
   178e0:	35d19663          	bne	gp,t4,17c2c <fail>

00000000000178e4 <test_17>:
   178e4:	00e00093          	li	ra,14
   178e8:	00d00113          	li	sp,13
   178ec:	0020a0b3          	slt	ra,ra,sp
   178f0:	00000e93          	li	t4,0
   178f4:	01100e13          	li	t3,17
   178f8:	33d09a63          	bne	ra,t4,17c2c <fail>

00000000000178fc <test_18>:
   178fc:	00b00093          	li	ra,11
   17900:	00d00113          	li	sp,13
   17904:	0020a133          	slt	sp,ra,sp
   17908:	00100e93          	li	t4,1
   1790c:	01200e13          	li	t3,18
   17910:	31d11e63          	bne	sp,t4,17c2c <fail>

0000000000017914 <test_19>:
   17914:	00d00093          	li	ra,13
   17918:	0010a0b3          	slt	ra,ra,ra
   1791c:	00000e93          	li	t4,0
   17920:	01300e13          	li	t3,19
   17924:	31d09463          	bne	ra,t4,17c2c <fail>

0000000000017928 <test_20>:
   17928:	00000213          	li	tp,0
   1792c:	00b00093          	li	ra,11
   17930:	00d00113          	li	sp,13
   17934:	0020a1b3          	slt	gp,ra,sp
   17938:	00018313          	mv	t1,gp
   1793c:	00120213          	addi	tp,tp,1 # 1 <_start+0x1>
   17940:	00200293          	li	t0,2
   17944:	fe5214e3          	bne	tp,t0,1792c <test_20+0x4>
   17948:	00100e93          	li	t4,1
   1794c:	01400e13          	li	t3,20
   17950:	2dd31e63          	bne	t1,t4,17c2c <fail>

0000000000017954 <test_21>:
   17954:	00000213          	li	tp,0
   17958:	00e00093          	li	ra,14
   1795c:	00d00113          	li	sp,13
   17960:	0020a1b3          	slt	gp,ra,sp
   17964:	00000013          	nop
   17968:	00018313          	mv	t1,gp
   1796c:	00120213          	addi	tp,tp,1 # 1 <_start+0x1>
   17970:	00200293          	li	t0,2
   17974:	fe5212e3          	bne	tp,t0,17958 <test_21+0x4>
   17978:	00000e93          	li	t4,0
   1797c:	01500e13          	li	t3,21
   17980:	2bd31663          	bne	t1,t4,17c2c <fail>

0000000000017984 <test_22>:
   17984:	00000213          	li	tp,0
   17988:	00c00093          	li	ra,12
   1798c:	00d00113          	li	sp,13
   17990:	0020a1b3          	slt	gp,ra,sp
   17994:	00000013          	nop
   17998:	00000013          	nop
   1799c:	00018313          	mv	t1,gp
   179a0:	00120213          	addi	tp,tp,1 # 1 <_start+0x1>
   179a4:	00200293          	li	t0,2
   179a8:	fe5210e3          	bne	tp,t0,17988 <test_22+0x4>
   179ac:	00100e93          	li	t4,1
   179b0:	01600e13          	li	t3,22
   179b4:	27d31c63          	bne	t1,t4,17c2c <fail>

00000000000179b8 <test_23>:
   179b8:	00000213          	li	tp,0
   179bc:	00e00093          	li	ra,14
   179c0:	00d00113          	li	sp,13
   179c4:	0020a1b3          	slt	gp,ra,sp
   179c8:	00120213          	addi	tp,tp,1 # 1 <_start+0x1>
   179cc:	00200293          	li	t0,2
   179d0:	fe5216e3          	bne	tp,t0,179bc <test_23+0x4>
   179d4:	00000e93          	li	t4,0
   179d8:	01700e13          	li	t3,23
   179dc:	25d19863          	bne	gp,t4,17c2c <fail>

00000000000179e0 <test_24>:
   179e0:	00000213          	li	tp,0
   179e4:	00b00093          	li	ra,11
   179e8:	00d00113          	li	sp,13
   179ec:	00000013          	nop
   179f0:	0020a1b3          	slt	gp,ra,sp
   179f4:	00120213          	addi	tp,tp,1 # 1 <_start+0x1>
   179f8:	00200293          	li	t0,2
   179fc:	fe5214e3          	bne	tp,t0,179e4 <test_24+0x4>
   17a00:	00100e93          	li	t4,1
   17a04:	01800e13          	li	t3,24
   17a08:	23d19263          	bne	gp,t4,17c2c <fail>

0000000000017a0c <test_25>:
   17a0c:	00000213          	li	tp,0
   17a10:	00f00093          	li	ra,15
   17a14:	00d00113          	li	sp,13
   17a18:	00000013          	nop
   17a1c:	00000013          	nop
   17a20:	0020a1b3          	slt	gp,ra,sp
   17a24:	00120213          	addi	tp,tp,1 # 1 <_start+0x1>
   17a28:	00200293          	li	t0,2
   17a2c:	fe5212e3          	bne	tp,t0,17a10 <test_25+0x4>
   17a30:	00000e93          	li	t4,0
   17a34:	01900e13          	li	t3,25
   17a38:	1fd19a63          	bne	gp,t4,17c2c <fail>

0000000000017a3c <test_26>:
   17a3c:	00000213          	li	tp,0
   17a40:	00a00093          	li	ra,10
   17a44:	00000013          	nop
   17a48:	00d00113          	li	sp,13
   17a4c:	0020a1b3          	slt	gp,ra,sp
   17a50:	00120213          	addi	tp,tp,1 # 1 <_start+0x1>
   17a54:	00200293          	li	t0,2
   17a58:	fe5214e3          	bne	tp,t0,17a40 <test_26+0x4>
   17a5c:	00100e93          	li	t4,1
   17a60:	01a00e13          	li	t3,26
   17a64:	1dd19463          	bne	gp,t4,17c2c <fail>

0000000000017a68 <test_27>:
   17a68:	00000213          	li	tp,0
   17a6c:	01000093          	li	ra,16
   17a70:	00000013          	nop
   17a74:	00d00113          	li	sp,13
   17a78:	00000013          	nop
   17a7c:	0020a1b3          	slt	gp,ra,sp
   17a80:	00120213          	addi	tp,tp,1 # 1 <_start+0x1>
   17a84:	00200293          	li	t0,2
   17a88:	fe5212e3          	bne	tp,t0,17a6c <test_27+0x4>
   17a8c:	00000e93          	li	t4,0
   17a90:	01b00e13          	li	t3,27
   17a94:	19d19c63          	bne	gp,t4,17c2c <fail>

0000000000017a98 <test_28>:
   17a98:	00000213          	li	tp,0
   17a9c:	00900093          	li	ra,9
   17aa0:	00000013          	nop
   17aa4:	00000013          	nop
   17aa8:	00d00113          	li	sp,13
   17aac:	0020a1b3          	slt	gp,ra,sp
   17ab0:	00120213          	addi	tp,tp,1 # 1 <_start+0x1>
   17ab4:	00200293          	li	t0,2
   17ab8:	fe5212e3          	bne	tp,t0,17a9c <test_28+0x4>
   17abc:	00100e93          	li	t4,1
   17ac0:	01c00e13          	li	t3,28
   17ac4:	17d19463          	bne	gp,t4,17c2c <fail>

0000000000017ac8 <test_29>:
   17ac8:	00000213          	li	tp,0
   17acc:	00d00113          	li	sp,13
   17ad0:	01100093          	li	ra,17
   17ad4:	0020a1b3          	slt	gp,ra,sp
   17ad8:	00120213          	addi	tp,tp,1 # 1 <_start+0x1>
   17adc:	00200293          	li	t0,2
   17ae0:	fe5216e3          	bne	tp,t0,17acc <test_29+0x4>
   17ae4:	00000e93          	li	t4,0
   17ae8:	01d00e13          	li	t3,29
   17aec:	15d19063          	bne	gp,t4,17c2c <fail>

0000000000017af0 <test_30>:
   17af0:	00000213          	li	tp,0
   17af4:	00d00113          	li	sp,13
   17af8:	00800093          	li	ra,8
   17afc:	00000013          	nop
   17b00:	0020a1b3          	slt	gp,ra,sp
   17b04:	00120213          	addi	tp,tp,1 # 1 <_start+0x1>
   17b08:	00200293          	li	t0,2
   17b0c:	fe5214e3          	bne	tp,t0,17af4 <test_30+0x4>
   17b10:	00100e93          	li	t4,1
   17b14:	01e00e13          	li	t3,30
   17b18:	11d19a63          	bne	gp,t4,17c2c <fail>

0000000000017b1c <test_31>:
   17b1c:	00000213          	li	tp,0
   17b20:	00d00113          	li	sp,13
   17b24:	01200093          	li	ra,18
   17b28:	00000013          	nop
   17b2c:	00000013          	nop
   17b30:	0020a1b3          	slt	gp,ra,sp
   17b34:	00120213          	addi	tp,tp,1 # 1 <_start+0x1>
   17b38:	00200293          	li	t0,2
   17b3c:	fe5212e3          	bne	tp,t0,17b20 <test_31+0x4>
   17b40:	00000e93          	li	t4,0
   17b44:	01f00e13          	li	t3,31
   17b48:	0fd19263          	bne	gp,t4,17c2c <fail>

0000000000017b4c <test_32>:
   17b4c:	00000213          	li	tp,0
   17b50:	00d00113          	li	sp,13
   17b54:	00000013          	nop
   17b58:	00700093          	li	ra,7
   17b5c:	0020a1b3          	slt	gp,ra,sp
   17b60:	00120213          	addi	tp,tp,1 # 1 <_start+0x1>
   17b64:	00200293          	li	t0,2
   17b68:	fe5214e3          	bne	tp,t0,17b50 <test_32+0x4>
   17b6c:	00100e93          	li	t4,1
   17b70:	02000e13          	li	t3,32
   17b74:	0bd19c63          	bne	gp,t4,17c2c <fail>

0000000000017b78 <test_33>:
   17b78:	00000213          	li	tp,0
   17b7c:	00d00113          	li	sp,13
   17b80:	00000013          	nop
   17b84:	01300093          	li	ra,19
   17b88:	00000013          	nop
   17b8c:	0020a1b3          	slt	gp,ra,sp
   17b90:	00120213          	addi	tp,tp,1 # 1 <_start+0x1>
   17b94:	00200293          	li	t0,2
   17b98:	fe5212e3          	bne	tp,t0,17b7c <test_33+0x4>
   17b9c:	00000e93          	li	t4,0
   17ba0:	02100e13          	li	t3,33
   17ba4:	09d19463          	bne	gp,t4,17c2c <fail>

0000000000017ba8 <test_34>:
   17ba8:	00000213          	li	tp,0
   17bac:	00d00113          	li	sp,13
   17bb0:	00000013          	nop
   17bb4:	00000013          	nop
   17bb8:	00600093          	li	ra,6
   17bbc:	0020a1b3          	slt	gp,ra,sp
   17bc0:	00120213          	addi	tp,tp,1 # 1 <_start+0x1>
   17bc4:	00200293          	li	t0,2
   17bc8:	fe5212e3          	bne	tp,t0,17bac <test_34+0x4>
   17bcc:	00100e93          	li	t4,1
   17bd0:	02200e13          	li	t3,34
   17bd4:	05d19c63          	bne	gp,t4,17c2c <fail>

0000000000017bd8 <test_35>:
   17bd8:	fff00093          	li	ra,-1
   17bdc:	00102133          	sgtz	sp,ra
   17be0:	00000e93          	li	t4,0
   17be4:	02300e13          	li	t3,35
   17be8:	05d11263          	bne	sp,t4,17c2c <fail>

0000000000017bec <test_36>:
   17bec:	fff00093          	li	ra,-1
   17bf0:	0000a133          	sltz	sp,ra
   17bf4:	00100e93          	li	t4,1
   17bf8:	02400e13          	li	t3,36
   17bfc:	03d11863          	bne	sp,t4,17c2c <fail>

0000000000017c00 <test_37>:
   17c00:	000020b3          	sltz	ra,zero
   17c04:	00000e93          	li	t4,0
   17c08:	02500e13          	li	t3,37
   17c0c:	03d09063          	bne	ra,t4,17c2c <fail>

0000000000017c10 <test_38>:
   17c10:	01000093          	li	ra,16
   17c14:	01e00113          	li	sp,30
   17c18:	0020a033          	slt	zero,ra,sp
   17c1c:	00000e93          	li	t4,0
   17c20:	02600e13          	li	t3,38
   17c24:	01d01463          	bne	zero,t4,17c2c <fail>
   17c28:	05c01863          	bne	zero,t3,17c78 <pass>

0000000000017c2c <fail>:
   17c2c:	04500513          	li	a0,69
   17c30:	00004137          	lui	sp,0x4
   17c34:	2d4060ef          	jal	ra,1df08 <printf_c>
   17c38:	05200513          	li	a0,82
   17c3c:	00004137          	lui	sp,0x4
   17c40:	2c8060ef          	jal	ra,1df08 <printf_c>
   17c44:	00004137          	lui	sp,0x4
   17c48:	2c0060ef          	jal	ra,1df08 <printf_c>
   17c4c:	04f00513          	li	a0,79
   17c50:	00004137          	lui	sp,0x4
   17c54:	2b4060ef          	jal	ra,1df08 <printf_c>
   17c58:	00004137          	lui	sp,0x4
   17c5c:	05200513          	li	a0,82
   17c60:	00004137          	lui	sp,0x4
   17c64:	2a4060ef          	jal	ra,1df08 <printf_c>
   17c68:	00a00513          	li	a0,10
   17c6c:	00004137          	lui	sp,0x4
   17c70:	298060ef          	jal	ra,1df08 <printf_c>
   17c74:	0340006f          	j	17ca8 <slti>

0000000000017c78 <pass>:
   17c78:	04f00513          	li	a0,79
   17c7c:	00004137          	lui	sp,0x4
   17c80:	288060ef          	jal	ra,1df08 <printf_c>
   17c84:	04b00513          	li	a0,75
   17c88:	00004137          	lui	sp,0x4
   17c8c:	27c060ef          	jal	ra,1df08 <printf_c>
   17c90:	00a00513          	li	a0,10
   17c94:	00004137          	lui	sp,0x4
   17c98:	270060ef          	jal	ra,1df08 <printf_c>
   17c9c:	00c0006f          	j	17ca8 <slti>

0000000000017ca0 <.test_name>:
   17ca0:	69746c73          	csrrsi	s8,0x697,8
   17ca4:	0920                	addi	s0,sp,152
	...

0000000000017ca8 <slti>:
   17ca8:	00018537          	lui	a0,0x18
   17cac:	ca050513          	addi	a0,a0,-864 # 17ca0 <.test_name>

0000000000017cb0 <.prname_next>:
   17cb0:	00004137          	lui	sp,0x4
   17cb4:	280060ef          	jal	ra,1df34 <printf_s>

0000000000017cb8 <test_2>:
   17cb8:	00000093          	li	ra,0
   17cbc:	0000a193          	slti	gp,ra,0
   17cc0:	00000e93          	li	t4,0
   17cc4:	00200e13          	li	t3,2
   17cc8:	29d19063          	bne	gp,t4,17f48 <fail>

0000000000017ccc <test_3>:
   17ccc:	00100093          	li	ra,1
   17cd0:	0010a193          	slti	gp,ra,1
   17cd4:	00000e93          	li	t4,0
   17cd8:	00300e13          	li	t3,3
   17cdc:	27d19663          	bne	gp,t4,17f48 <fail>

0000000000017ce0 <test_4>:
   17ce0:	00300093          	li	ra,3
   17ce4:	0070a193          	slti	gp,ra,7
   17ce8:	00100e93          	li	t4,1
   17cec:	00400e13          	li	t3,4
   17cf0:	25d19c63          	bne	gp,t4,17f48 <fail>

0000000000017cf4 <test_5>:
   17cf4:	00700093          	li	ra,7
   17cf8:	0030a193          	slti	gp,ra,3
   17cfc:	00000e93          	li	t4,0
   17d00:	00500e13          	li	t3,5
   17d04:	25d19263          	bne	gp,t4,17f48 <fail>

0000000000017d08 <test_6>:
   17d08:	00000093          	li	ra,0
   17d0c:	8000a193          	slti	gp,ra,-2048
   17d10:	00000e93          	li	t4,0
   17d14:	00600e13          	li	t3,6
   17d18:	23d19863          	bne	gp,t4,17f48 <fail>

0000000000017d1c <test_7>:
   17d1c:	0010009b          	addiw	ra,zero,1
   17d20:	01f09093          	slli	ra,ra,0x1f
   17d24:	0000a193          	slti	gp,ra,0
   17d28:	00100e93          	li	t4,1
   17d2c:	00700e13          	li	t3,7
   17d30:	21d19c63          	bne	gp,t4,17f48 <fail>

0000000000017d34 <test_8>:
   17d34:	0010009b          	addiw	ra,zero,1
   17d38:	01f09093          	slli	ra,ra,0x1f
   17d3c:	8000a193          	slti	gp,ra,-2048
   17d40:	00100e93          	li	t4,1
   17d44:	00800e13          	li	t3,8
   17d48:	21d19063          	bne	gp,t4,17f48 <fail>

0000000000017d4c <test_9>:
   17d4c:	00000093          	li	ra,0
   17d50:	7ff0a193          	slti	gp,ra,2047
   17d54:	00100e93          	li	t4,1
   17d58:	00900e13          	li	t3,9
   17d5c:	1fd19663          	bne	gp,t4,17f48 <fail>

0000000000017d60 <test_10>:
   17d60:	800000b7          	lui	ra,0x80000
   17d64:	fff0809b          	addiw	ra,ra,-1
   17d68:	0000a193          	slti	gp,ra,0
   17d6c:	00000e93          	li	t4,0
   17d70:	00a00e13          	li	t3,10
   17d74:	1dd19a63          	bne	gp,t4,17f48 <fail>

0000000000017d78 <test_11>:
   17d78:	800000b7          	lui	ra,0x80000
   17d7c:	fff0809b          	addiw	ra,ra,-1
   17d80:	7ff0a193          	slti	gp,ra,2047
   17d84:	00000e93          	li	t4,0
   17d88:	00b00e13          	li	t3,11
   17d8c:	1bd19e63          	bne	gp,t4,17f48 <fail>

0000000000017d90 <test_12>:
   17d90:	0010009b          	addiw	ra,zero,1
   17d94:	01f09093          	slli	ra,ra,0x1f
   17d98:	7ff0a193          	slti	gp,ra,2047
   17d9c:	00100e93          	li	t4,1
   17da0:	00c00e13          	li	t3,12
   17da4:	1bd19263          	bne	gp,t4,17f48 <fail>

0000000000017da8 <test_13>:
   17da8:	800000b7          	lui	ra,0x80000
   17dac:	fff0809b          	addiw	ra,ra,-1
   17db0:	8000a193          	slti	gp,ra,-2048
   17db4:	00000e93          	li	t4,0
   17db8:	00d00e13          	li	t3,13
   17dbc:	19d19663          	bne	gp,t4,17f48 <fail>

0000000000017dc0 <test_14>:
   17dc0:	00000093          	li	ra,0
   17dc4:	fff0a193          	slti	gp,ra,-1
   17dc8:	00000e93          	li	t4,0
   17dcc:	00e00e13          	li	t3,14
   17dd0:	17d19c63          	bne	gp,t4,17f48 <fail>

0000000000017dd4 <test_15>:
   17dd4:	0010009b          	addiw	ra,zero,1
   17dd8:	02009093          	slli	ra,ra,0x20
   17ddc:	fff08093          	addi	ra,ra,-1 # ffffffff7fffffff <heap_memory_used+0xffffffff7ffddd47>
   17de0:	0010a193          	slti	gp,ra,1
   17de4:	00100e93          	li	t4,1
   17de8:	00f00e13          	li	t3,15
   17dec:	15d19e63          	bne	gp,t4,17f48 <fail>

0000000000017df0 <test_16>:
   17df0:	0010009b          	addiw	ra,zero,1
   17df4:	02009093          	slli	ra,ra,0x20
   17df8:	fff08093          	addi	ra,ra,-1
   17dfc:	fff0a193          	slti	gp,ra,-1
   17e00:	00000e93          	li	t4,0
   17e04:	01000e13          	li	t3,16
   17e08:	15d19063          	bne	gp,t4,17f48 <fail>

0000000000017e0c <test_17>:
   17e0c:	00b00093          	li	ra,11
   17e10:	00d0b093          	sltiu	ra,ra,13
   17e14:	00100e93          	li	t4,1
   17e18:	01100e13          	li	t3,17
   17e1c:	13d09663          	bne	ra,t4,17f48 <fail>

0000000000017e20 <test_18>:
   17e20:	00000213          	li	tp,0
   17e24:	00f00093          	li	ra,15
   17e28:	00a0a193          	slti	gp,ra,10
   17e2c:	00018313          	mv	t1,gp
   17e30:	00120213          	addi	tp,tp,1 # 1 <_start+0x1>
   17e34:	00200293          	li	t0,2
   17e38:	fe5216e3          	bne	tp,t0,17e24 <test_18+0x4>
   17e3c:	00000e93          	li	t4,0
   17e40:	01200e13          	li	t3,18
   17e44:	11d31263          	bne	t1,t4,17f48 <fail>

0000000000017e48 <test_19>:
   17e48:	00000213          	li	tp,0
   17e4c:	00a00093          	li	ra,10
   17e50:	0100a193          	slti	gp,ra,16
   17e54:	00000013          	nop
   17e58:	00018313          	mv	t1,gp
   17e5c:	00120213          	addi	tp,tp,1 # 1 <_start+0x1>
   17e60:	00200293          	li	t0,2
   17e64:	fe5214e3          	bne	tp,t0,17e4c <test_19+0x4>
   17e68:	00100e93          	li	t4,1
   17e6c:	01300e13          	li	t3,19
   17e70:	0dd31c63          	bne	t1,t4,17f48 <fail>

0000000000017e74 <test_20>:
   17e74:	00000213          	li	tp,0
   17e78:	01000093          	li	ra,16
   17e7c:	0090a193          	slti	gp,ra,9
   17e80:	00000013          	nop
   17e84:	00000013          	nop
   17e88:	00018313          	mv	t1,gp
   17e8c:	00120213          	addi	tp,tp,1 # 1 <_start+0x1>
   17e90:	00200293          	li	t0,2
   17e94:	fe5212e3          	bne	tp,t0,17e78 <test_20+0x4>
   17e98:	00000e93          	li	t4,0
   17e9c:	01400e13          	li	t3,20
   17ea0:	0bd31463          	bne	t1,t4,17f48 <fail>

0000000000017ea4 <test_21>:
   17ea4:	00000213          	li	tp,0
   17ea8:	00b00093          	li	ra,11
   17eac:	00f0a193          	slti	gp,ra,15
   17eb0:	00120213          	addi	tp,tp,1 # 1 <_start+0x1>
   17eb4:	00200293          	li	t0,2
   17eb8:	fe5218e3          	bne	tp,t0,17ea8 <test_21+0x4>
   17ebc:	00100e93          	li	t4,1
   17ec0:	01500e13          	li	t3,21
   17ec4:	09d19263          	bne	gp,t4,17f48 <fail>

0000000000017ec8 <test_22>:
   17ec8:	00000213          	li	tp,0
   17ecc:	01100093          	li	ra,17
   17ed0:	00000013          	nop
   17ed4:	0080a193          	slti	gp,ra,8
   17ed8:	00120213          	addi	tp,tp,1 # 1 <_start+0x1>
   17edc:	00200293          	li	t0,2
   17ee0:	fe5216e3          	bne	tp,t0,17ecc <test_22+0x4>
   17ee4:	00000e93          	li	t4,0
   17ee8:	01600e13          	li	t3,22
   17eec:	05d19e63          	bne	gp,t4,17f48 <fail>

0000000000017ef0 <test_23>:
   17ef0:	00000213          	li	tp,0
   17ef4:	00c00093          	li	ra,12
   17ef8:	00000013          	nop
   17efc:	00000013          	nop
   17f00:	00e0a193          	slti	gp,ra,14
   17f04:	00120213          	addi	tp,tp,1 # 1 <_start+0x1>
   17f08:	00200293          	li	t0,2
   17f0c:	fe5214e3          	bne	tp,t0,17ef4 <test_23+0x4>
   17f10:	00100e93          	li	t4,1
   17f14:	01700e13          	li	t3,23
   17f18:	03d19863          	bne	gp,t4,17f48 <fail>

0000000000017f1c <test_24>:
   17f1c:	fff02093          	slti	ra,zero,-1
   17f20:	00000e93          	li	t4,0
   17f24:	01800e13          	li	t3,24
   17f28:	03d09063          	bne	ra,t4,17f48 <fail>

0000000000017f2c <test_25>:
   17f2c:	00ff00b7          	lui	ra,0xff0
   17f30:	0ff0809b          	addiw	ra,ra,255
   17f34:	fff0a013          	slti	zero,ra,-1
   17f38:	00000e93          	li	t4,0
   17f3c:	01900e13          	li	t3,25
   17f40:	01d01463          	bne	zero,t4,17f48 <fail>
   17f44:	05c01863          	bne	zero,t3,17f94 <pass>

0000000000017f48 <fail>:
   17f48:	04500513          	li	a0,69
   17f4c:	00004137          	lui	sp,0x4
   17f50:	7b9050ef          	jal	ra,1df08 <printf_c>
   17f54:	05200513          	li	a0,82
   17f58:	00004137          	lui	sp,0x4
   17f5c:	7ad050ef          	jal	ra,1df08 <printf_c>
   17f60:	00004137          	lui	sp,0x4
   17f64:	7a5050ef          	jal	ra,1df08 <printf_c>
   17f68:	04f00513          	li	a0,79
   17f6c:	00004137          	lui	sp,0x4
   17f70:	799050ef          	jal	ra,1df08 <printf_c>
   17f74:	00004137          	lui	sp,0x4
   17f78:	05200513          	li	a0,82
   17f7c:	00004137          	lui	sp,0x4
   17f80:	789050ef          	jal	ra,1df08 <printf_c>
   17f84:	00a00513          	li	a0,10
   17f88:	00004137          	lui	sp,0x4
   17f8c:	77d050ef          	jal	ra,1df08 <printf_c>
   17f90:	0340006f          	j	17fc4 <sra>

0000000000017f94 <pass>:
   17f94:	04f00513          	li	a0,79
   17f98:	00004137          	lui	sp,0x4
   17f9c:	76d050ef          	jal	ra,1df08 <printf_c>
   17fa0:	04b00513          	li	a0,75
   17fa4:	00004137          	lui	sp,0x4
   17fa8:	761050ef          	jal	ra,1df08 <printf_c>
   17fac:	00a00513          	li	a0,10
   17fb0:	00004137          	lui	sp,0x4
   17fb4:	755050ef          	jal	ra,1df08 <printf_c>
   17fb8:	00c0006f          	j	17fc4 <sra>

0000000000017fbc <.test_name>:
   17fbc:	20617273          	csrrci	tp,0x206,2
   17fc0:	0009                	c.addi	zero,2
	...

0000000000017fc4 <sra>:
   17fc4:	00018537          	lui	a0,0x18
   17fc8:	fbc50513          	addi	a0,a0,-68 # 17fbc <.test_name>

0000000000017fcc <.prname_next>:
   17fcc:	00004137          	lui	sp,0x4
   17fd0:	765050ef          	jal	ra,1df34 <printf_s>

0000000000017fd4 <test_2>:
   17fd4:	0010009b          	addiw	ra,zero,1
   17fd8:	01f09093          	slli	ra,ra,0x1f
   17fdc:	00000113          	li	sp,0
   17fe0:	4020d1b3          	sra	gp,ra,sp
   17fe4:	00100e9b          	addiw	t4,zero,1
   17fe8:	01fe9e93          	slli	t4,t4,0x1f
   17fec:	00200e13          	li	t3,2
   17ff0:	73d19663          	bne	gp,t4,1871c <fail>

0000000000017ff4 <test_3>:
   17ff4:	0010009b          	addiw	ra,zero,1
   17ff8:	01f09093          	slli	ra,ra,0x1f
   17ffc:	00100113          	li	sp,1
   18000:	4020d1b3          	sra	gp,ra,sp
   18004:	00300e9b          	addiw	t4,zero,3
   18008:	01ee9e93          	slli	t4,t4,0x1e
   1800c:	00300e13          	li	t3,3
   18010:	71d19663          	bne	gp,t4,1871c <fail>

0000000000018014 <test_4>:
   18014:	0010009b          	addiw	ra,zero,1
   18018:	01f09093          	slli	ra,ra,0x1f
   1801c:	00700113          	li	sp,7
   18020:	4020d1b3          	sra	gp,ra,sp
   18024:	0ff00e9b          	addiw	t4,zero,255
   18028:	018e9e93          	slli	t4,t4,0x18
   1802c:	00400e13          	li	t3,4
   18030:	6fd19663          	bne	gp,t4,1871c <fail>

0000000000018034 <test_5>:
   18034:	0010009b          	addiw	ra,zero,1
   18038:	01f09093          	slli	ra,ra,0x1f
   1803c:	00e00113          	li	sp,14
   18040:	4020d1b3          	sra	gp,ra,sp
   18044:	00008eb7          	lui	t4,0x8
   18048:	fffe8e9b          	addiw	t4,t4,-1
   1804c:	011e9e93          	slli	t4,t4,0x11
   18050:	00500e13          	li	t3,5
   18054:	6dd19463          	bne	gp,t4,1871c <fail>

0000000000018058 <test_6>:
   18058:	0010009b          	addiw	ra,zero,1
   1805c:	01f09093          	slli	ra,ra,0x1f
   18060:	00108093          	addi	ra,ra,1 # ff0001 <heap_memory_used+0xfcdd49>
   18064:	01f00113          	li	sp,31
   18068:	4020d1b3          	sra	gp,ra,sp
   1806c:	00100e9b          	addiw	t4,zero,1
   18070:	020e9e93          	slli	t4,t4,0x20
   18074:	fffe8e93          	addi	t4,t4,-1 # 7fff <coremarkBenchmark+0x7f57>
   18078:	00600e13          	li	t3,6
   1807c:	6bd19063          	bne	gp,t4,1871c <fail>

0000000000018080 <test_7>:
   18080:	800000b7          	lui	ra,0x80000
   18084:	fff0809b          	addiw	ra,ra,-1
   18088:	00000113          	li	sp,0
   1808c:	4020d1b3          	sra	gp,ra,sp
   18090:	80000eb7          	lui	t4,0x80000
   18094:	fffe8e9b          	addiw	t4,t4,-1
   18098:	00700e13          	li	t3,7
   1809c:	69d19063          	bne	gp,t4,1871c <fail>

00000000000180a0 <test_8>:
   180a0:	800000b7          	lui	ra,0x80000
   180a4:	fff0809b          	addiw	ra,ra,-1
   180a8:	00100113          	li	sp,1
   180ac:	4020d1b3          	sra	gp,ra,sp
   180b0:	40000eb7          	lui	t4,0x40000
   180b4:	fffe8e9b          	addiw	t4,t4,-1
   180b8:	00800e13          	li	t3,8
   180bc:	67d19063          	bne	gp,t4,1871c <fail>

00000000000180c0 <test_9>:
   180c0:	800000b7          	lui	ra,0x80000
   180c4:	fff0809b          	addiw	ra,ra,-1
   180c8:	00700113          	li	sp,7
   180cc:	4020d1b3          	sra	gp,ra,sp
   180d0:	01000eb7          	lui	t4,0x1000
   180d4:	fffe8e9b          	addiw	t4,t4,-1
   180d8:	00900e13          	li	t3,9
   180dc:	65d19063          	bne	gp,t4,1871c <fail>

00000000000180e0 <test_10>:
   180e0:	800000b7          	lui	ra,0x80000
   180e4:	fff0809b          	addiw	ra,ra,-1
   180e8:	00e00113          	li	sp,14
   180ec:	4020d1b3          	sra	gp,ra,sp
   180f0:	00020eb7          	lui	t4,0x20
   180f4:	fffe8e9b          	addiw	t4,t4,-1
   180f8:	00a00e13          	li	t3,10
   180fc:	63d19063          	bne	gp,t4,1871c <fail>

0000000000018100 <test_11>:
   18100:	800000b7          	lui	ra,0x80000
   18104:	fff0809b          	addiw	ra,ra,-1
   18108:	01f00113          	li	sp,31
   1810c:	4020d1b3          	sra	gp,ra,sp
   18110:	00000e93          	li	t4,0
   18114:	00b00e13          	li	t3,11
   18118:	61d19263          	bne	gp,t4,1871c <fail>

000000000001811c <test_12>:
   1811c:	000100b7          	lui	ra,0x10
   18120:	3030809b          	addiw	ra,ra,771
   18124:	00f09093          	slli	ra,ra,0xf
   18128:	18108093          	addi	ra,ra,385 # 10181 <test_12+0x1d>
   1812c:	00000113          	li	sp,0
   18130:	4020d1b3          	sra	gp,ra,sp
   18134:	00010eb7          	lui	t4,0x10
   18138:	303e8e9b          	addiw	t4,t4,771
   1813c:	00fe9e93          	slli	t4,t4,0xf
   18140:	181e8e93          	addi	t4,t4,385 # 10181 <test_12+0x1d>
   18144:	00c00e13          	li	t3,12
   18148:	5dd19a63          	bne	gp,t4,1871c <fail>

000000000001814c <test_13>:
   1814c:	000100b7          	lui	ra,0x10
   18150:	3030809b          	addiw	ra,ra,771
   18154:	00f09093          	slli	ra,ra,0xf
   18158:	18108093          	addi	ra,ra,385 # 10181 <test_12+0x1d>
   1815c:	00100113          	li	sp,1
   18160:	4020d1b3          	sra	gp,ra,sp
   18164:	00030eb7          	lui	t4,0x30
   18168:	303e8e9b          	addiw	t4,t4,771
   1816c:	00ee9e93          	slli	t4,t4,0xe
   18170:	0c0e8e93          	addi	t4,t4,192 # 300c0 <heap_memory_used+0xde08>
   18174:	00d00e13          	li	t3,13
   18178:	5bd19263          	bne	gp,t4,1871c <fail>

000000000001817c <test_14>:
   1817c:	000100b7          	lui	ra,0x10
   18180:	3030809b          	addiw	ra,ra,771
   18184:	00f09093          	slli	ra,ra,0xf
   18188:	18108093          	addi	ra,ra,385 # 10181 <test_12+0x1d>
   1818c:	00700113          	li	sp,7
   18190:	4020d1b3          	sra	gp,ra,sp
   18194:	00010eb7          	lui	t4,0x10
   18198:	f03e8e9b          	addiw	t4,t4,-253
   1819c:	010e9e93          	slli	t4,t4,0x10
   181a0:	303e8e93          	addi	t4,t4,771 # 10303 <test_23+0xb>
   181a4:	00e00e13          	li	t3,14
   181a8:	57d19a63          	bne	gp,t4,1871c <fail>

00000000000181ac <test_15>:
   181ac:	000100b7          	lui	ra,0x10
   181b0:	3030809b          	addiw	ra,ra,771
   181b4:	00f09093          	slli	ra,ra,0xf
   181b8:	18108093          	addi	ra,ra,385 # 10181 <test_12+0x1d>
   181bc:	00e00113          	li	sp,14
   181c0:	4020d1b3          	sra	gp,ra,sp
   181c4:	00008eb7          	lui	t4,0x8
   181c8:	fffe8e9b          	addiw	t4,t4,-1
   181cc:	011e9e93          	slli	t4,t4,0x11
   181d0:	606e8e93          	addi	t4,t4,1542 # 8606 <coremarkBenchmark+0x855e>
   181d4:	00f00e13          	li	t3,15
   181d8:	55d19263          	bne	gp,t4,1871c <fail>

00000000000181dc <test_16>:
   181dc:	000100b7          	lui	ra,0x10
   181e0:	3030809b          	addiw	ra,ra,771
   181e4:	00f09093          	slli	ra,ra,0xf
   181e8:	18108093          	addi	ra,ra,385 # 10181 <test_12+0x1d>
   181ec:	01f00113          	li	sp,31
   181f0:	4020d1b3          	sra	gp,ra,sp
   181f4:	00100e9b          	addiw	t4,zero,1
   181f8:	020e9e93          	slli	t4,t4,0x20
   181fc:	fffe8e93          	addi	t4,t4,-1
   18200:	01000e13          	li	t3,16
   18204:	51d19c63          	bne	gp,t4,1871c <fail>

0000000000018208 <test_17>:
   18208:	000100b7          	lui	ra,0x10
   1820c:	3030809b          	addiw	ra,ra,771
   18210:	00f09093          	slli	ra,ra,0xf
   18214:	18108093          	addi	ra,ra,385 # 10181 <test_12+0x1d>
   18218:	0010011b          	addiw	sp,zero,1
   1821c:	02011113          	slli	sp,sp,0x20
   18220:	fc010113          	addi	sp,sp,-64 # 3fc0 <coremarkBenchmark+0x3f18>
   18224:	4020d1b3          	sra	gp,ra,sp
   18228:	00010eb7          	lui	t4,0x10
   1822c:	303e8e9b          	addiw	t4,t4,771
   18230:	00fe9e93          	slli	t4,t4,0xf
   18234:	181e8e93          	addi	t4,t4,385 # 10181 <test_12+0x1d>
   18238:	01100e13          	li	t3,17
   1823c:	4fd19063          	bne	gp,t4,1871c <fail>

0000000000018240 <test_18>:
   18240:	000100b7          	lui	ra,0x10
   18244:	3030809b          	addiw	ra,ra,771
   18248:	00f09093          	slli	ra,ra,0xf
   1824c:	18108093          	addi	ra,ra,385 # 10181 <test_12+0x1d>
   18250:	0010011b          	addiw	sp,zero,1
   18254:	02011113          	slli	sp,sp,0x20
   18258:	fc110113          	addi	sp,sp,-63
   1825c:	4020d1b3          	sra	gp,ra,sp
   18260:	00030eb7          	lui	t4,0x30
   18264:	303e8e9b          	addiw	t4,t4,771
   18268:	00ee9e93          	slli	t4,t4,0xe
   1826c:	0c0e8e93          	addi	t4,t4,192 # 300c0 <heap_memory_used+0xde08>
   18270:	01200e13          	li	t3,18
   18274:	4bd19463          	bne	gp,t4,1871c <fail>

0000000000018278 <test_19>:
   18278:	000100b7          	lui	ra,0x10
   1827c:	3030809b          	addiw	ra,ra,771
   18280:	00f09093          	slli	ra,ra,0xf
   18284:	18108093          	addi	ra,ra,385 # 10181 <test_12+0x1d>
   18288:	0010011b          	addiw	sp,zero,1
   1828c:	02011113          	slli	sp,sp,0x20
   18290:	fc710113          	addi	sp,sp,-57
   18294:	4020d1b3          	sra	gp,ra,sp
   18298:	00010eb7          	lui	t4,0x10
   1829c:	f03e8e9b          	addiw	t4,t4,-253
   182a0:	010e9e93          	slli	t4,t4,0x10
   182a4:	303e8e93          	addi	t4,t4,771 # 10303 <test_23+0xb>
   182a8:	01300e13          	li	t3,19
   182ac:	47d19863          	bne	gp,t4,1871c <fail>

00000000000182b0 <test_20>:
   182b0:	000100b7          	lui	ra,0x10
   182b4:	3030809b          	addiw	ra,ra,771
   182b8:	00f09093          	slli	ra,ra,0xf
   182bc:	18108093          	addi	ra,ra,385 # 10181 <test_12+0x1d>
   182c0:	0010011b          	addiw	sp,zero,1
   182c4:	02011113          	slli	sp,sp,0x20
   182c8:	fce10113          	addi	sp,sp,-50
   182cc:	4020d1b3          	sra	gp,ra,sp
   182d0:	00008eb7          	lui	t4,0x8
   182d4:	fffe8e9b          	addiw	t4,t4,-1
   182d8:	011e9e93          	slli	t4,t4,0x11
   182dc:	606e8e93          	addi	t4,t4,1542 # 8606 <coremarkBenchmark+0x855e>
   182e0:	01400e13          	li	t3,20
   182e4:	43d19c63          	bne	gp,t4,1871c <fail>

00000000000182e8 <test_21>:
   182e8:	000100b7          	lui	ra,0x10
   182ec:	3030809b          	addiw	ra,ra,771
   182f0:	00f09093          	slli	ra,ra,0xf
   182f4:	18108093          	addi	ra,ra,385 # 10181 <test_12+0x1d>
   182f8:	0010011b          	addiw	sp,zero,1
   182fc:	02011113          	slli	sp,sp,0x20
   18300:	fff10113          	addi	sp,sp,-1
   18304:	4020d1b3          	sra	gp,ra,sp
   18308:	00100e9b          	addiw	t4,zero,1
   1830c:	020e9e93          	slli	t4,t4,0x20
   18310:	fffe8e93          	addi	t4,t4,-1
   18314:	01500e13          	li	t3,21
   18318:	41d19263          	bne	gp,t4,1871c <fail>

000000000001831c <test_22>:
   1831c:	0010009b          	addiw	ra,zero,1
   18320:	01f09093          	slli	ra,ra,0x1f
   18324:	00700113          	li	sp,7
   18328:	4020d0b3          	sra	ra,ra,sp
   1832c:	0ff00e9b          	addiw	t4,zero,255
   18330:	018e9e93          	slli	t4,t4,0x18
   18334:	01600e13          	li	t3,22
   18338:	3fd09263          	bne	ra,t4,1871c <fail>

000000000001833c <test_23>:
   1833c:	0010009b          	addiw	ra,zero,1
   18340:	01f09093          	slli	ra,ra,0x1f
   18344:	00e00113          	li	sp,14
   18348:	4020d133          	sra	sp,ra,sp
   1834c:	00008eb7          	lui	t4,0x8
   18350:	fffe8e9b          	addiw	t4,t4,-1
   18354:	011e9e93          	slli	t4,t4,0x11
   18358:	01700e13          	li	t3,23
   1835c:	3dd11063          	bne	sp,t4,1871c <fail>

0000000000018360 <test_24>:
   18360:	00700093          	li	ra,7
   18364:	4010d0b3          	sra	ra,ra,ra
   18368:	00000e93          	li	t4,0
   1836c:	01800e13          	li	t3,24
   18370:	3bd09663          	bne	ra,t4,1871c <fail>

0000000000018374 <test_25>:
   18374:	00000213          	li	tp,0
   18378:	0010009b          	addiw	ra,zero,1
   1837c:	01f09093          	slli	ra,ra,0x1f
   18380:	00700113          	li	sp,7
   18384:	4020d1b3          	sra	gp,ra,sp
   18388:	00018313          	mv	t1,gp
   1838c:	00120213          	addi	tp,tp,1 # 1 <_start+0x1>
   18390:	00200293          	li	t0,2
   18394:	fe5212e3          	bne	tp,t0,18378 <test_25+0x4>
   18398:	0ff00e9b          	addiw	t4,zero,255
   1839c:	018e9e93          	slli	t4,t4,0x18
   183a0:	01900e13          	li	t3,25
   183a4:	37d31c63          	bne	t1,t4,1871c <fail>

00000000000183a8 <test_26>:
   183a8:	00000213          	li	tp,0
   183ac:	0010009b          	addiw	ra,zero,1
   183b0:	01f09093          	slli	ra,ra,0x1f
   183b4:	00e00113          	li	sp,14
   183b8:	4020d1b3          	sra	gp,ra,sp
   183bc:	00000013          	nop
   183c0:	00018313          	mv	t1,gp
   183c4:	00120213          	addi	tp,tp,1 # 1 <_start+0x1>
   183c8:	00200293          	li	t0,2
   183cc:	fe5210e3          	bne	tp,t0,183ac <test_26+0x4>
   183d0:	00008eb7          	lui	t4,0x8
   183d4:	fffe8e9b          	addiw	t4,t4,-1
   183d8:	011e9e93          	slli	t4,t4,0x11
   183dc:	01a00e13          	li	t3,26
   183e0:	33d31e63          	bne	t1,t4,1871c <fail>

00000000000183e4 <test_27>:
   183e4:	00000213          	li	tp,0
   183e8:	0010009b          	addiw	ra,zero,1
   183ec:	01f09093          	slli	ra,ra,0x1f
   183f0:	01f00113          	li	sp,31
   183f4:	4020d1b3          	sra	gp,ra,sp
   183f8:	00000013          	nop
   183fc:	00000013          	nop
   18400:	00018313          	mv	t1,gp
   18404:	00120213          	addi	tp,tp,1 # 1 <_start+0x1>
   18408:	00200293          	li	t0,2
   1840c:	fc521ee3          	bne	tp,t0,183e8 <test_27+0x4>
   18410:	00100e9b          	addiw	t4,zero,1
   18414:	020e9e93          	slli	t4,t4,0x20
   18418:	fffe8e93          	addi	t4,t4,-1 # 7fff <coremarkBenchmark+0x7f57>
   1841c:	01b00e13          	li	t3,27
   18420:	2fd31e63          	bne	t1,t4,1871c <fail>

0000000000018424 <test_28>:
   18424:	00000213          	li	tp,0
   18428:	0010009b          	addiw	ra,zero,1
   1842c:	01f09093          	slli	ra,ra,0x1f
   18430:	00700113          	li	sp,7
   18434:	4020d1b3          	sra	gp,ra,sp
   18438:	00120213          	addi	tp,tp,1 # 1 <_start+0x1>
   1843c:	00200293          	li	t0,2
   18440:	fe5214e3          	bne	tp,t0,18428 <test_28+0x4>
   18444:	0ff00e9b          	addiw	t4,zero,255
   18448:	018e9e93          	slli	t4,t4,0x18
   1844c:	01c00e13          	li	t3,28
   18450:	2dd19663          	bne	gp,t4,1871c <fail>

0000000000018454 <test_29>:
   18454:	00000213          	li	tp,0
   18458:	0010009b          	addiw	ra,zero,1
   1845c:	01f09093          	slli	ra,ra,0x1f
   18460:	00e00113          	li	sp,14
   18464:	00000013          	nop
   18468:	4020d1b3          	sra	gp,ra,sp
   1846c:	00120213          	addi	tp,tp,1 # 1 <_start+0x1>
   18470:	00200293          	li	t0,2
   18474:	fe5212e3          	bne	tp,t0,18458 <test_29+0x4>
   18478:	00008eb7          	lui	t4,0x8
   1847c:	fffe8e9b          	addiw	t4,t4,-1
   18480:	011e9e93          	slli	t4,t4,0x11
   18484:	01d00e13          	li	t3,29
   18488:	29d19a63          	bne	gp,t4,1871c <fail>

000000000001848c <test_30>:
   1848c:	00000213          	li	tp,0
   18490:	0010009b          	addiw	ra,zero,1
   18494:	01f09093          	slli	ra,ra,0x1f
   18498:	01f00113          	li	sp,31
   1849c:	00000013          	nop
   184a0:	00000013          	nop
   184a4:	4020d1b3          	sra	gp,ra,sp
   184a8:	00120213          	addi	tp,tp,1 # 1 <_start+0x1>
   184ac:	00200293          	li	t0,2
   184b0:	fe5210e3          	bne	tp,t0,18490 <test_30+0x4>
   184b4:	00100e9b          	addiw	t4,zero,1
   184b8:	020e9e93          	slli	t4,t4,0x20
   184bc:	fffe8e93          	addi	t4,t4,-1 # 7fff <coremarkBenchmark+0x7f57>
   184c0:	01e00e13          	li	t3,30
   184c4:	25d19c63          	bne	gp,t4,1871c <fail>

00000000000184c8 <test_31>:
   184c8:	00000213          	li	tp,0
   184cc:	0010009b          	addiw	ra,zero,1
   184d0:	01f09093          	slli	ra,ra,0x1f
   184d4:	00000013          	nop
   184d8:	00700113          	li	sp,7
   184dc:	4020d1b3          	sra	gp,ra,sp
   184e0:	00120213          	addi	tp,tp,1 # 1 <_start+0x1>
   184e4:	00200293          	li	t0,2
   184e8:	fe5212e3          	bne	tp,t0,184cc <test_31+0x4>
   184ec:	0ff00e9b          	addiw	t4,zero,255
   184f0:	018e9e93          	slli	t4,t4,0x18
   184f4:	01f00e13          	li	t3,31
   184f8:	23d19263          	bne	gp,t4,1871c <fail>

00000000000184fc <test_32>:
   184fc:	00000213          	li	tp,0
   18500:	0010009b          	addiw	ra,zero,1
   18504:	01f09093          	slli	ra,ra,0x1f
   18508:	00000013          	nop
   1850c:	00e00113          	li	sp,14
   18510:	00000013          	nop
   18514:	4020d1b3          	sra	gp,ra,sp
   18518:	00120213          	addi	tp,tp,1 # 1 <_start+0x1>
   1851c:	00200293          	li	t0,2
   18520:	fe5210e3          	bne	tp,t0,18500 <test_32+0x4>
   18524:	00008eb7          	lui	t4,0x8
   18528:	fffe8e9b          	addiw	t4,t4,-1
   1852c:	011e9e93          	slli	t4,t4,0x11
   18530:	02000e13          	li	t3,32
   18534:	1fd19463          	bne	gp,t4,1871c <fail>

0000000000018538 <test_33>:
   18538:	00000213          	li	tp,0
   1853c:	0010009b          	addiw	ra,zero,1
   18540:	01f09093          	slli	ra,ra,0x1f
   18544:	00000013          	nop
   18548:	00000013          	nop
   1854c:	01f00113          	li	sp,31
   18550:	4020d1b3          	sra	gp,ra,sp
   18554:	00120213          	addi	tp,tp,1 # 1 <_start+0x1>
   18558:	00200293          	li	t0,2
   1855c:	fe5210e3          	bne	tp,t0,1853c <test_33+0x4>
   18560:	00100e9b          	addiw	t4,zero,1
   18564:	020e9e93          	slli	t4,t4,0x20
   18568:	fffe8e93          	addi	t4,t4,-1 # 7fff <coremarkBenchmark+0x7f57>
   1856c:	02100e13          	li	t3,33
   18570:	1bd19663          	bne	gp,t4,1871c <fail>

0000000000018574 <test_34>:
   18574:	00000213          	li	tp,0
   18578:	00700113          	li	sp,7
   1857c:	0010009b          	addiw	ra,zero,1
   18580:	01f09093          	slli	ra,ra,0x1f
   18584:	4020d1b3          	sra	gp,ra,sp
   18588:	00120213          	addi	tp,tp,1 # 1 <_start+0x1>
   1858c:	00200293          	li	t0,2
   18590:	fe5214e3          	bne	tp,t0,18578 <test_34+0x4>
   18594:	0ff00e9b          	addiw	t4,zero,255
   18598:	018e9e93          	slli	t4,t4,0x18
   1859c:	02200e13          	li	t3,34
   185a0:	17d19e63          	bne	gp,t4,1871c <fail>

00000000000185a4 <test_35>:
   185a4:	00000213          	li	tp,0
   185a8:	00e00113          	li	sp,14
   185ac:	0010009b          	addiw	ra,zero,1
   185b0:	01f09093          	slli	ra,ra,0x1f
   185b4:	00000013          	nop
   185b8:	4020d1b3          	sra	gp,ra,sp
   185bc:	00120213          	addi	tp,tp,1 # 1 <_start+0x1>
   185c0:	00200293          	li	t0,2
   185c4:	fe5212e3          	bne	tp,t0,185a8 <test_35+0x4>
   185c8:	00008eb7          	lui	t4,0x8
   185cc:	fffe8e9b          	addiw	t4,t4,-1
   185d0:	011e9e93          	slli	t4,t4,0x11
   185d4:	02300e13          	li	t3,35
   185d8:	15d19263          	bne	gp,t4,1871c <fail>

00000000000185dc <test_36>:
   185dc:	00000213          	li	tp,0
   185e0:	01f00113          	li	sp,31
   185e4:	0010009b          	addiw	ra,zero,1
   185e8:	01f09093          	slli	ra,ra,0x1f
   185ec:	00000013          	nop
   185f0:	00000013          	nop
   185f4:	4020d1b3          	sra	gp,ra,sp
   185f8:	00120213          	addi	tp,tp,1 # 1 <_start+0x1>
   185fc:	00200293          	li	t0,2
   18600:	fe5210e3          	bne	tp,t0,185e0 <test_36+0x4>
   18604:	00100e9b          	addiw	t4,zero,1
   18608:	020e9e93          	slli	t4,t4,0x20
   1860c:	fffe8e93          	addi	t4,t4,-1 # 7fff <coremarkBenchmark+0x7f57>
   18610:	02400e13          	li	t3,36
   18614:	11d19463          	bne	gp,t4,1871c <fail>

0000000000018618 <test_37>:
   18618:	00000213          	li	tp,0
   1861c:	00700113          	li	sp,7
   18620:	00000013          	nop
   18624:	0010009b          	addiw	ra,zero,1
   18628:	01f09093          	slli	ra,ra,0x1f
   1862c:	4020d1b3          	sra	gp,ra,sp
   18630:	00120213          	addi	tp,tp,1 # 1 <_start+0x1>
   18634:	00200293          	li	t0,2
   18638:	fe5212e3          	bne	tp,t0,1861c <test_37+0x4>
   1863c:	0ff00e9b          	addiw	t4,zero,255
   18640:	018e9e93          	slli	t4,t4,0x18
   18644:	02500e13          	li	t3,37
   18648:	0dd19a63          	bne	gp,t4,1871c <fail>

000000000001864c <test_38>:
   1864c:	00000213          	li	tp,0
   18650:	00e00113          	li	sp,14
   18654:	00000013          	nop
   18658:	0010009b          	addiw	ra,zero,1
   1865c:	01f09093          	slli	ra,ra,0x1f
   18660:	00000013          	nop
   18664:	4020d1b3          	sra	gp,ra,sp
   18668:	00120213          	addi	tp,tp,1 # 1 <_start+0x1>
   1866c:	00200293          	li	t0,2
   18670:	fe5210e3          	bne	tp,t0,18650 <test_38+0x4>
   18674:	00008eb7          	lui	t4,0x8
   18678:	fffe8e9b          	addiw	t4,t4,-1
   1867c:	011e9e93          	slli	t4,t4,0x11
   18680:	02600e13          	li	t3,38
   18684:	09d19c63          	bne	gp,t4,1871c <fail>

0000000000018688 <test_39>:
   18688:	00000213          	li	tp,0
   1868c:	01f00113          	li	sp,31
   18690:	00000013          	nop
   18694:	00000013          	nop
   18698:	0010009b          	addiw	ra,zero,1
   1869c:	01f09093          	slli	ra,ra,0x1f
   186a0:	4020d1b3          	sra	gp,ra,sp
   186a4:	00120213          	addi	tp,tp,1 # 1 <_start+0x1>
   186a8:	00200293          	li	t0,2
   186ac:	fe5210e3          	bne	tp,t0,1868c <test_39+0x4>
   186b0:	00100e9b          	addiw	t4,zero,1
   186b4:	020e9e93          	slli	t4,t4,0x20
   186b8:	fffe8e93          	addi	t4,t4,-1 # 7fff <coremarkBenchmark+0x7f57>
   186bc:	02700e13          	li	t3,39
   186c0:	05d19e63          	bne	gp,t4,1871c <fail>

00000000000186c4 <test_40>:
   186c4:	00f00093          	li	ra,15
   186c8:	40105133          	sra	sp,zero,ra
   186cc:	00000e93          	li	t4,0
   186d0:	02800e13          	li	t3,40
   186d4:	05d11463          	bne	sp,t4,1871c <fail>

00000000000186d8 <test_41>:
   186d8:	02000093          	li	ra,32
   186dc:	4000d133          	sra	sp,ra,zero
   186e0:	02000e93          	li	t4,32
   186e4:	02900e13          	li	t3,41
   186e8:	03d11a63          	bne	sp,t4,1871c <fail>

00000000000186ec <test_42>:
   186ec:	400050b3          	sra	ra,zero,zero
   186f0:	00000e93          	li	t4,0
   186f4:	02a00e13          	li	t3,42
   186f8:	03d09263          	bne	ra,t4,1871c <fail>

00000000000186fc <test_43>:
   186fc:	40000093          	li	ra,1024
   18700:	00001137          	lui	sp,0x1
   18704:	8001011b          	addiw	sp,sp,-2048
   18708:	4020d033          	sra	zero,ra,sp
   1870c:	00000e93          	li	t4,0
   18710:	02b00e13          	li	t3,43
   18714:	01d01463          	bne	zero,t4,1871c <fail>
   18718:	05c01863          	bne	zero,t3,18768 <pass>

000000000001871c <fail>:
   1871c:	04500513          	li	a0,69
   18720:	00004137          	lui	sp,0x4
   18724:	7e4050ef          	jal	ra,1df08 <printf_c>
   18728:	05200513          	li	a0,82
   1872c:	00004137          	lui	sp,0x4
   18730:	7d8050ef          	jal	ra,1df08 <printf_c>
   18734:	00004137          	lui	sp,0x4
   18738:	7d0050ef          	jal	ra,1df08 <printf_c>
   1873c:	04f00513          	li	a0,79
   18740:	00004137          	lui	sp,0x4
   18744:	7c4050ef          	jal	ra,1df08 <printf_c>
   18748:	00004137          	lui	sp,0x4
   1874c:	05200513          	li	a0,82
   18750:	00004137          	lui	sp,0x4
   18754:	7b4050ef          	jal	ra,1df08 <printf_c>
   18758:	00a00513          	li	a0,10
   1875c:	00004137          	lui	sp,0x4
   18760:	7a8050ef          	jal	ra,1df08 <printf_c>
   18764:	0340006f          	j	18798 <srai>

0000000000018768 <pass>:
   18768:	04f00513          	li	a0,79
   1876c:	00004137          	lui	sp,0x4
   18770:	798050ef          	jal	ra,1df08 <printf_c>
   18774:	04b00513          	li	a0,75
   18778:	00004137          	lui	sp,0x4
   1877c:	78c050ef          	jal	ra,1df08 <printf_c>
   18780:	00a00513          	li	a0,10
   18784:	00004137          	lui	sp,0x4
   18788:	780050ef          	jal	ra,1df08 <printf_c>
   1878c:	00c0006f          	j	18798 <srai>

0000000000018790 <.test_name>:
   18790:	69617273          	csrrci	tp,0x696,2
   18794:	0009                	c.addi	zero,2
	...

0000000000018798 <srai>:
   18798:	00018537          	lui	a0,0x18
   1879c:	79050513          	addi	a0,a0,1936 # 18790 <.test_name>

00000000000187a0 <.prname_next>:
   187a0:	00004137          	lui	sp,0x4
   187a4:	790050ef          	jal	ra,1df34 <printf_s>

00000000000187a8 <test_2>:
   187a8:	00000093          	li	ra,0
   187ac:	4000d193          	srai	gp,ra,0x0
   187b0:	00000e93          	li	t4,0
   187b4:	00200e13          	li	t3,2
   187b8:	37d19463          	bne	gp,t4,18b20 <fail>

00000000000187bc <test_3>:
   187bc:	0010009b          	addiw	ra,zero,1
   187c0:	01f09093          	slli	ra,ra,0x1f
   187c4:	4010d193          	srai	gp,ra,0x1
   187c8:	00300e9b          	addiw	t4,zero,3
   187cc:	01ee9e93          	slli	t4,t4,0x1e
   187d0:	00300e13          	li	t3,3
   187d4:	35d19663          	bne	gp,t4,18b20 <fail>

00000000000187d8 <test_4>:
   187d8:	0010009b          	addiw	ra,zero,1
   187dc:	01f09093          	slli	ra,ra,0x1f
   187e0:	4070d193          	srai	gp,ra,0x7
   187e4:	0ff00e9b          	addiw	t4,zero,255
   187e8:	018e9e93          	slli	t4,t4,0x18
   187ec:	00400e13          	li	t3,4
   187f0:	33d19863          	bne	gp,t4,18b20 <fail>

00000000000187f4 <test_5>:
   187f4:	0010009b          	addiw	ra,zero,1
   187f8:	01f09093          	slli	ra,ra,0x1f
   187fc:	40e0d193          	srai	gp,ra,0xe
   18800:	00008eb7          	lui	t4,0x8
   18804:	fffe8e9b          	addiw	t4,t4,-1
   18808:	011e9e93          	slli	t4,t4,0x11
   1880c:	00500e13          	li	t3,5
   18810:	31d19863          	bne	gp,t4,18b20 <fail>

0000000000018814 <test_6>:
   18814:	0010009b          	addiw	ra,zero,1
   18818:	01f09093          	slli	ra,ra,0x1f
   1881c:	00108093          	addi	ra,ra,1
   18820:	41f0d193          	srai	gp,ra,0x1f
   18824:	00100e9b          	addiw	t4,zero,1
   18828:	020e9e93          	slli	t4,t4,0x20
   1882c:	fffe8e93          	addi	t4,t4,-1 # 7fff <coremarkBenchmark+0x7f57>
   18830:	00600e13          	li	t3,6
   18834:	2fd19663          	bne	gp,t4,18b20 <fail>

0000000000018838 <test_7>:
   18838:	800000b7          	lui	ra,0x80000
   1883c:	fff0809b          	addiw	ra,ra,-1
   18840:	4000d193          	srai	gp,ra,0x0
   18844:	80000eb7          	lui	t4,0x80000
   18848:	fffe8e9b          	addiw	t4,t4,-1
   1884c:	00700e13          	li	t3,7
   18850:	2dd19863          	bne	gp,t4,18b20 <fail>

0000000000018854 <test_8>:
   18854:	800000b7          	lui	ra,0x80000
   18858:	fff0809b          	addiw	ra,ra,-1
   1885c:	4010d193          	srai	gp,ra,0x1
   18860:	40000eb7          	lui	t4,0x40000
   18864:	fffe8e9b          	addiw	t4,t4,-1
   18868:	00800e13          	li	t3,8
   1886c:	2bd19a63          	bne	gp,t4,18b20 <fail>

0000000000018870 <test_9>:
   18870:	800000b7          	lui	ra,0x80000
   18874:	fff0809b          	addiw	ra,ra,-1
   18878:	4070d193          	srai	gp,ra,0x7
   1887c:	01000eb7          	lui	t4,0x1000
   18880:	fffe8e9b          	addiw	t4,t4,-1
   18884:	00900e13          	li	t3,9
   18888:	29d19c63          	bne	gp,t4,18b20 <fail>

000000000001888c <test_10>:
   1888c:	800000b7          	lui	ra,0x80000
   18890:	fff0809b          	addiw	ra,ra,-1
   18894:	40e0d193          	srai	gp,ra,0xe
   18898:	00020eb7          	lui	t4,0x20
   1889c:	fffe8e9b          	addiw	t4,t4,-1
   188a0:	00a00e13          	li	t3,10
   188a4:	27d19e63          	bne	gp,t4,18b20 <fail>

00000000000188a8 <test_11>:
   188a8:	800000b7          	lui	ra,0x80000
   188ac:	fff0809b          	addiw	ra,ra,-1
   188b0:	41f0d193          	srai	gp,ra,0x1f
   188b4:	00000e93          	li	t4,0
   188b8:	00b00e13          	li	t3,11
   188bc:	27d19263          	bne	gp,t4,18b20 <fail>

00000000000188c0 <test_12>:
   188c0:	000100b7          	lui	ra,0x10
   188c4:	3030809b          	addiw	ra,ra,771
   188c8:	00f09093          	slli	ra,ra,0xf
   188cc:	18108093          	addi	ra,ra,385 # 10181 <test_12+0x1d>
   188d0:	4000d193          	srai	gp,ra,0x0
   188d4:	00010eb7          	lui	t4,0x10
   188d8:	303e8e9b          	addiw	t4,t4,771
   188dc:	00fe9e93          	slli	t4,t4,0xf
   188e0:	181e8e93          	addi	t4,t4,385 # 10181 <test_12+0x1d>
   188e4:	00c00e13          	li	t3,12
   188e8:	23d19c63          	bne	gp,t4,18b20 <fail>

00000000000188ec <test_13>:
   188ec:	000100b7          	lui	ra,0x10
   188f0:	3030809b          	addiw	ra,ra,771
   188f4:	00f09093          	slli	ra,ra,0xf
   188f8:	18108093          	addi	ra,ra,385 # 10181 <test_12+0x1d>
   188fc:	4010d193          	srai	gp,ra,0x1
   18900:	00030eb7          	lui	t4,0x30
   18904:	303e8e9b          	addiw	t4,t4,771
   18908:	00ee9e93          	slli	t4,t4,0xe
   1890c:	0c0e8e93          	addi	t4,t4,192 # 300c0 <heap_memory_used+0xde08>
   18910:	00d00e13          	li	t3,13
   18914:	21d19663          	bne	gp,t4,18b20 <fail>

0000000000018918 <test_14>:
   18918:	000100b7          	lui	ra,0x10
   1891c:	3030809b          	addiw	ra,ra,771
   18920:	00f09093          	slli	ra,ra,0xf
   18924:	18108093          	addi	ra,ra,385 # 10181 <test_12+0x1d>
   18928:	4070d193          	srai	gp,ra,0x7
   1892c:	00010eb7          	lui	t4,0x10
   18930:	f03e8e9b          	addiw	t4,t4,-253
   18934:	010e9e93          	slli	t4,t4,0x10
   18938:	303e8e93          	addi	t4,t4,771 # 10303 <test_23+0xb>
   1893c:	00e00e13          	li	t3,14
   18940:	1fd19063          	bne	gp,t4,18b20 <fail>

0000000000018944 <test_15>:
   18944:	000100b7          	lui	ra,0x10
   18948:	3030809b          	addiw	ra,ra,771
   1894c:	00f09093          	slli	ra,ra,0xf
   18950:	18108093          	addi	ra,ra,385 # 10181 <test_12+0x1d>
   18954:	40e0d193          	srai	gp,ra,0xe
   18958:	00008eb7          	lui	t4,0x8
   1895c:	fffe8e9b          	addiw	t4,t4,-1
   18960:	011e9e93          	slli	t4,t4,0x11
   18964:	606e8e93          	addi	t4,t4,1542 # 8606 <coremarkBenchmark+0x855e>
   18968:	00f00e13          	li	t3,15
   1896c:	1bd19a63          	bne	gp,t4,18b20 <fail>

0000000000018970 <test_16>:
   18970:	000100b7          	lui	ra,0x10
   18974:	3030809b          	addiw	ra,ra,771
   18978:	00f09093          	slli	ra,ra,0xf
   1897c:	18108093          	addi	ra,ra,385 # 10181 <test_12+0x1d>
   18980:	41f0d193          	srai	gp,ra,0x1f
   18984:	00100e9b          	addiw	t4,zero,1
   18988:	020e9e93          	slli	t4,t4,0x20
   1898c:	fffe8e93          	addi	t4,t4,-1
   18990:	01000e13          	li	t3,16
   18994:	19d19663          	bne	gp,t4,18b20 <fail>

0000000000018998 <test_17>:
   18998:	0010009b          	addiw	ra,zero,1
   1899c:	01f09093          	slli	ra,ra,0x1f
   189a0:	4070d093          	srai	ra,ra,0x7
   189a4:	0ff00e9b          	addiw	t4,zero,255
   189a8:	018e9e93          	slli	t4,t4,0x18
   189ac:	01100e13          	li	t3,17
   189b0:	17d09863          	bne	ra,t4,18b20 <fail>

00000000000189b4 <test_18>:
   189b4:	00000213          	li	tp,0
   189b8:	0010009b          	addiw	ra,zero,1
   189bc:	01f09093          	slli	ra,ra,0x1f
   189c0:	4070d193          	srai	gp,ra,0x7
   189c4:	00018313          	mv	t1,gp
   189c8:	00120213          	addi	tp,tp,1 # 1 <_start+0x1>
   189cc:	00200293          	li	t0,2
   189d0:	fe5214e3          	bne	tp,t0,189b8 <test_18+0x4>
   189d4:	0ff00e9b          	addiw	t4,zero,255
   189d8:	018e9e93          	slli	t4,t4,0x18
   189dc:	01200e13          	li	t3,18
   189e0:	15d31063          	bne	t1,t4,18b20 <fail>

00000000000189e4 <test_19>:
   189e4:	00000213          	li	tp,0
   189e8:	0010009b          	addiw	ra,zero,1
   189ec:	01f09093          	slli	ra,ra,0x1f
   189f0:	40e0d193          	srai	gp,ra,0xe
   189f4:	00000013          	nop
   189f8:	00018313          	mv	t1,gp
   189fc:	00120213          	addi	tp,tp,1 # 1 <_start+0x1>
   18a00:	00200293          	li	t0,2
   18a04:	fe5212e3          	bne	tp,t0,189e8 <test_19+0x4>
   18a08:	00008eb7          	lui	t4,0x8
   18a0c:	fffe8e9b          	addiw	t4,t4,-1
   18a10:	011e9e93          	slli	t4,t4,0x11
   18a14:	01300e13          	li	t3,19
   18a18:	11d31463          	bne	t1,t4,18b20 <fail>

0000000000018a1c <test_20>:
   18a1c:	00000213          	li	tp,0
   18a20:	0010009b          	addiw	ra,zero,1
   18a24:	01f09093          	slli	ra,ra,0x1f
   18a28:	00108093          	addi	ra,ra,1
   18a2c:	41f0d193          	srai	gp,ra,0x1f
   18a30:	00000013          	nop
   18a34:	00000013          	nop
   18a38:	00018313          	mv	t1,gp
   18a3c:	00120213          	addi	tp,tp,1 # 1 <_start+0x1>
   18a40:	00200293          	li	t0,2
   18a44:	fc521ee3          	bne	tp,t0,18a20 <test_20+0x4>
   18a48:	00100e9b          	addiw	t4,zero,1
   18a4c:	020e9e93          	slli	t4,t4,0x20
   18a50:	fffe8e93          	addi	t4,t4,-1 # 7fff <coremarkBenchmark+0x7f57>
   18a54:	01400e13          	li	t3,20
   18a58:	0dd31463          	bne	t1,t4,18b20 <fail>

0000000000018a5c <test_21>:
   18a5c:	00000213          	li	tp,0
   18a60:	0010009b          	addiw	ra,zero,1
   18a64:	01f09093          	slli	ra,ra,0x1f
   18a68:	4070d193          	srai	gp,ra,0x7
   18a6c:	00120213          	addi	tp,tp,1 # 1 <_start+0x1>
   18a70:	00200293          	li	t0,2
   18a74:	fe5216e3          	bne	tp,t0,18a60 <test_21+0x4>
   18a78:	0ff00e9b          	addiw	t4,zero,255
   18a7c:	018e9e93          	slli	t4,t4,0x18
   18a80:	01500e13          	li	t3,21
   18a84:	09d19e63          	bne	gp,t4,18b20 <fail>

0000000000018a88 <test_22>:
   18a88:	00000213          	li	tp,0
   18a8c:	0010009b          	addiw	ra,zero,1
   18a90:	01f09093          	slli	ra,ra,0x1f
   18a94:	00000013          	nop
   18a98:	40e0d193          	srai	gp,ra,0xe
   18a9c:	00120213          	addi	tp,tp,1 # 1 <_start+0x1>
   18aa0:	00200293          	li	t0,2
   18aa4:	fe5214e3          	bne	tp,t0,18a8c <test_22+0x4>
   18aa8:	00008eb7          	lui	t4,0x8
   18aac:	fffe8e9b          	addiw	t4,t4,-1
   18ab0:	011e9e93          	slli	t4,t4,0x11
   18ab4:	01600e13          	li	t3,22
   18ab8:	07d19463          	bne	gp,t4,18b20 <fail>

0000000000018abc <test_23>:
   18abc:	00000213          	li	tp,0
   18ac0:	0010009b          	addiw	ra,zero,1
   18ac4:	01f09093          	slli	ra,ra,0x1f
   18ac8:	00108093          	addi	ra,ra,1
   18acc:	00000013          	nop
   18ad0:	00000013          	nop
   18ad4:	41f0d193          	srai	gp,ra,0x1f
   18ad8:	00120213          	addi	tp,tp,1 # 1 <_start+0x1>
   18adc:	00200293          	li	t0,2
   18ae0:	fe5210e3          	bne	tp,t0,18ac0 <test_23+0x4>
   18ae4:	00100e9b          	addiw	t4,zero,1
   18ae8:	020e9e93          	slli	t4,t4,0x20
   18aec:	fffe8e93          	addi	t4,t4,-1 # 7fff <coremarkBenchmark+0x7f57>
   18af0:	01700e13          	li	t3,23
   18af4:	03d19663          	bne	gp,t4,18b20 <fail>

0000000000018af8 <test_24>:
   18af8:	41f05093          	srai	ra,zero,0x1f
   18afc:	00000e93          	li	t4,0
   18b00:	01800e13          	li	t3,24
   18b04:	01d09e63          	bne	ra,t4,18b20 <fail>

0000000000018b08 <test_25>:
   18b08:	02100093          	li	ra,33
   18b0c:	4140d013          	srai	zero,ra,0x14
   18b10:	00000e93          	li	t4,0
   18b14:	01900e13          	li	t3,25
   18b18:	01d01463          	bne	zero,t4,18b20 <fail>
   18b1c:	05c01863          	bne	zero,t3,18b6c <pass>

0000000000018b20 <fail>:
   18b20:	04500513          	li	a0,69
   18b24:	00004137          	lui	sp,0x4
   18b28:	3e0050ef          	jal	ra,1df08 <printf_c>
   18b2c:	05200513          	li	a0,82
   18b30:	00004137          	lui	sp,0x4
   18b34:	3d4050ef          	jal	ra,1df08 <printf_c>
   18b38:	00004137          	lui	sp,0x4
   18b3c:	3cc050ef          	jal	ra,1df08 <printf_c>
   18b40:	04f00513          	li	a0,79
   18b44:	00004137          	lui	sp,0x4
   18b48:	3c0050ef          	jal	ra,1df08 <printf_c>
   18b4c:	00004137          	lui	sp,0x4
   18b50:	05200513          	li	a0,82
   18b54:	00004137          	lui	sp,0x4
   18b58:	3b0050ef          	jal	ra,1df08 <printf_c>
   18b5c:	00a00513          	li	a0,10
   18b60:	00004137          	lui	sp,0x4
   18b64:	3a4050ef          	jal	ra,1df08 <printf_c>
   18b68:	0340006f          	j	18b9c <srl>

0000000000018b6c <pass>:
   18b6c:	04f00513          	li	a0,79
   18b70:	00004137          	lui	sp,0x4
   18b74:	394050ef          	jal	ra,1df08 <printf_c>
   18b78:	04b00513          	li	a0,75
   18b7c:	00004137          	lui	sp,0x4
   18b80:	388050ef          	jal	ra,1df08 <printf_c>
   18b84:	00a00513          	li	a0,10
   18b88:	00004137          	lui	sp,0x4
   18b8c:	37c050ef          	jal	ra,1df08 <printf_c>
   18b90:	00c0006f          	j	18b9c <srl>

0000000000018b94 <.test_name>:
   18b94:	206c7273          	csrrci	tp,0x206,24
   18b98:	0009                	c.addi	zero,2
	...

0000000000018b9c <srl>:
   18b9c:	00019537          	lui	a0,0x19
   18ba0:	b9450513          	addi	a0,a0,-1132 # 18b94 <.test_name>

0000000000018ba4 <.prname_next>:
   18ba4:	00004137          	lui	sp,0x4
   18ba8:	38c050ef          	jal	ra,1df34 <printf_s>

0000000000018bac <test_2>:
   18bac:	000200b7          	lui	ra,0x20
   18bb0:	fff0809b          	addiw	ra,ra,-1
   18bb4:	00f09093          	slli	ra,ra,0xf
   18bb8:	00000113          	li	sp,0
   18bbc:	0020d1b3          	srl	gp,ra,sp
   18bc0:	00020eb7          	lui	t4,0x20
   18bc4:	fffe8e9b          	addiw	t4,t4,-1
   18bc8:	00fe9e93          	slli	t4,t4,0xf
   18bcc:	00200e13          	li	t3,2
   18bd0:	6bd19463          	bne	gp,t4,19278 <fail>

0000000000018bd4 <test_3>:
   18bd4:	000200b7          	lui	ra,0x20
   18bd8:	fff0809b          	addiw	ra,ra,-1
   18bdc:	00f09093          	slli	ra,ra,0xf
   18be0:	00100113          	li	sp,1
   18be4:	0020d1b3          	srl	gp,ra,sp
   18be8:	7fffceb7          	lui	t4,0x7fffc
   18bec:	00300e13          	li	t3,3
   18bf0:	69d19463          	bne	gp,t4,19278 <fail>

0000000000018bf4 <test_4>:
   18bf4:	000200b7          	lui	ra,0x20
   18bf8:	fff0809b          	addiw	ra,ra,-1
   18bfc:	00f09093          	slli	ra,ra,0xf
   18c00:	00700113          	li	sp,7
   18c04:	0020d1b3          	srl	gp,ra,sp
   18c08:	02000eb7          	lui	t4,0x2000
   18c0c:	f00e8e9b          	addiw	t4,t4,-256
   18c10:	00400e13          	li	t3,4
   18c14:	67d19263          	bne	gp,t4,19278 <fail>

0000000000018c18 <test_5>:
   18c18:	000200b7          	lui	ra,0x20
   18c1c:	fff0809b          	addiw	ra,ra,-1
   18c20:	00f09093          	slli	ra,ra,0xf
   18c24:	00e00113          	li	sp,14
   18c28:	0020d1b3          	srl	gp,ra,sp
   18c2c:	00040eb7          	lui	t4,0x40
   18c30:	ffee8e9b          	addiw	t4,t4,-2
   18c34:	00500e13          	li	t3,5
   18c38:	65d19063          	bne	gp,t4,19278 <fail>

0000000000018c3c <test_6>:
   18c3c:	000200b7          	lui	ra,0x20
   18c40:	fff0809b          	addiw	ra,ra,-1
   18c44:	00f09093          	slli	ra,ra,0xf
   18c48:	00108093          	addi	ra,ra,1 # 20001 <Arr_2_Glob+0x981>
   18c4c:	00f00113          	li	sp,15
   18c50:	0020d1b3          	srl	gp,ra,sp
   18c54:	00020eb7          	lui	t4,0x20
   18c58:	fffe8e9b          	addiw	t4,t4,-1
   18c5c:	00600e13          	li	t3,6
   18c60:	61d19c63          	bne	gp,t4,19278 <fail>

0000000000018c64 <test_7>:
   18c64:	0010009b          	addiw	ra,zero,1
   18c68:	02009093          	slli	ra,ra,0x20
   18c6c:	fff08093          	addi	ra,ra,-1
   18c70:	00000113          	li	sp,0
   18c74:	0020d1b3          	srl	gp,ra,sp
   18c78:	00100e9b          	addiw	t4,zero,1
   18c7c:	020e9e93          	slli	t4,t4,0x20
   18c80:	fffe8e93          	addi	t4,t4,-1 # 1ffff <Arr_2_Glob+0x97f>
   18c84:	00700e13          	li	t3,7
   18c88:	5fd19863          	bne	gp,t4,19278 <fail>

0000000000018c8c <test_8>:
   18c8c:	0010009b          	addiw	ra,zero,1
   18c90:	02009093          	slli	ra,ra,0x20
   18c94:	fff08093          	addi	ra,ra,-1
   18c98:	00100113          	li	sp,1
   18c9c:	0020d1b3          	srl	gp,ra,sp
   18ca0:	80000eb7          	lui	t4,0x80000
   18ca4:	fffe8e9b          	addiw	t4,t4,-1
   18ca8:	00800e13          	li	t3,8
   18cac:	5dd19663          	bne	gp,t4,19278 <fail>

0000000000018cb0 <test_9>:
   18cb0:	0010009b          	addiw	ra,zero,1
   18cb4:	02009093          	slli	ra,ra,0x20
   18cb8:	fff08093          	addi	ra,ra,-1
   18cbc:	00700113          	li	sp,7
   18cc0:	0020d1b3          	srl	gp,ra,sp
   18cc4:	02000eb7          	lui	t4,0x2000
   18cc8:	fffe8e9b          	addiw	t4,t4,-1
   18ccc:	00900e13          	li	t3,9
   18cd0:	5bd19463          	bne	gp,t4,19278 <fail>

0000000000018cd4 <test_10>:
   18cd4:	0010009b          	addiw	ra,zero,1
   18cd8:	02009093          	slli	ra,ra,0x20
   18cdc:	fff08093          	addi	ra,ra,-1
   18ce0:	00e00113          	li	sp,14
   18ce4:	0020d1b3          	srl	gp,ra,sp
   18ce8:	00040eb7          	lui	t4,0x40
   18cec:	fffe8e9b          	addiw	t4,t4,-1
   18cf0:	00a00e13          	li	t3,10
   18cf4:	59d19263          	bne	gp,t4,19278 <fail>

0000000000018cf8 <test_11>:
   18cf8:	0010009b          	addiw	ra,zero,1
   18cfc:	02009093          	slli	ra,ra,0x20
   18d00:	fff08093          	addi	ra,ra,-1
   18d04:	01f00113          	li	sp,31
   18d08:	0020d1b3          	srl	gp,ra,sp
   18d0c:	00100e93          	li	t4,1
   18d10:	00b00e13          	li	t3,11
   18d14:	57d19263          	bne	gp,t4,19278 <fail>

0000000000018d18 <test_12>:
   18d18:	212120b7          	lui	ra,0x21212
   18d1c:	1210809b          	addiw	ra,ra,289
   18d20:	00000113          	li	sp,0
   18d24:	0020d1b3          	srl	gp,ra,sp
   18d28:	21212eb7          	lui	t4,0x21212
   18d2c:	121e8e9b          	addiw	t4,t4,289
   18d30:	00c00e13          	li	t3,12
   18d34:	55d19263          	bne	gp,t4,19278 <fail>

0000000000018d38 <test_13>:
   18d38:	212120b7          	lui	ra,0x21212
   18d3c:	1210809b          	addiw	ra,ra,289
   18d40:	00100113          	li	sp,1
   18d44:	0020d1b3          	srl	gp,ra,sp
   18d48:	10909eb7          	lui	t4,0x10909
   18d4c:	090e8e9b          	addiw	t4,t4,144
   18d50:	00d00e13          	li	t3,13
   18d54:	53d19263          	bne	gp,t4,19278 <fail>

0000000000018d58 <test_14>:
   18d58:	212120b7          	lui	ra,0x21212
   18d5c:	1210809b          	addiw	ra,ra,289
   18d60:	00700113          	li	sp,7
   18d64:	0020d1b3          	srl	gp,ra,sp
   18d68:	00424eb7          	lui	t4,0x424
   18d6c:	242e8e9b          	addiw	t4,t4,578
   18d70:	00e00e13          	li	t3,14
   18d74:	51d19263          	bne	gp,t4,19278 <fail>

0000000000018d78 <test_15>:
   18d78:	212120b7          	lui	ra,0x21212
   18d7c:	1210809b          	addiw	ra,ra,289
   18d80:	00e00113          	li	sp,14
   18d84:	0020d1b3          	srl	gp,ra,sp
   18d88:	00008eb7          	lui	t4,0x8
   18d8c:	484e8e9b          	addiw	t4,t4,1156
   18d90:	00f00e13          	li	t3,15
   18d94:	4fd19263          	bne	gp,t4,19278 <fail>

0000000000018d98 <test_16>:
   18d98:	212120b7          	lui	ra,0x21212
   18d9c:	1210809b          	addiw	ra,ra,289
   18da0:	01f00113          	li	sp,31
   18da4:	0020d1b3          	srl	gp,ra,sp
   18da8:	00000e93          	li	t4,0
   18dac:	01000e13          	li	t3,16
   18db0:	4dd19463          	bne	gp,t4,19278 <fail>

0000000000018db4 <test_17>:
   18db4:	212120b7          	lui	ra,0x21212
   18db8:	1210809b          	addiw	ra,ra,289
   18dbc:	0010011b          	addiw	sp,zero,1
   18dc0:	02011113          	slli	sp,sp,0x20
   18dc4:	fe010113          	addi	sp,sp,-32 # 3fe0 <coremarkBenchmark+0x3f38>
   18dc8:	0020d1b3          	srl	gp,ra,sp
   18dcc:	21212eb7          	lui	t4,0x21212
   18dd0:	121e8e9b          	addiw	t4,t4,289
   18dd4:	01100e13          	li	t3,17
   18dd8:	4bd19063          	bne	gp,t4,19278 <fail>

0000000000018ddc <test_18>:
   18ddc:	212120b7          	lui	ra,0x21212
   18de0:	1210809b          	addiw	ra,ra,289
   18de4:	0010011b          	addiw	sp,zero,1
   18de8:	02011113          	slli	sp,sp,0x20
   18dec:	fe110113          	addi	sp,sp,-31
   18df0:	0020d1b3          	srl	gp,ra,sp
   18df4:	10909eb7          	lui	t4,0x10909
   18df8:	090e8e9b          	addiw	t4,t4,144
   18dfc:	01200e13          	li	t3,18
   18e00:	47d19c63          	bne	gp,t4,19278 <fail>

0000000000018e04 <test_19>:
   18e04:	212120b7          	lui	ra,0x21212
   18e08:	1210809b          	addiw	ra,ra,289
   18e0c:	0010011b          	addiw	sp,zero,1
   18e10:	02011113          	slli	sp,sp,0x20
   18e14:	fe710113          	addi	sp,sp,-25
   18e18:	0020d1b3          	srl	gp,ra,sp
   18e1c:	00424eb7          	lui	t4,0x424
   18e20:	242e8e9b          	addiw	t4,t4,578
   18e24:	01300e13          	li	t3,19
   18e28:	45d19863          	bne	gp,t4,19278 <fail>

0000000000018e2c <test_20>:
   18e2c:	212120b7          	lui	ra,0x21212
   18e30:	1210809b          	addiw	ra,ra,289
   18e34:	0010011b          	addiw	sp,zero,1
   18e38:	02011113          	slli	sp,sp,0x20
   18e3c:	fee10113          	addi	sp,sp,-18
   18e40:	0020d1b3          	srl	gp,ra,sp
   18e44:	00008eb7          	lui	t4,0x8
   18e48:	484e8e9b          	addiw	t4,t4,1156
   18e4c:	01400e13          	li	t3,20
   18e50:	43d19463          	bne	gp,t4,19278 <fail>

0000000000018e54 <test_21>:
   18e54:	212120b7          	lui	ra,0x21212
   18e58:	1210809b          	addiw	ra,ra,289
   18e5c:	0010011b          	addiw	sp,zero,1
   18e60:	02011113          	slli	sp,sp,0x20
   18e64:	fff10113          	addi	sp,sp,-1
   18e68:	0020d1b3          	srl	gp,ra,sp
   18e6c:	00000e93          	li	t4,0
   18e70:	01500e13          	li	t3,21
   18e74:	41d19263          	bne	gp,t4,19278 <fail>

0000000000018e78 <test_22>:
   18e78:	000200b7          	lui	ra,0x20
   18e7c:	fff0809b          	addiw	ra,ra,-1
   18e80:	00f09093          	slli	ra,ra,0xf
   18e84:	00100113          	li	sp,1
   18e88:	0020d0b3          	srl	ra,ra,sp
   18e8c:	7fffceb7          	lui	t4,0x7fffc
   18e90:	01600e13          	li	t3,22
   18e94:	3fd09263          	bne	ra,t4,19278 <fail>

0000000000018e98 <test_23>:
   18e98:	000200b7          	lui	ra,0x20
   18e9c:	fff0809b          	addiw	ra,ra,-1
   18ea0:	00f09093          	slli	ra,ra,0xf
   18ea4:	00e00113          	li	sp,14
   18ea8:	0020d133          	srl	sp,ra,sp
   18eac:	00040eb7          	lui	t4,0x40
   18eb0:	ffee8e9b          	addiw	t4,t4,-2
   18eb4:	01700e13          	li	t3,23
   18eb8:	3dd11063          	bne	sp,t4,19278 <fail>

0000000000018ebc <test_24>:
   18ebc:	00700093          	li	ra,7
   18ec0:	0010d0b3          	srl	ra,ra,ra
   18ec4:	00000e93          	li	t4,0
   18ec8:	01800e13          	li	t3,24
   18ecc:	3bd09663          	bne	ra,t4,19278 <fail>

0000000000018ed0 <test_25>:
   18ed0:	00000213          	li	tp,0
   18ed4:	000200b7          	lui	ra,0x20
   18ed8:	fff0809b          	addiw	ra,ra,-1
   18edc:	00f09093          	slli	ra,ra,0xf
   18ee0:	00100113          	li	sp,1
   18ee4:	0020d1b3          	srl	gp,ra,sp
   18ee8:	00018313          	mv	t1,gp
   18eec:	00120213          	addi	tp,tp,1 # 1 <_start+0x1>
   18ef0:	00200293          	li	t0,2
   18ef4:	fe5210e3          	bne	tp,t0,18ed4 <test_25+0x4>
   18ef8:	7fffceb7          	lui	t4,0x7fffc
   18efc:	01900e13          	li	t3,25
   18f00:	37d31c63          	bne	t1,t4,19278 <fail>

0000000000018f04 <test_26>:
   18f04:	00000213          	li	tp,0
   18f08:	000200b7          	lui	ra,0x20
   18f0c:	fff0809b          	addiw	ra,ra,-1
   18f10:	00f09093          	slli	ra,ra,0xf
   18f14:	00e00113          	li	sp,14
   18f18:	0020d1b3          	srl	gp,ra,sp
   18f1c:	00000013          	nop
   18f20:	00018313          	mv	t1,gp
   18f24:	00120213          	addi	tp,tp,1 # 1 <_start+0x1>
   18f28:	00200293          	li	t0,2
   18f2c:	fc521ee3          	bne	tp,t0,18f08 <test_26+0x4>
   18f30:	00040eb7          	lui	t4,0x40
   18f34:	ffee8e9b          	addiw	t4,t4,-2
   18f38:	01a00e13          	li	t3,26
   18f3c:	33d31e63          	bne	t1,t4,19278 <fail>

0000000000018f40 <test_27>:
   18f40:	00000213          	li	tp,0
   18f44:	000200b7          	lui	ra,0x20
   18f48:	fff0809b          	addiw	ra,ra,-1
   18f4c:	00f09093          	slli	ra,ra,0xf
   18f50:	00f00113          	li	sp,15
   18f54:	0020d1b3          	srl	gp,ra,sp
   18f58:	00000013          	nop
   18f5c:	00000013          	nop
   18f60:	00018313          	mv	t1,gp
   18f64:	00120213          	addi	tp,tp,1 # 1 <_start+0x1>
   18f68:	00200293          	li	t0,2
   18f6c:	fc521ce3          	bne	tp,t0,18f44 <test_27+0x4>
   18f70:	00020eb7          	lui	t4,0x20
   18f74:	fffe8e9b          	addiw	t4,t4,-1
   18f78:	01b00e13          	li	t3,27
   18f7c:	2fd31e63          	bne	t1,t4,19278 <fail>

0000000000018f80 <test_28>:
   18f80:	00000213          	li	tp,0
   18f84:	000200b7          	lui	ra,0x20
   18f88:	fff0809b          	addiw	ra,ra,-1
   18f8c:	00f09093          	slli	ra,ra,0xf
   18f90:	00100113          	li	sp,1
   18f94:	0020d1b3          	srl	gp,ra,sp
   18f98:	00120213          	addi	tp,tp,1 # 1 <_start+0x1>
   18f9c:	00200293          	li	t0,2
   18fa0:	fe5212e3          	bne	tp,t0,18f84 <test_28+0x4>
   18fa4:	7fffceb7          	lui	t4,0x7fffc
   18fa8:	01c00e13          	li	t3,28
   18fac:	2dd19663          	bne	gp,t4,19278 <fail>

0000000000018fb0 <test_29>:
   18fb0:	00000213          	li	tp,0
   18fb4:	000200b7          	lui	ra,0x20
   18fb8:	fff0809b          	addiw	ra,ra,-1
   18fbc:	00f09093          	slli	ra,ra,0xf
   18fc0:	00700113          	li	sp,7
   18fc4:	00000013          	nop
   18fc8:	0020d1b3          	srl	gp,ra,sp
   18fcc:	00120213          	addi	tp,tp,1 # 1 <_start+0x1>
   18fd0:	00200293          	li	t0,2
   18fd4:	fe5210e3          	bne	tp,t0,18fb4 <test_29+0x4>
   18fd8:	02000eb7          	lui	t4,0x2000
   18fdc:	f00e8e9b          	addiw	t4,t4,-256
   18fe0:	01d00e13          	li	t3,29
   18fe4:	29d19a63          	bne	gp,t4,19278 <fail>

0000000000018fe8 <test_30>:
   18fe8:	00000213          	li	tp,0
   18fec:	000200b7          	lui	ra,0x20
   18ff0:	fff0809b          	addiw	ra,ra,-1
   18ff4:	00f09093          	slli	ra,ra,0xf
   18ff8:	00f00113          	li	sp,15
   18ffc:	00000013          	nop
   19000:	00000013          	nop
   19004:	0020d1b3          	srl	gp,ra,sp
   19008:	00120213          	addi	tp,tp,1 # 1 <_start+0x1>
   1900c:	00200293          	li	t0,2
   19010:	fc521ee3          	bne	tp,t0,18fec <test_30+0x4>
   19014:	00020eb7          	lui	t4,0x20
   19018:	fffe8e9b          	addiw	t4,t4,-1
   1901c:	01e00e13          	li	t3,30
   19020:	25d19c63          	bne	gp,t4,19278 <fail>

0000000000019024 <test_31>:
   19024:	00000213          	li	tp,0
   19028:	000200b7          	lui	ra,0x20
   1902c:	fff0809b          	addiw	ra,ra,-1
   19030:	00f09093          	slli	ra,ra,0xf
   19034:	00000013          	nop
   19038:	00100113          	li	sp,1
   1903c:	0020d1b3          	srl	gp,ra,sp
   19040:	00120213          	addi	tp,tp,1 # 1 <_start+0x1>
   19044:	00200293          	li	t0,2
   19048:	fe5210e3          	bne	tp,t0,19028 <test_31+0x4>
   1904c:	7fffceb7          	lui	t4,0x7fffc
   19050:	01f00e13          	li	t3,31
   19054:	23d19263          	bne	gp,t4,19278 <fail>

0000000000019058 <test_32>:
   19058:	00000213          	li	tp,0
   1905c:	000200b7          	lui	ra,0x20
   19060:	fff0809b          	addiw	ra,ra,-1
   19064:	00f09093          	slli	ra,ra,0xf
   19068:	00000013          	nop
   1906c:	00700113          	li	sp,7
   19070:	00000013          	nop
   19074:	0020d1b3          	srl	gp,ra,sp
   19078:	00120213          	addi	tp,tp,1 # 1 <_start+0x1>
   1907c:	00200293          	li	t0,2
   19080:	fc521ee3          	bne	tp,t0,1905c <test_32+0x4>
   19084:	02000eb7          	lui	t4,0x2000
   19088:	f00e8e9b          	addiw	t4,t4,-256
   1908c:	02000e13          	li	t3,32
   19090:	1fd19463          	bne	gp,t4,19278 <fail>

0000000000019094 <test_33>:
   19094:	00000213          	li	tp,0
   19098:	000200b7          	lui	ra,0x20
   1909c:	fff0809b          	addiw	ra,ra,-1
   190a0:	00f09093          	slli	ra,ra,0xf
   190a4:	00000013          	nop
   190a8:	00000013          	nop
   190ac:	00f00113          	li	sp,15
   190b0:	0020d1b3          	srl	gp,ra,sp
   190b4:	00120213          	addi	tp,tp,1 # 1 <_start+0x1>
   190b8:	00200293          	li	t0,2
   190bc:	fc521ee3          	bne	tp,t0,19098 <test_33+0x4>
   190c0:	00020eb7          	lui	t4,0x20
   190c4:	fffe8e9b          	addiw	t4,t4,-1
   190c8:	02100e13          	li	t3,33
   190cc:	1bd19663          	bne	gp,t4,19278 <fail>

00000000000190d0 <test_34>:
   190d0:	00000213          	li	tp,0
   190d4:	00100113          	li	sp,1
   190d8:	000200b7          	lui	ra,0x20
   190dc:	fff0809b          	addiw	ra,ra,-1
   190e0:	00f09093          	slli	ra,ra,0xf
   190e4:	0020d1b3          	srl	gp,ra,sp
   190e8:	00120213          	addi	tp,tp,1 # 1 <_start+0x1>
   190ec:	00200293          	li	t0,2
   190f0:	fe5212e3          	bne	tp,t0,190d4 <test_34+0x4>
   190f4:	7fffceb7          	lui	t4,0x7fffc
   190f8:	02200e13          	li	t3,34
   190fc:	17d19e63          	bne	gp,t4,19278 <fail>

0000000000019100 <test_35>:
   19100:	00000213          	li	tp,0
   19104:	00700113          	li	sp,7
   19108:	000200b7          	lui	ra,0x20
   1910c:	fff0809b          	addiw	ra,ra,-1
   19110:	00f09093          	slli	ra,ra,0xf
   19114:	00000013          	nop
   19118:	0020d1b3          	srl	gp,ra,sp
   1911c:	00120213          	addi	tp,tp,1 # 1 <_start+0x1>
   19120:	00200293          	li	t0,2
   19124:	fe5210e3          	bne	tp,t0,19104 <test_35+0x4>
   19128:	02000eb7          	lui	t4,0x2000
   1912c:	f00e8e9b          	addiw	t4,t4,-256
   19130:	02300e13          	li	t3,35
   19134:	15d19263          	bne	gp,t4,19278 <fail>

0000000000019138 <test_36>:
   19138:	00000213          	li	tp,0
   1913c:	00f00113          	li	sp,15
   19140:	000200b7          	lui	ra,0x20
   19144:	fff0809b          	addiw	ra,ra,-1
   19148:	00f09093          	slli	ra,ra,0xf
   1914c:	00000013          	nop
   19150:	00000013          	nop
   19154:	0020d1b3          	srl	gp,ra,sp
   19158:	00120213          	addi	tp,tp,1 # 1 <_start+0x1>
   1915c:	00200293          	li	t0,2
   19160:	fc521ee3          	bne	tp,t0,1913c <test_36+0x4>
   19164:	00020eb7          	lui	t4,0x20
   19168:	fffe8e9b          	addiw	t4,t4,-1
   1916c:	02400e13          	li	t3,36
   19170:	11d19463          	bne	gp,t4,19278 <fail>

0000000000019174 <test_37>:
   19174:	00000213          	li	tp,0
   19178:	00100113          	li	sp,1
   1917c:	00000013          	nop
   19180:	000200b7          	lui	ra,0x20
   19184:	fff0809b          	addiw	ra,ra,-1
   19188:	00f09093          	slli	ra,ra,0xf
   1918c:	0020d1b3          	srl	gp,ra,sp
   19190:	00120213          	addi	tp,tp,1 # 1 <_start+0x1>
   19194:	00200293          	li	t0,2
   19198:	fe5210e3          	bne	tp,t0,19178 <test_37+0x4>
   1919c:	7fffceb7          	lui	t4,0x7fffc
   191a0:	02500e13          	li	t3,37
   191a4:	0dd19a63          	bne	gp,t4,19278 <fail>

00000000000191a8 <test_38>:
   191a8:	00000213          	li	tp,0
   191ac:	00700113          	li	sp,7
   191b0:	00000013          	nop
   191b4:	000200b7          	lui	ra,0x20
   191b8:	fff0809b          	addiw	ra,ra,-1
   191bc:	00f09093          	slli	ra,ra,0xf
   191c0:	00000013          	nop
   191c4:	0020d1b3          	srl	gp,ra,sp
   191c8:	00120213          	addi	tp,tp,1 # 1 <_start+0x1>
   191cc:	00200293          	li	t0,2
   191d0:	fc521ee3          	bne	tp,t0,191ac <test_38+0x4>
   191d4:	02000eb7          	lui	t4,0x2000
   191d8:	f00e8e9b          	addiw	t4,t4,-256
   191dc:	02600e13          	li	t3,38
   191e0:	09d19c63          	bne	gp,t4,19278 <fail>

00000000000191e4 <test_39>:
   191e4:	00000213          	li	tp,0
   191e8:	00f00113          	li	sp,15
   191ec:	00000013          	nop
   191f0:	00000013          	nop
   191f4:	000200b7          	lui	ra,0x20
   191f8:	fff0809b          	addiw	ra,ra,-1
   191fc:	00f09093          	slli	ra,ra,0xf
   19200:	0020d1b3          	srl	gp,ra,sp
   19204:	00120213          	addi	tp,tp,1 # 1 <_start+0x1>
   19208:	00200293          	li	t0,2
   1920c:	fc521ee3          	bne	tp,t0,191e8 <test_39+0x4>
   19210:	00020eb7          	lui	t4,0x20
   19214:	fffe8e9b          	addiw	t4,t4,-1
   19218:	02700e13          	li	t3,39
   1921c:	05d19e63          	bne	gp,t4,19278 <fail>

0000000000019220 <test_40>:
   19220:	00f00093          	li	ra,15
   19224:	00105133          	srl	sp,zero,ra
   19228:	00000e93          	li	t4,0
   1922c:	02800e13          	li	t3,40
   19230:	05d11463          	bne	sp,t4,19278 <fail>

0000000000019234 <test_41>:
   19234:	02000093          	li	ra,32
   19238:	0000d133          	srl	sp,ra,zero
   1923c:	02000e93          	li	t4,32
   19240:	02900e13          	li	t3,41
   19244:	03d11a63          	bne	sp,t4,19278 <fail>

0000000000019248 <test_42>:
   19248:	000050b3          	srl	ra,zero,zero
   1924c:	00000e93          	li	t4,0
   19250:	02a00e13          	li	t3,42
   19254:	03d09263          	bne	ra,t4,19278 <fail>

0000000000019258 <test_43>:
   19258:	40000093          	li	ra,1024
   1925c:	00001137          	lui	sp,0x1
   19260:	8001011b          	addiw	sp,sp,-2048
   19264:	0020d033          	srl	zero,ra,sp
   19268:	00000e93          	li	t4,0
   1926c:	02b00e13          	li	t3,43
   19270:	01d01463          	bne	zero,t4,19278 <fail>
   19274:	05c01863          	bne	zero,t3,192c4 <pass>

0000000000019278 <fail>:
   19278:	04500513          	li	a0,69
   1927c:	00004137          	lui	sp,0x4
   19280:	489040ef          	jal	ra,1df08 <printf_c>
   19284:	05200513          	li	a0,82
   19288:	00004137          	lui	sp,0x4
   1928c:	47d040ef          	jal	ra,1df08 <printf_c>
   19290:	00004137          	lui	sp,0x4
   19294:	475040ef          	jal	ra,1df08 <printf_c>
   19298:	04f00513          	li	a0,79
   1929c:	00004137          	lui	sp,0x4
   192a0:	469040ef          	jal	ra,1df08 <printf_c>
   192a4:	00004137          	lui	sp,0x4
   192a8:	05200513          	li	a0,82
   192ac:	00004137          	lui	sp,0x4
   192b0:	459040ef          	jal	ra,1df08 <printf_c>
   192b4:	00a00513          	li	a0,10
   192b8:	00004137          	lui	sp,0x4
   192bc:	44d040ef          	jal	ra,1df08 <printf_c>
   192c0:	0340006f          	j	192f4 <srli>

00000000000192c4 <pass>:
   192c4:	04f00513          	li	a0,79
   192c8:	00004137          	lui	sp,0x4
   192cc:	43d040ef          	jal	ra,1df08 <printf_c>
   192d0:	04b00513          	li	a0,75
   192d4:	00004137          	lui	sp,0x4
   192d8:	431040ef          	jal	ra,1df08 <printf_c>
   192dc:	00a00513          	li	a0,10
   192e0:	00004137          	lui	sp,0x4
   192e4:	425040ef          	jal	ra,1df08 <printf_c>
   192e8:	00c0006f          	j	192f4 <srli>

00000000000192ec <.test_name>:
   192ec:	696c7273          	csrrci	tp,0x696,24
   192f0:	0920                	addi	s0,sp,152
	...

00000000000192f4 <srli>:
   192f4:	00019537          	lui	a0,0x19
   192f8:	2ec50513          	addi	a0,a0,748 # 192ec <.test_name>

00000000000192fc <.prname_next>:
   192fc:	00004137          	lui	sp,0x4
   19300:	435040ef          	jal	ra,1df34 <printf_s>

0000000000019304 <test_2>:
   19304:	000200b7          	lui	ra,0x20
   19308:	fff0809b          	addiw	ra,ra,-1
   1930c:	00f09093          	slli	ra,ra,0xf
   19310:	0000d193          	srli	gp,ra,0x0
   19314:	00020eb7          	lui	t4,0x20
   19318:	fffe8e9b          	addiw	t4,t4,-1
   1931c:	00fe9e93          	slli	t4,t4,0xf
   19320:	00200e13          	li	t3,2
   19324:	33d19663          	bne	gp,t4,19650 <fail>

0000000000019328 <test_3>:
   19328:	000200b7          	lui	ra,0x20
   1932c:	fff0809b          	addiw	ra,ra,-1
   19330:	00f09093          	slli	ra,ra,0xf
   19334:	0010d193          	srli	gp,ra,0x1
   19338:	7fffceb7          	lui	t4,0x7fffc
   1933c:	00300e13          	li	t3,3
   19340:	31d19863          	bne	gp,t4,19650 <fail>

0000000000019344 <test_4>:
   19344:	000200b7          	lui	ra,0x20
   19348:	fff0809b          	addiw	ra,ra,-1
   1934c:	00f09093          	slli	ra,ra,0xf
   19350:	0070d193          	srli	gp,ra,0x7
   19354:	02000eb7          	lui	t4,0x2000
   19358:	f00e8e9b          	addiw	t4,t4,-256
   1935c:	00400e13          	li	t3,4
   19360:	2fd19863          	bne	gp,t4,19650 <fail>

0000000000019364 <test_5>:
   19364:	000200b7          	lui	ra,0x20
   19368:	fff0809b          	addiw	ra,ra,-1
   1936c:	00f09093          	slli	ra,ra,0xf
   19370:	00e0d193          	srli	gp,ra,0xe
   19374:	00040eb7          	lui	t4,0x40
   19378:	ffee8e9b          	addiw	t4,t4,-2
   1937c:	00500e13          	li	t3,5
   19380:	2dd19863          	bne	gp,t4,19650 <fail>

0000000000019384 <test_6>:
   19384:	000200b7          	lui	ra,0x20
   19388:	fff0809b          	addiw	ra,ra,-1
   1938c:	00f09093          	slli	ra,ra,0xf
   19390:	00108093          	addi	ra,ra,1 # 20001 <Arr_2_Glob+0x981>
   19394:	00f0d193          	srli	gp,ra,0xf
   19398:	00020eb7          	lui	t4,0x20
   1939c:	fffe8e9b          	addiw	t4,t4,-1
   193a0:	00600e13          	li	t3,6
   193a4:	2bd19663          	bne	gp,t4,19650 <fail>

00000000000193a8 <test_7>:
   193a8:	0010009b          	addiw	ra,zero,1
   193ac:	02009093          	slli	ra,ra,0x20
   193b0:	fff08093          	addi	ra,ra,-1
   193b4:	0000d193          	srli	gp,ra,0x0
   193b8:	00100e9b          	addiw	t4,zero,1
   193bc:	020e9e93          	slli	t4,t4,0x20
   193c0:	fffe8e93          	addi	t4,t4,-1 # 1ffff <Arr_2_Glob+0x97f>
   193c4:	00700e13          	li	t3,7
   193c8:	29d19463          	bne	gp,t4,19650 <fail>

00000000000193cc <test_8>:
   193cc:	0010009b          	addiw	ra,zero,1
   193d0:	02009093          	slli	ra,ra,0x20
   193d4:	fff08093          	addi	ra,ra,-1
   193d8:	0010d193          	srli	gp,ra,0x1
   193dc:	80000eb7          	lui	t4,0x80000
   193e0:	fffe8e9b          	addiw	t4,t4,-1
   193e4:	00800e13          	li	t3,8
   193e8:	27d19463          	bne	gp,t4,19650 <fail>

00000000000193ec <test_9>:
   193ec:	0010009b          	addiw	ra,zero,1
   193f0:	02009093          	slli	ra,ra,0x20
   193f4:	fff08093          	addi	ra,ra,-1
   193f8:	0070d193          	srli	gp,ra,0x7
   193fc:	02000eb7          	lui	t4,0x2000
   19400:	fffe8e9b          	addiw	t4,t4,-1
   19404:	00900e13          	li	t3,9
   19408:	25d19463          	bne	gp,t4,19650 <fail>

000000000001940c <test_10>:
   1940c:	0010009b          	addiw	ra,zero,1
   19410:	02009093          	slli	ra,ra,0x20
   19414:	fff08093          	addi	ra,ra,-1
   19418:	00e0d193          	srli	gp,ra,0xe
   1941c:	00040eb7          	lui	t4,0x40
   19420:	fffe8e9b          	addiw	t4,t4,-1
   19424:	00a00e13          	li	t3,10
   19428:	23d19463          	bne	gp,t4,19650 <fail>

000000000001942c <test_11>:
   1942c:	0010009b          	addiw	ra,zero,1
   19430:	02009093          	slli	ra,ra,0x20
   19434:	fff08093          	addi	ra,ra,-1
   19438:	01f0d193          	srli	gp,ra,0x1f
   1943c:	00100e93          	li	t4,1
   19440:	00b00e13          	li	t3,11
   19444:	21d19663          	bne	gp,t4,19650 <fail>

0000000000019448 <test_12>:
   19448:	212120b7          	lui	ra,0x21212
   1944c:	1210809b          	addiw	ra,ra,289
   19450:	0000d193          	srli	gp,ra,0x0
   19454:	21212eb7          	lui	t4,0x21212
   19458:	121e8e9b          	addiw	t4,t4,289
   1945c:	00c00e13          	li	t3,12
   19460:	1fd19863          	bne	gp,t4,19650 <fail>

0000000000019464 <test_13>:
   19464:	212120b7          	lui	ra,0x21212
   19468:	1210809b          	addiw	ra,ra,289
   1946c:	0010d193          	srli	gp,ra,0x1
   19470:	10909eb7          	lui	t4,0x10909
   19474:	090e8e9b          	addiw	t4,t4,144
   19478:	00d00e13          	li	t3,13
   1947c:	1dd19a63          	bne	gp,t4,19650 <fail>

0000000000019480 <test_14>:
   19480:	212120b7          	lui	ra,0x21212
   19484:	1210809b          	addiw	ra,ra,289
   19488:	0070d193          	srli	gp,ra,0x7
   1948c:	00424eb7          	lui	t4,0x424
   19490:	242e8e9b          	addiw	t4,t4,578
   19494:	00e00e13          	li	t3,14
   19498:	1bd19c63          	bne	gp,t4,19650 <fail>

000000000001949c <test_15>:
   1949c:	212120b7          	lui	ra,0x21212
   194a0:	1210809b          	addiw	ra,ra,289
   194a4:	00e0d193          	srli	gp,ra,0xe
   194a8:	00008eb7          	lui	t4,0x8
   194ac:	484e8e9b          	addiw	t4,t4,1156
   194b0:	00f00e13          	li	t3,15
   194b4:	19d19e63          	bne	gp,t4,19650 <fail>

00000000000194b8 <test_16>:
   194b8:	212120b7          	lui	ra,0x21212
   194bc:	1210809b          	addiw	ra,ra,289
   194c0:	01f0d193          	srli	gp,ra,0x1f
   194c4:	00000e93          	li	t4,0
   194c8:	01000e13          	li	t3,16
   194cc:	19d19263          	bne	gp,t4,19650 <fail>

00000000000194d0 <test_21>:
   194d0:	000200b7          	lui	ra,0x20
   194d4:	fff0809b          	addiw	ra,ra,-1
   194d8:	00f09093          	slli	ra,ra,0xf
   194dc:	0010d093          	srli	ra,ra,0x1
   194e0:	7fffceb7          	lui	t4,0x7fffc
   194e4:	01500e13          	li	t3,21
   194e8:	17d09463          	bne	ra,t4,19650 <fail>

00000000000194ec <test_22>:
   194ec:	00000213          	li	tp,0
   194f0:	000200b7          	lui	ra,0x20
   194f4:	fff0809b          	addiw	ra,ra,-1
   194f8:	00f09093          	slli	ra,ra,0xf
   194fc:	0010d193          	srli	gp,ra,0x1
   19500:	00018313          	mv	t1,gp
   19504:	00120213          	addi	tp,tp,1 # 1 <_start+0x1>
   19508:	00200293          	li	t0,2
   1950c:	fe5212e3          	bne	tp,t0,194f0 <test_22+0x4>
   19510:	7fffceb7          	lui	t4,0x7fffc
   19514:	01600e13          	li	t3,22
   19518:	13d31c63          	bne	t1,t4,19650 <fail>

000000000001951c <test_23>:
   1951c:	00000213          	li	tp,0
   19520:	000200b7          	lui	ra,0x20
   19524:	fff0809b          	addiw	ra,ra,-1
   19528:	00f09093          	slli	ra,ra,0xf
   1952c:	00e0d193          	srli	gp,ra,0xe
   19530:	00000013          	nop
   19534:	00018313          	mv	t1,gp
   19538:	00120213          	addi	tp,tp,1 # 1 <_start+0x1>
   1953c:	00200293          	li	t0,2
   19540:	fe5210e3          	bne	tp,t0,19520 <test_23+0x4>
   19544:	00040eb7          	lui	t4,0x40
   19548:	ffee8e9b          	addiw	t4,t4,-2
   1954c:	01700e13          	li	t3,23
   19550:	11d31063          	bne	t1,t4,19650 <fail>

0000000000019554 <test_24>:
   19554:	00000213          	li	tp,0
   19558:	000200b7          	lui	ra,0x20
   1955c:	fff0809b          	addiw	ra,ra,-1
   19560:	00f09093          	slli	ra,ra,0xf
   19564:	00f0d193          	srli	gp,ra,0xf
   19568:	00000013          	nop
   1956c:	00000013          	nop
   19570:	00018313          	mv	t1,gp
   19574:	00120213          	addi	tp,tp,1 # 1 <_start+0x1>
   19578:	00200293          	li	t0,2
   1957c:	fc521ee3          	bne	tp,t0,19558 <test_24+0x4>
   19580:	00020eb7          	lui	t4,0x20
   19584:	fffe8e9b          	addiw	t4,t4,-1
   19588:	01800e13          	li	t3,24
   1958c:	0dd31263          	bne	t1,t4,19650 <fail>

0000000000019590 <test_25>:
   19590:	00000213          	li	tp,0
   19594:	000200b7          	lui	ra,0x20
   19598:	fff0809b          	addiw	ra,ra,-1
   1959c:	00f09093          	slli	ra,ra,0xf
   195a0:	0010d193          	srli	gp,ra,0x1
   195a4:	00120213          	addi	tp,tp,1 # 1 <_start+0x1>
   195a8:	00200293          	li	t0,2
   195ac:	fe5214e3          	bne	tp,t0,19594 <test_25+0x4>
   195b0:	7fffceb7          	lui	t4,0x7fffc
   195b4:	01900e13          	li	t3,25
   195b8:	09d19c63          	bne	gp,t4,19650 <fail>

00000000000195bc <test_26>:
   195bc:	00000213          	li	tp,0
   195c0:	000200b7          	lui	ra,0x20
   195c4:	fff0809b          	addiw	ra,ra,-1
   195c8:	00f09093          	slli	ra,ra,0xf
   195cc:	00000013          	nop
   195d0:	00e0d193          	srli	gp,ra,0xe
   195d4:	00120213          	addi	tp,tp,1 # 1 <_start+0x1>
   195d8:	00200293          	li	t0,2
   195dc:	fe5212e3          	bne	tp,t0,195c0 <test_26+0x4>
   195e0:	00040eb7          	lui	t4,0x40
   195e4:	ffee8e9b          	addiw	t4,t4,-2
   195e8:	01a00e13          	li	t3,26
   195ec:	07d19263          	bne	gp,t4,19650 <fail>

00000000000195f0 <test_27>:
   195f0:	00000213          	li	tp,0
   195f4:	000200b7          	lui	ra,0x20
   195f8:	fff0809b          	addiw	ra,ra,-1
   195fc:	00f09093          	slli	ra,ra,0xf
   19600:	00000013          	nop
   19604:	00000013          	nop
   19608:	00f0d193          	srli	gp,ra,0xf
   1960c:	00120213          	addi	tp,tp,1 # 1 <_start+0x1>
   19610:	00200293          	li	t0,2
   19614:	fe5210e3          	bne	tp,t0,195f4 <test_27+0x4>
   19618:	00020eb7          	lui	t4,0x20
   1961c:	fffe8e9b          	addiw	t4,t4,-1
   19620:	01b00e13          	li	t3,27
   19624:	03d19663          	bne	gp,t4,19650 <fail>

0000000000019628 <test_28>:
   19628:	01f05093          	srli	ra,zero,0x1f
   1962c:	00000e93          	li	t4,0
   19630:	01c00e13          	li	t3,28
   19634:	01d09e63          	bne	ra,t4,19650 <fail>

0000000000019638 <test_29>:
   19638:	02100093          	li	ra,33
   1963c:	0140d013          	srli	zero,ra,0x14
   19640:	00000e93          	li	t4,0
   19644:	01d00e13          	li	t3,29
   19648:	01d01463          	bne	zero,t4,19650 <fail>
   1964c:	05c01863          	bne	zero,t3,1969c <pass>

0000000000019650 <fail>:
   19650:	04500513          	li	a0,69
   19654:	00004137          	lui	sp,0x4
   19658:	0b1040ef          	jal	ra,1df08 <printf_c>
   1965c:	05200513          	li	a0,82
   19660:	00004137          	lui	sp,0x4
   19664:	0a5040ef          	jal	ra,1df08 <printf_c>
   19668:	00004137          	lui	sp,0x4
   1966c:	09d040ef          	jal	ra,1df08 <printf_c>
   19670:	04f00513          	li	a0,79
   19674:	00004137          	lui	sp,0x4
   19678:	091040ef          	jal	ra,1df08 <printf_c>
   1967c:	00004137          	lui	sp,0x4
   19680:	05200513          	li	a0,82
   19684:	00004137          	lui	sp,0x4
   19688:	081040ef          	jal	ra,1df08 <printf_c>
   1968c:	00a00513          	li	a0,10
   19690:	00004137          	lui	sp,0x4
   19694:	075040ef          	jal	ra,1df08 <printf_c>
   19698:	0340006f          	j	196cc <sub>

000000000001969c <pass>:
   1969c:	04f00513          	li	a0,79
   196a0:	00004137          	lui	sp,0x4
   196a4:	065040ef          	jal	ra,1df08 <printf_c>
   196a8:	04b00513          	li	a0,75
   196ac:	00004137          	lui	sp,0x4
   196b0:	059040ef          	jal	ra,1df08 <printf_c>
   196b4:	00a00513          	li	a0,10
   196b8:	00004137          	lui	sp,0x4
   196bc:	04d040ef          	jal	ra,1df08 <printf_c>
   196c0:	00c0006f          	j	196cc <sub>

00000000000196c4 <.test_name>:
   196c4:	20627573          	csrrci	a0,0x206,4
   196c8:	0009                	c.addi	zero,2
	...

00000000000196cc <sub>:
   196cc:	00019537          	lui	a0,0x19
   196d0:	6c450513          	addi	a0,a0,1732 # 196c4 <.test_name>

00000000000196d4 <.prname_next>:
   196d4:	00004137          	lui	sp,0x4
   196d8:	05d040ef          	jal	ra,1df34 <printf_s>

00000000000196dc <test_2>:
   196dc:	00000093          	li	ra,0
   196e0:	00000113          	li	sp,0
   196e4:	402081b3          	sub	gp,ra,sp
   196e8:	00000e93          	li	t4,0
   196ec:	00200e13          	li	t3,2
   196f0:	51d19e63          	bne	gp,t4,19c0c <fail>

00000000000196f4 <test_3>:
   196f4:	00100093          	li	ra,1
   196f8:	00100113          	li	sp,1
   196fc:	402081b3          	sub	gp,ra,sp
   19700:	00000e93          	li	t4,0
   19704:	00300e13          	li	t3,3
   19708:	51d19263          	bne	gp,t4,19c0c <fail>

000000000001970c <test_4>:
   1970c:	00300093          	li	ra,3
   19710:	00700113          	li	sp,7
   19714:	402081b3          	sub	gp,ra,sp
   19718:	00100e9b          	addiw	t4,zero,1
   1971c:	020e9e93          	slli	t4,t4,0x20
   19720:	ffce8e93          	addi	t4,t4,-4 # 1fffc <Arr_2_Glob+0x97c>
   19724:	00400e13          	li	t3,4
   19728:	4fd19263          	bne	gp,t4,19c0c <fail>

000000000001972c <test_5>:
   1972c:	00000093          	li	ra,0
   19730:	00020137          	lui	sp,0x20
   19734:	fff1011b          	addiw	sp,sp,-1
   19738:	00f11113          	slli	sp,sp,0xf
   1973c:	402081b3          	sub	gp,ra,sp
   19740:	00008eb7          	lui	t4,0x8
   19744:	00500e13          	li	t3,5
   19748:	4dd19263          	bne	gp,t4,19c0c <fail>

000000000001974c <test_6>:
   1974c:	0010009b          	addiw	ra,zero,1
   19750:	01f09093          	slli	ra,ra,0x1f
   19754:	00000113          	li	sp,0
   19758:	402081b3          	sub	gp,ra,sp
   1975c:	00100e9b          	addiw	t4,zero,1
   19760:	01fe9e93          	slli	t4,t4,0x1f
   19764:	00600e13          	li	t3,6
   19768:	4bd19263          	bne	gp,t4,19c0c <fail>

000000000001976c <test_7>:
   1976c:	0010009b          	addiw	ra,zero,1
   19770:	01f09093          	slli	ra,ra,0x1f
   19774:	00020137          	lui	sp,0x20
   19778:	fff1011b          	addiw	sp,sp,-1
   1977c:	00f11113          	slli	sp,sp,0xf
   19780:	402081b3          	sub	gp,ra,sp
   19784:	00010eb7          	lui	t4,0x10
   19788:	001e8e9b          	addiw	t4,t4,1
   1978c:	00fe9e93          	slli	t4,t4,0xf
   19790:	00700e13          	li	t3,7
   19794:	47d19c63          	bne	gp,t4,19c0c <fail>

0000000000019798 <test_8>:
   19798:	00000093          	li	ra,0
   1979c:	00008137          	lui	sp,0x8
   197a0:	fff1011b          	addiw	sp,sp,-1
   197a4:	402081b3          	sub	gp,ra,sp
   197a8:	00020eb7          	lui	t4,0x20
   197ac:	fffe8e9b          	addiw	t4,t4,-1
   197b0:	00fe9e93          	slli	t4,t4,0xf
   197b4:	001e8e93          	addi	t4,t4,1 # 20001 <Arr_2_Glob+0x981>
   197b8:	00800e13          	li	t3,8
   197bc:	45d19863          	bne	gp,t4,19c0c <fail>

00000000000197c0 <test_9>:
   197c0:	800000b7          	lui	ra,0x80000
   197c4:	fff0809b          	addiw	ra,ra,-1
   197c8:	00000113          	li	sp,0
   197cc:	402081b3          	sub	gp,ra,sp
   197d0:	80000eb7          	lui	t4,0x80000
   197d4:	fffe8e9b          	addiw	t4,t4,-1
   197d8:	00900e13          	li	t3,9
   197dc:	43d19863          	bne	gp,t4,19c0c <fail>

00000000000197e0 <test_10>:
   197e0:	800000b7          	lui	ra,0x80000
   197e4:	fff0809b          	addiw	ra,ra,-1
   197e8:	00008137          	lui	sp,0x8
   197ec:	fff1011b          	addiw	sp,sp,-1
   197f0:	402081b3          	sub	gp,ra,sp
   197f4:	7fff8eb7          	lui	t4,0x7fff8
   197f8:	00a00e13          	li	t3,10
   197fc:	41d19863          	bne	gp,t4,19c0c <fail>

0000000000019800 <test_11>:
   19800:	0010009b          	addiw	ra,zero,1
   19804:	01f09093          	slli	ra,ra,0x1f
   19808:	00008137          	lui	sp,0x8
   1980c:	fff1011b          	addiw	sp,sp,-1
   19810:	402081b3          	sub	gp,ra,sp
   19814:	7fff8eb7          	lui	t4,0x7fff8
   19818:	001e8e9b          	addiw	t4,t4,1
   1981c:	00b00e13          	li	t3,11
   19820:	3fd19663          	bne	gp,t4,19c0c <fail>

0000000000019824 <test_12>:
   19824:	800000b7          	lui	ra,0x80000
   19828:	fff0809b          	addiw	ra,ra,-1
   1982c:	00020137          	lui	sp,0x20
   19830:	fff1011b          	addiw	sp,sp,-1
   19834:	00f11113          	slli	sp,sp,0xf
   19838:	402081b3          	sub	gp,ra,sp
   1983c:	00010eb7          	lui	t4,0x10
   19840:	001e8e9b          	addiw	t4,t4,1
   19844:	00fe9e93          	slli	t4,t4,0xf
   19848:	fffe8e93          	addi	t4,t4,-1 # ffff <coremarkBenchmark+0xff57>
   1984c:	00c00e13          	li	t3,12
   19850:	3bd19e63          	bne	gp,t4,19c0c <fail>

0000000000019854 <test_13>:
   19854:	00000093          	li	ra,0
   19858:	0010011b          	addiw	sp,zero,1
   1985c:	02011113          	slli	sp,sp,0x20
   19860:	fff10113          	addi	sp,sp,-1 # 1ffff <Arr_2_Glob+0x97f>
   19864:	402081b3          	sub	gp,ra,sp
   19868:	00100e93          	li	t4,1
   1986c:	00d00e13          	li	t3,13
   19870:	39d19e63          	bne	gp,t4,19c0c <fail>

0000000000019874 <test_14>:
   19874:	0010009b          	addiw	ra,zero,1
   19878:	02009093          	slli	ra,ra,0x20
   1987c:	fff08093          	addi	ra,ra,-1 # ffffffff7fffffff <heap_memory_used+0xffffffff7ffddd47>
   19880:	00100113          	li	sp,1
   19884:	402081b3          	sub	gp,ra,sp
   19888:	00100e9b          	addiw	t4,zero,1
   1988c:	020e9e93          	slli	t4,t4,0x20
   19890:	ffee8e93          	addi	t4,t4,-2
   19894:	00e00e13          	li	t3,14
   19898:	37d19a63          	bne	gp,t4,19c0c <fail>

000000000001989c <test_15>:
   1989c:	0010009b          	addiw	ra,zero,1
   198a0:	02009093          	slli	ra,ra,0x20
   198a4:	fff08093          	addi	ra,ra,-1
   198a8:	0010011b          	addiw	sp,zero,1
   198ac:	02011113          	slli	sp,sp,0x20
   198b0:	fff10113          	addi	sp,sp,-1
   198b4:	402081b3          	sub	gp,ra,sp
   198b8:	00000e93          	li	t4,0
   198bc:	00f00e13          	li	t3,15
   198c0:	35d19663          	bne	gp,t4,19c0c <fail>

00000000000198c4 <test_16>:
   198c4:	00d00093          	li	ra,13
   198c8:	00b00113          	li	sp,11
   198cc:	402080b3          	sub	ra,ra,sp
   198d0:	00200e93          	li	t4,2
   198d4:	01000e13          	li	t3,16
   198d8:	33d09a63          	bne	ra,t4,19c0c <fail>

00000000000198dc <test_17>:
   198dc:	00e00093          	li	ra,14
   198e0:	00b00113          	li	sp,11
   198e4:	40208133          	sub	sp,ra,sp
   198e8:	00300e93          	li	t4,3
   198ec:	01100e13          	li	t3,17
   198f0:	31d11e63          	bne	sp,t4,19c0c <fail>

00000000000198f4 <test_18>:
   198f4:	00d00093          	li	ra,13
   198f8:	401080b3          	sub	ra,ra,ra
   198fc:	00000e93          	li	t4,0
   19900:	01200e13          	li	t3,18
   19904:	31d09463          	bne	ra,t4,19c0c <fail>

0000000000019908 <test_19>:
   19908:	00000213          	li	tp,0
   1990c:	00d00093          	li	ra,13
   19910:	00b00113          	li	sp,11
   19914:	402081b3          	sub	gp,ra,sp
   19918:	00018313          	mv	t1,gp
   1991c:	00120213          	addi	tp,tp,1 # 1 <_start+0x1>
   19920:	00200293          	li	t0,2
   19924:	fe5214e3          	bne	tp,t0,1990c <test_19+0x4>
   19928:	00200e93          	li	t4,2
   1992c:	01300e13          	li	t3,19
   19930:	2dd31e63          	bne	t1,t4,19c0c <fail>

0000000000019934 <test_20>:
   19934:	00000213          	li	tp,0
   19938:	00e00093          	li	ra,14
   1993c:	00b00113          	li	sp,11
   19940:	402081b3          	sub	gp,ra,sp
   19944:	00000013          	nop
   19948:	00018313          	mv	t1,gp
   1994c:	00120213          	addi	tp,tp,1 # 1 <_start+0x1>
   19950:	00200293          	li	t0,2
   19954:	fe5212e3          	bne	tp,t0,19938 <test_20+0x4>
   19958:	00300e93          	li	t4,3
   1995c:	01400e13          	li	t3,20
   19960:	2bd31663          	bne	t1,t4,19c0c <fail>

0000000000019964 <test_21>:
   19964:	00000213          	li	tp,0
   19968:	00f00093          	li	ra,15
   1996c:	00b00113          	li	sp,11
   19970:	402081b3          	sub	gp,ra,sp
   19974:	00000013          	nop
   19978:	00000013          	nop
   1997c:	00018313          	mv	t1,gp
   19980:	00120213          	addi	tp,tp,1 # 1 <_start+0x1>
   19984:	00200293          	li	t0,2
   19988:	fe5210e3          	bne	tp,t0,19968 <test_21+0x4>
   1998c:	00400e93          	li	t4,4
   19990:	01500e13          	li	t3,21
   19994:	27d31c63          	bne	t1,t4,19c0c <fail>

0000000000019998 <test_22>:
   19998:	00000213          	li	tp,0
   1999c:	00d00093          	li	ra,13
   199a0:	00b00113          	li	sp,11
   199a4:	402081b3          	sub	gp,ra,sp
   199a8:	00120213          	addi	tp,tp,1 # 1 <_start+0x1>
   199ac:	00200293          	li	t0,2
   199b0:	fe5216e3          	bne	tp,t0,1999c <test_22+0x4>
   199b4:	00200e93          	li	t4,2
   199b8:	01600e13          	li	t3,22
   199bc:	25d19863          	bne	gp,t4,19c0c <fail>

00000000000199c0 <test_23>:
   199c0:	00000213          	li	tp,0
   199c4:	00e00093          	li	ra,14
   199c8:	00b00113          	li	sp,11
   199cc:	00000013          	nop
   199d0:	402081b3          	sub	gp,ra,sp
   199d4:	00120213          	addi	tp,tp,1 # 1 <_start+0x1>
   199d8:	00200293          	li	t0,2
   199dc:	fe5214e3          	bne	tp,t0,199c4 <test_23+0x4>
   199e0:	00300e93          	li	t4,3
   199e4:	01700e13          	li	t3,23
   199e8:	23d19263          	bne	gp,t4,19c0c <fail>

00000000000199ec <test_24>:
   199ec:	00000213          	li	tp,0
   199f0:	00f00093          	li	ra,15
   199f4:	00b00113          	li	sp,11
   199f8:	00000013          	nop
   199fc:	00000013          	nop
   19a00:	402081b3          	sub	gp,ra,sp
   19a04:	00120213          	addi	tp,tp,1 # 1 <_start+0x1>
   19a08:	00200293          	li	t0,2
   19a0c:	fe5212e3          	bne	tp,t0,199f0 <test_24+0x4>
   19a10:	00400e93          	li	t4,4
   19a14:	01800e13          	li	t3,24
   19a18:	1fd19a63          	bne	gp,t4,19c0c <fail>

0000000000019a1c <test_25>:
   19a1c:	00000213          	li	tp,0
   19a20:	00d00093          	li	ra,13
   19a24:	00000013          	nop
   19a28:	00b00113          	li	sp,11
   19a2c:	402081b3          	sub	gp,ra,sp
   19a30:	00120213          	addi	tp,tp,1 # 1 <_start+0x1>
   19a34:	00200293          	li	t0,2
   19a38:	fe5214e3          	bne	tp,t0,19a20 <test_25+0x4>
   19a3c:	00200e93          	li	t4,2
   19a40:	01900e13          	li	t3,25
   19a44:	1dd19463          	bne	gp,t4,19c0c <fail>

0000000000019a48 <test_26>:
   19a48:	00000213          	li	tp,0
   19a4c:	00e00093          	li	ra,14
   19a50:	00000013          	nop
   19a54:	00b00113          	li	sp,11
   19a58:	00000013          	nop
   19a5c:	402081b3          	sub	gp,ra,sp
   19a60:	00120213          	addi	tp,tp,1 # 1 <_start+0x1>
   19a64:	00200293          	li	t0,2
   19a68:	fe5212e3          	bne	tp,t0,19a4c <test_26+0x4>
   19a6c:	00300e93          	li	t4,3
   19a70:	01a00e13          	li	t3,26
   19a74:	19d19c63          	bne	gp,t4,19c0c <fail>

0000000000019a78 <test_27>:
   19a78:	00000213          	li	tp,0
   19a7c:	00f00093          	li	ra,15
   19a80:	00000013          	nop
   19a84:	00000013          	nop
   19a88:	00b00113          	li	sp,11
   19a8c:	402081b3          	sub	gp,ra,sp
   19a90:	00120213          	addi	tp,tp,1 # 1 <_start+0x1>
   19a94:	00200293          	li	t0,2
   19a98:	fe5212e3          	bne	tp,t0,19a7c <test_27+0x4>
   19a9c:	00400e93          	li	t4,4
   19aa0:	01b00e13          	li	t3,27
   19aa4:	17d19463          	bne	gp,t4,19c0c <fail>

0000000000019aa8 <test_28>:
   19aa8:	00000213          	li	tp,0
   19aac:	00b00113          	li	sp,11
   19ab0:	00d00093          	li	ra,13
   19ab4:	402081b3          	sub	gp,ra,sp
   19ab8:	00120213          	addi	tp,tp,1 # 1 <_start+0x1>
   19abc:	00200293          	li	t0,2
   19ac0:	fe5216e3          	bne	tp,t0,19aac <test_28+0x4>
   19ac4:	00200e93          	li	t4,2
   19ac8:	01c00e13          	li	t3,28
   19acc:	15d19063          	bne	gp,t4,19c0c <fail>

0000000000019ad0 <test_29>:
   19ad0:	00000213          	li	tp,0
   19ad4:	00b00113          	li	sp,11
   19ad8:	00e00093          	li	ra,14
   19adc:	00000013          	nop
   19ae0:	402081b3          	sub	gp,ra,sp
   19ae4:	00120213          	addi	tp,tp,1 # 1 <_start+0x1>
   19ae8:	00200293          	li	t0,2
   19aec:	fe5214e3          	bne	tp,t0,19ad4 <test_29+0x4>
   19af0:	00300e93          	li	t4,3
   19af4:	01d00e13          	li	t3,29
   19af8:	11d19a63          	bne	gp,t4,19c0c <fail>

0000000000019afc <test_30>:
   19afc:	00000213          	li	tp,0
   19b00:	00b00113          	li	sp,11
   19b04:	00f00093          	li	ra,15
   19b08:	00000013          	nop
   19b0c:	00000013          	nop
   19b10:	402081b3          	sub	gp,ra,sp
   19b14:	00120213          	addi	tp,tp,1 # 1 <_start+0x1>
   19b18:	00200293          	li	t0,2
   19b1c:	fe5212e3          	bne	tp,t0,19b00 <test_30+0x4>
   19b20:	00400e93          	li	t4,4
   19b24:	01e00e13          	li	t3,30
   19b28:	0fd19263          	bne	gp,t4,19c0c <fail>

0000000000019b2c <test_31>:
   19b2c:	00000213          	li	tp,0
   19b30:	00b00113          	li	sp,11
   19b34:	00000013          	nop
   19b38:	00d00093          	li	ra,13
   19b3c:	402081b3          	sub	gp,ra,sp
   19b40:	00120213          	addi	tp,tp,1 # 1 <_start+0x1>
   19b44:	00200293          	li	t0,2
   19b48:	fe5214e3          	bne	tp,t0,19b30 <test_31+0x4>
   19b4c:	00200e93          	li	t4,2
   19b50:	01f00e13          	li	t3,31
   19b54:	0bd19c63          	bne	gp,t4,19c0c <fail>

0000000000019b58 <test_32>:
   19b58:	00000213          	li	tp,0
   19b5c:	00b00113          	li	sp,11
   19b60:	00000013          	nop
   19b64:	00e00093          	li	ra,14
   19b68:	00000013          	nop
   19b6c:	402081b3          	sub	gp,ra,sp
   19b70:	00120213          	addi	tp,tp,1 # 1 <_start+0x1>
   19b74:	00200293          	li	t0,2
   19b78:	fe5212e3          	bne	tp,t0,19b5c <test_32+0x4>
   19b7c:	00300e93          	li	t4,3
   19b80:	02000e13          	li	t3,32
   19b84:	09d19463          	bne	gp,t4,19c0c <fail>

0000000000019b88 <test_33>:
   19b88:	00000213          	li	tp,0
   19b8c:	00b00113          	li	sp,11
   19b90:	00000013          	nop
   19b94:	00000013          	nop
   19b98:	00f00093          	li	ra,15
   19b9c:	402081b3          	sub	gp,ra,sp
   19ba0:	00120213          	addi	tp,tp,1 # 1 <_start+0x1>
   19ba4:	00200293          	li	t0,2
   19ba8:	fe5212e3          	bne	tp,t0,19b8c <test_33+0x4>
   19bac:	00400e93          	li	t4,4
   19bb0:	02100e13          	li	t3,33
   19bb4:	05d19c63          	bne	gp,t4,19c0c <fail>

0000000000019bb8 <test_34>:
   19bb8:	ff100093          	li	ra,-15
   19bbc:	40100133          	neg	sp,ra
   19bc0:	00f00e93          	li	t4,15
   19bc4:	02200e13          	li	t3,34
   19bc8:	05d11263          	bne	sp,t4,19c0c <fail>

0000000000019bcc <test_35>:
   19bcc:	02000093          	li	ra,32
   19bd0:	40008133          	sub	sp,ra,zero
   19bd4:	02000e93          	li	t4,32
   19bd8:	02300e13          	li	t3,35
   19bdc:	03d11863          	bne	sp,t4,19c0c <fail>

0000000000019be0 <test_36>:
   19be0:	400000b3          	neg	ra,zero
   19be4:	00000e93          	li	t4,0
   19be8:	02400e13          	li	t3,36
   19bec:	03d09063          	bne	ra,t4,19c0c <fail>

0000000000019bf0 <test_37>:
   19bf0:	01000093          	li	ra,16
   19bf4:	01e00113          	li	sp,30
   19bf8:	40208033          	sub	zero,ra,sp
   19bfc:	00000e93          	li	t4,0
   19c00:	02500e13          	li	t3,37
   19c04:	01d01463          	bne	zero,t4,19c0c <fail>
   19c08:	05c01863          	bne	zero,t3,19c58 <pass>

0000000000019c0c <fail>:
   19c0c:	04500513          	li	a0,69
   19c10:	00004137          	lui	sp,0x4
   19c14:	2f4040ef          	jal	ra,1df08 <printf_c>
   19c18:	05200513          	li	a0,82
   19c1c:	00004137          	lui	sp,0x4
   19c20:	2e8040ef          	jal	ra,1df08 <printf_c>
   19c24:	00004137          	lui	sp,0x4
   19c28:	2e0040ef          	jal	ra,1df08 <printf_c>
   19c2c:	04f00513          	li	a0,79
   19c30:	00004137          	lui	sp,0x4
   19c34:	2d4040ef          	jal	ra,1df08 <printf_c>
   19c38:	00004137          	lui	sp,0x4
   19c3c:	05200513          	li	a0,82
   19c40:	00004137          	lui	sp,0x4
   19c44:	2c4040ef          	jal	ra,1df08 <printf_c>
   19c48:	00a00513          	li	a0,10
   19c4c:	00004137          	lui	sp,0x4
   19c50:	2b8040ef          	jal	ra,1df08 <printf_c>
   19c54:	0300006f          	j	19c84 <sw>

0000000000019c58 <pass>:
   19c58:	04f00513          	li	a0,79
   19c5c:	00004137          	lui	sp,0x4
   19c60:	2a8040ef          	jal	ra,1df08 <printf_c>
   19c64:	04b00513          	li	a0,75
   19c68:	00004137          	lui	sp,0x4
   19c6c:	29c040ef          	jal	ra,1df08 <printf_c>
   19c70:	00a00513          	li	a0,10
   19c74:	00004137          	lui	sp,0x4
   19c78:	290040ef          	jal	ra,1df08 <printf_c>
   19c7c:	0080006f          	j	19c84 <sw>

0000000000019c80 <.test_name>:
   19c80:	00097773          	csrrci	a4,0x0,18

0000000000019c84 <sw>:
   19c84:	0001a537          	lui	a0,0x1a
   19c88:	c8050513          	addi	a0,a0,-896 # 19c80 <.test_name>

0000000000019c8c <.prname_next>:
   19c8c:	00004137          	lui	sp,0x4
   19c90:	2a4040ef          	jal	ra,1df34 <printf_s>

0000000000019c94 <test_2>:
   19c94:	00006097          	auipc	ra,0x6
   19c98:	98408093          	addi	ra,ra,-1660 # 1f618 <tdat>
   19c9c:	00aa0137          	lui	sp,0xaa0
   19ca0:	0aa1011b          	addiw	sp,sp,170
   19ca4:	0020a023          	sw	sp,0(ra)
   19ca8:	0000a183          	lw	gp,0(ra)
   19cac:	00aa0eb7          	lui	t4,0xaa0
   19cb0:	0aae8e9b          	addiw	t4,t4,170
   19cb4:	00200e13          	li	t3,2
   19cb8:	51d19063          	bne	gp,t4,1a1b8 <fail>

0000000000019cbc <test_3>:
   19cbc:	00006097          	auipc	ra,0x6
   19cc0:	95c08093          	addi	ra,ra,-1700 # 1f618 <tdat>
   19cc4:	000aa137          	lui	sp,0xaa
   19cc8:	00b1011b          	addiw	sp,sp,11
   19ccc:	00c11113          	slli	sp,sp,0xc
   19cd0:	a0010113          	addi	sp,sp,-1536 # a9a00 <heap_memory_used+0x87748>
   19cd4:	0020a223          	sw	sp,4(ra)
   19cd8:	0040a183          	lw	gp,4(ra)
   19cdc:	000aaeb7          	lui	t4,0xaa
   19ce0:	00be8e9b          	addiw	t4,t4,11
   19ce4:	00ce9e93          	slli	t4,t4,0xc
   19ce8:	a00e8e93          	addi	t4,t4,-1536 # a9a00 <heap_memory_used+0x87748>
   19cec:	00300e13          	li	t3,3
   19cf0:	4dd19463          	bne	gp,t4,1a1b8 <fail>

0000000000019cf4 <test_4>:
   19cf4:	00006097          	auipc	ra,0x6
   19cf8:	92408093          	addi	ra,ra,-1756 # 1f618 <tdat>
   19cfc:	0aa01137          	lui	sp,0xaa01
   19d00:	aa01011b          	addiw	sp,sp,-1376
   19d04:	0020a423          	sw	sp,8(ra)
   19d08:	0080a183          	lw	gp,8(ra)
   19d0c:	0aa01eb7          	lui	t4,0xaa01
   19d10:	aa0e8e9b          	addiw	t4,t4,-1376
   19d14:	00400e13          	li	t3,4
   19d18:	4bd19063          	bne	gp,t4,1a1b8 <fail>

0000000000019d1c <test_5>:
   19d1c:	00006097          	auipc	ra,0x6
   19d20:	8fc08093          	addi	ra,ra,-1796 # 1f618 <tdat>
   19d24:	00050137          	lui	sp,0x50
   19d28:	0551011b          	addiw	sp,sp,85
   19d2c:	00d11113          	slli	sp,sp,0xd
   19d30:	00a10113          	addi	sp,sp,10 # 5000a <heap_memory_used+0x2dd52>
   19d34:	0020a623          	sw	sp,12(ra)
   19d38:	00c0a183          	lw	gp,12(ra)
   19d3c:	00050eb7          	lui	t4,0x50
   19d40:	055e8e9b          	addiw	t4,t4,85
   19d44:	00de9e93          	slli	t4,t4,0xd
   19d48:	00ae8e93          	addi	t4,t4,10 # 5000a <heap_memory_used+0x2dd52>
   19d4c:	00500e13          	li	t3,5
   19d50:	47d19463          	bne	gp,t4,1a1b8 <fail>

0000000000019d54 <test_6>:
   19d54:	00006097          	auipc	ra,0x6
   19d58:	8e008093          	addi	ra,ra,-1824 # 1f634 <tdat8>
   19d5c:	00aa0137          	lui	sp,0xaa0
   19d60:	0aa1011b          	addiw	sp,sp,170
   19d64:	fe20aa23          	sw	sp,-12(ra)
   19d68:	ff40a183          	lw	gp,-12(ra)
   19d6c:	00aa0eb7          	lui	t4,0xaa0
   19d70:	0aae8e9b          	addiw	t4,t4,170
   19d74:	00600e13          	li	t3,6
   19d78:	45d19063          	bne	gp,t4,1a1b8 <fail>

0000000000019d7c <test_7>:
   19d7c:	00006097          	auipc	ra,0x6
   19d80:	8b808093          	addi	ra,ra,-1864 # 1f634 <tdat8>
   19d84:	000aa137          	lui	sp,0xaa
   19d88:	00b1011b          	addiw	sp,sp,11
   19d8c:	00c11113          	slli	sp,sp,0xc
   19d90:	a0010113          	addi	sp,sp,-1536 # a9a00 <heap_memory_used+0x87748>
   19d94:	fe20ac23          	sw	sp,-8(ra)
   19d98:	ff80a183          	lw	gp,-8(ra)
   19d9c:	000aaeb7          	lui	t4,0xaa
   19da0:	00be8e9b          	addiw	t4,t4,11
   19da4:	00ce9e93          	slli	t4,t4,0xc
   19da8:	a00e8e93          	addi	t4,t4,-1536 # a9a00 <heap_memory_used+0x87748>
   19dac:	00700e13          	li	t3,7
   19db0:	41d19463          	bne	gp,t4,1a1b8 <fail>

0000000000019db4 <test_8>:
   19db4:	00006097          	auipc	ra,0x6
   19db8:	88008093          	addi	ra,ra,-1920 # 1f634 <tdat8>
   19dbc:	0aa01137          	lui	sp,0xaa01
   19dc0:	aa01011b          	addiw	sp,sp,-1376
   19dc4:	fe20ae23          	sw	sp,-4(ra)
   19dc8:	ffc0a183          	lw	gp,-4(ra)
   19dcc:	0aa01eb7          	lui	t4,0xaa01
   19dd0:	aa0e8e9b          	addiw	t4,t4,-1376
   19dd4:	00800e13          	li	t3,8
   19dd8:	3fd19063          	bne	gp,t4,1a1b8 <fail>

0000000000019ddc <test_9>:
   19ddc:	00006097          	auipc	ra,0x6
   19de0:	85808093          	addi	ra,ra,-1960 # 1f634 <tdat8>
   19de4:	00050137          	lui	sp,0x50
   19de8:	0551011b          	addiw	sp,sp,85
   19dec:	00d11113          	slli	sp,sp,0xd
   19df0:	00a10113          	addi	sp,sp,10 # 5000a <heap_memory_used+0x2dd52>
   19df4:	0020a023          	sw	sp,0(ra)
   19df8:	0000a183          	lw	gp,0(ra)
   19dfc:	00050eb7          	lui	t4,0x50
   19e00:	055e8e9b          	addiw	t4,t4,85
   19e04:	00de9e93          	slli	t4,t4,0xd
   19e08:	00ae8e93          	addi	t4,t4,10 # 5000a <heap_memory_used+0x2dd52>
   19e0c:	00900e13          	li	t3,9
   19e10:	3bd19463          	bne	gp,t4,1a1b8 <fail>

0000000000019e14 <test_10>:
   19e14:	00006097          	auipc	ra,0x6
   19e18:	82408093          	addi	ra,ra,-2012 # 1f638 <tdat9>
   19e1c:	12345137          	lui	sp,0x12345
   19e20:	6781011b          	addiw	sp,sp,1656
   19e24:	fe008213          	addi	tp,ra,-32
   19e28:	02222023          	sw	sp,32(tp) # 20 <initReg+0x18>
   19e2c:	0000a183          	lw	gp,0(ra)
   19e30:	12345eb7          	lui	t4,0x12345
   19e34:	678e8e9b          	addiw	t4,t4,1656
   19e38:	00a00e13          	li	t3,10
   19e3c:	37d19e63          	bne	gp,t4,1a1b8 <fail>

0000000000019e40 <test_11>:
   19e40:	00005097          	auipc	ra,0x5
   19e44:	7f808093          	addi	ra,ra,2040 # 1f638 <tdat9>
   19e48:	58213137          	lui	sp,0x58213
   19e4c:	0981011b          	addiw	sp,sp,152
   19e50:	ffd08093          	addi	ra,ra,-3
   19e54:	0020a3a3          	sw	sp,7(ra)
   19e58:	00005217          	auipc	tp,0x5
   19e5c:	7e420213          	addi	tp,tp,2020 # 1f63c <tdat10>
   19e60:	00022183          	lw	gp,0(tp) # 0 <_start>
   19e64:	58213eb7          	lui	t4,0x58213
   19e68:	098e8e9b          	addiw	t4,t4,152
   19e6c:	00b00e13          	li	t3,11
   19e70:	35d19463          	bne	gp,t4,1a1b8 <fail>

0000000000019e74 <test_12>:
   19e74:	00c00e13          	li	t3,12
   19e78:	00000213          	li	tp,0
   19e7c:	000ab0b7          	lui	ra,0xab
   19e80:	bbd0809b          	addiw	ra,ra,-1091
   19e84:	00c09093          	slli	ra,ra,0xc
   19e88:	cdd08093          	addi	ra,ra,-803 # aacdd <heap_memory_used+0x88a25>
   19e8c:	00005117          	auipc	sp,0x5
   19e90:	78c10113          	addi	sp,sp,1932 # 1f618 <tdat>
   19e94:	00112023          	sw	ra,0(sp)
   19e98:	00012183          	lw	gp,0(sp)
   19e9c:	000abeb7          	lui	t4,0xab
   19ea0:	bbde8e9b          	addiw	t4,t4,-1091
   19ea4:	00ce9e93          	slli	t4,t4,0xc
   19ea8:	cdde8e93          	addi	t4,t4,-803 # aacdd <heap_memory_used+0x88a25>
   19eac:	31d19663          	bne	gp,t4,1a1b8 <fail>
   19eb0:	00120213          	addi	tp,tp,1 # 1 <_start+0x1>
   19eb4:	00200293          	li	t0,2
   19eb8:	fc5212e3          	bne	tp,t0,19e7c <test_12+0x8>

0000000000019ebc <test_13>:
   19ebc:	00d00e13          	li	t3,13
   19ec0:	00000213          	li	tp,0
   19ec4:	000370b7          	lui	ra,0x37
   19ec8:	aaf0809b          	addiw	ra,ra,-1361
   19ecc:	00e09093          	slli	ra,ra,0xe
   19ed0:	ccd08093          	addi	ra,ra,-819 # 36ccd <heap_memory_used+0x14a15>
   19ed4:	00005117          	auipc	sp,0x5
   19ed8:	74410113          	addi	sp,sp,1860 # 1f618 <tdat>
   19edc:	00000013          	nop
   19ee0:	00112223          	sw	ra,4(sp)
   19ee4:	00412183          	lw	gp,4(sp)
   19ee8:	00037eb7          	lui	t4,0x37
   19eec:	aafe8e9b          	addiw	t4,t4,-1361
   19ef0:	00ee9e93          	slli	t4,t4,0xe
   19ef4:	ccde8e93          	addi	t4,t4,-819 # 36ccd <heap_memory_used+0x14a15>
   19ef8:	2dd19063          	bne	gp,t4,1a1b8 <fail>
   19efc:	00120213          	addi	tp,tp,1 # 1 <_start+0x1>
   19f00:	00200293          	li	t0,2
   19f04:	fc5210e3          	bne	tp,t0,19ec4 <test_13+0x8>

0000000000019f08 <test_14>:
   19f08:	00e00e13          	li	t3,14
   19f0c:	00000213          	li	tp,0
   19f10:	000370b7          	lui	ra,0x37
   19f14:	6ab0809b          	addiw	ra,ra,1707
   19f18:	00e09093          	slli	ra,ra,0xe
   19f1c:	bcc08093          	addi	ra,ra,-1076 # 36bcc <heap_memory_used+0x14914>
   19f20:	00005117          	auipc	sp,0x5
   19f24:	6f810113          	addi	sp,sp,1784 # 1f618 <tdat>
   19f28:	00000013          	nop
   19f2c:	00000013          	nop
   19f30:	00112423          	sw	ra,8(sp)
   19f34:	00812183          	lw	gp,8(sp)
   19f38:	00037eb7          	lui	t4,0x37
   19f3c:	6abe8e9b          	addiw	t4,t4,1707
   19f40:	00ee9e93          	slli	t4,t4,0xe
   19f44:	bcce8e93          	addi	t4,t4,-1076 # 36bcc <heap_memory_used+0x14914>
   19f48:	27d19863          	bne	gp,t4,1a1b8 <fail>
   19f4c:	00120213          	addi	tp,tp,1 # 1 <_start+0x1>
   19f50:	00200293          	li	t0,2
   19f54:	fa521ee3          	bne	tp,t0,19f10 <test_14+0x8>

0000000000019f58 <test_15>:
   19f58:	00f00e13          	li	t3,15
   19f5c:	00000213          	li	tp,0
   19f60:	000ce0b7          	lui	ra,0xce
   19f64:	dab0809b          	addiw	ra,ra,-597
   19f68:	00c09093          	slli	ra,ra,0xc
   19f6c:	bbc08093          	addi	ra,ra,-1092 # cdbbc <heap_memory_used+0xab904>
   19f70:	00000013          	nop
   19f74:	00005117          	auipc	sp,0x5
   19f78:	6a410113          	addi	sp,sp,1700 # 1f618 <tdat>
   19f7c:	00112623          	sw	ra,12(sp)
   19f80:	00c12183          	lw	gp,12(sp)
   19f84:	000ceeb7          	lui	t4,0xce
   19f88:	dabe8e9b          	addiw	t4,t4,-597
   19f8c:	00ce9e93          	slli	t4,t4,0xc
   19f90:	bbce8e93          	addi	t4,t4,-1092 # cdbbc <heap_memory_used+0xab904>
   19f94:	23d19263          	bne	gp,t4,1a1b8 <fail>
   19f98:	00120213          	addi	tp,tp,1 # 1 <_start+0x1>
   19f9c:	00200293          	li	t0,2
   19fa0:	fc5210e3          	bne	tp,t0,19f60 <test_15+0x8>

0000000000019fa4 <test_16>:
   19fa4:	01000e13          	li	t3,16
   19fa8:	00000213          	li	tp,0
   19fac:	000cd0b7          	lui	ra,0xcd
   19fb0:	ddb0809b          	addiw	ra,ra,-549
   19fb4:	00c09093          	slli	ra,ra,0xc
   19fb8:	abb08093          	addi	ra,ra,-1349 # ccabb <heap_memory_used+0xaa803>
   19fbc:	00000013          	nop
   19fc0:	00005117          	auipc	sp,0x5
   19fc4:	65810113          	addi	sp,sp,1624 # 1f618 <tdat>
   19fc8:	00000013          	nop
   19fcc:	00112823          	sw	ra,16(sp)
   19fd0:	01012183          	lw	gp,16(sp)
   19fd4:	000cdeb7          	lui	t4,0xcd
   19fd8:	ddbe8e9b          	addiw	t4,t4,-549
   19fdc:	00ce9e93          	slli	t4,t4,0xc
   19fe0:	abbe8e93          	addi	t4,t4,-1349 # ccabb <heap_memory_used+0xaa803>
   19fe4:	1dd19a63          	bne	gp,t4,1a1b8 <fail>
   19fe8:	00120213          	addi	tp,tp,1 # 1 <_start+0x1>
   19fec:	00200293          	li	t0,2
   19ff0:	fa521ee3          	bne	tp,t0,19fac <test_16+0x8>

0000000000019ff4 <test_17>:
   19ff4:	01100e13          	li	t3,17
   19ff8:	00000213          	li	tp,0
   19ffc:	0005e0b7          	lui	ra,0x5e
   1a000:	66f0809b          	addiw	ra,ra,1647
   1a004:	00d09093          	slli	ra,ra,0xd
   1a008:	aab08093          	addi	ra,ra,-1365 # 5daab <heap_memory_used+0x3b7f3>
   1a00c:	00000013          	nop
   1a010:	00000013          	nop
   1a014:	00005117          	auipc	sp,0x5
   1a018:	60410113          	addi	sp,sp,1540 # 1f618 <tdat>
   1a01c:	00112a23          	sw	ra,20(sp)
   1a020:	01412183          	lw	gp,20(sp)
   1a024:	0005eeb7          	lui	t4,0x5e
   1a028:	66fe8e9b          	addiw	t4,t4,1647
   1a02c:	00de9e93          	slli	t4,t4,0xd
   1a030:	aabe8e93          	addi	t4,t4,-1365 # 5daab <heap_memory_used+0x3b7f3>
   1a034:	19d19263          	bne	gp,t4,1a1b8 <fail>
   1a038:	00120213          	addi	tp,tp,1 # 1 <_start+0x1>
   1a03c:	00200293          	li	t0,2
   1a040:	fa521ee3          	bne	tp,t0,19ffc <test_17+0x8>

000000000001a044 <test_18>:
   1a044:	01200e13          	li	t3,18
   1a048:	00000213          	li	tp,0
   1a04c:	00005117          	auipc	sp,0x5
   1a050:	5cc10113          	addi	sp,sp,1484 # 1f618 <tdat>
   1a054:	001120b7          	lui	ra,0x112
   1a058:	2330809b          	addiw	ra,ra,563
   1a05c:	00112023          	sw	ra,0(sp)
   1a060:	00012183          	lw	gp,0(sp)
   1a064:	00112eb7          	lui	t4,0x112
   1a068:	233e8e9b          	addiw	t4,t4,563
   1a06c:	15d19663          	bne	gp,t4,1a1b8 <fail>
   1a070:	00120213          	addi	tp,tp,1 # 1 <_start+0x1>
   1a074:	00200293          	li	t0,2
   1a078:	fc521ae3          	bne	tp,t0,1a04c <test_18+0x8>

000000000001a07c <test_19>:
   1a07c:	01300e13          	li	t3,19
   1a080:	00000213          	li	tp,0
   1a084:	00005117          	auipc	sp,0x5
   1a088:	59410113          	addi	sp,sp,1428 # 1f618 <tdat>
   1a08c:	300110b7          	lui	ra,0x30011
   1a090:	2230809b          	addiw	ra,ra,547
   1a094:	00000013          	nop
   1a098:	00112223          	sw	ra,4(sp)
   1a09c:	00412183          	lw	gp,4(sp)
   1a0a0:	30011eb7          	lui	t4,0x30011
   1a0a4:	223e8e9b          	addiw	t4,t4,547
   1a0a8:	11d19863          	bne	gp,t4,1a1b8 <fail>
   1a0ac:	00120213          	addi	tp,tp,1 # 1 <_start+0x1>
   1a0b0:	00200293          	li	t0,2
   1a0b4:	fc5218e3          	bne	tp,t0,1a084 <test_19+0x8>

000000000001a0b8 <test_20>:
   1a0b8:	01400e13          	li	t3,20
   1a0bc:	00000213          	li	tp,0
   1a0c0:	00005117          	auipc	sp,0x5
   1a0c4:	55810113          	addi	sp,sp,1368 # 1f618 <tdat>
   1a0c8:	330010b7          	lui	ra,0x33001
   1a0cc:	1220809b          	addiw	ra,ra,290
   1a0d0:	00000013          	nop
   1a0d4:	00000013          	nop
   1a0d8:	00112423          	sw	ra,8(sp)
   1a0dc:	00812183          	lw	gp,8(sp)
   1a0e0:	33001eb7          	lui	t4,0x33001
   1a0e4:	122e8e9b          	addiw	t4,t4,290
   1a0e8:	0dd19863          	bne	gp,t4,1a1b8 <fail>
   1a0ec:	00120213          	addi	tp,tp,1 # 1 <_start+0x1>
   1a0f0:	00200293          	li	t0,2
   1a0f4:	fc5216e3          	bne	tp,t0,1a0c0 <test_20+0x8>

000000000001a0f8 <test_21>:
   1a0f8:	01500e13          	li	t3,21
   1a0fc:	00000213          	li	tp,0
   1a100:	00005117          	auipc	sp,0x5
   1a104:	51810113          	addi	sp,sp,1304 # 1f618 <tdat>
   1a108:	00000013          	nop
   1a10c:	233000b7          	lui	ra,0x23300
   1a110:	1120809b          	addiw	ra,ra,274
   1a114:	00112623          	sw	ra,12(sp)
   1a118:	00c12183          	lw	gp,12(sp)
   1a11c:	23300eb7          	lui	t4,0x23300
   1a120:	112e8e9b          	addiw	t4,t4,274
   1a124:	09d19a63          	bne	gp,t4,1a1b8 <fail>
   1a128:	00120213          	addi	tp,tp,1 # 1 <_start+0x1>
   1a12c:	00200293          	li	t0,2
   1a130:	fc5218e3          	bne	tp,t0,1a100 <test_21+0x8>

000000000001a134 <test_22>:
   1a134:	01600e13          	li	t3,22
   1a138:	00000213          	li	tp,0
   1a13c:	00005117          	auipc	sp,0x5
   1a140:	4dc10113          	addi	sp,sp,1244 # 1f618 <tdat>
   1a144:	00000013          	nop
   1a148:	223300b7          	lui	ra,0x22330
   1a14c:	0110809b          	addiw	ra,ra,17
   1a150:	00000013          	nop
   1a154:	00112823          	sw	ra,16(sp)
   1a158:	01012183          	lw	gp,16(sp)
   1a15c:	22330eb7          	lui	t4,0x22330
   1a160:	011e8e9b          	addiw	t4,t4,17
   1a164:	05d19a63          	bne	gp,t4,1a1b8 <fail>
   1a168:	00120213          	addi	tp,tp,1 # 1 <_start+0x1>
   1a16c:	00200293          	li	t0,2
   1a170:	fc5216e3          	bne	tp,t0,1a13c <test_22+0x8>

000000000001a174 <test_23>:
   1a174:	01700e13          	li	t3,23
   1a178:	00000213          	li	tp,0
   1a17c:	00005117          	auipc	sp,0x5
   1a180:	49c10113          	addi	sp,sp,1180 # 1f618 <tdat>
   1a184:	00000013          	nop
   1a188:	00000013          	nop
   1a18c:	122330b7          	lui	ra,0x12233
   1a190:	0010809b          	addiw	ra,ra,1
   1a194:	00112a23          	sw	ra,20(sp)
   1a198:	01412183          	lw	gp,20(sp)
   1a19c:	12233eb7          	lui	t4,0x12233
   1a1a0:	001e8e9b          	addiw	t4,t4,1
   1a1a4:	01d19a63          	bne	gp,t4,1a1b8 <fail>
   1a1a8:	00120213          	addi	tp,tp,1 # 1 <_start+0x1>
   1a1ac:	00200293          	li	t0,2
   1a1b0:	fc5216e3          	bne	tp,t0,1a17c <test_23+0x8>
   1a1b4:	05c01863          	bne	zero,t3,1a204 <pass>

000000000001a1b8 <fail>:
   1a1b8:	04500513          	li	a0,69
   1a1bc:	00004137          	lui	sp,0x4
   1a1c0:	549030ef          	jal	ra,1df08 <printf_c>
   1a1c4:	05200513          	li	a0,82
   1a1c8:	00004137          	lui	sp,0x4
   1a1cc:	53d030ef          	jal	ra,1df08 <printf_c>
   1a1d0:	00004137          	lui	sp,0x4
   1a1d4:	535030ef          	jal	ra,1df08 <printf_c>
   1a1d8:	04f00513          	li	a0,79
   1a1dc:	00004137          	lui	sp,0x4
   1a1e0:	529030ef          	jal	ra,1df08 <printf_c>
   1a1e4:	00004137          	lui	sp,0x4
   1a1e8:	05200513          	li	a0,82
   1a1ec:	00004137          	lui	sp,0x4
   1a1f0:	519030ef          	jal	ra,1df08 <printf_c>
   1a1f4:	00a00513          	li	a0,10
   1a1f8:	00004137          	lui	sp,0x4
   1a1fc:	50d030ef          	jal	ra,1df08 <printf_c>
   1a200:	0340006f          	j	1a234 <xor>

000000000001a204 <pass>:
   1a204:	04f00513          	li	a0,79
   1a208:	00004137          	lui	sp,0x4
   1a20c:	4fd030ef          	jal	ra,1df08 <printf_c>
   1a210:	04b00513          	li	a0,75
   1a214:	00004137          	lui	sp,0x4
   1a218:	4f1030ef          	jal	ra,1df08 <printf_c>
   1a21c:	00a00513          	li	a0,10
   1a220:	00004137          	lui	sp,0x4
   1a224:	4e5030ef          	jal	ra,1df08 <printf_c>
   1a228:	00c0006f          	j	1a234 <xor>

000000000001a22c <.test_name>:
   1a22c:	6f78                	ld	a4,216(a4)
   1a22e:	2072                	fld	ft0,280(sp)
   1a230:	0009                	c.addi	zero,2
	...

000000000001a234 <xor>:
   1a234:	0001a537          	lui	a0,0x1a
   1a238:	22c50513          	addi	a0,a0,556 # 1a22c <.test_name>

000000000001a23c <.prname_next>:
   1a23c:	00004137          	lui	sp,0x4
   1a240:	4f5030ef          	jal	ra,1df34 <printf_s>

000000000001a244 <test_2>:
   1a244:	000100b7          	lui	ra,0x10
   1a248:	f010809b          	addiw	ra,ra,-255
   1a24c:	01009093          	slli	ra,ra,0x10
   1a250:	f0008093          	addi	ra,ra,-256 # ff00 <coremarkBenchmark+0xfe58>
   1a254:	0f0f1137          	lui	sp,0xf0f1
   1a258:	f0f1011b          	addiw	sp,sp,-241
   1a25c:	0020c1b3          	xor	gp,ra,sp
   1a260:	000f0eb7          	lui	t4,0xf0
   1a264:	0ffe8e9b          	addiw	t4,t4,255
   1a268:	00ce9e93          	slli	t4,t4,0xc
   1a26c:	00fe8e93          	addi	t4,t4,15 # f000f <heap_memory_used+0xcdd57>
   1a270:	00200e13          	li	t3,2
   1a274:	59d19c63          	bne	gp,t4,1a80c <fail>

000000000001a278 <test_3>:
   1a278:	0ff010b7          	lui	ra,0xff01
   1a27c:	ff00809b          	addiw	ra,ra,-16
   1a280:	000f1137          	lui	sp,0xf1
   1a284:	f0f1011b          	addiw	sp,sp,-241
   1a288:	00c11113          	slli	sp,sp,0xc
   1a28c:	0f010113          	addi	sp,sp,240 # f10f0 <heap_memory_used+0xcee38>
   1a290:	0020c1b3          	xor	gp,ra,sp
   1a294:	00010eb7          	lui	t4,0x10
   1a298:	f01e8e9b          	addiw	t4,t4,-255
   1a29c:	010e9e93          	slli	t4,t4,0x10
   1a2a0:	f00e8e93          	addi	t4,t4,-256 # ff00 <coremarkBenchmark+0xfe58>
   1a2a4:	00300e13          	li	t3,3
   1a2a8:	57d19263          	bne	gp,t4,1a80c <fail>

000000000001a2ac <test_4>:
   1a2ac:	00ff00b7          	lui	ra,0xff0
   1a2b0:	0ff0809b          	addiw	ra,ra,255
   1a2b4:	0f0f1137          	lui	sp,0xf0f1
   1a2b8:	f0f1011b          	addiw	sp,sp,-241
   1a2bc:	0020c1b3          	xor	gp,ra,sp
   1a2c0:	0ff01eb7          	lui	t4,0xff01
   1a2c4:	ff0e8e9b          	addiw	t4,t4,-16
   1a2c8:	00400e13          	li	t3,4
   1a2cc:	55d19063          	bne	gp,t4,1a80c <fail>

000000000001a2d0 <test_5>:
   1a2d0:	000f00b7          	lui	ra,0xf0
   1a2d4:	0ff0809b          	addiw	ra,ra,255
   1a2d8:	00c09093          	slli	ra,ra,0xc
   1a2dc:	00f08093          	addi	ra,ra,15 # f000f <heap_memory_used+0xcdd57>
   1a2e0:	000f1137          	lui	sp,0xf1
   1a2e4:	f0f1011b          	addiw	sp,sp,-241
   1a2e8:	00c11113          	slli	sp,sp,0xc
   1a2ec:	0f010113          	addi	sp,sp,240 # f10f0 <heap_memory_used+0xcee38>
   1a2f0:	0020c1b3          	xor	gp,ra,sp
   1a2f4:	00ff0eb7          	lui	t4,0xff0
   1a2f8:	0ffe8e9b          	addiw	t4,t4,255
   1a2fc:	00500e13          	li	t3,5
   1a300:	51d19663          	bne	gp,t4,1a80c <fail>

000000000001a304 <test_6>:
   1a304:	000100b7          	lui	ra,0x10
   1a308:	f010809b          	addiw	ra,ra,-255
   1a30c:	01009093          	slli	ra,ra,0x10
   1a310:	f0008093          	addi	ra,ra,-256 # ff00 <coremarkBenchmark+0xfe58>
   1a314:	0f0f1137          	lui	sp,0xf0f1
   1a318:	f0f1011b          	addiw	sp,sp,-241
   1a31c:	0020c0b3          	xor	ra,ra,sp
   1a320:	000f0eb7          	lui	t4,0xf0
   1a324:	0ffe8e9b          	addiw	t4,t4,255
   1a328:	00ce9e93          	slli	t4,t4,0xc
   1a32c:	00fe8e93          	addi	t4,t4,15 # f000f <heap_memory_used+0xcdd57>
   1a330:	00600e13          	li	t3,6
   1a334:	4dd09c63          	bne	ra,t4,1a80c <fail>

000000000001a338 <test_7>:
   1a338:	000100b7          	lui	ra,0x10
   1a33c:	f010809b          	addiw	ra,ra,-255
   1a340:	01009093          	slli	ra,ra,0x10
   1a344:	f0008093          	addi	ra,ra,-256 # ff00 <coremarkBenchmark+0xfe58>
   1a348:	0f0f1137          	lui	sp,0xf0f1
   1a34c:	f0f1011b          	addiw	sp,sp,-241
   1a350:	0020c133          	xor	sp,ra,sp
   1a354:	000f0eb7          	lui	t4,0xf0
   1a358:	0ffe8e9b          	addiw	t4,t4,255
   1a35c:	00ce9e93          	slli	t4,t4,0xc
   1a360:	00fe8e93          	addi	t4,t4,15 # f000f <heap_memory_used+0xcdd57>
   1a364:	00700e13          	li	t3,7
   1a368:	4bd11263          	bne	sp,t4,1a80c <fail>

000000000001a36c <test_8>:
   1a36c:	000100b7          	lui	ra,0x10
   1a370:	f010809b          	addiw	ra,ra,-255
   1a374:	01009093          	slli	ra,ra,0x10
   1a378:	f0008093          	addi	ra,ra,-256 # ff00 <coremarkBenchmark+0xfe58>
   1a37c:	0010c0b3          	xor	ra,ra,ra
   1a380:	00000e93          	li	t4,0
   1a384:	00800e13          	li	t3,8
   1a388:	49d09263          	bne	ra,t4,1a80c <fail>

000000000001a38c <test_9>:
   1a38c:	00000213          	li	tp,0
   1a390:	000100b7          	lui	ra,0x10
   1a394:	f010809b          	addiw	ra,ra,-255
   1a398:	01009093          	slli	ra,ra,0x10
   1a39c:	f0008093          	addi	ra,ra,-256 # ff00 <coremarkBenchmark+0xfe58>
   1a3a0:	0f0f1137          	lui	sp,0xf0f1
   1a3a4:	f0f1011b          	addiw	sp,sp,-241
   1a3a8:	0020c1b3          	xor	gp,ra,sp
   1a3ac:	00018313          	mv	t1,gp
   1a3b0:	00120213          	addi	tp,tp,1 # 1 <_start+0x1>
   1a3b4:	00200293          	li	t0,2
   1a3b8:	fc521ce3          	bne	tp,t0,1a390 <test_9+0x4>
   1a3bc:	000f0eb7          	lui	t4,0xf0
   1a3c0:	0ffe8e9b          	addiw	t4,t4,255
   1a3c4:	00ce9e93          	slli	t4,t4,0xc
   1a3c8:	00fe8e93          	addi	t4,t4,15 # f000f <heap_memory_used+0xcdd57>
   1a3cc:	00900e13          	li	t3,9
   1a3d0:	43d31e63          	bne	t1,t4,1a80c <fail>

000000000001a3d4 <test_10>:
   1a3d4:	00000213          	li	tp,0
   1a3d8:	0ff010b7          	lui	ra,0xff01
   1a3dc:	ff00809b          	addiw	ra,ra,-16
   1a3e0:	000f1137          	lui	sp,0xf1
   1a3e4:	f0f1011b          	addiw	sp,sp,-241
   1a3e8:	00c11113          	slli	sp,sp,0xc
   1a3ec:	0f010113          	addi	sp,sp,240 # f10f0 <heap_memory_used+0xcee38>
   1a3f0:	0020c1b3          	xor	gp,ra,sp
   1a3f4:	00000013          	nop
   1a3f8:	00018313          	mv	t1,gp
   1a3fc:	00120213          	addi	tp,tp,1 # 1 <_start+0x1>
   1a400:	00200293          	li	t0,2
   1a404:	fc521ae3          	bne	tp,t0,1a3d8 <test_10+0x4>
   1a408:	00010eb7          	lui	t4,0x10
   1a40c:	f01e8e9b          	addiw	t4,t4,-255
   1a410:	010e9e93          	slli	t4,t4,0x10
   1a414:	f00e8e93          	addi	t4,t4,-256 # ff00 <coremarkBenchmark+0xfe58>
   1a418:	00a00e13          	li	t3,10
   1a41c:	3fd31863          	bne	t1,t4,1a80c <fail>

000000000001a420 <test_11>:
   1a420:	00000213          	li	tp,0
   1a424:	00ff00b7          	lui	ra,0xff0
   1a428:	0ff0809b          	addiw	ra,ra,255
   1a42c:	0f0f1137          	lui	sp,0xf0f1
   1a430:	f0f1011b          	addiw	sp,sp,-241
   1a434:	0020c1b3          	xor	gp,ra,sp
   1a438:	00000013          	nop
   1a43c:	00000013          	nop
   1a440:	00018313          	mv	t1,gp
   1a444:	00120213          	addi	tp,tp,1 # 1 <_start+0x1>
   1a448:	00200293          	li	t0,2
   1a44c:	fc521ce3          	bne	tp,t0,1a424 <test_11+0x4>
   1a450:	0ff01eb7          	lui	t4,0xff01
   1a454:	ff0e8e9b          	addiw	t4,t4,-16
   1a458:	00b00e13          	li	t3,11
   1a45c:	3bd31863          	bne	t1,t4,1a80c <fail>

000000000001a460 <test_12>:
   1a460:	00000213          	li	tp,0
   1a464:	000100b7          	lui	ra,0x10
   1a468:	f010809b          	addiw	ra,ra,-255
   1a46c:	01009093          	slli	ra,ra,0x10
   1a470:	f0008093          	addi	ra,ra,-256 # ff00 <coremarkBenchmark+0xfe58>
   1a474:	0f0f1137          	lui	sp,0xf0f1
   1a478:	f0f1011b          	addiw	sp,sp,-241
   1a47c:	0020c1b3          	xor	gp,ra,sp
   1a480:	00120213          	addi	tp,tp,1 # 1 <_start+0x1>
   1a484:	00200293          	li	t0,2
   1a488:	fc521ee3          	bne	tp,t0,1a464 <test_12+0x4>
   1a48c:	000f0eb7          	lui	t4,0xf0
   1a490:	0ffe8e9b          	addiw	t4,t4,255
   1a494:	00ce9e93          	slli	t4,t4,0xc
   1a498:	00fe8e93          	addi	t4,t4,15 # f000f <heap_memory_used+0xcdd57>
   1a49c:	00c00e13          	li	t3,12
   1a4a0:	37d19663          	bne	gp,t4,1a80c <fail>

000000000001a4a4 <test_13>:
   1a4a4:	00000213          	li	tp,0
   1a4a8:	0ff010b7          	lui	ra,0xff01
   1a4ac:	ff00809b          	addiw	ra,ra,-16
   1a4b0:	000f1137          	lui	sp,0xf1
   1a4b4:	f0f1011b          	addiw	sp,sp,-241
   1a4b8:	00c11113          	slli	sp,sp,0xc
   1a4bc:	0f010113          	addi	sp,sp,240 # f10f0 <heap_memory_used+0xcee38>
   1a4c0:	00000013          	nop
   1a4c4:	0020c1b3          	xor	gp,ra,sp
   1a4c8:	00120213          	addi	tp,tp,1 # 1 <_start+0x1>
   1a4cc:	00200293          	li	t0,2
   1a4d0:	fc521ce3          	bne	tp,t0,1a4a8 <test_13+0x4>
   1a4d4:	00010eb7          	lui	t4,0x10
   1a4d8:	f01e8e9b          	addiw	t4,t4,-255
   1a4dc:	010e9e93          	slli	t4,t4,0x10
   1a4e0:	f00e8e93          	addi	t4,t4,-256 # ff00 <coremarkBenchmark+0xfe58>
   1a4e4:	00d00e13          	li	t3,13
   1a4e8:	33d19263          	bne	gp,t4,1a80c <fail>

000000000001a4ec <test_14>:
   1a4ec:	00000213          	li	tp,0
   1a4f0:	00ff00b7          	lui	ra,0xff0
   1a4f4:	0ff0809b          	addiw	ra,ra,255
   1a4f8:	0f0f1137          	lui	sp,0xf0f1
   1a4fc:	f0f1011b          	addiw	sp,sp,-241
   1a500:	00000013          	nop
   1a504:	00000013          	nop
   1a508:	0020c1b3          	xor	gp,ra,sp
   1a50c:	00120213          	addi	tp,tp,1 # 1 <_start+0x1>
   1a510:	00200293          	li	t0,2
   1a514:	fc521ee3          	bne	tp,t0,1a4f0 <test_14+0x4>
   1a518:	0ff01eb7          	lui	t4,0xff01
   1a51c:	ff0e8e9b          	addiw	t4,t4,-16
   1a520:	00e00e13          	li	t3,14
   1a524:	2fd19463          	bne	gp,t4,1a80c <fail>

000000000001a528 <test_15>:
   1a528:	00000213          	li	tp,0
   1a52c:	000100b7          	lui	ra,0x10
   1a530:	f010809b          	addiw	ra,ra,-255
   1a534:	01009093          	slli	ra,ra,0x10
   1a538:	f0008093          	addi	ra,ra,-256 # ff00 <coremarkBenchmark+0xfe58>
   1a53c:	00000013          	nop
   1a540:	0f0f1137          	lui	sp,0xf0f1
   1a544:	f0f1011b          	addiw	sp,sp,-241
   1a548:	0020c1b3          	xor	gp,ra,sp
   1a54c:	00120213          	addi	tp,tp,1 # 1 <_start+0x1>
   1a550:	00200293          	li	t0,2
   1a554:	fc521ce3          	bne	tp,t0,1a52c <test_15+0x4>
   1a558:	000f0eb7          	lui	t4,0xf0
   1a55c:	0ffe8e9b          	addiw	t4,t4,255
   1a560:	00ce9e93          	slli	t4,t4,0xc
   1a564:	00fe8e93          	addi	t4,t4,15 # f000f <heap_memory_used+0xcdd57>
   1a568:	00f00e13          	li	t3,15
   1a56c:	2bd19063          	bne	gp,t4,1a80c <fail>

000000000001a570 <test_16>:
   1a570:	00000213          	li	tp,0
   1a574:	0ff010b7          	lui	ra,0xff01
   1a578:	ff00809b          	addiw	ra,ra,-16
   1a57c:	00000013          	nop
   1a580:	000f1137          	lui	sp,0xf1
   1a584:	f0f1011b          	addiw	sp,sp,-241
   1a588:	00c11113          	slli	sp,sp,0xc
   1a58c:	0f010113          	addi	sp,sp,240 # f10f0 <heap_memory_used+0xcee38>
   1a590:	00000013          	nop
   1a594:	0020c1b3          	xor	gp,ra,sp
   1a598:	00120213          	addi	tp,tp,1 # 1 <_start+0x1>
   1a59c:	00200293          	li	t0,2
   1a5a0:	fc521ae3          	bne	tp,t0,1a574 <test_16+0x4>
   1a5a4:	00010eb7          	lui	t4,0x10
   1a5a8:	f01e8e9b          	addiw	t4,t4,-255
   1a5ac:	010e9e93          	slli	t4,t4,0x10
   1a5b0:	f00e8e93          	addi	t4,t4,-256 # ff00 <coremarkBenchmark+0xfe58>
   1a5b4:	01000e13          	li	t3,16
   1a5b8:	25d19a63          	bne	gp,t4,1a80c <fail>

000000000001a5bc <test_17>:
   1a5bc:	00000213          	li	tp,0
   1a5c0:	00ff00b7          	lui	ra,0xff0
   1a5c4:	0ff0809b          	addiw	ra,ra,255
   1a5c8:	00000013          	nop
   1a5cc:	00000013          	nop
   1a5d0:	0f0f1137          	lui	sp,0xf0f1
   1a5d4:	f0f1011b          	addiw	sp,sp,-241
   1a5d8:	0020c1b3          	xor	gp,ra,sp
   1a5dc:	00120213          	addi	tp,tp,1 # 1 <_start+0x1>
   1a5e0:	00200293          	li	t0,2
   1a5e4:	fc521ee3          	bne	tp,t0,1a5c0 <test_17+0x4>
   1a5e8:	0ff01eb7          	lui	t4,0xff01
   1a5ec:	ff0e8e9b          	addiw	t4,t4,-16
   1a5f0:	01100e13          	li	t3,17
   1a5f4:	21d19c63          	bne	gp,t4,1a80c <fail>

000000000001a5f8 <test_18>:
   1a5f8:	00000213          	li	tp,0
   1a5fc:	0f0f1137          	lui	sp,0xf0f1
   1a600:	f0f1011b          	addiw	sp,sp,-241
   1a604:	000100b7          	lui	ra,0x10
   1a608:	f010809b          	addiw	ra,ra,-255
   1a60c:	01009093          	slli	ra,ra,0x10
   1a610:	f0008093          	addi	ra,ra,-256 # ff00 <coremarkBenchmark+0xfe58>
   1a614:	0020c1b3          	xor	gp,ra,sp
   1a618:	00120213          	addi	tp,tp,1 # 1 <_start+0x1>
   1a61c:	00200293          	li	t0,2
   1a620:	fc521ee3          	bne	tp,t0,1a5fc <test_18+0x4>
   1a624:	000f0eb7          	lui	t4,0xf0
   1a628:	0ffe8e9b          	addiw	t4,t4,255
   1a62c:	00ce9e93          	slli	t4,t4,0xc
   1a630:	00fe8e93          	addi	t4,t4,15 # f000f <heap_memory_used+0xcdd57>
   1a634:	01200e13          	li	t3,18
   1a638:	1dd19a63          	bne	gp,t4,1a80c <fail>

000000000001a63c <test_19>:
   1a63c:	00000213          	li	tp,0
   1a640:	000f1137          	lui	sp,0xf1
   1a644:	f0f1011b          	addiw	sp,sp,-241
   1a648:	00c11113          	slli	sp,sp,0xc
   1a64c:	0f010113          	addi	sp,sp,240 # f10f0 <heap_memory_used+0xcee38>
   1a650:	0ff010b7          	lui	ra,0xff01
   1a654:	ff00809b          	addiw	ra,ra,-16
   1a658:	00000013          	nop
   1a65c:	0020c1b3          	xor	gp,ra,sp
   1a660:	00120213          	addi	tp,tp,1 # 1 <_start+0x1>
   1a664:	00200293          	li	t0,2
   1a668:	fc521ce3          	bne	tp,t0,1a640 <test_19+0x4>
   1a66c:	00010eb7          	lui	t4,0x10
   1a670:	f01e8e9b          	addiw	t4,t4,-255
   1a674:	010e9e93          	slli	t4,t4,0x10
   1a678:	f00e8e93          	addi	t4,t4,-256 # ff00 <coremarkBenchmark+0xfe58>
   1a67c:	01300e13          	li	t3,19
   1a680:	19d19663          	bne	gp,t4,1a80c <fail>

000000000001a684 <test_20>:
   1a684:	00000213          	li	tp,0
   1a688:	0f0f1137          	lui	sp,0xf0f1
   1a68c:	f0f1011b          	addiw	sp,sp,-241
   1a690:	00ff00b7          	lui	ra,0xff0
   1a694:	0ff0809b          	addiw	ra,ra,255
   1a698:	00000013          	nop
   1a69c:	00000013          	nop
   1a6a0:	0020c1b3          	xor	gp,ra,sp
   1a6a4:	00120213          	addi	tp,tp,1 # 1 <_start+0x1>
   1a6a8:	00200293          	li	t0,2
   1a6ac:	fc521ee3          	bne	tp,t0,1a688 <test_20+0x4>
   1a6b0:	0ff01eb7          	lui	t4,0xff01
   1a6b4:	ff0e8e9b          	addiw	t4,t4,-16
   1a6b8:	01400e13          	li	t3,20
   1a6bc:	15d19863          	bne	gp,t4,1a80c <fail>

000000000001a6c0 <test_21>:
   1a6c0:	00000213          	li	tp,0
   1a6c4:	0f0f1137          	lui	sp,0xf0f1
   1a6c8:	f0f1011b          	addiw	sp,sp,-241
   1a6cc:	00000013          	nop
   1a6d0:	000100b7          	lui	ra,0x10
   1a6d4:	f010809b          	addiw	ra,ra,-255
   1a6d8:	01009093          	slli	ra,ra,0x10
   1a6dc:	f0008093          	addi	ra,ra,-256 # ff00 <coremarkBenchmark+0xfe58>
   1a6e0:	0020c1b3          	xor	gp,ra,sp
   1a6e4:	00120213          	addi	tp,tp,1 # 1 <_start+0x1>
   1a6e8:	00200293          	li	t0,2
   1a6ec:	fc521ce3          	bne	tp,t0,1a6c4 <test_21+0x4>
   1a6f0:	000f0eb7          	lui	t4,0xf0
   1a6f4:	0ffe8e9b          	addiw	t4,t4,255
   1a6f8:	00ce9e93          	slli	t4,t4,0xc
   1a6fc:	00fe8e93          	addi	t4,t4,15 # f000f <heap_memory_used+0xcdd57>
   1a700:	01500e13          	li	t3,21
   1a704:	11d19463          	bne	gp,t4,1a80c <fail>

000000000001a708 <test_22>:
   1a708:	00000213          	li	tp,0
   1a70c:	000f1137          	lui	sp,0xf1
   1a710:	f0f1011b          	addiw	sp,sp,-241
   1a714:	00c11113          	slli	sp,sp,0xc
   1a718:	0f010113          	addi	sp,sp,240 # f10f0 <heap_memory_used+0xcee38>
   1a71c:	00000013          	nop
   1a720:	0ff010b7          	lui	ra,0xff01
   1a724:	ff00809b          	addiw	ra,ra,-16
   1a728:	00000013          	nop
   1a72c:	0020c1b3          	xor	gp,ra,sp
   1a730:	00120213          	addi	tp,tp,1 # 1 <_start+0x1>
   1a734:	00200293          	li	t0,2
   1a738:	fc521ae3          	bne	tp,t0,1a70c <test_22+0x4>
   1a73c:	00010eb7          	lui	t4,0x10
   1a740:	f01e8e9b          	addiw	t4,t4,-255
   1a744:	010e9e93          	slli	t4,t4,0x10
   1a748:	f00e8e93          	addi	t4,t4,-256 # ff00 <coremarkBenchmark+0xfe58>
   1a74c:	01600e13          	li	t3,22
   1a750:	0bd19e63          	bne	gp,t4,1a80c <fail>

000000000001a754 <test_23>:
   1a754:	00000213          	li	tp,0
   1a758:	0f0f1137          	lui	sp,0xf0f1
   1a75c:	f0f1011b          	addiw	sp,sp,-241
   1a760:	00000013          	nop
   1a764:	00000013          	nop
   1a768:	00ff00b7          	lui	ra,0xff0
   1a76c:	0ff0809b          	addiw	ra,ra,255
   1a770:	0020c1b3          	xor	gp,ra,sp
   1a774:	00120213          	addi	tp,tp,1 # 1 <_start+0x1>
   1a778:	00200293          	li	t0,2
   1a77c:	fc521ee3          	bne	tp,t0,1a758 <test_23+0x4>
   1a780:	0ff01eb7          	lui	t4,0xff01
   1a784:	ff0e8e9b          	addiw	t4,t4,-16
   1a788:	01700e13          	li	t3,23
   1a78c:	09d19063          	bne	gp,t4,1a80c <fail>

000000000001a790 <test_24>:
   1a790:	000100b7          	lui	ra,0x10
   1a794:	f010809b          	addiw	ra,ra,-255
   1a798:	01009093          	slli	ra,ra,0x10
   1a79c:	f0008093          	addi	ra,ra,-256 # ff00 <coremarkBenchmark+0xfe58>
   1a7a0:	00104133          	xor	sp,zero,ra
   1a7a4:	00010eb7          	lui	t4,0x10
   1a7a8:	f01e8e9b          	addiw	t4,t4,-255
   1a7ac:	010e9e93          	slli	t4,t4,0x10
   1a7b0:	f00e8e93          	addi	t4,t4,-256 # ff00 <coremarkBenchmark+0xfe58>
   1a7b4:	01800e13          	li	t3,24
   1a7b8:	05d11a63          	bne	sp,t4,1a80c <fail>

000000000001a7bc <test_25>:
   1a7bc:	00ff00b7          	lui	ra,0xff0
   1a7c0:	0ff0809b          	addiw	ra,ra,255
   1a7c4:	0000c133          	xor	sp,ra,zero
   1a7c8:	00ff0eb7          	lui	t4,0xff0
   1a7cc:	0ffe8e9b          	addiw	t4,t4,255
   1a7d0:	01900e13          	li	t3,25
   1a7d4:	03d11c63          	bne	sp,t4,1a80c <fail>

000000000001a7d8 <test_26>:
   1a7d8:	000040b3          	xor	ra,zero,zero
   1a7dc:	00000e93          	li	t4,0
   1a7e0:	01a00e13          	li	t3,26
   1a7e4:	03d09463          	bne	ra,t4,1a80c <fail>

000000000001a7e8 <test_27>:
   1a7e8:	111110b7          	lui	ra,0x11111
   1a7ec:	1110809b          	addiw	ra,ra,273
   1a7f0:	22222137          	lui	sp,0x22222
   1a7f4:	2221011b          	addiw	sp,sp,546
   1a7f8:	0020c033          	xor	zero,ra,sp
   1a7fc:	00000e93          	li	t4,0
   1a800:	01b00e13          	li	t3,27
   1a804:	01d01463          	bne	zero,t4,1a80c <fail>
   1a808:	05c01863          	bne	zero,t3,1a858 <pass>

000000000001a80c <fail>:
   1a80c:	04500513          	li	a0,69
   1a810:	00004137          	lui	sp,0x4
   1a814:	6f4030ef          	jal	ra,1df08 <printf_c>
   1a818:	05200513          	li	a0,82
   1a81c:	00004137          	lui	sp,0x4
   1a820:	6e8030ef          	jal	ra,1df08 <printf_c>
   1a824:	00004137          	lui	sp,0x4
   1a828:	6e0030ef          	jal	ra,1df08 <printf_c>
   1a82c:	04f00513          	li	a0,79
   1a830:	00004137          	lui	sp,0x4
   1a834:	6d4030ef          	jal	ra,1df08 <printf_c>
   1a838:	00004137          	lui	sp,0x4
   1a83c:	05200513          	li	a0,82
   1a840:	00004137          	lui	sp,0x4
   1a844:	6c4030ef          	jal	ra,1df08 <printf_c>
   1a848:	00a00513          	li	a0,10
   1a84c:	00004137          	lui	sp,0x4
   1a850:	6b8030ef          	jal	ra,1df08 <printf_c>
   1a854:	0340006f          	j	1a888 <xori>

000000000001a858 <pass>:
   1a858:	04f00513          	li	a0,79
   1a85c:	00004137          	lui	sp,0x4
   1a860:	6a8030ef          	jal	ra,1df08 <printf_c>
   1a864:	04b00513          	li	a0,75
   1a868:	00004137          	lui	sp,0x4
   1a86c:	69c030ef          	jal	ra,1df08 <printf_c>
   1a870:	00a00513          	li	a0,10
   1a874:	00004137          	lui	sp,0x4
   1a878:	690030ef          	jal	ra,1df08 <printf_c>
   1a87c:	00c0006f          	j	1a888 <xori>

000000000001a880 <.test_name>:
   1a880:	6f78                	ld	a4,216(a4)
   1a882:	6972                	ld	s2,280(sp)
   1a884:	0009                	c.addi	zero,2
	...

000000000001a888 <xori>:
   1a888:	0001b537          	lui	a0,0x1b
   1a88c:	88050513          	addi	a0,a0,-1920 # 1a880 <.test_name>

000000000001a890 <.prname_next>:
   1a890:	00004137          	lui	sp,0x4
   1a894:	6a0030ef          	jal	ra,1df34 <printf_s>

000000000001a898 <test_2>:
   1a898:	00ff10b7          	lui	ra,0xff1
   1a89c:	f000809b          	addiw	ra,ra,-256
   1a8a0:	f0f0c193          	xori	gp,ra,-241
   1a8a4:	000ffeb7          	lui	t4,0xff
   1a8a8:	00fe8e9b          	addiw	t4,t4,15
   1a8ac:	00ce9e93          	slli	t4,t4,0xc
   1a8b0:	00fe8e93          	addi	t4,t4,15 # ff00f <heap_memory_used+0xdcd57>
   1a8b4:	00200e13          	li	t3,2
   1a8b8:	21d19663          	bne	gp,t4,1aac4 <fail>

000000000001a8bc <test_3>:
   1a8bc:	0ff010b7          	lui	ra,0xff01
   1a8c0:	ff00809b          	addiw	ra,ra,-16
   1a8c4:	0f00c193          	xori	gp,ra,240
   1a8c8:	0ff01eb7          	lui	t4,0xff01
   1a8cc:	f00e8e9b          	addiw	t4,t4,-256
   1a8d0:	00300e13          	li	t3,3
   1a8d4:	1fd19863          	bne	gp,t4,1aac4 <fail>

000000000001a8d8 <test_4>:
   1a8d8:	00ff10b7          	lui	ra,0xff1
   1a8dc:	8ff0809b          	addiw	ra,ra,-1793
   1a8e0:	70f0c193          	xori	gp,ra,1807
   1a8e4:	00ff1eb7          	lui	t4,0xff1
   1a8e8:	ff0e8e9b          	addiw	t4,t4,-16
   1a8ec:	00400e13          	li	t3,4
   1a8f0:	1dd19a63          	bne	gp,t4,1aac4 <fail>

000000000001a8f4 <test_5>:
   1a8f4:	000f00b7          	lui	ra,0xf0
   1a8f8:	0ff0809b          	addiw	ra,ra,255
   1a8fc:	00c09093          	slli	ra,ra,0xc
   1a900:	00f08093          	addi	ra,ra,15 # f000f <heap_memory_used+0xcdd57>
   1a904:	0f00c193          	xori	gp,ra,240
   1a908:	000f0eb7          	lui	t4,0xf0
   1a90c:	0ffe8e9b          	addiw	t4,t4,255
   1a910:	00ce9e93          	slli	t4,t4,0xc
   1a914:	0ffe8e93          	addi	t4,t4,255 # f00ff <heap_memory_used+0xcde47>
   1a918:	00500e13          	li	t3,5
   1a91c:	1bd19463          	bne	gp,t4,1aac4 <fail>

000000000001a920 <test_6>:
   1a920:	000ff0b7          	lui	ra,0xff
   1a924:	00f0809b          	addiw	ra,ra,15
   1a928:	00c09093          	slli	ra,ra,0xc
   1a92c:	70008093          	addi	ra,ra,1792 # ff700 <heap_memory_used+0xdd448>
   1a930:	70f0c093          	xori	ra,ra,1807
   1a934:	000ffeb7          	lui	t4,0xff
   1a938:	00fe8e9b          	addiw	t4,t4,15
   1a93c:	00ce9e93          	slli	t4,t4,0xc
   1a940:	00fe8e93          	addi	t4,t4,15 # ff00f <heap_memory_used+0xdcd57>
   1a944:	00600e13          	li	t3,6
   1a948:	17d09e63          	bne	ra,t4,1aac4 <fail>

000000000001a94c <test_7>:
   1a94c:	00000213          	li	tp,0
   1a950:	0ff010b7          	lui	ra,0xff01
   1a954:	ff00809b          	addiw	ra,ra,-16
   1a958:	0f00c193          	xori	gp,ra,240
   1a95c:	00018313          	mv	t1,gp
   1a960:	00120213          	addi	tp,tp,1 # 1 <_start+0x1>
   1a964:	00200293          	li	t0,2
   1a968:	fe5214e3          	bne	tp,t0,1a950 <test_7+0x4>
   1a96c:	0ff01eb7          	lui	t4,0xff01
   1a970:	f00e8e9b          	addiw	t4,t4,-256
   1a974:	00700e13          	li	t3,7
   1a978:	15d31663          	bne	t1,t4,1aac4 <fail>

000000000001a97c <test_8>:
   1a97c:	00000213          	li	tp,0
   1a980:	00ff10b7          	lui	ra,0xff1
   1a984:	8ff0809b          	addiw	ra,ra,-1793
   1a988:	70f0c193          	xori	gp,ra,1807
   1a98c:	00000013          	nop
   1a990:	00018313          	mv	t1,gp
   1a994:	00120213          	addi	tp,tp,1 # 1 <_start+0x1>
   1a998:	00200293          	li	t0,2
   1a99c:	fe5212e3          	bne	tp,t0,1a980 <test_8+0x4>
   1a9a0:	00ff1eb7          	lui	t4,0xff1
   1a9a4:	ff0e8e9b          	addiw	t4,t4,-16
   1a9a8:	00800e13          	li	t3,8
   1a9ac:	11d31c63          	bne	t1,t4,1aac4 <fail>

000000000001a9b0 <test_9>:
   1a9b0:	00000213          	li	tp,0
   1a9b4:	000f00b7          	lui	ra,0xf0
   1a9b8:	0ff0809b          	addiw	ra,ra,255
   1a9bc:	00c09093          	slli	ra,ra,0xc
   1a9c0:	00f08093          	addi	ra,ra,15 # f000f <heap_memory_used+0xcdd57>
   1a9c4:	0f00c193          	xori	gp,ra,240
   1a9c8:	00000013          	nop
   1a9cc:	00000013          	nop
   1a9d0:	00018313          	mv	t1,gp
   1a9d4:	00120213          	addi	tp,tp,1 # 1 <_start+0x1>
   1a9d8:	00200293          	li	t0,2
   1a9dc:	fc521ce3          	bne	tp,t0,1a9b4 <test_9+0x4>
   1a9e0:	000f0eb7          	lui	t4,0xf0
   1a9e4:	0ffe8e9b          	addiw	t4,t4,255
   1a9e8:	00ce9e93          	slli	t4,t4,0xc
   1a9ec:	0ffe8e93          	addi	t4,t4,255 # f00ff <heap_memory_used+0xcde47>
   1a9f0:	00900e13          	li	t3,9
   1a9f4:	0dd31863          	bne	t1,t4,1aac4 <fail>

000000000001a9f8 <test_10>:
   1a9f8:	00000213          	li	tp,0
   1a9fc:	0ff010b7          	lui	ra,0xff01
   1aa00:	ff00809b          	addiw	ra,ra,-16
   1aa04:	0f00c193          	xori	gp,ra,240
   1aa08:	00120213          	addi	tp,tp,1 # 1 <_start+0x1>
   1aa0c:	00200293          	li	t0,2
   1aa10:	fe5216e3          	bne	tp,t0,1a9fc <test_10+0x4>
   1aa14:	0ff01eb7          	lui	t4,0xff01
   1aa18:	f00e8e9b          	addiw	t4,t4,-256
   1aa1c:	00a00e13          	li	t3,10
   1aa20:	0bd19263          	bne	gp,t4,1aac4 <fail>

000000000001aa24 <test_11>:
   1aa24:	00000213          	li	tp,0
   1aa28:	00ff10b7          	lui	ra,0xff1
   1aa2c:	fff0809b          	addiw	ra,ra,-1
   1aa30:	00000013          	nop
   1aa34:	00f0c193          	xori	gp,ra,15
   1aa38:	00120213          	addi	tp,tp,1 # 1 <_start+0x1>
   1aa3c:	00200293          	li	t0,2
   1aa40:	fe5214e3          	bne	tp,t0,1aa28 <test_11+0x4>
   1aa44:	00ff1eb7          	lui	t4,0xff1
   1aa48:	ff0e8e9b          	addiw	t4,t4,-16
   1aa4c:	00b00e13          	li	t3,11
   1aa50:	07d19a63          	bne	gp,t4,1aac4 <fail>

000000000001aa54 <test_12>:
   1aa54:	00000213          	li	tp,0
   1aa58:	000f00b7          	lui	ra,0xf0
   1aa5c:	0ff0809b          	addiw	ra,ra,255
   1aa60:	00c09093          	slli	ra,ra,0xc
   1aa64:	00f08093          	addi	ra,ra,15 # f000f <heap_memory_used+0xcdd57>
   1aa68:	00000013          	nop
   1aa6c:	00000013          	nop
   1aa70:	0f00c193          	xori	gp,ra,240
   1aa74:	00120213          	addi	tp,tp,1 # 1 <_start+0x1>
   1aa78:	00200293          	li	t0,2
   1aa7c:	fc521ee3          	bne	tp,t0,1aa58 <test_12+0x4>
   1aa80:	000f0eb7          	lui	t4,0xf0
   1aa84:	0ffe8e9b          	addiw	t4,t4,255
   1aa88:	00ce9e93          	slli	t4,t4,0xc
   1aa8c:	0ffe8e93          	addi	t4,t4,255 # f00ff <heap_memory_used+0xcde47>
   1aa90:	00c00e13          	li	t3,12
   1aa94:	03d19863          	bne	gp,t4,1aac4 <fail>

000000000001aa98 <test_13>:
   1aa98:	0f004093          	xori	ra,zero,240
   1aa9c:	0f000e93          	li	t4,240
   1aaa0:	00d00e13          	li	t3,13
   1aaa4:	03d09063          	bne	ra,t4,1aac4 <fail>

000000000001aaa8 <test_14>:
   1aaa8:	00ff00b7          	lui	ra,0xff0
   1aaac:	0ff0809b          	addiw	ra,ra,255
   1aab0:	70f0c013          	xori	zero,ra,1807
   1aab4:	00000e93          	li	t4,0
   1aab8:	00e00e13          	li	t3,14
   1aabc:	01d01463          	bne	zero,t4,1aac4 <fail>
   1aac0:	05c01863          	bne	zero,t3,1ab10 <pass>

000000000001aac4 <fail>:
   1aac4:	04500513          	li	a0,69
   1aac8:	00004137          	lui	sp,0x4
   1aacc:	43c030ef          	jal	ra,1df08 <printf_c>
   1aad0:	05200513          	li	a0,82
   1aad4:	00004137          	lui	sp,0x4
   1aad8:	430030ef          	jal	ra,1df08 <printf_c>
   1aadc:	00004137          	lui	sp,0x4
   1aae0:	428030ef          	jal	ra,1df08 <printf_c>
   1aae4:	04f00513          	li	a0,79
   1aae8:	00004137          	lui	sp,0x4
   1aaec:	41c030ef          	jal	ra,1df08 <printf_c>
   1aaf0:	00004137          	lui	sp,0x4
   1aaf4:	05200513          	li	a0,82
   1aaf8:	00004137          	lui	sp,0x4
   1aafc:	40c030ef          	jal	ra,1df08 <printf_c>
   1ab00:	00a00513          	li	a0,10
   1ab04:	00004137          	lui	sp,0x4
   1ab08:	400030ef          	jal	ra,1df08 <printf_c>
   1ab0c:	c24f906f          	j	13f30 <mul>

000000000001ab10 <pass>:
   1ab10:	04f00513          	li	a0,79
   1ab14:	00004137          	lui	sp,0x4
   1ab18:	3f0030ef          	jal	ra,1df08 <printf_c>
   1ab1c:	04b00513          	li	a0,75
   1ab20:	00004137          	lui	sp,0x4
   1ab24:	3e4030ef          	jal	ra,1df08 <printf_c>
   1ab28:	00a00513          	li	a0,10
   1ab2c:	00004137          	lui	sp,0x4
   1ab30:	3d8030ef          	jal	ra,1df08 <printf_c>
   1ab34:	bfcf906f          	j	13f30 <mul>

000000000001ab38 <Proc_2>:
   1ab38:	000227b7          	lui	a5,0x22
   1ab3c:	da47c703          	lbu	a4,-604(a5) # 21da4 <Ch_1_Glob>
   1ab40:	04100793          	li	a5,65
   1ab44:	00f70463          	beq	a4,a5,1ab4c <Proc_2+0x14>
   1ab48:	00008067          	ret
   1ab4c:	00052783          	lw	a5,0(a0)
   1ab50:	00022737          	lui	a4,0x22
   1ab54:	da072703          	lw	a4,-608(a4) # 21da0 <Int_Glob>
   1ab58:	0097879b          	addiw	a5,a5,9
   1ab5c:	40e787bb          	subw	a5,a5,a4
   1ab60:	00f52023          	sw	a5,0(a0)
   1ab64:	00008067          	ret

000000000001ab68 <Proc_3>:
   1ab68:	000227b7          	lui	a5,0x22
   1ab6c:	da87b603          	ld	a2,-600(a5) # 21da8 <Ptr_Glob>
   1ab70:	00060863          	beqz	a2,1ab80 <Proc_3+0x18>
   1ab74:	00063703          	ld	a4,0(a2)
   1ab78:	00e53023          	sd	a4,0(a0)
   1ab7c:	da87b603          	ld	a2,-600(a5)
   1ab80:	000227b7          	lui	a5,0x22
   1ab84:	da07a583          	lw	a1,-608(a5) # 21da0 <Int_Glob>
   1ab88:	01060613          	addi	a2,a2,16
   1ab8c:	00a00513          	li	a0,10
   1ab90:	0b90006f          	j	1b448 <Proc_7>

000000000001ab94 <Proc_1>:
   1ab94:	fe010113          	addi	sp,sp,-32 # 3fe0 <coremarkBenchmark+0x3f38>
   1ab98:	01213023          	sd	s2,0(sp)
   1ab9c:	00022937          	lui	s2,0x22
   1aba0:	da893783          	ld	a5,-600(s2) # 21da8 <Ptr_Glob>
   1aba4:	00813823          	sd	s0,16(sp)
   1aba8:	00053403          	ld	s0,0(a0)
   1abac:	0007b683          	ld	a3,0(a5)
   1abb0:	00913423          	sd	s1,8(sp)
   1abb4:	00113c23          	sd	ra,24(sp)
   1abb8:	00d43023          	sd	a3,0(s0) # 18000 <test_3+0xc>
   1abbc:	0087b603          	ld	a2,8(a5)
   1abc0:	00050493          	mv	s1,a0
   1abc4:	0004b683          	ld	a3,0(s1)
   1abc8:	00c43423          	sd	a2,8(s0)
   1abcc:	0107b603          	ld	a2,16(a5)
   1abd0:	00500713          	li	a4,5
   1abd4:	00040513          	mv	a0,s0
   1abd8:	00c43823          	sd	a2,16(s0)
   1abdc:	0187b603          	ld	a2,24(a5)
   1abe0:	00c43c23          	sd	a2,24(s0)
   1abe4:	0207b603          	ld	a2,32(a5)
   1abe8:	02c43023          	sd	a2,32(s0)
   1abec:	0287b603          	ld	a2,40(a5)
   1abf0:	02c43423          	sd	a2,40(s0)
   1abf4:	0307b783          	ld	a5,48(a5)
   1abf8:	02f43823          	sd	a5,48(s0)
   1abfc:	00e4a823          	sw	a4,16(s1)
   1ac00:	00e42823          	sw	a4,16(s0)
   1ac04:	00d43023          	sd	a3,0(s0)
   1ac08:	f61ff0ef          	jal	ra,1ab68 <Proc_3>
   1ac0c:	00842783          	lw	a5,8(s0)
   1ac10:	04078c63          	beqz	a5,1ac68 <Proc_1+0xd4>
   1ac14:	0004b783          	ld	a5,0(s1)
   1ac18:	01813083          	ld	ra,24(sp)
   1ac1c:	01013403          	ld	s0,16(sp)
   1ac20:	0007b703          	ld	a4,0(a5)
   1ac24:	00013903          	ld	s2,0(sp)
   1ac28:	00e4b023          	sd	a4,0(s1)
   1ac2c:	0087b703          	ld	a4,8(a5)
   1ac30:	00e4b423          	sd	a4,8(s1)
   1ac34:	0107b703          	ld	a4,16(a5)
   1ac38:	00e4b823          	sd	a4,16(s1)
   1ac3c:	0187b703          	ld	a4,24(a5)
   1ac40:	00e4bc23          	sd	a4,24(s1)
   1ac44:	0207b703          	ld	a4,32(a5)
   1ac48:	02e4b023          	sd	a4,32(s1)
   1ac4c:	0287b703          	ld	a4,40(a5)
   1ac50:	02e4b423          	sd	a4,40(s1)
   1ac54:	0307b783          	ld	a5,48(a5)
   1ac58:	02f4b823          	sd	a5,48(s1)
   1ac5c:	00813483          	ld	s1,8(sp)
   1ac60:	02010113          	addi	sp,sp,32
   1ac64:	00008067          	ret
   1ac68:	00c4a503          	lw	a0,12(s1)
   1ac6c:	00600793          	li	a5,6
   1ac70:	00c40593          	addi	a1,s0,12
   1ac74:	00f42823          	sw	a5,16(s0)
   1ac78:	780000ef          	jal	ra,1b3f8 <Proc_6>
   1ac7c:	da893783          	ld	a5,-600(s2)
   1ac80:	01042503          	lw	a0,16(s0)
   1ac84:	01040613          	addi	a2,s0,16
   1ac88:	0007b783          	ld	a5,0(a5)
   1ac8c:	01813083          	ld	ra,24(sp)
   1ac90:	00813483          	ld	s1,8(sp)
   1ac94:	00f43023          	sd	a5,0(s0)
   1ac98:	01013403          	ld	s0,16(sp)
   1ac9c:	00013903          	ld	s2,0(sp)
   1aca0:	00a00593          	li	a1,10
   1aca4:	02010113          	addi	sp,sp,32
   1aca8:	7a00006f          	j	1b448 <Proc_7>

000000000001acac <DHRYSTONE>:
   1acac:	f1010113          	addi	sp,sp,-240
   1acb0:	03800513          	li	a0,56
   1acb4:	0e113423          	sd	ra,232(sp)
   1acb8:	0e813023          	sd	s0,224(sp)
   1acbc:	0b813023          	sd	s8,160(sp)
   1acc0:	00022437          	lui	s0,0x22
   1acc4:	09a13823          	sd	s10,144(sp)
   1acc8:	0c913c23          	sd	s1,216(sp)
   1accc:	0d213823          	sd	s2,208(sp)
   1acd0:	0d313423          	sd	s3,200(sp)
   1acd4:	0d413023          	sd	s4,192(sp)
   1acd8:	0b513c23          	sd	s5,184(sp)
   1acdc:	0b613823          	sd	s6,176(sp)
   1ace0:	0b713423          	sd	s7,168(sp)
   1ace4:	09913c23          	sd	s9,152(sp)
   1ace8:	09b13423          	sd	s11,136(sp)
   1acec:	1f0030ef          	jal	ra,1dedc <malloc>
   1acf0:	d8a43c23          	sd	a0,-616(s0) # 21d98 <Next_Ptr_Glob>
   1acf4:	03800513          	li	a0,56
   1acf8:	1e4030ef          	jal	ra,1dedc <malloc>
   1acfc:	d9843783          	ld	a5,-616(s0)
   1ad00:	00022c37          	lui	s8,0x22
   1ad04:	daac3423          	sd	a0,-600(s8) # 21da8 <Ptr_Glob>
   1ad08:	00f53023          	sd	a5,0(a0)
   1ad0c:	00200793          	li	a5,2
   1ad10:	00f52623          	sw	a5,12(a0)
   1ad14:	0001e5b7          	lui	a1,0x1e
   1ad18:	02800793          	li	a5,40
   1ad1c:	00f52823          	sw	a5,16(a0)
   1ad20:	69058593          	addi	a1,a1,1680 # 1e690 <errpat+0x38>
   1ad24:	00052423          	sw	zero,8(a0)
   1ad28:	01450513          	addi	a0,a0,20
   1ad2c:	67c030ef          	jal	ra,1e3a8 <strcpy>
   1ad30:	0001e5b7          	lui	a1,0x1e
   1ad34:	6b058593          	addi	a1,a1,1712 # 1e6b0 <errpat+0x58>
   1ad38:	04010513          	addi	a0,sp,64
   1ad3c:	66c030ef          	jal	ra,1e3a8 <strcpy>
   1ad40:	0001f437          	lui	s0,0x1f
   1ad44:	0001fd37          	lui	s10,0x1f
   1ad48:	00a00793          	li	a5,10
   1ad4c:	680d0713          	addi	a4,s10,1664 # 1f680 <Arr_2_Glob>
   1ad50:	11040513          	addi	a0,s0,272 # 1f110 <errpat+0xab8>
   1ad54:	64f72e23          	sw	a5,1628(a4)
   1ad58:	31c030ef          	jal	ra,1e074 <printf>
   1ad5c:	0001e537          	lui	a0,0x1e
   1ad60:	6d050513          	addi	a0,a0,1744 # 1e6d0 <errpat+0x78>
   1ad64:	310030ef          	jal	ra,1e074 <printf>
   1ad68:	11040513          	addi	a0,s0,272
   1ad6c:	308030ef          	jal	ra,1e074 <printf>
   1ad70:	000227b7          	lui	a5,0x22
   1ad74:	2907a783          	lw	a5,656(a5) # 22290 <Reg>
   1ad78:	60078e63          	beqz	a5,1b394 <DHRYSTONE+0x6e8>
   1ad7c:	0001e537          	lui	a0,0x1e
   1ad80:	70050513          	addi	a0,a0,1792 # 1e700 <errpat+0xa8>
   1ad84:	2f0030ef          	jal	ra,1e074 <printf>
   1ad88:	11040513          	addi	a0,s0,272
   1ad8c:	2e8030ef          	jal	ra,1e074 <printf>
   1ad90:	0001e537          	lui	a0,0x1e
   1ad94:	76050513          	addi	a0,a0,1888 # 1e760 <errpat+0x108>
   1ad98:	2dc030ef          	jal	ra,1e074 <printf>
   1ad9c:	0001f7b7          	lui	a5,0x1f
   1ada0:	11078513          	addi	a0,a5,272 # 1f110 <errpat+0xab8>
   1ada4:	2d0030ef          	jal	ra,1e074 <printf>
   1ada8:	0001e537          	lui	a0,0x1e
   1adac:	06400593          	li	a1,100
   1adb0:	79850513          	addi	a0,a0,1944 # 1e798 <errpat+0x140>
   1adb4:	2c0030ef          	jal	ra,1e074 <printf>
   1adb8:	00000513          	li	a0,0
   1adbc:	09c030ef          	jal	ra,1de58 <time>
   1adc0:	0001f7b7          	lui	a5,0x1f
   1adc4:	66a7bc23          	sd	a0,1656(a5) # 1f678 <Begin_Time>
   1adc8:	00000513          	li	a0,0
   1adcc:	094030ef          	jal	ra,1de60 <insn>
   1add0:	000227b7          	lui	a5,0x22
   1add4:	daa7b823          	sd	a0,-592(a5) # 21db0 <Begin_Insn>
   1add8:	00100493          	li	s1,1
   1addc:	000229b7          	lui	s3,0x22
   1ade0:	00022a37          	lui	s4,0x22
   1ade4:	00022437          	lui	s0,0x22
   1ade8:	00022cb7          	lui	s9,0x22
   1adec:	00022b37          	lui	s6,0x22
   1adf0:	00100a93          	li	s5,1
   1adf4:	0001ebb7          	lui	s7,0x1e
   1adf8:	0001e7b7          	lui	a5,0x1e
   1adfc:	7c878593          	addi	a1,a5,1992 # 1e7c8 <errpat+0x170>
   1ae00:	04100793          	li	a5,65
   1ae04:	daf98223          	sb	a5,-604(s3) # 21da4 <Ch_1_Glob>
   1ae08:	06010513          	addi	a0,sp,96
   1ae0c:	04200793          	li	a5,66
   1ae10:	daf402a3          	sb	a5,-603(s0) # 21da5 <Ch_2_Glob>
   1ae14:	e95a2023          	sw	s5,-384(s4) # 21e80 <Bool_Glob>
   1ae18:	590030ef          	jal	ra,1e3a8 <strcpy>
   1ae1c:	06010593          	addi	a1,sp,96
   1ae20:	04010513          	addi	a0,sp,64
   1ae24:	03512e23          	sw	s5,60(sp)
   1ae28:	6c0000ef          	jal	ra,1b4e8 <Func_2>
   1ae2c:	00153793          	seqz	a5,a0
   1ae30:	03810613          	addi	a2,sp,56
   1ae34:	00300593          	li	a1,3
   1ae38:	e8fa2023          	sw	a5,-384(s4)
   1ae3c:	00200513          	li	a0,2
   1ae40:	00700793          	li	a5,7
   1ae44:	02f12c23          	sw	a5,56(sp)
   1ae48:	600000ef          	jal	ra,1b448 <Proc_7>
   1ae4c:	03812683          	lw	a3,56(sp)
   1ae50:	00300613          	li	a2,3
   1ae54:	680d0593          	addi	a1,s10,1664
   1ae58:	db8c8513          	addi	a0,s9,-584 # 21db8 <Arr_1_Glob>
   1ae5c:	5fc000ef          	jal	ra,1b458 <Proc_8>
   1ae60:	da8c3503          	ld	a0,-600(s8)
   1ae64:	d31ff0ef          	jal	ra,1ab94 <Proc_1>
   1ae68:	da544703          	lbu	a4,-603(s0)
   1ae6c:	04000793          	li	a5,64
   1ae70:	50e7fe63          	bleu	a4,a5,1b38c <DHRYSTONE+0x6e0>
   1ae74:	04100d93          	li	s11,65
   1ae78:	00300913          	li	s2,3
   1ae7c:	0140006f          	j	1ae90 <DHRYSTONE+0x1e4>
   1ae80:	da544703          	lbu	a4,-603(s0)
   1ae84:	001d879b          	addiw	a5,s11,1
   1ae88:	0ff7fd93          	andi	s11,a5,255
   1ae8c:	05b76663          	bltu	a4,s11,1aed8 <DHRYSTONE+0x22c>
   1ae90:	04300593          	li	a1,67
   1ae94:	000d8513          	mv	a0,s11
   1ae98:	62c000ef          	jal	ra,1b4c4 <Func_1>
   1ae9c:	03c12703          	lw	a4,60(sp)
   1aea0:	0005051b          	sext.w	a0,a0
   1aea4:	fca71ee3          	bne	a4,a0,1ae80 <DHRYSTONE+0x1d4>
   1aea8:	03c10593          	addi	a1,sp,60
   1aeac:	00000513          	li	a0,0
   1aeb0:	548000ef          	jal	ra,1b3f8 <Proc_6>
   1aeb4:	7e8b8593          	addi	a1,s7,2024 # 1e7e8 <errpat+0x190>
   1aeb8:	06010513          	addi	a0,sp,96
   1aebc:	4ec030ef          	jal	ra,1e3a8 <strcpy>
   1aec0:	da544703          	lbu	a4,-603(s0)
   1aec4:	001d879b          	addiw	a5,s11,1
   1aec8:	da9b2023          	sw	s1,-608(s6) # 21da0 <Int_Glob>
   1aecc:	0ff7fd93          	andi	s11,a5,255
   1aed0:	00048913          	mv	s2,s1
   1aed4:	fbb77ee3          	bleu	s11,a4,1ae90 <DHRYSTONE+0x1e4>
   1aed8:	0019179b          	slliw	a5,s2,0x1
   1aedc:	0127893b          	addw	s2,a5,s2
   1aee0:	03812803          	lw	a6,56(sp)
   1aee4:	da49c683          	lbu	a3,-604(s3)
   1aee8:	04100593          	li	a1,65
   1aeec:	0309463b          	divw	a2,s2,a6
   1aef0:	00060713          	mv	a4,a2
   1aef4:	00b69863          	bne	a3,a1,1af04 <DHRYSTONE+0x258>
   1aef8:	da0b2703          	lw	a4,-608(s6)
   1aefc:	0096079b          	addiw	a5,a2,9
   1af00:	40e7873b          	subw	a4,a5,a4
   1af04:	0014849b          	addiw	s1,s1,1
   1af08:	06500793          	li	a5,101
   1af0c:	eef496e3          	bne	s1,a5,1adf8 <DHRYSTONE+0x14c>
   1af10:	00000513          	li	a0,0
   1af14:	02e13423          	sd	a4,40(sp)
   1af18:	02c13023          	sd	a2,32(sp)
   1af1c:	01013c23          	sd	a6,24(sp)
   1af20:	739020ef          	jal	ra,1de58 <time>
   1af24:	000228b7          	lui	a7,0x22
   1af28:	d8a8b823          	sd	a0,-624(a7) # 21d90 <End_Time>
   1af2c:	00000513          	li	a0,0
   1af30:	01113823          	sd	a7,16(sp)
   1af34:	72d020ef          	jal	ra,1de60 <insn>
   1af38:	000226b7          	lui	a3,0x22
   1af3c:	e8a6b423          	sd	a0,-376(a3) # 21e88 <End_Insn>
   1af40:	0001f537          	lui	a0,0x1f
   1af44:	80850513          	addi	a0,a0,-2040 # 1e808 <errpat+0x1b0>
   1af48:	00d13423          	sd	a3,8(sp)
   1af4c:	0001f4b7          	lui	s1,0x1f
   1af50:	124030ef          	jal	ra,1e074 <printf>
   1af54:	11048513          	addi	a0,s1,272 # 1f110 <errpat+0xab8>
   1af58:	11c030ef          	jal	ra,1e074 <printf>
   1af5c:	0001f537          	lui	a0,0x1f
   1af60:	81850513          	addi	a0,a0,-2024 # 1e818 <errpat+0x1c0>
   1af64:	110030ef          	jal	ra,1e074 <printf>
   1af68:	11048513          	addi	a0,s1,272
   1af6c:	108030ef          	jal	ra,1e074 <printf>
   1af70:	da0b2583          	lw	a1,-608(s6)
   1af74:	0001f537          	lui	a0,0x1f
   1af78:	85050513          	addi	a0,a0,-1968 # 1e850 <errpat+0x1f8>
   1af7c:	0001f4b7          	lui	s1,0x1f
   1af80:	0f4030ef          	jal	ra,1e074 <printf>
   1af84:	87048513          	addi	a0,s1,-1936 # 1e870 <errpat+0x218>
   1af88:	00500593          	li	a1,5
   1af8c:	0e8030ef          	jal	ra,1e074 <printf>
   1af90:	e80a2583          	lw	a1,-384(s4)
   1af94:	0001f537          	lui	a0,0x1f
   1af98:	89050513          	addi	a0,a0,-1904 # 1e890 <errpat+0x238>
   1af9c:	0d8030ef          	jal	ra,1e074 <printf>
   1afa0:	87048513          	addi	a0,s1,-1936
   1afa4:	00100593          	li	a1,1
   1afa8:	0cc030ef          	jal	ra,1e074 <printf>
   1afac:	da49c583          	lbu	a1,-604(s3)
   1afb0:	0001f537          	lui	a0,0x1f
   1afb4:	8b050513          	addi	a0,a0,-1872 # 1e8b0 <errpat+0x258>
   1afb8:	0bc030ef          	jal	ra,1e074 <printf>
   1afbc:	0001f9b7          	lui	s3,0x1f
   1afc0:	8d098513          	addi	a0,s3,-1840 # 1e8d0 <errpat+0x278>
   1afc4:	04100593          	li	a1,65
   1afc8:	0ac030ef          	jal	ra,1e074 <printf>
   1afcc:	da544583          	lbu	a1,-603(s0)
   1afd0:	0001f537          	lui	a0,0x1f
   1afd4:	8f050513          	addi	a0,a0,-1808 # 1e8f0 <errpat+0x298>
   1afd8:	09c030ef          	jal	ra,1e074 <printf>
   1afdc:	8d098513          	addi	a0,s3,-1840
   1afe0:	04200593          	li	a1,66
   1afe4:	090030ef          	jal	ra,1e074 <printf>
   1afe8:	db8c8c93          	addi	s9,s9,-584
   1afec:	020ca583          	lw	a1,32(s9)
   1aff0:	0001f537          	lui	a0,0x1f
   1aff4:	91050513          	addi	a0,a0,-1776 # 1e910 <errpat+0x2b8>
   1aff8:	07c030ef          	jal	ra,1e074 <printf>
   1affc:	87048513          	addi	a0,s1,-1936
   1b000:	00700593          	li	a1,7
   1b004:	070030ef          	jal	ra,1e074 <printf>
   1b008:	0001f7b7          	lui	a5,0x1f
   1b00c:	68078793          	addi	a5,a5,1664 # 1f680 <Arr_2_Glob>
   1b010:	65c7a583          	lw	a1,1628(a5)
   1b014:	0001f537          	lui	a0,0x1f
   1b018:	93050513          	addi	a0,a0,-1744 # 1e930 <errpat+0x2d8>
   1b01c:	058030ef          	jal	ra,1e074 <printf>
   1b020:	0001f537          	lui	a0,0x1f
   1b024:	95050513          	addi	a0,a0,-1712 # 1e950 <errpat+0x2f8>
   1b028:	04c030ef          	jal	ra,1e074 <printf>
   1b02c:	0001f537          	lui	a0,0x1f
   1b030:	98050513          	addi	a0,a0,-1664 # 1e980 <errpat+0x328>
   1b034:	040030ef          	jal	ra,1e074 <printf>
   1b038:	da8c3583          	ld	a1,-600(s8)
   1b03c:	0001f7b7          	lui	a5,0x1f
   1b040:	99078513          	addi	a0,a5,-1648 # 1e990 <errpat+0x338>
   1b044:	0005a583          	lw	a1,0(a1)
   1b048:	00f13023          	sd	a5,0(sp)
   1b04c:	0001fcb7          	lui	s9,0x1f
   1b050:	024030ef          	jal	ra,1e074 <printf>
   1b054:	0001f537          	lui	a0,0x1f
   1b058:	9b050513          	addi	a0,a0,-1616 # 1e9b0 <errpat+0x358>
   1b05c:	018030ef          	jal	ra,1e074 <printf>
   1b060:	da8c3583          	ld	a1,-600(s8)
   1b064:	9e8c8513          	addi	a0,s9,-1560 # 1e9e8 <errpat+0x390>
   1b068:	0001fbb7          	lui	s7,0x1f
   1b06c:	0085a583          	lw	a1,8(a1)
   1b070:	0001fb37          	lui	s6,0x1f
   1b074:	0001fab7          	lui	s5,0x1f
   1b078:	7fd020ef          	jal	ra,1e074 <printf>
   1b07c:	87048513          	addi	a0,s1,-1936
   1b080:	00000593          	li	a1,0
   1b084:	7f1020ef          	jal	ra,1e074 <printf>
   1b088:	da8c3583          	ld	a1,-600(s8)
   1b08c:	a08b8513          	addi	a0,s7,-1528 # 1ea08 <errpat+0x3b0>
   1b090:	0001fa37          	lui	s4,0x1f
   1b094:	00c5a583          	lw	a1,12(a1)
   1b098:	0001f437          	lui	s0,0x1f
   1b09c:	0001f9b7          	lui	s3,0x1f
   1b0a0:	7d5020ef          	jal	ra,1e074 <printf>
   1b0a4:	87048513          	addi	a0,s1,-1936
   1b0a8:	00200593          	li	a1,2
   1b0ac:	7c9020ef          	jal	ra,1e074 <printf>
   1b0b0:	da8c3583          	ld	a1,-600(s8)
   1b0b4:	a28b0513          	addi	a0,s6,-1496 # 1ea28 <errpat+0x3d0>
   1b0b8:	00a00d93          	li	s11,10
   1b0bc:	0105a583          	lw	a1,16(a1)
   1b0c0:	3e800d13          	li	s10,1000
   1b0c4:	7b1020ef          	jal	ra,1e074 <printf>
   1b0c8:	87048513          	addi	a0,s1,-1936
   1b0cc:	01100593          	li	a1,17
   1b0d0:	7a5020ef          	jal	ra,1e074 <printf>
   1b0d4:	da8c3583          	ld	a1,-600(s8)
   1b0d8:	a48a8513          	addi	a0,s5,-1464 # 1ea48 <errpat+0x3f0>
   1b0dc:	00022c37          	lui	s8,0x22
   1b0e0:	01458593          	addi	a1,a1,20
   1b0e4:	791020ef          	jal	ra,1e074 <printf>
   1b0e8:	a68a0513          	addi	a0,s4,-1432 # 1ea68 <errpat+0x410>
   1b0ec:	789020ef          	jal	ra,1e074 <printf>
   1b0f0:	0001f537          	lui	a0,0x1f
   1b0f4:	aa050513          	addi	a0,a0,-1376 # 1eaa0 <errpat+0x448>
   1b0f8:	77d020ef          	jal	ra,1e074 <printf>
   1b0fc:	d98c3583          	ld	a1,-616(s8) # 21d98 <Next_Ptr_Glob>
   1b100:	00013783          	ld	a5,0(sp)
   1b104:	0005a583          	lw	a1,0(a1)
   1b108:	99078513          	addi	a0,a5,-1648
   1b10c:	769020ef          	jal	ra,1e074 <printf>
   1b110:	0001f537          	lui	a0,0x1f
   1b114:	ab850513          	addi	a0,a0,-1352 # 1eab8 <errpat+0x460>
   1b118:	75d020ef          	jal	ra,1e074 <printf>
   1b11c:	d98c3783          	ld	a5,-616(s8)
   1b120:	9e8c8513          	addi	a0,s9,-1560
   1b124:	0087a583          	lw	a1,8(a5)
   1b128:	74d020ef          	jal	ra,1e074 <printf>
   1b12c:	87048513          	addi	a0,s1,-1936
   1b130:	00000593          	li	a1,0
   1b134:	741020ef          	jal	ra,1e074 <printf>
   1b138:	d98c3783          	ld	a5,-616(s8)
   1b13c:	a08b8513          	addi	a0,s7,-1528
   1b140:	00c7a583          	lw	a1,12(a5)
   1b144:	731020ef          	jal	ra,1e074 <printf>
   1b148:	87048513          	addi	a0,s1,-1936
   1b14c:	00100593          	li	a1,1
   1b150:	725020ef          	jal	ra,1e074 <printf>
   1b154:	d98c3783          	ld	a5,-616(s8)
   1b158:	a28b0513          	addi	a0,s6,-1496
   1b15c:	0107a583          	lw	a1,16(a5)
   1b160:	715020ef          	jal	ra,1e074 <printf>
   1b164:	87048513          	addi	a0,s1,-1936
   1b168:	01200593          	li	a1,18
   1b16c:	709020ef          	jal	ra,1e074 <printf>
   1b170:	d98c3583          	ld	a1,-616(s8)
   1b174:	a48a8513          	addi	a0,s5,-1464
   1b178:	01458593          	addi	a1,a1,20
   1b17c:	6f9020ef          	jal	ra,1e074 <printf>
   1b180:	a68a0513          	addi	a0,s4,-1432
   1b184:	6f1020ef          	jal	ra,1e074 <printf>
   1b188:	02813703          	ld	a4,40(sp)
   1b18c:	0001f537          	lui	a0,0x1f
   1b190:	af850513          	addi	a0,a0,-1288 # 1eaf8 <errpat+0x4a0>
   1b194:	00070593          	mv	a1,a4
   1b198:	6dd020ef          	jal	ra,1e074 <printf>
   1b19c:	87048513          	addi	a0,s1,-1936
   1b1a0:	00500593          	li	a1,5
   1b1a4:	6d1020ef          	jal	ra,1e074 <printf>
   1b1a8:	01813803          	ld	a6,24(sp)
   1b1ac:	02013603          	ld	a2,32(sp)
   1b1b0:	0001f537          	lui	a0,0x1f
   1b1b4:	4109093b          	subw	s2,s2,a6
   1b1b8:	0039179b          	slliw	a5,s2,0x3
   1b1bc:	4127893b          	subw	s2,a5,s2
   1b1c0:	40c905bb          	subw	a1,s2,a2
   1b1c4:	b1850513          	addi	a0,a0,-1256 # 1eb18 <errpat+0x4c0>
   1b1c8:	6ad020ef          	jal	ra,1e074 <printf>
   1b1cc:	87048513          	addi	a0,s1,-1936
   1b1d0:	00d00593          	li	a1,13
   1b1d4:	6a1020ef          	jal	ra,1e074 <printf>
   1b1d8:	03812583          	lw	a1,56(sp)
   1b1dc:	0001f537          	lui	a0,0x1f
   1b1e0:	b3850513          	addi	a0,a0,-1224 # 1eb38 <errpat+0x4e0>
   1b1e4:	691020ef          	jal	ra,1e074 <printf>
   1b1e8:	87048513          	addi	a0,s1,-1936
   1b1ec:	00700593          	li	a1,7
   1b1f0:	685020ef          	jal	ra,1e074 <printf>
   1b1f4:	03c12583          	lw	a1,60(sp)
   1b1f8:	0001f537          	lui	a0,0x1f
   1b1fc:	b5850513          	addi	a0,a0,-1192 # 1eb58 <errpat+0x500>
   1b200:	675020ef          	jal	ra,1e074 <printf>
   1b204:	87048513          	addi	a0,s1,-1936
   1b208:	00100593          	li	a1,1
   1b20c:	669020ef          	jal	ra,1e074 <printf>
   1b210:	0001f537          	lui	a0,0x1f
   1b214:	04010593          	addi	a1,sp,64
   1b218:	b7850513          	addi	a0,a0,-1160 # 1eb78 <errpat+0x520>
   1b21c:	659020ef          	jal	ra,1e074 <printf>
   1b220:	0001f537          	lui	a0,0x1f
   1b224:	b9850513          	addi	a0,a0,-1128 # 1eb98 <errpat+0x540>
   1b228:	64d020ef          	jal	ra,1e074 <printf>
   1b22c:	0001f537          	lui	a0,0x1f
   1b230:	06010593          	addi	a1,sp,96
   1b234:	bd050513          	addi	a0,a0,-1072 # 1ebd0 <errpat+0x578>
   1b238:	63d020ef          	jal	ra,1e074 <printf>
   1b23c:	0001f537          	lui	a0,0x1f
   1b240:	bf050513          	addi	a0,a0,-1040 # 1ebf0 <errpat+0x598>
   1b244:	631020ef          	jal	ra,1e074 <printf>
   1b248:	0001f4b7          	lui	s1,0x1f
   1b24c:	11048513          	addi	a0,s1,272 # 1f110 <errpat+0xab8>
   1b250:	625020ef          	jal	ra,1e074 <printf>
   1b254:	00813683          	ld	a3,8(sp)
   1b258:	01013883          	ld	a7,16(sp)
   1b25c:	0001f7b7          	lui	a5,0x1f
   1b260:	6787b603          	ld	a2,1656(a5) # 1f678 <Begin_Time>
   1b264:	e886b783          	ld	a5,-376(a3)
   1b268:	000226b7          	lui	a3,0x22
   1b26c:	d908b703          	ld	a4,-624(a7)
   1b270:	db06b683          	ld	a3,-592(a3) # 21db0 <Begin_Insn>
   1b274:	0001f537          	lui	a0,0x1f
   1b278:	40c70733          	sub	a4,a4,a2
   1b27c:	40d787b3          	sub	a5,a5,a3
   1b280:	06400593          	li	a1,100
   1b284:	c2850513          	addi	a0,a0,-984 # 1ec28 <errpat+0x5d0>
   1b288:	66e43823          	sd	a4,1648(s0) # 1f670 <User_Time>
   1b28c:	66f9b423          	sd	a5,1640(s3) # 1f668 <User_Insn>
   1b290:	5e5020ef          	jal	ra,1e074 <printf>
   1b294:	6689b603          	ld	a2,1640(s3)
   1b298:	67043583          	ld	a1,1648(s0)
   1b29c:	0001f537          	lui	a0,0x1f
   1b2a0:	c4050513          	addi	a0,a0,-960 # 1ec40 <errpat+0x5e8>
   1b2a4:	5d1020ef          	jal	ra,1e074 <printf>
   1b2a8:	67043703          	ld	a4,1648(s0)
   1b2ac:	3e800593          	li	a1,1000
   1b2b0:	6689b783          	ld	a5,1640(s3)
   1b2b4:	02e585b3          	mul	a1,a1,a4
   1b2b8:	06400613          	li	a2,100
   1b2bc:	0001f537          	lui	a0,0x1f
   1b2c0:	c6850513          	addi	a0,a0,-920 # 1ec68 <errpat+0x610>
   1b2c4:	02f5c5b3          	div	a1,a1,a5
   1b2c8:	0005859b          	sext.w	a1,a1
   1b2cc:	03b5c6bb          	divw	a3,a1,s11
   1b2d0:	02c5c63b          	divw	a2,a1,a2
   1b2d4:	03b5e73b          	remw	a4,a1,s11
   1b2d8:	03b6e6bb          	remw	a3,a3,s11
   1b2dc:	03b6663b          	remw	a2,a2,s11
   1b2e0:	03a5c5bb          	divw	a1,a1,s10
   1b2e4:	591020ef          	jal	ra,1e074 <printf>
   1b2e8:	67043783          	ld	a5,1648(s0)
   1b2ec:	05f5e437          	lui	s0,0x5f5e
   1b2f0:	10040413          	addi	s0,s0,256 # 5f5e100 <heap_memory_used+0x5f3be48>
   1b2f4:	02f44433          	div	s0,s0,a5
   1b2f8:	0001f537          	lui	a0,0x1f
   1b2fc:	c9050513          	addi	a0,a0,-880 # 1ec90 <errpat+0x638>
   1b300:	028d0d3b          	mulw	s10,s10,s0
   1b304:	00040593          	mv	a1,s0
   1b308:	56d020ef          	jal	ra,1e074 <printf>
   1b30c:	000046b7          	lui	a3,0x4
   1b310:	0002b637          	lui	a2,0x2b
   1b314:	6dd00713          	li	a4,1757
   1b318:	4a26869b          	addiw	a3,a3,1186
   1b31c:	e546061b          	addiw	a2,a2,-428
   1b320:	001ad5b7          	lui	a1,0x1ad
   1b324:	f485859b          	addiw	a1,a1,-184
   1b328:	02ed473b          	divw	a4,s10,a4
   1b32c:	0001f537          	lui	a0,0x1f
   1b330:	cb850513          	addi	a0,a0,-840 # 1ecb8 <errpat+0x660>
   1b334:	02dd46bb          	divw	a3,s10,a3
   1b338:	02cd463b          	divw	a2,s10,a2
   1b33c:	03b7673b          	remw	a4,a4,s11
   1b340:	03b6e6bb          	remw	a3,a3,s11
   1b344:	03b6663b          	remw	a2,a2,s11
   1b348:	02bd45bb          	divw	a1,s10,a1
   1b34c:	529020ef          	jal	ra,1e074 <printf>
   1b350:	0e813083          	ld	ra,232(sp)
   1b354:	0e013403          	ld	s0,224(sp)
   1b358:	0d813483          	ld	s1,216(sp)
   1b35c:	0d013903          	ld	s2,208(sp)
   1b360:	0c813983          	ld	s3,200(sp)
   1b364:	0c013a03          	ld	s4,192(sp)
   1b368:	0b813a83          	ld	s5,184(sp)
   1b36c:	0b013b03          	ld	s6,176(sp)
   1b370:	0a813b83          	ld	s7,168(sp)
   1b374:	0a013c03          	ld	s8,160(sp)
   1b378:	09813c83          	ld	s9,152(sp)
   1b37c:	09013d03          	ld	s10,144(sp)
   1b380:	08813d83          	ld	s11,136(sp)
   1b384:	0f010113          	addi	sp,sp,240
   1b388:	00008067          	ret
   1b38c:	00900913          	li	s2,9
   1b390:	b51ff06f          	j	1aee0 <DHRYSTONE+0x234>
   1b394:	0001e537          	lui	a0,0x1e
   1b398:	73050513          	addi	a0,a0,1840 # 1e730 <errpat+0xd8>
   1b39c:	4d9020ef          	jal	ra,1e074 <printf>
   1b3a0:	0001f7b7          	lui	a5,0x1f
   1b3a4:	11078513          	addi	a0,a5,272 # 1f110 <errpat+0xab8>
   1b3a8:	4cd020ef          	jal	ra,1e074 <printf>
   1b3ac:	9e5ff06f          	j	1ad90 <DHRYSTONE+0xe4>

000000000001b3b0 <Proc_4>:
   1b3b0:	000227b7          	lui	a5,0x22
   1b3b4:	da47c783          	lbu	a5,-604(a5) # 21da4 <Ch_1_Glob>
   1b3b8:	00022737          	lui	a4,0x22
   1b3bc:	e8072683          	lw	a3,-384(a4) # 21e80 <Bool_Glob>
   1b3c0:	fbf78793          	addi	a5,a5,-65
   1b3c4:	0017b793          	seqz	a5,a5
   1b3c8:	00d7e7b3          	or	a5,a5,a3
   1b3cc:	e8f72023          	sw	a5,-384(a4)
   1b3d0:	000227b7          	lui	a5,0x22
   1b3d4:	04200713          	li	a4,66
   1b3d8:	dae782a3          	sb	a4,-603(a5) # 21da5 <Ch_2_Glob>
   1b3dc:	00008067          	ret

000000000001b3e0 <Proc_5>:
   1b3e0:	000227b7          	lui	a5,0x22
   1b3e4:	04100713          	li	a4,65
   1b3e8:	dae78223          	sb	a4,-604(a5) # 21da4 <Ch_1_Glob>
   1b3ec:	000227b7          	lui	a5,0x22
   1b3f0:	e807a023          	sw	zero,-384(a5) # 21e80 <Bool_Glob>
   1b3f4:	00008067          	ret

000000000001b3f8 <Proc_6>:
   1b3f8:	00200793          	li	a5,2
   1b3fc:	04f50063          	beq	a0,a5,1b43c <Proc_6+0x44>
   1b400:	00300713          	li	a4,3
   1b404:	00e5a023          	sw	a4,0(a1) # 1ad000 <heap_memory_used+0x18ad48>
   1b408:	00100713          	li	a4,1
   1b40c:	00e50c63          	beq	a0,a4,1b424 <Proc_6+0x2c>
   1b410:	02050263          	beqz	a0,1b434 <Proc_6+0x3c>
   1b414:	00400713          	li	a4,4
   1b418:	00e51463          	bne	a0,a4,1b420 <Proc_6+0x28>
   1b41c:	00f5a023          	sw	a5,0(a1)
   1b420:	00008067          	ret
   1b424:	000227b7          	lui	a5,0x22
   1b428:	da07a703          	lw	a4,-608(a5) # 21da0 <Int_Glob>
   1b42c:	06400793          	li	a5,100
   1b430:	fee7d8e3          	ble	a4,a5,1b420 <Proc_6+0x28>
   1b434:	0005a023          	sw	zero,0(a1)
   1b438:	00008067          	ret
   1b43c:	00100793          	li	a5,1
   1b440:	00f5a023          	sw	a5,0(a1)
   1b444:	00008067          	ret

000000000001b448 <Proc_7>:
   1b448:	0025051b          	addiw	a0,a0,2
   1b44c:	00b505bb          	addw	a1,a0,a1
   1b450:	00b62023          	sw	a1,0(a2) # 2b000 <heap_memory_used+0x8d48>
   1b454:	00008067          	ret

000000000001b458 <Proc_8>:
   1b458:	0056079b          	addiw	a5,a2,5
   1b45c:	0c800713          	li	a4,200
   1b460:	02e78733          	mul	a4,a5,a4
   1b464:	00078813          	mv	a6,a5
   1b468:	00261613          	slli	a2,a2,0x2
   1b46c:	00279793          	slli	a5,a5,0x2
   1b470:	00f50533          	add	a0,a0,a5
   1b474:	00d52023          	sw	a3,0(a0)
   1b478:	00d52223          	sw	a3,4(a0)
   1b47c:	07052c23          	sw	a6,120(a0)
   1b480:	00c707b3          	add	a5,a4,a2
   1b484:	00f587b3          	add	a5,a1,a5
   1b488:	0107a683          	lw	a3,16(a5)
   1b48c:	0107aa23          	sw	a6,20(a5)
   1b490:	0107ac23          	sw	a6,24(a5)
   1b494:	0016869b          	addiw	a3,a3,1
   1b498:	00d7a823          	sw	a3,16(a5)
   1b49c:	00052783          	lw	a5,0(a0)
   1b4a0:	00e585b3          	add	a1,a1,a4
   1b4a4:	00c585b3          	add	a1,a1,a2
   1b4a8:	00001637          	lui	a2,0x1
   1b4ac:	00b605b3          	add	a1,a2,a1
   1b4b0:	faf5aa23          	sw	a5,-76(a1)
   1b4b4:	00500713          	li	a4,5
   1b4b8:	000227b7          	lui	a5,0x22
   1b4bc:	dae7a023          	sw	a4,-608(a5) # 21da0 <Int_Glob>
   1b4c0:	00008067          	ret

000000000001b4c4 <Func_1>:
   1b4c4:	0ff57513          	andi	a0,a0,255
   1b4c8:	0ff5f593          	andi	a1,a1,255
   1b4cc:	00b50663          	beq	a0,a1,1b4d8 <Func_1+0x14>
   1b4d0:	00000513          	li	a0,0
   1b4d4:	00008067          	ret
   1b4d8:	000227b7          	lui	a5,0x22
   1b4dc:	daa78223          	sb	a0,-604(a5) # 21da4 <Ch_1_Glob>
   1b4e0:	00100513          	li	a0,1
   1b4e4:	00008067          	ret

000000000001b4e8 <Func_2>:
   1b4e8:	ff010113          	addi	sp,sp,-16
   1b4ec:	00113423          	sd	ra,8(sp)
   1b4f0:	00022837          	lui	a6,0x22
   1b4f4:	00254783          	lbu	a5,2(a0)
   1b4f8:	0035c683          	lbu	a3,3(a1)
   1b4fc:	da484603          	lbu	a2,-604(a6) # 21da4 <Ch_1_Glob>
   1b500:	00000713          	li	a4,0
   1b504:	02d78a63          	beq	a5,a3,1b538 <Func_2+0x50>
   1b508:	02071e63          	bnez	a4,1b544 <Func_2+0x5c>
   1b50c:	771020ef          	jal	ra,1e47c <strcmp>
   1b510:	00000793          	li	a5,0
   1b514:	00a05a63          	blez	a0,1b528 <Func_2+0x40>
   1b518:	000227b7          	lui	a5,0x22
   1b51c:	00a00713          	li	a4,10
   1b520:	dae7a023          	sw	a4,-608(a5) # 21da0 <Int_Glob>
   1b524:	00100793          	li	a5,1
   1b528:	00813083          	ld	ra,8(sp)
   1b52c:	00078513          	mv	a0,a5
   1b530:	01010113          	addi	sp,sp,16
   1b534:	00008067          	ret
   1b538:	00100713          	li	a4,1
   1b53c:	00078613          	mv	a2,a5
   1b540:	fc5ff06f          	j	1b504 <Func_2+0x1c>
   1b544:	dac80223          	sb	a2,-604(a6)
   1b548:	fc5ff06f          	j	1b50c <Func_2+0x24>

000000000001b54c <Func_3>:
   1b54c:	ffe50513          	addi	a0,a0,-2
   1b550:	00153513          	seqz	a0,a0
   1b554:	00008067          	ret

000000000001b558 <cmp_idx>:
   1b558:	02061a63          	bnez	a2,1b58c <cmp_idx+0x34>
   1b55c:	00051783          	lh	a5,0(a0)
   1b560:	0087d713          	srli	a4,a5,0x8
   1b564:	0ff77713          	andi	a4,a4,255
   1b568:	f007f793          	andi	a5,a5,-256
   1b56c:	00e7e7b3          	or	a5,a5,a4
   1b570:	00f51023          	sh	a5,0(a0)
   1b574:	00059783          	lh	a5,0(a1)
   1b578:	0087d713          	srli	a4,a5,0x8
   1b57c:	0ff77713          	andi	a4,a4,255
   1b580:	f007f793          	andi	a5,a5,-256
   1b584:	00e7e7b3          	or	a5,a5,a4
   1b588:	00f59023          	sh	a5,0(a1)
   1b58c:	00251503          	lh	a0,2(a0)
   1b590:	00259783          	lh	a5,2(a1)
   1b594:	40f5053b          	subw	a0,a0,a5
   1b598:	00008067          	ret

000000000001b59c <calc_func>:
   1b59c:	fd010113          	addi	sp,sp,-48
   1b5a0:	02813023          	sd	s0,32(sp)
   1b5a4:	00051403          	lh	s0,0(a0)
   1b5a8:	01213823          	sd	s2,16(sp)
   1b5ac:	02113423          	sd	ra,40(sp)
   1b5b0:	4074579b          	sraiw	a5,s0,0x7
   1b5b4:	00913c23          	sd	s1,24(sp)
   1b5b8:	01313423          	sd	s3,8(sp)
   1b5bc:	0017f793          	andi	a5,a5,1
   1b5c0:	07f47913          	andi	s2,s0,127
   1b5c4:	08079263          	bnez	a5,1b648 <calc_func+0xac>
   1b5c8:	00058493          	mv	s1,a1
   1b5cc:	4034559b          	sraiw	a1,s0,0x3
   1b5d0:	00f5f593          	andi	a1,a1,15
   1b5d4:	00459793          	slli	a5,a1,0x4
   1b5d8:	00747713          	andi	a4,s0,7
   1b5dc:	00b7e5b3          	or	a1,a5,a1
   1b5e0:	00050993          	mv	s3,a0
   1b5e4:	0604d783          	lhu	a5,96(s1)
   1b5e8:	08070063          	beqz	a4,1b668 <calc_func+0xcc>
   1b5ec:	00100693          	li	a3,1
   1b5f0:	02d71663          	bne	a4,a3,1b61c <calc_func+0x80>
   1b5f4:	00078613          	mv	a2,a5
   1b5f8:	04048513          	addi	a0,s1,64
   1b5fc:	64d010ef          	jal	ra,1d448 <core_bench_matrix>
   1b600:	0644d783          	lhu	a5,100(s1)
   1b604:	0105191b          	slliw	s2,a0,0x10
   1b608:	4109591b          	sraiw	s2,s2,0x10
   1b60c:	00079463          	bnez	a5,1b614 <calc_func+0x78>
   1b610:	06a49223          	sh	a0,100(s1)
   1b614:	0604d783          	lhu	a5,96(s1)
   1b618:	0080006f          	j	1b620 <calc_func+0x84>
   1b61c:	00040913          	mv	s2,s0
   1b620:	03091513          	slli	a0,s2,0x30
   1b624:	00078593          	mv	a1,a5
   1b628:	03055513          	srli	a0,a0,0x30
   1b62c:	f0047413          	andi	s0,s0,-256
   1b630:	6f0020ef          	jal	ra,1dd20 <crcu16>
   1b634:	07f97913          	andi	s2,s2,127
   1b638:	08046413          	ori	s0,s0,128
   1b63c:	06a49023          	sh	a0,96(s1)
   1b640:	00896433          	or	s0,s2,s0
   1b644:	00899023          	sh	s0,0(s3)
   1b648:	02813083          	ld	ra,40(sp)
   1b64c:	02013403          	ld	s0,32(sp)
   1b650:	00090513          	mv	a0,s2
   1b654:	01813483          	ld	s1,24(sp)
   1b658:	01013903          	ld	s2,16(sp)
   1b65c:	00813983          	ld	s3,8(sp)
   1b660:	03010113          	addi	sp,sp,48
   1b664:	00008067          	ret
   1b668:	02200693          	li	a3,34
   1b66c:	00058713          	mv	a4,a1
   1b670:	00d5d463          	ble	a3,a1,1b678 <calc_func+0xdc>
   1b674:	02200713          	li	a4,34
   1b678:	00249683          	lh	a3,2(s1)
   1b67c:	00049603          	lh	a2,0(s1)
   1b680:	0204b583          	ld	a1,32(s1)
   1b684:	0284a503          	lw	a0,40(s1)
   1b688:	0ff77713          	andi	a4,a4,255
   1b68c:	394020ef          	jal	ra,1da20 <core_bench_state>
   1b690:	0664d783          	lhu	a5,102(s1)
   1b694:	0105191b          	slliw	s2,a0,0x10
   1b698:	4109591b          	sraiw	s2,s2,0x10
   1b69c:	f6079ce3          	bnez	a5,1b614 <calc_func+0x78>
   1b6a0:	06a49323          	sh	a0,102(s1)
   1b6a4:	0604d783          	lhu	a5,96(s1)
   1b6a8:	f79ff06f          	j	1b620 <calc_func+0x84>

000000000001b6ac <cmp_complex>:
   1b6ac:	fe010113          	addi	sp,sp,-32
   1b6b0:	01213023          	sd	s2,0(sp)
   1b6b4:	00058913          	mv	s2,a1
   1b6b8:	00060593          	mv	a1,a2
   1b6bc:	00113c23          	sd	ra,24(sp)
   1b6c0:	00813823          	sd	s0,16(sp)
   1b6c4:	00913423          	sd	s1,8(sp)
   1b6c8:	00060413          	mv	s0,a2
   1b6cc:	ed1ff0ef          	jal	ra,1b59c <calc_func>
   1b6d0:	00050493          	mv	s1,a0
   1b6d4:	00040593          	mv	a1,s0
   1b6d8:	00090513          	mv	a0,s2
   1b6dc:	ec1ff0ef          	jal	ra,1b59c <calc_func>
   1b6e0:	01813083          	ld	ra,24(sp)
   1b6e4:	01013403          	ld	s0,16(sp)
   1b6e8:	40a4853b          	subw	a0,s1,a0
   1b6ec:	00013903          	ld	s2,0(sp)
   1b6f0:	00813483          	ld	s1,8(sp)
   1b6f4:	02010113          	addi	sp,sp,32
   1b6f8:	00008067          	ret

000000000001b6fc <copy_info>:
   1b6fc:	00059703          	lh	a4,0(a1)
   1b700:	00259783          	lh	a5,2(a1)
   1b704:	00e51023          	sh	a4,0(a0)
   1b708:	00f51123          	sh	a5,2(a0)
   1b70c:	00008067          	ret

000000000001b710 <core_list_insert_new>:
   1b710:	00063803          	ld	a6,0(a2) # 1000 <coremarkBenchmark+0xf58>
   1b714:	01080893          	addi	a7,a6,16
   1b718:	04e8f663          	bleu	a4,a7,1b764 <core_list_insert_new+0x54>
   1b71c:	0006b703          	ld	a4,0(a3) # 4000 <coremarkBenchmark+0x3f58>
   1b720:	00470313          	addi	t1,a4,4
   1b724:	04f37063          	bleu	a5,t1,1b764 <core_list_insert_new+0x54>
   1b728:	01163023          	sd	a7,0(a2)
   1b72c:	00053783          	ld	a5,0(a0)
   1b730:	00059883          	lh	a7,0(a1)
   1b734:	00259603          	lh	a2,2(a1)
   1b738:	00f83023          	sd	a5,0(a6)
   1b73c:	01053023          	sd	a6,0(a0)
   1b740:	00e83423          	sd	a4,8(a6)
   1b744:	0006b783          	ld	a5,0(a3)
   1b748:	00080513          	mv	a0,a6
   1b74c:	00478793          	addi	a5,a5,4
   1b750:	00f6b023          	sd	a5,0(a3)
   1b754:	00883783          	ld	a5,8(a6)
   1b758:	01179023          	sh	a7,0(a5)
   1b75c:	00c79123          	sh	a2,2(a5)
   1b760:	00008067          	ret
   1b764:	00000813          	li	a6,0
   1b768:	00080513          	mv	a0,a6
   1b76c:	00008067          	ret

000000000001b770 <core_list_remove>:
   1b770:	00053783          	ld	a5,0(a0)
   1b774:	00853603          	ld	a2,8(a0)
   1b778:	00050713          	mv	a4,a0
   1b77c:	0087b583          	ld	a1,8(a5)
   1b780:	0007b683          	ld	a3,0(a5)
   1b784:	00078513          	mv	a0,a5
   1b788:	00b73423          	sd	a1,8(a4)
   1b78c:	00c7b423          	sd	a2,8(a5)
   1b790:	00d73023          	sd	a3,0(a4)
   1b794:	0007b023          	sd	zero,0(a5)
   1b798:	00008067          	ret

000000000001b79c <core_list_undo_remove>:
   1b79c:	0085b603          	ld	a2,8(a1)
   1b7a0:	00853683          	ld	a3,8(a0)
   1b7a4:	0005b703          	ld	a4,0(a1)
   1b7a8:	00c53423          	sd	a2,8(a0)
   1b7ac:	00d5b423          	sd	a3,8(a1)
   1b7b0:	00e53023          	sd	a4,0(a0)
   1b7b4:	00a5b023          	sd	a0,0(a1)
   1b7b8:	00008067          	ret

000000000001b7bc <core_list_find>:
   1b7bc:	00259703          	lh	a4,2(a1)
   1b7c0:	02074863          	bltz	a4,1b7f0 <core_list_find+0x34>
   1b7c4:	02050463          	beqz	a0,1b7ec <core_list_find+0x30>
   1b7c8:	00853783          	ld	a5,8(a0)
   1b7cc:	00279783          	lh	a5,2(a5)
   1b7d0:	00e79a63          	bne	a5,a4,1b7e4 <core_list_find+0x28>
   1b7d4:	0500006f          	j	1b824 <core_list_find+0x68>
   1b7d8:	00853783          	ld	a5,8(a0)
   1b7dc:	00279783          	lh	a5,2(a5)
   1b7e0:	00e78663          	beq	a5,a4,1b7ec <core_list_find+0x30>
   1b7e4:	00053503          	ld	a0,0(a0)
   1b7e8:	fe0518e3          	bnez	a0,1b7d8 <core_list_find+0x1c>
   1b7ec:	00008067          	ret
   1b7f0:	fe050ee3          	beqz	a0,1b7ec <core_list_find+0x30>
   1b7f4:	00853783          	ld	a5,8(a0)
   1b7f8:	00059703          	lh	a4,0(a1)
   1b7fc:	0007c783          	lbu	a5,0(a5)
   1b800:	00e79a63          	bne	a5,a4,1b814 <core_list_find+0x58>
   1b804:	0240006f          	j	1b828 <core_list_find+0x6c>
   1b808:	00853783          	ld	a5,8(a0)
   1b80c:	0007c783          	lbu	a5,0(a5)
   1b810:	00e78863          	beq	a5,a4,1b820 <core_list_find+0x64>
   1b814:	00053503          	ld	a0,0(a0)
   1b818:	fe0518e3          	bnez	a0,1b808 <core_list_find+0x4c>
   1b81c:	fd1ff06f          	j	1b7ec <core_list_find+0x30>
   1b820:	00008067          	ret
   1b824:	00008067          	ret
   1b828:	00008067          	ret

000000000001b82c <core_list_reverse>:
   1b82c:	02050063          	beqz	a0,1b84c <core_list_reverse+0x20>
   1b830:	00000713          	li	a4,0
   1b834:	0080006f          	j	1b83c <core_list_reverse+0x10>
   1b838:	00078513          	mv	a0,a5
   1b83c:	00053783          	ld	a5,0(a0)
   1b840:	00e53023          	sd	a4,0(a0)
   1b844:	00050713          	mv	a4,a0
   1b848:	fe0798e3          	bnez	a5,1b838 <core_list_reverse+0xc>
   1b84c:	00008067          	ret

000000000001b850 <core_list_mergesort>:
   1b850:	fa010113          	addi	sp,sp,-96
   1b854:	03413823          	sd	s4,48(sp)
   1b858:	03513423          	sd	s5,40(sp)
   1b85c:	01713c23          	sd	s7,24(sp)
   1b860:	01813823          	sd	s8,16(sp)
   1b864:	01913423          	sd	s9,8(sp)
   1b868:	04113c23          	sd	ra,88(sp)
   1b86c:	04813823          	sd	s0,80(sp)
   1b870:	04913423          	sd	s1,72(sp)
   1b874:	05213023          	sd	s2,64(sp)
   1b878:	03313c23          	sd	s3,56(sp)
   1b87c:	03613023          	sd	s6,32(sp)
   1b880:	01a13023          	sd	s10,0(sp)
   1b884:	00050a13          	mv	s4,a0
   1b888:	00058c13          	mv	s8,a1
   1b88c:	00060b93          	mv	s7,a2
   1b890:	00100a93          	li	s5,1
   1b894:	00100c93          	li	s9,1
   1b898:	0a0a0e63          	beqz	s4,1b954 <core_list_mergesort+0x104>
   1b89c:	00000d13          	li	s10,0
   1b8a0:	00000913          	li	s2,0
   1b8a4:	00000b13          	li	s6,0
   1b8a8:	001d0d1b          	addiw	s10,s10,1
   1b8ac:	000a0413          	mv	s0,s4
   1b8b0:	00000493          	li	s1,0
   1b8b4:	00043403          	ld	s0,0(s0)
   1b8b8:	0014849b          	addiw	s1,s1,1
   1b8bc:	00040463          	beqz	s0,1b8c4 <core_list_mergesort+0x74>
   1b8c0:	fe9a9ae3          	bne	s5,s1,1b8b4 <core_list_mergesort+0x64>
   1b8c4:	000a8993          	mv	s3,s5
   1b8c8:	02048e63          	beqz	s1,1b904 <core_list_mergesort+0xb4>
   1b8cc:	04098e63          	beqz	s3,1b928 <core_list_mergesort+0xd8>
   1b8d0:	04040c63          	beqz	s0,1b928 <core_list_mergesort+0xd8>
   1b8d4:	00843583          	ld	a1,8(s0)
   1b8d8:	008a3503          	ld	a0,8(s4)
   1b8dc:	000b8613          	mv	a2,s7
   1b8e0:	000c00e7          	jalr	s8
   1b8e4:	04a05263          	blez	a0,1b928 <core_list_mergesort+0xd8>
   1b8e8:	00040793          	mv	a5,s0
   1b8ec:	00043403          	ld	s0,0(s0)
   1b8f0:	fff9899b          	addiw	s3,s3,-1
   1b8f4:	02090463          	beqz	s2,1b91c <core_list_mergesort+0xcc>
   1b8f8:	00f93023          	sd	a5,0(s2)
   1b8fc:	00078913          	mv	s2,a5
   1b900:	fc0496e3          	bnez	s1,1b8cc <core_list_mergesort+0x7c>
   1b904:	02098a63          	beqz	s3,1b938 <core_list_mergesort+0xe8>
   1b908:	02040c63          	beqz	s0,1b940 <core_list_mergesort+0xf0>
   1b90c:	00040793          	mv	a5,s0
   1b910:	fff9899b          	addiw	s3,s3,-1
   1b914:	00043403          	ld	s0,0(s0)
   1b918:	fe0910e3          	bnez	s2,1b8f8 <core_list_mergesort+0xa8>
   1b91c:	00078b13          	mv	s6,a5
   1b920:	00078913          	mv	s2,a5
   1b924:	fddff06f          	j	1b900 <core_list_mergesort+0xb0>
   1b928:	000a0793          	mv	a5,s4
   1b92c:	fff4849b          	addiw	s1,s1,-1
   1b930:	000a3a03          	ld	s4,0(s4)
   1b934:	fc1ff06f          	j	1b8f4 <core_list_mergesort+0xa4>
   1b938:	00040a13          	mv	s4,s0
   1b93c:	f60416e3          	bnez	s0,1b8a8 <core_list_mergesort+0x58>
   1b940:	00093023          	sd	zero,0(s2)
   1b944:	019d0c63          	beq	s10,s9,1b95c <core_list_mergesort+0x10c>
   1b948:	001a9a9b          	slliw	s5,s5,0x1
   1b94c:	000b0a13          	mv	s4,s6
   1b950:	f49ff06f          	j	1b898 <core_list_mergesort+0x48>
   1b954:	00003023          	sd	zero,0(zero) # ffffffff80000000 <heap_memory_used+0xffffffff7ffddd48>
   1b958:	00100073          	ebreak
   1b95c:	05813083          	ld	ra,88(sp)
   1b960:	05013403          	ld	s0,80(sp)
   1b964:	000b0513          	mv	a0,s6
   1b968:	04813483          	ld	s1,72(sp)
   1b96c:	04013903          	ld	s2,64(sp)
   1b970:	03813983          	ld	s3,56(sp)
   1b974:	03013a03          	ld	s4,48(sp)
   1b978:	02813a83          	ld	s5,40(sp)
   1b97c:	02013b03          	ld	s6,32(sp)
   1b980:	01813b83          	ld	s7,24(sp)
   1b984:	01013c03          	ld	s8,16(sp)
   1b988:	00813c83          	ld	s9,8(sp)
   1b98c:	00013d03          	ld	s10,0(sp)
   1b990:	06010113          	addi	sp,sp,96
   1b994:	00008067          	ret

000000000001b998 <core_bench_list>:
   1b998:	f9010113          	addi	sp,sp,-112
   1b99c:	03813023          	sd	s8,32(sp)
   1b9a0:	00451c03          	lh	s8,4(a0)
   1b9a4:	06813023          	sd	s0,96(sp)
   1b9a8:	05413023          	sd	s4,64(sp)
   1b9ac:	03513c23          	sd	s5,56(sp)
   1b9b0:	06113423          	sd	ra,104(sp)
   1b9b4:	04913c23          	sd	s1,88(sp)
   1b9b8:	05213823          	sd	s2,80(sp)
   1b9bc:	05313423          	sd	s3,72(sp)
   1b9c0:	03613823          	sd	s6,48(sp)
   1b9c4:	03713423          	sd	s7,40(sp)
   1b9c8:	01913c23          	sd	s9,24(sp)
   1b9cc:	01a13823          	sd	s10,16(sp)
   1b9d0:	00b11523          	sh	a1,10(sp)
   1b9d4:	000c0c1b          	sext.w	s8,s8
   1b9d8:	00050a93          	mv	s5,a0
   1b9dc:	00058a13          	mv	s4,a1
   1b9e0:	03853403          	ld	s0,56(a0)
   1b9e4:	25805e63          	blez	s8,1bc40 <core_bench_list+0x2a8>
   1b9e8:	00058d13          	mv	s10,a1
   1b9ec:	00000913          	li	s2,0
   1b9f0:	00000b93          	li	s7,0
   1b9f4:	00000493          	li	s1,0
   1b9f8:	00000b13          	li	s6,0
   1b9fc:	00810993          	addi	s3,sp,8
   1ba00:	0001fcb7          	lui	s9,0x1f
   1ba04:	0ff97793          	andi	a5,s2,255
   1ba08:	00098593          	mv	a1,s3
   1ba0c:	00040513          	mv	a0,s0
   1ba10:	00f11423          	sh	a5,8(sp)
   1ba14:	da9ff0ef          	jal	ra,1b7bc <core_list_find>
   1ba18:	02040063          	beqz	s0,1ba38 <core_bench_list+0xa0>
   1ba1c:	00000713          	li	a4,0
   1ba20:	0080006f          	j	1ba28 <core_bench_list+0x90>
   1ba24:	00078413          	mv	s0,a5
   1ba28:	00043783          	ld	a5,0(s0)
   1ba2c:	00e43023          	sd	a4,0(s0)
   1ba30:	00040713          	mv	a4,s0
   1ba34:	fe0798e3          	bnez	a5,1ba24 <core_bench_list+0x8c>
   1ba38:	08050663          	beqz	a0,1bac4 <core_bench_list+0x12c>
   1ba3c:	00853783          	ld	a5,8(a0)
   1ba40:	0014849b          	addiw	s1,s1,1
   1ba44:	03049493          	slli	s1,s1,0x30
   1ba48:	00079783          	lh	a5,0(a5)
   1ba4c:	0304d493          	srli	s1,s1,0x30
   1ba50:	0017f713          	andi	a4,a5,1
   1ba54:	00070c63          	beqz	a4,1ba6c <core_bench_list+0xd4>
   1ba58:	4097d79b          	sraiw	a5,a5,0x9
   1ba5c:	0017f793          	andi	a5,a5,1
   1ba60:	01678b3b          	addw	s6,a5,s6
   1ba64:	030b1b13          	slli	s6,s6,0x30
   1ba68:	030b5b13          	srli	s6,s6,0x30
   1ba6c:	00053783          	ld	a5,0(a0)
   1ba70:	00078c63          	beqz	a5,1ba88 <core_bench_list+0xf0>
   1ba74:	0007b703          	ld	a4,0(a5)
   1ba78:	00e53023          	sd	a4,0(a0)
   1ba7c:	00043703          	ld	a4,0(s0)
   1ba80:	00e7b023          	sd	a4,0(a5)
   1ba84:	00f43023          	sd	a5,0(s0)
   1ba88:	000d4663          	bltz	s10,1ba94 <core_bench_list+0xfc>
   1ba8c:	001d0d1b          	addiw	s10,s10,1
   1ba90:	01a11523          	sh	s10,10(sp)
   1ba94:	00090593          	mv	a1,s2
   1ba98:	00048713          	mv	a4,s1
   1ba9c:	000b8693          	mv	a3,s7
   1baa0:	000b0613          	mv	a2,s6
   1baa4:	cd8c8513          	addi	a0,s9,-808 # 1ecd8 <errpat+0x680>
   1baa8:	0019091b          	addiw	s2,s2,1
   1baac:	5c8020ef          	jal	ra,1e074 <printf>
   1bab0:	0109179b          	slliw	a5,s2,0x10
   1bab4:	4107d79b          	sraiw	a5,a5,0x10
   1bab8:	0387dc63          	ble	s8,a5,1baf0 <core_bench_list+0x158>
   1babc:	00a11d03          	lh	s10,10(sp)
   1bac0:	f45ff06f          	j	1ba04 <core_bench_list+0x6c>
   1bac4:	00043783          	ld	a5,0(s0)
   1bac8:	001b8b9b          	addiw	s7,s7,1
   1bacc:	030b9b93          	slli	s7,s7,0x30
   1bad0:	0087b783          	ld	a5,8(a5)
   1bad4:	030bdb93          	srli	s7,s7,0x30
   1bad8:	00178783          	lb	a5,1(a5)
   1badc:	0017f793          	andi	a5,a5,1
   1bae0:	01678b3b          	addw	s6,a5,s6
   1bae4:	030b1b13          	slli	s6,s6,0x30
   1bae8:	030b5b13          	srli	s6,s6,0x30
   1baec:	f9dff06f          	j	1ba88 <core_bench_list+0xf0>
   1baf0:	0024949b          	slliw	s1,s1,0x2
   1baf4:	417484bb          	subw	s1,s1,s7
   1baf8:	016484bb          	addw	s1,s1,s6
   1bafc:	03049493          	slli	s1,s1,0x30
   1bb00:	0304d493          	srli	s1,s1,0x30
   1bb04:	01405e63          	blez	s4,1bb20 <core_bench_list+0x188>
   1bb08:	0001b5b7          	lui	a1,0x1b
   1bb0c:	00040513          	mv	a0,s0
   1bb10:	000a8613          	mv	a2,s5
   1bb14:	6ac58593          	addi	a1,a1,1708 # 1b6ac <cmp_complex>
   1bb18:	d39ff0ef          	jal	ra,1b850 <core_list_mergesort>
   1bb1c:	00050413          	mv	s0,a0
   1bb20:	00043783          	ld	a5,0(s0)
   1bb24:	00098593          	mv	a1,s3
   1bb28:	00040513          	mv	a0,s0
   1bb2c:	0007b983          	ld	s3,0(a5)
   1bb30:	0087b683          	ld	a3,8(a5)
   1bb34:	0089b603          	ld	a2,8(s3)
   1bb38:	0009b703          	ld	a4,0(s3)
   1bb3c:	00c7b423          	sd	a2,8(a5)
   1bb40:	00d9b423          	sd	a3,8(s3)
   1bb44:	00e7b023          	sd	a4,0(a5)
   1bb48:	0009b023          	sd	zero,0(s3)
   1bb4c:	c71ff0ef          	jal	ra,1b7bc <core_list_find>
   1bb50:	00050913          	mv	s2,a0
   1bb54:	0e050063          	beqz	a0,1bc34 <core_bench_list+0x29c>
   1bb58:	00843783          	ld	a5,8(s0)
   1bb5c:	00048593          	mv	a1,s1
   1bb60:	00079503          	lh	a0,0(a5)
   1bb64:	278020ef          	jal	ra,1dddc <crc16>
   1bb68:	00093903          	ld	s2,0(s2)
   1bb6c:	00050493          	mv	s1,a0
   1bb70:	fe0914e3          	bnez	s2,1bb58 <core_bench_list+0x1c0>
   1bb74:	00048a1b          	sext.w	s4,s1
   1bb78:	0001f537          	lui	a0,0x1f
   1bb7c:	000a0593          	mv	a1,s4
   1bb80:	cf850513          	addi	a0,a0,-776 # 1ecf8 <errpat+0x6a0>
   1bb84:	4f0020ef          	jal	ra,1e074 <printf>
   1bb88:	00043783          	ld	a5,0(s0)
   1bb8c:	0089b683          	ld	a3,8(s3)
   1bb90:	00040513          	mv	a0,s0
   1bb94:	0087b583          	ld	a1,8(a5)
   1bb98:	0007b703          	ld	a4,0(a5)
   1bb9c:	00000613          	li	a2,0
   1bba0:	00b9b423          	sd	a1,8(s3)
   1bba4:	00d7b423          	sd	a3,8(a5)
   1bba8:	00e9b023          	sd	a4,0(s3)
   1bbac:	0001b5b7          	lui	a1,0x1b
   1bbb0:	0137b023          	sd	s3,0(a5)
   1bbb4:	55858593          	addi	a1,a1,1368 # 1b558 <cmp_idx>
   1bbb8:	c99ff0ef          	jal	ra,1b850 <core_list_mergesort>
   1bbbc:	00053403          	ld	s0,0(a0)
   1bbc0:	00050913          	mv	s2,a0
   1bbc4:	02040263          	beqz	s0,1bbe8 <core_bench_list+0x250>
   1bbc8:	00893783          	ld	a5,8(s2)
   1bbcc:	00048593          	mv	a1,s1
   1bbd0:	00079503          	lh	a0,0(a5)
   1bbd4:	208020ef          	jal	ra,1dddc <crc16>
   1bbd8:	00043403          	ld	s0,0(s0)
   1bbdc:	00050493          	mv	s1,a0
   1bbe0:	fe0414e3          	bnez	s0,1bbc8 <core_bench_list+0x230>
   1bbe4:	00050a1b          	sext.w	s4,a0
   1bbe8:	0001f537          	lui	a0,0x1f
   1bbec:	000a0593          	mv	a1,s4
   1bbf0:	d1050513          	addi	a0,a0,-752 # 1ed10 <errpat+0x6b8>
   1bbf4:	480020ef          	jal	ra,1e074 <printf>
   1bbf8:	06813083          	ld	ra,104(sp)
   1bbfc:	06013403          	ld	s0,96(sp)
   1bc00:	00048513          	mv	a0,s1
   1bc04:	05013903          	ld	s2,80(sp)
   1bc08:	05813483          	ld	s1,88(sp)
   1bc0c:	04813983          	ld	s3,72(sp)
   1bc10:	04013a03          	ld	s4,64(sp)
   1bc14:	03813a83          	ld	s5,56(sp)
   1bc18:	03013b03          	ld	s6,48(sp)
   1bc1c:	02813b83          	ld	s7,40(sp)
   1bc20:	02013c03          	ld	s8,32(sp)
   1bc24:	01813c83          	ld	s9,24(sp)
   1bc28:	01013d03          	ld	s10,16(sp)
   1bc2c:	07010113          	addi	sp,sp,112
   1bc30:	00008067          	ret
   1bc34:	00043903          	ld	s2,0(s0)
   1bc38:	f2090ee3          	beqz	s2,1bb74 <core_bench_list+0x1dc>
   1bc3c:	f1dff06f          	j	1bb58 <core_bench_list+0x1c0>
   1bc40:	00000493          	li	s1,0
   1bc44:	00810993          	addi	s3,sp,8
   1bc48:	ebdff06f          	j	1bb04 <core_bench_list+0x16c>

000000000001bc4c <core_list_init>:
   1bc4c:	01400313          	li	t1,20
   1bc50:	0265533b          	divuw	t1,a0,t1
   1bc54:	fe010113          	addi	sp,sp,-32
   1bc58:	00113c23          	sd	ra,24(sp)
   1bc5c:	00813823          	sd	s0,16(sp)
   1bc60:	00913423          	sd	s1,8(sp)
   1bc64:	01213023          	sd	s2,0(sp)
   1bc68:	00058513          	mv	a0,a1
   1bc6c:	0005b023          	sd	zero,0(a1)
   1bc70:	ffff87b7          	lui	a5,0xffff8
   1bc74:	08078793          	addi	a5,a5,128 # ffffffffffff8080 <heap_memory_used+0xfffffffffffd5dc8>
   1bc78:	02058713          	addi	a4,a1,32
   1bc7c:	01058293          	addi	t0,a1,16
   1bc80:	00000593          	li	a1,0
   1bc84:	ffe30e1b          	addiw	t3,t1,-2
   1bc88:	020e1f13          	slli	t5,t3,0x20
   1bc8c:	020f5f13          	srli	t5,t5,0x20
   1bc90:	004f1693          	slli	a3,t5,0x4
   1bc94:	00d506b3          	add	a3,a0,a3
   1bc98:	00d53423          	sd	a3,8(a0)
   1bc9c:	002f1f13          	slli	t5,t5,0x2
   1bca0:	00f69023          	sh	a5,0(a3)
   1bca4:	00069123          	sh	zero,2(a3)
   1bca8:	000e0f9b          	sext.w	t6,t3
   1bcac:	01e68f33          	add	t5,a3,t5
   1bcb0:	00468893          	addi	a7,a3,4
   1bcb4:	00d77663          	bleu	a3,a4,1bcc0 <core_list_init+0x74>
   1bcb8:	00868793          	addi	a5,a3,8
   1bcbc:	15e7e263          	bltu	a5,t5,1be00 <core_list_init+0x1b4>
   1bcc0:	060f8a63          	beqz	t6,1bd34 <core_list_init+0xe8>
   1bcc4:	03061413          	slli	s0,a2,0x30
   1bcc8:	ffff83b7          	lui	t2,0xffff8
   1bccc:	03045413          	srli	s0,s0,0x30
   1bcd0:	00000713          	li	a4,0
   1bcd4:	fff3c393          	not	t2,t2
   1bcd8:	01028313          	addi	t1,t0,16
   1bcdc:	00488e93          	addi	t4,a7,4
   1bce0:	04d37663          	bleu	a3,t1,1bd2c <core_list_init+0xe0>
   1bce4:	03071813          	slli	a6,a4,0x30
   1bce8:	03085813          	srli	a6,a6,0x30
   1bcec:	008847b3          	xor	a5,a6,s0
   1bcf0:	00379793          	slli	a5,a5,0x3
   1bcf4:	00787813          	andi	a6,a6,7
   1bcf8:	0787f793          	andi	a5,a5,120
   1bcfc:	0107e7b3          	or	a5,a5,a6
   1bd00:	00879813          	slli	a6,a5,0x8
   1bd04:	0107e7b3          	or	a5,a5,a6
   1bd08:	03eef263          	bleu	t5,t4,1bd2c <core_list_init+0xe0>
   1bd0c:	00b2b023          	sd	a1,0(t0)
   1bd10:	00553023          	sd	t0,0(a0)
   1bd14:	0112b423          	sd	a7,8(t0)
   1bd18:	00f89023          	sh	a5,0(a7)
   1bd1c:	00789123          	sh	t2,2(a7)
   1bd20:	00028593          	mv	a1,t0
   1bd24:	000e8893          	mv	a7,t4
   1bd28:	00030293          	mv	t0,t1
   1bd2c:	0017071b          	addiw	a4,a4,1
   1bd30:	faef94e3          	bne	t6,a4,1bcd8 <core_list_init+0x8c>
   1bd34:	00500313          	li	t1,5
   1bd38:	026e533b          	divuw	t1,t3,t1
   1bd3c:	00004e37          	lui	t3,0x4
   1bd40:	20000713          	li	a4,512
   1bd44:	00100693          	li	a3,1
   1bd48:	fffe0e13          	addi	t3,t3,-1 # 3fff <coremarkBenchmark+0x3f57>
   1bd4c:	01c0006f          	j	1bd68 <core_list_init+0x11c>
   1bd50:	00d59123          	sh	a3,2(a1)
   1bd54:	1007071b          	addiw	a4,a4,256
   1bd58:	03071713          	slli	a4,a4,0x30
   1bd5c:	0016869b          	addiw	a3,a3,1
   1bd60:	03075713          	srli	a4,a4,0x30
   1bd64:	00080593          	mv	a1,a6
   1bd68:	0005b803          	ld	a6,0(a1)
   1bd6c:	70077793          	andi	a5,a4,1792
   1bd70:	00c6c8b3          	xor	a7,a3,a2
   1bd74:	0117e7b3          	or	a5,a5,a7
   1bd78:	01c7f7b3          	and	a5,a5,t3
   1bd7c:	00080a63          	beqz	a6,1bd90 <core_list_init+0x144>
   1bd80:	0085b583          	ld	a1,8(a1)
   1bd84:	fc66e6e3          	bltu	a3,t1,1bd50 <core_list_init+0x104>
   1bd88:	00f59123          	sh	a5,2(a1)
   1bd8c:	fc9ff06f          	j	1bd54 <core_list_init+0x108>
   1bd90:	0001b5b7          	lui	a1,0x1b
   1bd94:	00000613          	li	a2,0
   1bd98:	55858593          	addi	a1,a1,1368 # 1b558 <cmp_idx>
   1bd9c:	ab5ff0ef          	jal	ra,1b850 <core_list_mergesort>
   1bda0:	00050913          	mv	s2,a0
   1bda4:	0001f537          	lui	a0,0x1f
   1bda8:	d2850513          	addi	a0,a0,-728 # 1ed28 <errpat+0x6d0>
   1bdac:	2c8020ef          	jal	ra,1e074 <printf>
   1bdb0:	02090463          	beqz	s2,1bdd8 <core_list_init+0x18c>
   1bdb4:	00090413          	mv	s0,s2
   1bdb8:	0001f4b7          	lui	s1,0x1f
   1bdbc:	00843783          	ld	a5,8(s0)
   1bdc0:	d4048513          	addi	a0,s1,-704 # 1ed40 <errpat+0x6e8>
   1bdc4:	0007d603          	lhu	a2,0(a5)
   1bdc8:	00279583          	lh	a1,2(a5)
   1bdcc:	2a8020ef          	jal	ra,1e074 <printf>
   1bdd0:	00043403          	ld	s0,0(s0)
   1bdd4:	fe0414e3          	bnez	s0,1bdbc <core_list_init+0x170>
   1bdd8:	0001f537          	lui	a0,0x1f
   1bddc:	11050513          	addi	a0,a0,272 # 1f110 <errpat+0xab8>
   1bde0:	294020ef          	jal	ra,1e074 <printf>
   1bde4:	01813083          	ld	ra,24(sp)
   1bde8:	01013403          	ld	s0,16(sp)
   1bdec:	00090513          	mv	a0,s2
   1bdf0:	00813483          	ld	s1,8(sp)
   1bdf4:	00013903          	ld	s2,0(sp)
   1bdf8:	02010113          	addi	sp,sp,32
   1bdfc:	00008067          	ret
   1be00:	00553023          	sd	t0,0(a0)
   1be04:	01153c23          	sd	a7,24(a0)
   1be08:	00053823          	sd	zero,16(a0)
   1be0c:	fff00813          	li	a6,-1
   1be10:	01069223          	sh	a6,4(a3)
   1be14:	00008837          	lui	a6,0x8
   1be18:	fff80813          	addi	a6,a6,-1 # 7fff <coremarkBenchmark+0x7f57>
   1be1c:	00028593          	mv	a1,t0
   1be20:	01069323          	sh	a6,6(a3)
   1be24:	00078893          	mv	a7,a5
   1be28:	00070293          	mv	t0,a4
   1be2c:	e95ff06f          	j	1bcc0 <core_list_init+0x74>

000000000001be30 <iterate>:
   1be30:	fe010113          	addi	sp,sp,-32
   1be34:	01213023          	sd	s2,0(sp)
   1be38:	02c52903          	lw	s2,44(a0)
   1be3c:	00113c23          	sd	ra,24(sp)
   1be40:	00813823          	sd	s0,16(sp)
   1be44:	00913423          	sd	s1,8(sp)
   1be48:	06053023          	sd	zero,96(a0)
   1be4c:	04090463          	beqz	s2,1be94 <iterate+0x64>
   1be50:	00050413          	mv	s0,a0
   1be54:	00000493          	li	s1,0
   1be58:	00100593          	li	a1,1
   1be5c:	00040513          	mv	a0,s0
   1be60:	b39ff0ef          	jal	ra,1b998 <core_bench_list>
   1be64:	06045583          	lhu	a1,96(s0)
   1be68:	6b9010ef          	jal	ra,1dd20 <crcu16>
   1be6c:	06a41023          	sh	a0,96(s0)
   1be70:	fff00593          	li	a1,-1
   1be74:	00040513          	mv	a0,s0
   1be78:	b21ff0ef          	jal	ra,1b998 <core_bench_list>
   1be7c:	06045583          	lhu	a1,96(s0)
   1be80:	6a1010ef          	jal	ra,1dd20 <crcu16>
   1be84:	06a41023          	sh	a0,96(s0)
   1be88:	02048463          	beqz	s1,1beb0 <iterate+0x80>
   1be8c:	0014849b          	addiw	s1,s1,1
   1be90:	fc9914e3          	bne	s2,s1,1be58 <iterate+0x28>
   1be94:	01813083          	ld	ra,24(sp)
   1be98:	01013403          	ld	s0,16(sp)
   1be9c:	00813483          	ld	s1,8(sp)
   1bea0:	00013903          	ld	s2,0(sp)
   1bea4:	00000513          	li	a0,0
   1bea8:	02010113          	addi	sp,sp,32
   1beac:	00008067          	ret
   1beb0:	06a41123          	sh	a0,98(s0)
   1beb4:	fd9ff06f          	j	1be8c <iterate+0x5c>

000000000001beb8 <COREMARK>:
   1beb8:	81010113          	addi	sp,sp,-2032
   1bebc:	00001737          	lui	a4,0x1
   1bec0:	7e113423          	sd	ra,2024(sp)
   1bec4:	7e813023          	sd	s0,2016(sp)
   1bec8:	7c913c23          	sd	s1,2008(sp)
   1becc:	7d213823          	sd	s2,2000(sp)
   1bed0:	7d313423          	sd	s3,1992(sp)
   1bed4:	7d413023          	sd	s4,1984(sp)
   1bed8:	7b513c23          	sd	s5,1976(sp)
   1bedc:	7b613823          	sd	s6,1968(sp)
   1bee0:	7b713423          	sd	s7,1960(sp)
   1bee4:	7b813023          	sd	s8,1952(sp)
   1bee8:	79913c23          	sd	s9,1944(sp)
   1beec:	79a13823          	sd	s10,1936(sp)
   1bef0:	79b13423          	sd	s11,1928(sp)
   1bef4:	fffff7b7          	lui	a5,0xfffff
   1bef8:	f3010113          	addi	sp,sp,-208
   1befc:	85070713          	addi	a4,a4,-1968 # 850 <coremarkBenchmark+0x7a8>
   1bf00:	7bc78793          	addi	a5,a5,1980 # fffffffffffff7bc <heap_memory_used+0xfffffffffffdd504>
   1bf04:	00270733          	add	a4,a4,sp
   1bf08:	00058613          	mv	a2,a1
   1bf0c:	00a12623          	sw	a0,12(sp)
   1bf10:	00f705b3          	add	a1,a4,a5
   1bf14:	07a10513          	addi	a0,sp,122
   1bf18:	5d4010ef          	jal	ra,1d4ec <portable_init>
   1bf1c:	00100513          	li	a0,1
   1bf20:	545010ef          	jal	ra,1dc64 <get_seed_32>
   1bf24:	00a11823          	sh	a0,16(sp)
   1bf28:	00200513          	li	a0,2
   1bf2c:	539010ef          	jal	ra,1dc64 <get_seed_32>
   1bf30:	00a11923          	sh	a0,18(sp)
   1bf34:	00300513          	li	a0,3
   1bf38:	52d010ef          	jal	ra,1dc64 <get_seed_32>
   1bf3c:	00a11a23          	sh	a0,20(sp)
   1bf40:	00400513          	li	a0,4
   1bf44:	521010ef          	jal	ra,1dc64 <get_seed_32>
   1bf48:	00100793          	li	a5,1
   1bf4c:	00500513          	li	a0,5
   1bf50:	02f12e23          	sw	a5,60(sp)
   1bf54:	511010ef          	jal	ra,1dc64 <get_seed_32>
   1bf58:	0005079b          	sext.w	a5,a0
   1bf5c:	36078663          	beqz	a5,1c2c8 <COREMARK+0x410>
   1bf60:	0017f613          	andi	a2,a5,1
   1bf64:	0027f713          	andi	a4,a5,2
   1bf68:	0047f813          	andi	a6,a5,4
   1bf6c:	03061593          	slli	a1,a2,0x30
   1bf70:	04f12023          	sw	a5,64(sp)
   1bf74:	0305d593          	srli	a1,a1,0x30
   1bf78:	0007071b          	sext.w	a4,a4
   1bf7c:	0008081b          	sext.w	a6,a6
   1bf80:	00001537          	lui	a0,0x1
   1bf84:	85050513          	addi	a0,a0,-1968 # 850 <coremarkBenchmark+0x7a8>
   1bf88:	00250533          	add	a0,a0,sp
   1bf8c:	fffff6b7          	lui	a3,0xfffff
   1bf90:	00d506b3          	add	a3,a0,a3
   1bf94:	00d13023          	sd	a3,0(sp)
   1bf98:	7c06b683          	ld	a3,1984(a3) # fffffffffffff7c0 <heap_memory_used+0xfffffffffffdd508>
   1bf9c:	fff00513          	li	a0,-1
   1bfa0:	01055513          	srli	a0,a0,0x10
   1bfa4:	00a6f6b3          	and	a3,a3,a0
   1bfa8:	02069063          	bnez	a3,1bfc8 <COREMARK+0x110>
   1bfac:	00013683          	ld	a3,0(sp)
   1bfb0:	00013883          	ld	a7,0(sp)
   1bfb4:	7c06a023          	sw	zero,1984(a3)
   1bfb8:	06600693          	li	a3,102
   1bfbc:	7cd89223          	sh	a3,1988(a7)
   1bfc0:	7c08b683          	ld	a3,1984(a7)
   1bfc4:	00a6f6b3          	and	a3,a3,a0
   1bfc8:	00100513          	li	a0,1
   1bfcc:	02a69a63          	bne	a3,a0,1c000 <COREMARK+0x148>
   1bfd0:	00001537          	lui	a0,0x1
   1bfd4:	85050513          	addi	a0,a0,-1968 # 850 <coremarkBenchmark+0x7a8>
   1bfd8:	00250533          	add	a0,a0,sp
   1bfdc:	fffff6b7          	lui	a3,0xfffff
   1bfe0:	00d506b3          	add	a3,a0,a3
   1bfe4:	00d13023          	sd	a3,0(sp)
   1bfe8:	00013503          	ld	a0,0(sp)
   1bfec:	341536b7          	lui	a3,0x34153
   1bff0:	4156869b          	addiw	a3,a3,1045
   1bff4:	7cd52023          	sw	a3,1984(a0)
   1bff8:	06600693          	li	a3,102
   1bffc:	7cd51223          	sh	a3,1988(a0)
   1c000:	00001537          	lui	a0,0x1
   1c004:	85050513          	addi	a0,a0,-1968 # 850 <coremarkBenchmark+0x7a8>
   1c008:	00250533          	add	a0,a0,sp
   1c00c:	fffff6b7          	lui	a3,0xfffff
   1c010:	00d506b3          	add	a3,a0,a3
   1c014:	00d13023          	sd	a3,0(sp)
   1c018:	00013503          	ld	a0,0(sp)
   1c01c:	08010693          	addi	a3,sp,128
   1c020:	06011c23          	sh	zero,120(sp)
   1c024:	7cd53423          	sd	a3,1992(a0)
   1c028:	00070863          	beqz	a4,1c038 <COREMARK+0x180>
   1c02c:	0015859b          	addiw	a1,a1,1
   1c030:	03059593          	slli	a1,a1,0x30
   1c034:	0305d593          	srli	a1,a1,0x30
   1c038:	00080863          	beqz	a6,1c048 <COREMARK+0x190>
   1c03c:	0015859b          	addiw	a1,a1,1
   1c040:	03059593          	slli	a1,a1,0x30
   1c044:	0305d593          	srli	a1,a1,0x30
   1c048:	7d000893          	li	a7,2000
   1c04c:	02b8d8bb          	divuw	a7,a7,a1
   1c050:	00001537          	lui	a0,0x1
   1c054:	85050593          	addi	a1,a0,-1968 # 850 <coremarkBenchmark+0x7a8>
   1c058:	fffff6b7          	lui	a3,0xfffff
   1c05c:	002585b3          	add	a1,a1,sp
   1c060:	85050513          	addi	a0,a0,-1968
   1c064:	00d58f33          	add	t5,a1,a3
   1c068:	00250533          	add	a0,a0,sp
   1c06c:	7c068693          	addi	a3,a3,1984 # fffffffffffff7c0 <heap_memory_used+0xfffffffffffdd508>
   1c070:	00d50833          	add	a6,a0,a3
   1c074:	00000593          	li	a1,0
   1c078:	00000e93          	li	t4,0
   1c07c:	00100e13          	li	t3,1
   1c080:	000f0f93          	mv	t6,t5
   1c084:	00300313          	li	t1,3
   1c088:	0008851b          	sext.w	a0,a7
   1c08c:	7f1f2423          	sw	a7,2024(t5)
   1c090:	00be16bb          	sllw	a3,t3,a1
   1c094:	00d7f6b3          	and	a3,a5,a3
   1c098:	0006869b          	sext.w	a3,a3
   1c09c:	20069263          	bnez	a3,1c2a0 <COREMARK+0x3e8>
   1c0a0:	00158593          	addi	a1,a1,1
   1c0a4:	fe6596e3          	bne	a1,t1,1c090 <COREMARK+0x1d8>
   1c0a8:	16061863          	bnez	a2,1c218 <COREMARK+0x360>
   1c0ac:	1a071663          	bnez	a4,1c258 <COREMARK+0x3a0>
   1c0b0:	0047f793          	andi	a5,a5,4
   1c0b4:	02078663          	beqz	a5,1c0e0 <COREMARK+0x228>
   1c0b8:	00001737          	lui	a4,0x1
   1c0bc:	85070713          	addi	a4,a4,-1968 # 850 <coremarkBenchmark+0x7a8>
   1c0c0:	fffff7b7          	lui	a5,0xfffff
   1c0c4:	00270733          	add	a4,a4,sp
   1c0c8:	00f707b3          	add	a5,a4,a5
   1c0cc:	7e07b603          	ld	a2,2016(a5) # fffffffffffff7e0 <heap_memory_used+0xfffffffffffdd528>
   1c0d0:	7c079583          	lh	a1,1984(a5)
   1c0d4:	7e87a503          	lw	a0,2024(a5)
   1c0d8:	00f13023          	sd	a5,0(sp)
   1c0dc:	44c010ef          	jal	ra,1d528 <core_init_state>
   1c0e0:	000016b7          	lui	a3,0x1
   1c0e4:	85068793          	addi	a5,a3,-1968 # 850 <coremarkBenchmark+0x7a8>
   1c0e8:	002787b3          	add	a5,a5,sp
   1c0ec:	fffff4b7          	lui	s1,0xfffff
   1c0f0:	00978433          	add	s0,a5,s1
   1c0f4:	7ec42783          	lw	a5,2028(s0)
   1c0f8:	06079463          	bnez	a5,1c160 <COREMARK+0x2a8>
   1c0fc:	85068793          	addi	a5,a3,-1968
   1c100:	7c048493          	addi	s1,s1,1984 # fffffffffffff7c0 <heap_memory_used+0xfffffffffffdd508>
   1c104:	002787b3          	add	a5,a5,sp
   1c108:	00100713          	li	a4,1
   1c10c:	009784b3          	add	s1,a5,s1
   1c110:	0080006f          	j	1c118 <COREMARK+0x260>
   1c114:	7ec42703          	lw	a4,2028(s0)
   1c118:	0027179b          	slliw	a5,a4,0x2
   1c11c:	00e787bb          	addw	a5,a5,a4
   1c120:	0017979b          	slliw	a5,a5,0x1
   1c124:	7ef42623          	sw	a5,2028(s0)
   1c128:	35c010ef          	jal	ra,1d484 <start_time>
   1c12c:	00048513          	mv	a0,s1
   1c130:	d01ff0ef          	jal	ra,1be30 <iterate>
   1c134:	370010ef          	jal	ra,1d4a4 <stop_time>
   1c138:	38c010ef          	jal	ra,1d4c4 <get_time>
   1c13c:	3a0010ef          	jal	ra,1d4dc <time_in_secs>
   1c140:	0005051b          	sext.w	a0,a0
   1c144:	fc0508e3          	beqz	a0,1c114 <COREMARK+0x25c>
   1c148:	00a00793          	li	a5,10
   1c14c:	02a7d7bb          	divuw	a5,a5,a0
   1c150:	7ec42703          	lw	a4,2028(s0)
   1c154:	0017879b          	addiw	a5,a5,1
   1c158:	02e787bb          	mulw	a5,a5,a4
   1c15c:	7ef42623          	sw	a5,2028(s0)
   1c160:	324010ef          	jal	ra,1d484 <start_time>
   1c164:	000014b7          	lui	s1,0x1
   1c168:	fffff437          	lui	s0,0xfffff
   1c16c:	85048793          	addi	a5,s1,-1968 # 850 <coremarkBenchmark+0x7a8>
   1c170:	002787b3          	add	a5,a5,sp
   1c174:	7c040513          	addi	a0,s0,1984 # fffffffffffff7c0 <heap_memory_used+0xfffffffffffdd508>
   1c178:	00a78533          	add	a0,a5,a0
   1c17c:	cb5ff0ef          	jal	ra,1be30 <iterate>
   1c180:	324010ef          	jal	ra,1d4a4 <stop_time>
   1c184:	340010ef          	jal	ra,1d4c4 <get_time>
   1c188:	85048793          	addi	a5,s1,-1968
   1c18c:	002787b3          	add	a5,a5,sp
   1c190:	008787b3          	add	a5,a5,s0
   1c194:	00050a13          	mv	s4,a0
   1c198:	7c079503          	lh	a0,1984(a5)
   1c19c:	00000593          	li	a1,0
   1c1a0:	00f13023          	sd	a5,0(sp)
   1c1a4:	439010ef          	jal	ra,1dddc <crc16>
   1c1a8:	00013783          	ld	a5,0(sp)
   1c1ac:	00050593          	mv	a1,a0
   1c1b0:	7c279503          	lh	a0,1986(a5)
   1c1b4:	429010ef          	jal	ra,1dddc <crc16>
   1c1b8:	00013783          	ld	a5,0(sp)
   1c1bc:	00050593          	mv	a1,a0
   1c1c0:	7c479503          	lh	a0,1988(a5)
   1c1c4:	419010ef          	jal	ra,1dddc <crc16>
   1c1c8:	00013783          	ld	a5,0(sp)
   1c1cc:	00050593          	mv	a1,a0
   1c1d0:	7e879503          	lh	a0,2024(a5)
   1c1d4:	409010ef          	jal	ra,1dddc <crc16>
   1c1d8:	000087b7          	lui	a5,0x8
   1c1dc:	0005091b          	sext.w	s2,a0
   1c1e0:	b0578793          	addi	a5,a5,-1275 # 7b05 <coremarkBenchmark+0x7a5d>
   1c1e4:	72f90e63          	beq	s2,a5,1c920 <COREMARK+0xa68>
   1c1e8:	1127e063          	bltu	a5,s2,1c2e8 <COREMARK+0x430>
   1c1ec:	000027b7          	lui	a5,0x2
   1c1f0:	8f278793          	addi	a5,a5,-1806 # 18f2 <coremarkBenchmark+0x184a>
   1c1f4:	70f90c63          	beq	s2,a5,1c90c <COREMARK+0xa54>
   1c1f8:	000057b7          	lui	a5,0x5
   1c1fc:	eaf78793          	addi	a5,a5,-337 # 4eaf <coremarkBenchmark+0x4e07>
   1c200:	26f91863          	bne	s2,a5,1c470 <COREMARK+0x5b8>
   1c204:	0001f537          	lui	a0,0x1f
   1c208:	db050513          	addi	a0,a0,-592 # 1edb0 <errpat+0x758>
   1c20c:	669010ef          	jal	ra,1e074 <printf>
   1c210:	00200c13          	li	s8,2
   1c214:	0fc0006f          	j	1c310 <COREMARK+0x458>
   1c218:	00001737          	lui	a4,0x1
   1c21c:	85070713          	addi	a4,a4,-1968 # 850 <coremarkBenchmark+0x7a8>
   1c220:	00270733          	add	a4,a4,sp
   1c224:	fffff7b7          	lui	a5,0xfffff
   1c228:	00f707b3          	add	a5,a4,a5
   1c22c:	7c079603          	lh	a2,1984(a5) # fffffffffffff7c0 <heap_memory_used+0xfffffffffffdd508>
   1c230:	7d07b583          	ld	a1,2000(a5)
   1c234:	00f13023          	sd	a5,0(sp)
   1c238:	a15ff0ef          	jal	ra,1bc4c <core_list_init>
   1c23c:	00013783          	ld	a5,0(sp)
   1c240:	00013703          	ld	a4,0(sp)
   1c244:	7f07a783          	lw	a5,2032(a5)
   1c248:	7ea73c23          	sd	a0,2040(a4)
   1c24c:	0027f713          	andi	a4,a5,2
   1c250:	0007071b          	sext.w	a4,a4
   1c254:	e4070ee3          	beqz	a4,1c0b0 <COREMARK+0x1f8>
   1c258:	00001737          	lui	a4,0x1
   1c25c:	85070713          	addi	a4,a4,-1968 # 850 <coremarkBenchmark+0x7a8>
   1c260:	00270733          	add	a4,a4,sp
   1c264:	fffff7b7          	lui	a5,0xfffff
   1c268:	00f707b3          	add	a5,a4,a5
   1c26c:	00f13023          	sd	a5,0(sp)
   1c270:	00013703          	ld	a4,0(sp)
   1c274:	7c279783          	lh	a5,1986(a5) # fffffffffffff7c2 <heap_memory_used+0xfffffffffffdd50a>
   1c278:	05010693          	addi	a3,sp,80
   1c27c:	7c071603          	lh	a2,1984(a4)
   1c280:	7d873583          	ld	a1,2008(a4)
   1c284:	7e872503          	lw	a0,2024(a4)
   1c288:	0107979b          	slliw	a5,a5,0x10
   1c28c:	00c7e633          	or	a2,a5,a2
   1c290:	04d000ef          	jal	ra,1cadc <core_init_matrix>
   1c294:	00013783          	ld	a5,0(sp)
   1c298:	7f07a783          	lw	a5,2032(a5)
   1c29c:	e15ff06f          	j	1c0b0 <COREMARK+0x1f8>
   1c2a0:	02ae8f33          	mul	t5,t4,a0
   1c2a4:	7c8fb883          	ld	a7,1992(t6)
   1c2a8:	00359693          	slli	a3,a1,0x3
   1c2ac:	001e8e9b          	addiw	t4,t4,1
   1c2b0:	00d806b3          	add	a3,a6,a3
   1c2b4:	030e9e93          	slli	t4,t4,0x30
   1c2b8:	030ede93          	srli	t4,t4,0x30
   1c2bc:	01e888b3          	add	a7,a7,t5
   1c2c0:	0116b823          	sd	a7,16(a3)
   1c2c4:	dddff06f          	j	1c0a0 <COREMARK+0x1e8>
   1c2c8:	00700793          	li	a5,7
   1c2cc:	04f12023          	sw	a5,64(sp)
   1c2d0:	00400813          	li	a6,4
   1c2d4:	00200713          	li	a4,2
   1c2d8:	00100613          	li	a2,1
   1c2dc:	00700793          	li	a5,7
   1c2e0:	00100593          	li	a1,1
   1c2e4:	c9dff06f          	j	1bf80 <COREMARK+0xc8>
   1c2e8:	000097b7          	lui	a5,0x9
   1c2ec:	a0278793          	addi	a5,a5,-1534 # 8a02 <coremarkBenchmark+0x895a>
   1c2f0:	60f90463          	beq	s2,a5,1c8f8 <COREMARK+0xa40>
   1c2f4:	0000f7b7          	lui	a5,0xf
   1c2f8:	9f578793          	addi	a5,a5,-1547 # e9f5 <coremarkBenchmark+0xe94d>
   1c2fc:	16f91a63          	bne	s2,a5,1c470 <COREMARK+0x5b8>
   1c300:	0001f537          	lui	a0,0x1f
   1c304:	de850513          	addi	a0,a0,-536 # 1ede8 <errpat+0x790>
   1c308:	56d010ef          	jal	ra,1e074 <printf>
   1c30c:	00300c13          	li	s8,3
   1c310:	0001f4b7          	lui	s1,0x1f
   1c314:	6584a783          	lw	a5,1624(s1) # 1f658 <default_num_contexts>
   1c318:	00000413          	li	s0,0
   1c31c:	16078263          	beqz	a5,1c480 <COREMARK+0x5c8>
   1c320:	000016b7          	lui	a3,0x1
   1c324:	85068693          	addi	a3,a3,-1968 # 850 <coremarkBenchmark+0x7a8>
   1c328:	0001e7b7          	lui	a5,0x1e
   1c32c:	fffff737          	lui	a4,0xfffff
   1c330:	002686b3          	add	a3,a3,sp
   1c334:	001c1c93          	slli	s9,s8,0x1
   1c338:	00e68733          	add	a4,a3,a4
   1c33c:	5b078793          	addi	a5,a5,1456 # 1e5b0 <list_known_crc>
   1c340:	00000d13          	li	s10,0
   1c344:	00000b93          	li	s7,0
   1c348:	00000d93          	li	s11,0
   1c34c:	00e13023          	sd	a4,0(sp)
   1c350:	01978cb3          	add	s9,a5,s9
   1c354:	0001fab7          	lui	s5,0x1f
   1c358:	0440006f          	j	1c39c <COREMARK+0x4e4>
   1c35c:	00013703          	ld	a4,0(sp)
   1c360:	00f707b3          	add	a5,a4,a5
   1c364:	00001737          	lui	a4,0x1
   1c368:	00f707b3          	add	a5,a4,a5
   1c36c:	82879403          	lh	s0,-2008(a5)
   1c370:	01a4043b          	addw	s0,s0,s10
   1c374:	001b8b9b          	addiw	s7,s7,1
   1c378:	030b9b93          	slli	s7,s7,0x30
   1c37c:	03041413          	slli	s0,s0,0x30
   1c380:	6584a783          	lw	a5,1624(s1)
   1c384:	030bdb93          	srli	s7,s7,0x30
   1c388:	03045413          	srli	s0,s0,0x30
   1c38c:	01041d1b          	slliw	s10,s0,0x10
   1c390:	000b8d9b          	sext.w	s11,s7
   1c394:	410d5d1b          	sraiw	s10,s10,0x10
   1c398:	0efdf463          	bleu	a5,s11,1c480 <COREMARK+0x5c8>
   1c39c:	00013783          	ld	a5,0(sp)
   1c3a0:	003d9413          	slli	s0,s11,0x3
   1c3a4:	41b40733          	sub	a4,s0,s11
   1c3a8:	00471713          	slli	a4,a4,0x4
   1c3ac:	00e78733          	add	a4,a5,a4
   1c3b0:	7f072783          	lw	a5,2032(a4) # 17f0 <coremarkBenchmark+0x1748>
   1c3b4:	00001b37          	lui	s6,0x1
   1c3b8:	00eb0b33          	add	s6,s6,a4
   1c3bc:	820b1423          	sh	zero,-2008(s6) # 828 <coremarkBenchmark+0x780>
   1c3c0:	0017f793          	andi	a5,a5,1
   1c3c4:	02078463          	beqz	a5,1c3ec <COREMARK+0x534>
   1c3c8:	822b5603          	lhu	a2,-2014(s6)
   1c3cc:	000cd683          	lhu	a3,0(s9)
   1c3d0:	00d60e63          	beq	a2,a3,1c3ec <COREMARK+0x534>
   1c3d4:	000d8593          	mv	a1,s11
   1c3d8:	e48a8513          	addi	a0,s5,-440 # 1ee48 <errpat+0x7f0>
   1c3dc:	499010ef          	jal	ra,1e074 <printf>
   1c3e0:	828b5783          	lhu	a5,-2008(s6)
   1c3e4:	0017879b          	addiw	a5,a5,1
   1c3e8:	82fb1423          	sh	a5,-2008(s6)
   1c3ec:	00013783          	ld	a5,0(sp)
   1c3f0:	41b40b33          	sub	s6,s0,s11
   1c3f4:	004b1b13          	slli	s6,s6,0x4
   1c3f8:	01678b33          	add	s6,a5,s6
   1c3fc:	7f0b2703          	lw	a4,2032(s6)
   1c400:	00277793          	andi	a5,a4,2
   1c404:	02078c63          	beqz	a5,1c43c <COREMARK+0x584>
   1c408:	000017b7          	lui	a5,0x1
   1c40c:	016789b3          	add	s3,a5,s6
   1c410:	8249d603          	lhu	a2,-2012(s3)
   1c414:	010cd683          	lhu	a3,16(s9)
   1c418:	02d60263          	beq	a2,a3,1c43c <COREMARK+0x584>
   1c41c:	0001f7b7          	lui	a5,0x1f
   1c420:	000d8593          	mv	a1,s11
   1c424:	e7878513          	addi	a0,a5,-392 # 1ee78 <errpat+0x820>
   1c428:	44d010ef          	jal	ra,1e074 <printf>
   1c42c:	8289d683          	lhu	a3,-2008(s3)
   1c430:	7f0b2703          	lw	a4,2032(s6)
   1c434:	0016869b          	addiw	a3,a3,1
   1c438:	82d99423          	sh	a3,-2008(s3)
   1c43c:	41b407b3          	sub	a5,s0,s11
   1c440:	00477713          	andi	a4,a4,4
   1c444:	00479793          	slli	a5,a5,0x4
   1c448:	f0070ae3          	beqz	a4,1c35c <COREMARK+0x4a4>
   1c44c:	00013703          	ld	a4,0(sp)
   1c450:	00001b37          	lui	s6,0x1
   1c454:	020cd683          	lhu	a3,32(s9)
   1c458:	00f707b3          	add	a5,a4,a5
   1c45c:	00fb0b33          	add	s6,s6,a5
   1c460:	826b5603          	lhu	a2,-2010(s6) # 826 <coremarkBenchmark+0x77e>
   1c464:	34d61c63          	bne	a2,a3,1c7bc <COREMARK+0x904>
   1c468:	828b1403          	lh	s0,-2008(s6)
   1c46c:	f05ff06f          	j	1c370 <COREMARK+0x4b8>
   1c470:	00010437          	lui	s0,0x10
   1c474:	fff40413          	addi	s0,s0,-1 # ffff <coremarkBenchmark+0xff57>
   1c478:	fff00c13          	li	s8,-1
   1c47c:	0001f4b7          	lui	s1,0x1f
   1c480:	169010ef          	jal	ra,1dde8 <check_data_types>
   1c484:	00001737          	lui	a4,0x1
   1c488:	85070713          	addi	a4,a4,-1968 # 850 <coremarkBenchmark+0x7a8>
   1c48c:	00270733          	add	a4,a4,sp
   1c490:	fffff7b7          	lui	a5,0xfffff
   1c494:	00f707b3          	add	a5,a4,a5
   1c498:	7e87a583          	lw	a1,2024(a5) # fffffffffffff7e8 <heap_memory_used+0xfffffffffffdd530>
   1c49c:	0085043b          	addw	s0,a0,s0
   1c4a0:	0001f537          	lui	a0,0x1f
   1c4a4:	ee050513          	addi	a0,a0,-288 # 1eee0 <errpat+0x888>
   1c4a8:	00f13023          	sd	a5,0(sp)
   1c4ac:	3c9010ef          	jal	ra,1e074 <printf>
   1c4b0:	0001f537          	lui	a0,0x1f
   1c4b4:	000a059b          	sext.w	a1,s4
   1c4b8:	ef850513          	addi	a0,a0,-264 # 1eef8 <errpat+0x8a0>
   1c4bc:	3b9010ef          	jal	ra,1e074 <printf>
   1c4c0:	000a0513          	mv	a0,s4
   1c4c4:	018010ef          	jal	ra,1d4dc <time_in_secs>
   1c4c8:	3e800a93          	li	s5,1000
   1c4cc:	035505bb          	mulw	a1,a0,s5
   1c4d0:	00a00993          	li	s3,10
   1c4d4:	06400b93          	li	s7,100
   1c4d8:	0001f537          	lui	a0,0x1f
   1c4dc:	f1050513          	addi	a0,a0,-240 # 1ef10 <errpat+0x8b8>
   1c4e0:	03041413          	slli	s0,s0,0x30
   1c4e4:	03045413          	srli	s0,s0,0x30
   1c4e8:	0335c6bb          	divw	a3,a1,s3
   1c4ec:	0375c63b          	divw	a2,a1,s7
   1c4f0:	0335e73b          	remw	a4,a1,s3
   1c4f4:	0336e6bb          	remw	a3,a3,s3
   1c4f8:	0336663b          	remw	a2,a2,s3
   1c4fc:	0355c5bb          	divw	a1,a1,s5
   1c500:	375010ef          	jal	ra,1e074 <printf>
   1c504:	000a0513          	mv	a0,s4
   1c508:	7d5000ef          	jal	ra,1d4dc <time_in_secs>
   1c50c:	0005051b          	sext.w	a0,a0
   1c510:	2e051863          	bnez	a0,1c800 <COREMARK+0x948>
   1c514:	000a0513          	mv	a0,s4
   1c518:	7c5000ef          	jal	ra,1d4dc <time_in_secs>
   1c51c:	0005051b          	sext.w	a0,a0
   1c520:	00900793          	li	a5,9
   1c524:	2ca7f463          	bleu	a0,a5,1c7ec <COREMARK+0x934>
   1c528:	000017b7          	lui	a5,0x1
   1c52c:	85078793          	addi	a5,a5,-1968 # 850 <coremarkBenchmark+0x7a8>
   1c530:	002787b3          	add	a5,a5,sp
   1c534:	fffff9b7          	lui	s3,0xfffff
   1c538:	013789b3          	add	s3,a5,s3
   1c53c:	7ec9a583          	lw	a1,2028(s3) # fffffffffffff7ec <heap_memory_used+0xfffffffffffdd534>
   1c540:	6584a783          	lw	a5,1624(s1) # 1f658 <default_num_contexts>
   1c544:	0001f537          	lui	a0,0x1f
   1c548:	f9050513          	addi	a0,a0,-112 # 1ef90 <errpat+0x938>
   1c54c:	02f585bb          	mulw	a1,a1,a5
   1c550:	0001fb37          	lui	s6,0x1f
   1c554:	0001fbb7          	lui	s7,0x1f
   1c558:	0001fab7          	lui	s5,0x1f
   1c55c:	0104141b          	slliw	s0,s0,0x10
   1c560:	4104541b          	sraiw	s0,s0,0x10
   1c564:	311010ef          	jal	ra,1e074 <printf>
   1c568:	0001f537          	lui	a0,0x1f
   1c56c:	fa8b0593          	addi	a1,s6,-88 # 1efa8 <errpat+0x950>
   1c570:	fd050513          	addi	a0,a0,-48 # 1efd0 <errpat+0x978>
   1c574:	301010ef          	jal	ra,1e074 <printf>
   1c578:	0001f537          	lui	a0,0x1f
   1c57c:	fe8b8593          	addi	a1,s7,-24 # 1efe8 <errpat+0x990>
   1c580:	ff050513          	addi	a0,a0,-16 # 1eff0 <errpat+0x998>
   1c584:	2f1010ef          	jal	ra,1e074 <printf>
   1c588:	0001f537          	lui	a0,0x1f
   1c58c:	01050513          	addi	a0,a0,16 # 1f010 <errpat+0x9b8>
   1c590:	008a8593          	addi	a1,s5,8 # 1f008 <errpat+0x9b0>
   1c594:	2e1010ef          	jal	ra,1e074 <printf>
   1c598:	0001f537          	lui	a0,0x1f
   1c59c:	00090593          	mv	a1,s2
   1c5a0:	02850513          	addi	a0,a0,40 # 1f028 <errpat+0x9d0>
   1c5a4:	2d1010ef          	jal	ra,1e074 <printf>
   1c5a8:	7f09a703          	lw	a4,2032(s3)
   1c5ac:	00177793          	andi	a5,a4,1
   1c5b0:	22078a63          	beqz	a5,1c7e4 <COREMARK+0x92c>
   1c5b4:	6584a783          	lw	a5,1624(s1)
   1c5b8:	1a078263          	beqz	a5,1c75c <COREMARK+0x8a4>
   1c5bc:	00098913          	mv	s2,s3
   1c5c0:	00000d13          	li	s10,0
   1c5c4:	00000593          	li	a1,0
   1c5c8:	0001fcb7          	lui	s9,0x1f
   1c5cc:	000019b7          	lui	s3,0x1
   1c5d0:	00359793          	slli	a5,a1,0x3
   1c5d4:	40b787b3          	sub	a5,a5,a1
   1c5d8:	00479793          	slli	a5,a5,0x4
   1c5dc:	00f907b3          	add	a5,s2,a5
   1c5e0:	00f987b3          	add	a5,s3,a5
   1c5e4:	8227d603          	lhu	a2,-2014(a5)
   1c5e8:	048c8513          	addi	a0,s9,72 # 1f048 <errpat+0x9f0>
   1c5ec:	001d0d1b          	addiw	s10,s10,1
   1c5f0:	285010ef          	jal	ra,1e074 <printf>
   1c5f4:	030d1d13          	slli	s10,s10,0x30
   1c5f8:	6584a783          	lw	a5,1624(s1)
   1c5fc:	030d5d13          	srli	s10,s10,0x30
   1c600:	000d059b          	sext.w	a1,s10
   1c604:	fcf5e6e3          	bltu	a1,a5,1c5d0 <COREMARK+0x718>
   1c608:	7f092703          	lw	a4,2032(s2)
   1c60c:	00277693          	andi	a3,a4,2
   1c610:	06068a63          	beqz	a3,1c684 <COREMARK+0x7cc>
   1c614:	14078463          	beqz	a5,1c75c <COREMARK+0x8a4>
   1c618:	00001737          	lui	a4,0x1
   1c61c:	85070713          	addi	a4,a4,-1968 # 850 <coremarkBenchmark+0x7a8>
   1c620:	fffff7b7          	lui	a5,0xfffff
   1c624:	00270733          	add	a4,a4,sp
   1c628:	00f707b3          	add	a5,a4,a5
   1c62c:	00000c93          	li	s9,0
   1c630:	00000593          	li	a1,0
   1c634:	0001f9b7          	lui	s3,0x1f
   1c638:	00f13023          	sd	a5,0(sp)
   1c63c:	00001937          	lui	s2,0x1
   1c640:	00359793          	slli	a5,a1,0x3
   1c644:	00013703          	ld	a4,0(sp)
   1c648:	40b787b3          	sub	a5,a5,a1
   1c64c:	00479793          	slli	a5,a5,0x4
   1c650:	00f707b3          	add	a5,a4,a5
   1c654:	00f907b3          	add	a5,s2,a5
   1c658:	8247d603          	lhu	a2,-2012(a5) # ffffffffffffe824 <heap_memory_used+0xfffffffffffdc56c>
   1c65c:	06898513          	addi	a0,s3,104 # 1f068 <errpat+0xa10>
   1c660:	001c8c9b          	addiw	s9,s9,1
   1c664:	211010ef          	jal	ra,1e074 <printf>
   1c668:	030c9c93          	slli	s9,s9,0x30
   1c66c:	6584a783          	lw	a5,1624(s1)
   1c670:	030cdc93          	srli	s9,s9,0x30
   1c674:	000c859b          	sext.w	a1,s9
   1c678:	fcf5e4e3          	bltu	a1,a5,1c640 <COREMARK+0x788>
   1c67c:	00013703          	ld	a4,0(sp)
   1c680:	7f072703          	lw	a4,2032(a4)
   1c684:	00477713          	andi	a4,a4,4
   1c688:	06070663          	beqz	a4,1c6f4 <COREMARK+0x83c>
   1c68c:	0c078863          	beqz	a5,1c75c <COREMARK+0x8a4>
   1c690:	00001737          	lui	a4,0x1
   1c694:	85070713          	addi	a4,a4,-1968 # 850 <coremarkBenchmark+0x7a8>
   1c698:	fffff7b7          	lui	a5,0xfffff
   1c69c:	00270733          	add	a4,a4,sp
   1c6a0:	00f707b3          	add	a5,a4,a5
   1c6a4:	00000c93          	li	s9,0
   1c6a8:	00000593          	li	a1,0
   1c6ac:	0001f9b7          	lui	s3,0x1f
   1c6b0:	00f13023          	sd	a5,0(sp)
   1c6b4:	00001937          	lui	s2,0x1
   1c6b8:	00359793          	slli	a5,a1,0x3
   1c6bc:	00013703          	ld	a4,0(sp)
   1c6c0:	40b787b3          	sub	a5,a5,a1
   1c6c4:	00479793          	slli	a5,a5,0x4
   1c6c8:	00f707b3          	add	a5,a4,a5
   1c6cc:	00f907b3          	add	a5,s2,a5
   1c6d0:	8267d603          	lhu	a2,-2010(a5) # ffffffffffffe826 <heap_memory_used+0xfffffffffffdc56e>
   1c6d4:	08898513          	addi	a0,s3,136 # 1f088 <errpat+0xa30>
   1c6d8:	001c8c9b          	addiw	s9,s9,1
   1c6dc:	199010ef          	jal	ra,1e074 <printf>
   1c6e0:	030c9c93          	slli	s9,s9,0x30
   1c6e4:	6584a783          	lw	a5,1624(s1)
   1c6e8:	030cdc93          	srli	s9,s9,0x30
   1c6ec:	000c859b          	sext.w	a1,s9
   1c6f0:	fcf5e4e3          	bltu	a1,a5,1c6b8 <COREMARK+0x800>
   1c6f4:	06078463          	beqz	a5,1c75c <COREMARK+0x8a4>
   1c6f8:	00001737          	lui	a4,0x1
   1c6fc:	85070713          	addi	a4,a4,-1968 # 850 <coremarkBenchmark+0x7a8>
   1c700:	fffff7b7          	lui	a5,0xfffff
   1c704:	00270733          	add	a4,a4,sp
   1c708:	00f707b3          	add	a5,a4,a5
   1c70c:	00000c93          	li	s9,0
   1c710:	00000593          	li	a1,0
   1c714:	0001f9b7          	lui	s3,0x1f
   1c718:	00f13023          	sd	a5,0(sp)
   1c71c:	00001937          	lui	s2,0x1
   1c720:	00359793          	slli	a5,a1,0x3
   1c724:	00013703          	ld	a4,0(sp)
   1c728:	40b787b3          	sub	a5,a5,a1
   1c72c:	00479793          	slli	a5,a5,0x4
   1c730:	00f707b3          	add	a5,a4,a5
   1c734:	00f907b3          	add	a5,s2,a5
   1c738:	8207d603          	lhu	a2,-2016(a5) # ffffffffffffe820 <heap_memory_used+0xfffffffffffdc568>
   1c73c:	0a898513          	addi	a0,s3,168 # 1f0a8 <errpat+0xa50>
   1c740:	001c8c9b          	addiw	s9,s9,1
   1c744:	131010ef          	jal	ra,1e074 <printf>
   1c748:	030c9c93          	slli	s9,s9,0x30
   1c74c:	6584a783          	lw	a5,1624(s1)
   1c750:	030cdc93          	srli	s9,s9,0x30
   1c754:	000c859b          	sext.w	a1,s9
   1c758:	fcf5e4e3          	bltu	a1,a5,1c720 <COREMARK+0x868>
   1c75c:	0e040663          	beqz	s0,1c848 <COREMARK+0x990>
   1c760:	18805463          	blez	s0,1c8e8 <COREMARK+0xa30>
   1c764:	0001f537          	lui	a0,0x1f
   1c768:	14850513          	addi	a0,a0,328 # 1f148 <errpat+0xaf0>
   1c76c:	109010ef          	jal	ra,1e074 <printf>
   1c770:	07a10513          	addi	a0,sp,122
   1c774:	5ad000ef          	jal	ra,1d520 <portable_fini>
   1c778:	0d010113          	addi	sp,sp,208
   1c77c:	7e813083          	ld	ra,2024(sp)
   1c780:	00000513          	li	a0,0
   1c784:	7e013403          	ld	s0,2016(sp)
   1c788:	7d813483          	ld	s1,2008(sp)
   1c78c:	7d013903          	ld	s2,2000(sp)
   1c790:	7c813983          	ld	s3,1992(sp)
   1c794:	7c013a03          	ld	s4,1984(sp)
   1c798:	7b813a83          	ld	s5,1976(sp)
   1c79c:	7b013b03          	ld	s6,1968(sp)
   1c7a0:	7a813b83          	ld	s7,1960(sp)
   1c7a4:	7a013c03          	ld	s8,1952(sp)
   1c7a8:	79813c83          	ld	s9,1944(sp)
   1c7ac:	79013d03          	ld	s10,1936(sp)
   1c7b0:	78813d83          	ld	s11,1928(sp)
   1c7b4:	7f010113          	addi	sp,sp,2032
   1c7b8:	00008067          	ret
   1c7bc:	0001f537          	lui	a0,0x1f
   1c7c0:	000d8593          	mv	a1,s11
   1c7c4:	eb050513          	addi	a0,a0,-336 # 1eeb0 <errpat+0x858>
   1c7c8:	0ad010ef          	jal	ra,1e074 <printf>
   1c7cc:	828b5783          	lhu	a5,-2008(s6)
   1c7d0:	0017879b          	addiw	a5,a5,1
   1c7d4:	0107941b          	slliw	s0,a5,0x10
   1c7d8:	4104541b          	sraiw	s0,s0,0x10
   1c7dc:	828b1423          	sh	s0,-2008(s6)
   1c7e0:	b91ff06f          	j	1c370 <COREMARK+0x4b8>
   1c7e4:	6584a783          	lw	a5,1624(s1)
   1c7e8:	e25ff06f          	j	1c60c <COREMARK+0x754>
   1c7ec:	0001f537          	lui	a0,0x1f
   1c7f0:	f5050513          	addi	a0,a0,-176 # 1ef50 <errpat+0x8f8>
   1c7f4:	081010ef          	jal	ra,1e074 <printf>
   1c7f8:	0014041b          	addiw	s0,s0,1
   1c7fc:	d2dff06f          	j	1c528 <COREMARK+0x670>
   1c800:	00013783          	ld	a5,0(sp)
   1c804:	6584ab03          	lw	s6,1624(s1)
   1c808:	000a0513          	mv	a0,s4
   1c80c:	7ec7a583          	lw	a1,2028(a5)
   1c810:	036585bb          	mulw	a1,a1,s6
   1c814:	03558b3b          	mulw	s6,a1,s5
   1c818:	4c5000ef          	jal	ra,1d4dc <time_in_secs>
   1c81c:	02ab55bb          	divuw	a1,s6,a0
   1c820:	0001f537          	lui	a0,0x1f
   1c824:	f3050513          	addi	a0,a0,-208 # 1ef30 <errpat+0x8d8>
   1c828:	0335c6bb          	divw	a3,a1,s3
   1c82c:	0375c63b          	divw	a2,a1,s7
   1c830:	0335e73b          	remw	a4,a1,s3
   1c834:	0336e6bb          	remw	a3,a3,s3
   1c838:	0336663b          	remw	a2,a2,s3
   1c83c:	0355c5bb          	divw	a1,a1,s5
   1c840:	035010ef          	jal	ra,1e074 <printf>
   1c844:	cd1ff06f          	j	1c514 <COREMARK+0x65c>
   1c848:	0001f537          	lui	a0,0x1f
   1c84c:	0c850513          	addi	a0,a0,200 # 1f0c8 <errpat+0xa70>
   1c850:	025010ef          	jal	ra,1e074 <printf>
   1c854:	00300793          	li	a5,3
   1c858:	f0fc1ce3          	bne	s8,a5,1c770 <COREMARK+0x8b8>
   1c85c:	00001737          	lui	a4,0x1
   1c860:	85070713          	addi	a4,a4,-1968 # 850 <coremarkBenchmark+0x7a8>
   1c864:	00270733          	add	a4,a4,sp
   1c868:	fffff7b7          	lui	a5,0xfffff
   1c86c:	00f707b3          	add	a5,a4,a5
   1c870:	00f13023          	sd	a5,0(sp)
   1c874:	7ec7a403          	lw	s0,2028(a5) # fffffffffffff7ec <heap_memory_used+0xfffffffffffdd534>
   1c878:	6584a783          	lw	a5,1624(s1)
   1c87c:	3e800493          	li	s1,1000
   1c880:	000a0513          	mv	a0,s4
   1c884:	02f4043b          	mulw	s0,s0,a5
   1c888:	455000ef          	jal	ra,1d4dc <time_in_secs>
   1c88c:	00a00613          	li	a2,10
   1c890:	06400893          	li	a7,100
   1c894:	fe8b8813          	addi	a6,s7,-24
   1c898:	fa8b0793          	addi	a5,s6,-88
   1c89c:	0294043b          	mulw	s0,s0,s1
   1c8a0:	02a455bb          	divuw	a1,s0,a0
   1c8a4:	0001f537          	lui	a0,0x1f
   1c8a8:	11850513          	addi	a0,a0,280 # 1f118 <errpat+0xac0>
   1c8ac:	0315c8bb          	divw	a7,a1,a7
   1c8b0:	02c5c6bb          	divw	a3,a1,a2
   1c8b4:	02c5e73b          	remw	a4,a1,a2
   1c8b8:	02c6e6bb          	remw	a3,a3,a2
   1c8bc:	0295c5bb          	divw	a1,a1,s1
   1c8c0:	02c8e63b          	remw	a2,a7,a2
   1c8c4:	7b0010ef          	jal	ra,1e074 <printf>
   1c8c8:	0001f537          	lui	a0,0x1f
   1c8cc:	14050513          	addi	a0,a0,320 # 1f140 <errpat+0xae8>
   1c8d0:	008a8593          	addi	a1,s5,8
   1c8d4:	7a0010ef          	jal	ra,1e074 <printf>
   1c8d8:	0001f537          	lui	a0,0x1f
   1c8dc:	11050513          	addi	a0,a0,272 # 1f110 <errpat+0xab8>
   1c8e0:	794010ef          	jal	ra,1e074 <printf>
   1c8e4:	e8dff06f          	j	1c770 <COREMARK+0x8b8>
   1c8e8:	0001f537          	lui	a0,0x1f
   1c8ec:	16050513          	addi	a0,a0,352 # 1f160 <errpat+0xb08>
   1c8f0:	784010ef          	jal	ra,1e074 <printf>
   1c8f4:	e7dff06f          	j	1c770 <COREMARK+0x8b8>
   1c8f8:	0001f537          	lui	a0,0x1f
   1c8fc:	d5050513          	addi	a0,a0,-688 # 1ed50 <errpat+0x6f8>
   1c900:	774010ef          	jal	ra,1e074 <printf>
   1c904:	00000c13          	li	s8,0
   1c908:	a09ff06f          	j	1c310 <COREMARK+0x458>
   1c90c:	0001f537          	lui	a0,0x1f
   1c910:	e1850513          	addi	a0,a0,-488 # 1ee18 <errpat+0x7c0>
   1c914:	760010ef          	jal	ra,1e074 <printf>
   1c918:	00400c13          	li	s8,4
   1c91c:	9f5ff06f          	j	1c310 <COREMARK+0x458>
   1c920:	0001f537          	lui	a0,0x1f
   1c924:	d8050513          	addi	a0,a0,-640 # 1ed80 <errpat+0x728>
   1c928:	74c010ef          	jal	ra,1e074 <printf>
   1c92c:	00100c13          	li	s8,1
   1c930:	9e1ff06f          	j	1c310 <COREMARK+0x458>

000000000001c934 <printmat>:
   1c934:	fb010113          	addi	sp,sp,-80
   1c938:	02913c23          	sd	s1,56(sp)
   1c93c:	03313423          	sd	s3,40(sp)
   1c940:	00058493          	mv	s1,a1
   1c944:	00050993          	mv	s3,a0
   1c948:	0001f537          	lui	a0,0x1f
   1c94c:	00060593          	mv	a1,a2
   1c950:	00048693          	mv	a3,s1
   1c954:	00048613          	mv	a2,s1
   1c958:	1e050513          	addi	a0,a0,480 # 1f1e0 <errpat+0xb88>
   1c95c:	04113423          	sd	ra,72(sp)
   1c960:	04813023          	sd	s0,64(sp)
   1c964:	03213823          	sd	s2,48(sp)
   1c968:	03413023          	sd	s4,32(sp)
   1c96c:	01513c23          	sd	s5,24(sp)
   1c970:	01613823          	sd	s6,16(sp)
   1c974:	01713423          	sd	s7,8(sp)
   1c978:	6fc010ef          	jal	ra,1e074 <printf>
   1c97c:	06048063          	beqz	s1,1c9dc <printmat+0xa8>
   1c980:	00000913          	li	s2,0
   1c984:	00000b13          	li	s6,0
   1c988:	0001fab7          	lui	s5,0x1f
   1c98c:	0001fbb7          	lui	s7,0x1f
   1c990:	0001fa37          	lui	s4,0x1f
   1c994:	00000413          	li	s0,0
   1c998:	0080006f          	j	1c9a0 <printmat+0x6c>
   1c99c:	6d8010ef          	jal	ra,1e074 <printf>
   1c9a0:	012407bb          	addw	a5,s0,s2
   1c9a4:	02079793          	slli	a5,a5,0x20
   1c9a8:	01f7d793          	srli	a5,a5,0x1f
   1c9ac:	00f987b3          	add	a5,s3,a5
   1c9b0:	00079583          	lh	a1,0(a5)
   1c9b4:	200a8513          	addi	a0,s5,512 # 1f200 <errpat+0xba8>
   1c9b8:	0014041b          	addiw	s0,s0,1
   1c9bc:	6b8010ef          	jal	ra,1e074 <printf>
   1c9c0:	1f8a0513          	addi	a0,s4,504 # 1f1f8 <errpat+0xba0>
   1c9c4:	fc849ce3          	bne	s1,s0,1c99c <printmat+0x68>
   1c9c8:	110b8513          	addi	a0,s7,272 # 1f110 <errpat+0xab8>
   1c9cc:	001b0b1b          	addiw	s6,s6,1
   1c9d0:	6a4010ef          	jal	ra,1e074 <printf>
   1c9d4:	0124893b          	addw	s2,s1,s2
   1c9d8:	fa9b1ee3          	bne	s6,s1,1c994 <printmat+0x60>
   1c9dc:	04813083          	ld	ra,72(sp)
   1c9e0:	04013403          	ld	s0,64(sp)
   1c9e4:	03813483          	ld	s1,56(sp)
   1c9e8:	03013903          	ld	s2,48(sp)
   1c9ec:	02813983          	ld	s3,40(sp)
   1c9f0:	02013a03          	ld	s4,32(sp)
   1c9f4:	01813a83          	ld	s5,24(sp)
   1c9f8:	01013b03          	ld	s6,16(sp)
   1c9fc:	00813b83          	ld	s7,8(sp)
   1ca00:	05010113          	addi	sp,sp,80
   1ca04:	00008067          	ret

000000000001ca08 <printmatC>:
   1ca08:	fb010113          	addi	sp,sp,-80
   1ca0c:	02913c23          	sd	s1,56(sp)
   1ca10:	03313423          	sd	s3,40(sp)
   1ca14:	00058493          	mv	s1,a1
   1ca18:	00050993          	mv	s3,a0
   1ca1c:	0001f537          	lui	a0,0x1f
   1ca20:	00060593          	mv	a1,a2
   1ca24:	00048693          	mv	a3,s1
   1ca28:	00048613          	mv	a2,s1
   1ca2c:	1e050513          	addi	a0,a0,480 # 1f1e0 <errpat+0xb88>
   1ca30:	04113423          	sd	ra,72(sp)
   1ca34:	04813023          	sd	s0,64(sp)
   1ca38:	03213823          	sd	s2,48(sp)
   1ca3c:	03413023          	sd	s4,32(sp)
   1ca40:	01513c23          	sd	s5,24(sp)
   1ca44:	01613823          	sd	s6,16(sp)
   1ca48:	01713423          	sd	s7,8(sp)
   1ca4c:	628010ef          	jal	ra,1e074 <printf>
   1ca50:	06048063          	beqz	s1,1cab0 <printmatC+0xa8>
   1ca54:	00000913          	li	s2,0
   1ca58:	00000b13          	li	s6,0
   1ca5c:	0001fab7          	lui	s5,0x1f
   1ca60:	0001fbb7          	lui	s7,0x1f
   1ca64:	0001fa37          	lui	s4,0x1f
   1ca68:	00000413          	li	s0,0
   1ca6c:	0080006f          	j	1ca74 <printmatC+0x6c>
   1ca70:	604010ef          	jal	ra,1e074 <printf>
   1ca74:	012407bb          	addw	a5,s0,s2
   1ca78:	02079793          	slli	a5,a5,0x20
   1ca7c:	01e7d793          	srli	a5,a5,0x1e
   1ca80:	00f987b3          	add	a5,s3,a5
   1ca84:	0007a583          	lw	a1,0(a5)
   1ca88:	200a8513          	addi	a0,s5,512 # 1f200 <errpat+0xba8>
   1ca8c:	0014041b          	addiw	s0,s0,1
   1ca90:	5e4010ef          	jal	ra,1e074 <printf>
   1ca94:	1f8a0513          	addi	a0,s4,504 # 1f1f8 <errpat+0xba0>
   1ca98:	fc849ce3          	bne	s1,s0,1ca70 <printmatC+0x68>
   1ca9c:	110b8513          	addi	a0,s7,272 # 1f110 <errpat+0xab8>
   1caa0:	001b0b1b          	addiw	s6,s6,1
   1caa4:	5d0010ef          	jal	ra,1e074 <printf>
   1caa8:	0124893b          	addw	s2,s1,s2
   1caac:	fa9b1ee3          	bne	s6,s1,1ca68 <printmatC+0x60>
   1cab0:	04813083          	ld	ra,72(sp)
   1cab4:	04013403          	ld	s0,64(sp)
   1cab8:	03813483          	ld	s1,56(sp)
   1cabc:	03013903          	ld	s2,48(sp)
   1cac0:	02813983          	ld	s3,40(sp)
   1cac4:	02013a03          	ld	s4,32(sp)
   1cac8:	01813a83          	ld	s5,24(sp)
   1cacc:	01013b03          	ld	s6,16(sp)
   1cad0:	00813b83          	ld	s7,8(sp)
   1cad4:	05010113          	addi	sp,sp,80
   1cad8:	00008067          	ret

000000000001cadc <core_init_matrix>:
   1cadc:	fe010113          	addi	sp,sp,-32
   1cae0:	00113c23          	sd	ra,24(sp)
   1cae4:	00813823          	sd	s0,16(sp)
   1cae8:	00913423          	sd	s1,8(sp)
   1caec:	00061463          	bnez	a2,1caf4 <core_init_matrix+0x18>
   1caf0:	00100613          	li	a2,1
   1caf4:	fff5889b          	addiw	a7,a1,-1
   1caf8:	ffc8f893          	andi	a7,a7,-4
   1cafc:	0048889b          	addiw	a7,a7,4
   1cb00:	02089893          	slli	a7,a7,0x20
   1cb04:	0208d893          	srli	a7,a7,0x20
   1cb08:	12050063          	beqz	a0,1cc28 <core_init_matrix+0x14c>
   1cb0c:	00000413          	li	s0,0
   1cb10:	0080006f          	j	1cb18 <core_init_matrix+0x3c>
   1cb14:	00078413          	mv	s0,a5
   1cb18:	0014079b          	addiw	a5,s0,1
   1cb1c:	02f7873b          	mulw	a4,a5,a5
   1cb20:	0037171b          	slliw	a4,a4,0x3
   1cb24:	fea768e3          	bltu	a4,a0,1cb14 <core_init_matrix+0x38>
   1cb28:	02840f3b          	mulw	t5,s0,s0
   1cb2c:	0004031b          	sext.w	t1,s0
   1cb30:	020f1f13          	slli	t5,t5,0x20
   1cb34:	01ff5f13          	srli	t5,t5,0x1f
   1cb38:	01e884b3          	add	s1,a7,t5
   1cb3c:	10040063          	beqz	s0,1cc3c <core_init_matrix+0x160>
   1cb40:	00010e37          	lui	t3,0x10
   1cb44:	00000e93          	li	t4,0
   1cb48:	00100713          	li	a4,1
   1cb4c:	fffe0e13          	addi	t3,t3,-1 # ffff <coremarkBenchmark+0xff57>
   1cb50:	028e883b          	mulw	a6,t4,s0
   1cb54:	00070f9b          	sext.w	t6,a4
   1cb58:	41f8083b          	subw	a6,a6,t6
   1cb5c:	02e6063b          	mulw	a2,a2,a4
   1cb60:	03071593          	slli	a1,a4,0x30
   1cb64:	0305d593          	srli	a1,a1,0x30
   1cb68:	00e807bb          	addw	a5,a6,a4
   1cb6c:	02079793          	slli	a5,a5,0x20
   1cb70:	01f7d793          	srli	a5,a5,0x1f
   1cb74:	00f483b3          	add	t2,s1,a5
   1cb78:	0017071b          	addiw	a4,a4,1
   1cb7c:	00f887b3          	add	a5,a7,a5
   1cb80:	41f702bb          	subw	t0,a4,t6
   1cb84:	41f6551b          	sraiw	a0,a2,0x1f
   1cb88:	0105551b          	srliw	a0,a0,0x10
   1cb8c:	00a6063b          	addw	a2,a2,a0
   1cb90:	01c67633          	and	a2,a2,t3
   1cb94:	40a6063b          	subw	a2,a2,a0
   1cb98:	00b6053b          	addw	a0,a2,a1
   1cb9c:	03051513          	slli	a0,a0,0x30
   1cba0:	03055513          	srli	a0,a0,0x30
   1cba4:	00a585bb          	addw	a1,a1,a0
   1cba8:	00a39023          	sh	a0,0(t2) # ffffffffffff8000 <heap_memory_used+0xfffffffffffd5d48>
   1cbac:	0ff5f593          	andi	a1,a1,255
   1cbb0:	00b79023          	sh	a1,0(a5)
   1cbb4:	fa82e4e3          	bltu	t0,s0,1cb5c <core_init_matrix+0x80>
   1cbb8:	001e8e9b          	addiw	t4,t4,1
   1cbbc:	f88eeae3          	bltu	t4,s0,1cb50 <core_init_matrix+0x74>
   1cbc0:	01e487b3          	add	a5,s1,t5
   1cbc4:	fff7879b          	addiw	a5,a5,-1
   1cbc8:	ffc7f793          	andi	a5,a5,-4
   1cbcc:	0047879b          	addiw	a5,a5,4
   1cbd0:	02079793          	slli	a5,a5,0x20
   1cbd4:	0207d793          	srli	a5,a5,0x20
   1cbd8:	0001f637          	lui	a2,0x1f
   1cbdc:	00040593          	mv	a1,s0
   1cbe0:	00088513          	mv	a0,a7
   1cbe4:	0096b823          	sd	s1,16(a3)
   1cbe8:	20860613          	addi	a2,a2,520 # 1f208 <errpat+0xbb0>
   1cbec:	0116b423          	sd	a7,8(a3)
   1cbf0:	00f6bc23          	sd	a5,24(a3)
   1cbf4:	0066a023          	sw	t1,0(a3)
   1cbf8:	d3dff0ef          	jal	ra,1c934 <printmat>
   1cbfc:	0001f637          	lui	a2,0x1f
   1cc00:	00048513          	mv	a0,s1
   1cc04:	00040593          	mv	a1,s0
   1cc08:	21060613          	addi	a2,a2,528 # 1f210 <errpat+0xbb8>
   1cc0c:	d29ff0ef          	jal	ra,1c934 <printmat>
   1cc10:	00040513          	mv	a0,s0
   1cc14:	01813083          	ld	ra,24(sp)
   1cc18:	01013403          	ld	s0,16(sp)
   1cc1c:	00813483          	ld	s1,8(sp)
   1cc20:	02010113          	addi	sp,sp,32
   1cc24:	00008067          	ret
   1cc28:	00288493          	addi	s1,a7,2
   1cc2c:	fff00313          	li	t1,-1
   1cc30:	fff00413          	li	s0,-1
   1cc34:	00200f13          	li	t5,2
   1cc38:	f09ff06f          	j	1cb40 <core_init_matrix+0x64>
   1cc3c:	00000313          	li	t1,0
   1cc40:	f81ff06f          	j	1cbc0 <core_init_matrix+0xe4>

000000000001cc44 <matrix_sum>:
   1cc44:	00050f13          	mv	t5,a0
   1cc48:	08050a63          	beqz	a0,1ccdc <matrix_sum+0x98>
   1cc4c:	00050313          	mv	t1,a0
   1cc50:	0006061b          	sext.w	a2,a2
   1cc54:	00000e13          	li	t3,0
   1cc58:	00000513          	li	a0,0
   1cc5c:	00000713          	li	a4,0
   1cc60:	00000813          	li	a6,0
   1cc64:	001f1f9b          	slliw	t6,t5,0x1
   1cc68:	41e306bb          	subw	a3,t1,t5
   1cc6c:	00068e93          	mv	t4,a3
   1cc70:	01c0006f          	j	1cc8c <matrix_sum+0x48>
   1cc74:	0108951b          	slliw	a0,a7,0x10
   1cc78:	0016869b          	addiw	a3,a3,1
   1cc7c:	4105551b          	sraiw	a0,a0,0x10
   1cc80:	00000813          	li	a6,0
   1cc84:	00078713          	mv	a4,a5
   1cc88:	04d30263          	beq	t1,a3,1cccc <matrix_sum+0x88>
   1cc8c:	02069793          	slli	a5,a3,0x20
   1cc90:	01e7d793          	srli	a5,a5,0x1e
   1cc94:	00f587b3          	add	a5,a1,a5
   1cc98:	0007a783          	lw	a5,0(a5)
   1cc9c:	03051513          	slli	a0,a0,0x30
   1cca0:	03055513          	srli	a0,a0,0x30
   1cca4:	00f72733          	slt	a4,a4,a5
   1cca8:	0107883b          	addw	a6,a5,a6
   1ccac:	00a5089b          	addiw	a7,a0,10
   1ccb0:	00a7073b          	addw	a4,a4,a0
   1ccb4:	fd0640e3          	blt	a2,a6,1cc74 <matrix_sum+0x30>
   1ccb8:	0107151b          	slliw	a0,a4,0x10
   1ccbc:	0016869b          	addiw	a3,a3,1
   1ccc0:	4105551b          	sraiw	a0,a0,0x10
   1ccc4:	00078713          	mv	a4,a5
   1ccc8:	fcd312e3          	bne	t1,a3,1cc8c <matrix_sum+0x48>
   1cccc:	001e0e1b          	addiw	t3,t3,1
   1ccd0:	01df833b          	addw	t1,t6,t4
   1ccd4:	f9cf1ae3          	bne	t5,t3,1cc68 <matrix_sum+0x24>
   1ccd8:	00008067          	ret
   1ccdc:	00000513          	li	a0,0
   1cce0:	00008067          	ret

000000000001cce4 <matrix_mul_const>:
   1cce4:	04050663          	beqz	a0,1cd30 <matrix_mul_const+0x4c>
   1cce8:	0006869b          	sext.w	a3,a3
   1ccec:	00000713          	li	a4,0
   1ccf0:	00000313          	li	t1,0
   1ccf4:	00e508bb          	addw	a7,a0,a4
   1ccf8:	02071793          	slli	a5,a4,0x20
   1ccfc:	0207d793          	srli	a5,a5,0x20
   1cd00:	00179813          	slli	a6,a5,0x1
   1cd04:	01060833          	add	a6,a2,a6
   1cd08:	00081803          	lh	a6,0(a6)
   1cd0c:	00279793          	slli	a5,a5,0x2
   1cd10:	00f587b3          	add	a5,a1,a5
   1cd14:	02d8083b          	mulw	a6,a6,a3
   1cd18:	0017071b          	addiw	a4,a4,1
   1cd1c:	0107a023          	sw	a6,0(a5)
   1cd20:	fce89ce3          	bne	a7,a4,1ccf8 <matrix_mul_const+0x14>
   1cd24:	0013031b          	addiw	t1,t1,1
   1cd28:	0007071b          	sext.w	a4,a4
   1cd2c:	fc6514e3          	bne	a0,t1,1ccf4 <matrix_mul_const+0x10>
   1cd30:	00008067          	ret

000000000001cd34 <matrix_add_const>:
   1cd34:	04050263          	beqz	a0,1cd78 <matrix_add_const+0x44>
   1cd38:	03061613          	slli	a2,a2,0x30
   1cd3c:	03065613          	srli	a2,a2,0x30
   1cd40:	00000713          	li	a4,0
   1cd44:	00000893          	li	a7,0
   1cd48:	00e5083b          	addw	a6,a0,a4
   1cd4c:	02071793          	slli	a5,a4,0x20
   1cd50:	01f7d793          	srli	a5,a5,0x1f
   1cd54:	00f587b3          	add	a5,a1,a5
   1cd58:	0007d683          	lhu	a3,0(a5)
   1cd5c:	0017071b          	addiw	a4,a4,1
   1cd60:	00c686bb          	addw	a3,a3,a2
   1cd64:	00d79023          	sh	a3,0(a5)
   1cd68:	fee812e3          	bne	a6,a4,1cd4c <matrix_add_const+0x18>
   1cd6c:	0018889b          	addiw	a7,a7,1
   1cd70:	0007071b          	sext.w	a4,a4
   1cd74:	fd151ae3          	bne	a0,a7,1cd48 <matrix_add_const+0x14>
   1cd78:	00008067          	ret

000000000001cd7c <matrix_mul_vect>:
   1cd7c:	06050063          	beqz	a0,1cddc <matrix_mul_vect+0x60>
   1cd80:	fff50e9b          	addiw	t4,a0,-1
   1cd84:	020e9e93          	slli	t4,t4,0x20
   1cd88:	01eede93          	srli	t4,t4,0x1e
   1cd8c:	00458793          	addi	a5,a1,4
   1cd90:	00fe8eb3          	add	t4,t4,a5
   1cd94:	00000713          	li	a4,0
   1cd98:	00068813          	mv	a6,a3
   1cd9c:	00e50e3b          	addw	t3,a0,a4
   1cda0:	00000893          	li	a7,0
   1cda4:	02071793          	slli	a5,a4,0x20
   1cda8:	01f7d793          	srli	a5,a5,0x1f
   1cdac:	00f607b3          	add	a5,a2,a5
   1cdb0:	00081303          	lh	t1,0(a6)
   1cdb4:	00079783          	lh	a5,0(a5)
   1cdb8:	0017071b          	addiw	a4,a4,1
   1cdbc:	00280813          	addi	a6,a6,2
   1cdc0:	026787bb          	mulw	a5,a5,t1
   1cdc4:	011788bb          	addw	a7,a5,a7
   1cdc8:	fcee1ee3          	bne	t3,a4,1cda4 <matrix_mul_vect+0x28>
   1cdcc:	0115a023          	sw	a7,0(a1)
   1cdd0:	00458593          	addi	a1,a1,4
   1cdd4:	0007071b          	sext.w	a4,a4
   1cdd8:	fcbe90e3          	bne	t4,a1,1cd98 <matrix_mul_vect+0x1c>
   1cddc:	00008067          	ret

000000000001cde0 <matrix_mul_matrix>:
   1cde0:	0a050063          	beqz	a0,1ce80 <matrix_mul_matrix+0xa0>
   1cde4:	ff010113          	addi	sp,sp,-16
   1cde8:	00813423          	sd	s0,8(sp)
   1cdec:	00050e93          	mv	t4,a0
   1cdf0:	00000293          	li	t0,0
   1cdf4:	0015141b          	slliw	s0,a0,0x1
   1cdf8:	40ae8fbb          	subw	t6,t4,a0
   1cdfc:	000f8393          	mv	t2,t6
   1ce00:	00000f13          	li	t5,0
   1ce04:	01ff0e3b          	addw	t3,t5,t6
   1ce08:	020e1e13          	slli	t3,t3,0x20
   1ce0c:	01ee5e13          	srli	t3,t3,0x1e
   1ce10:	01c58e33          	add	t3,a1,t3
   1ce14:	000f0893          	mv	a7,t5
   1ce18:	000f8813          	mv	a6,t6
   1ce1c:	00000313          	li	t1,0
   1ce20:	02081713          	slli	a4,a6,0x20
   1ce24:	02089793          	slli	a5,a7,0x20
   1ce28:	02075713          	srli	a4,a4,0x20
   1ce2c:	0207d793          	srli	a5,a5,0x20
   1ce30:	00171713          	slli	a4,a4,0x1
   1ce34:	00179793          	slli	a5,a5,0x1
   1ce38:	00e60733          	add	a4,a2,a4
   1ce3c:	00f687b3          	add	a5,a3,a5
   1ce40:	00071703          	lh	a4,0(a4)
   1ce44:	00079783          	lh	a5,0(a5)
   1ce48:	0018081b          	addiw	a6,a6,1
   1ce4c:	011508bb          	addw	a7,a0,a7
   1ce50:	02f707bb          	mulw	a5,a4,a5
   1ce54:	0067833b          	addw	t1,a5,t1
   1ce58:	fd0e94e3          	bne	t4,a6,1ce20 <matrix_mul_matrix+0x40>
   1ce5c:	006e2023          	sw	t1,0(t3)
   1ce60:	001f0f1b          	addiw	t5,t5,1
   1ce64:	fbe510e3          	bne	a0,t5,1ce04 <matrix_mul_matrix+0x24>
   1ce68:	0012829b          	addiw	t0,t0,1
   1ce6c:	00740ebb          	addw	t4,s0,t2
   1ce70:	f8a294e3          	bne	t0,a0,1cdf8 <matrix_mul_matrix+0x18>
   1ce74:	00813403          	ld	s0,8(sp)
   1ce78:	01010113          	addi	sp,sp,16
   1ce7c:	00008067          	ret
   1ce80:	00008067          	ret

000000000001ce84 <matrix_mul_matrix_bitextract>:
   1ce84:	0a050a63          	beqz	a0,1cf38 <matrix_mul_matrix_bitextract+0xb4>
   1ce88:	ff010113          	addi	sp,sp,-16
   1ce8c:	00813423          	sd	s0,8(sp)
   1ce90:	00050e93          	mv	t4,a0
   1ce94:	00000293          	li	t0,0
   1ce98:	0015141b          	slliw	s0,a0,0x1
   1ce9c:	40ae8fbb          	subw	t6,t4,a0
   1cea0:	000f8393          	mv	t2,t6
   1cea4:	00000f13          	li	t5,0
   1cea8:	01ff0e3b          	addw	t3,t5,t6
   1ceac:	020e1e13          	slli	t3,t3,0x20
   1ceb0:	01ee5e13          	srli	t3,t3,0x1e
   1ceb4:	01c58e33          	add	t3,a1,t3
   1ceb8:	000f0893          	mv	a7,t5
   1cebc:	000f8813          	mv	a6,t6
   1cec0:	00000313          	li	t1,0
   1cec4:	02081793          	slli	a5,a6,0x20
   1cec8:	02089713          	slli	a4,a7,0x20
   1cecc:	0207d793          	srli	a5,a5,0x20
   1ced0:	02075713          	srli	a4,a4,0x20
   1ced4:	00179793          	slli	a5,a5,0x1
   1ced8:	00171713          	slli	a4,a4,0x1
   1cedc:	00f607b3          	add	a5,a2,a5
   1cee0:	00e68733          	add	a4,a3,a4
   1cee4:	00071703          	lh	a4,0(a4)
   1cee8:	00079783          	lh	a5,0(a5)
   1ceec:	0018081b          	addiw	a6,a6,1
   1cef0:	011508bb          	addw	a7,a0,a7
   1cef4:	02e787bb          	mulw	a5,a5,a4
   1cef8:	4027d71b          	sraiw	a4,a5,0x2
   1cefc:	4057d79b          	sraiw	a5,a5,0x5
   1cf00:	00f77713          	andi	a4,a4,15
   1cf04:	07f7f793          	andi	a5,a5,127
   1cf08:	02f707bb          	mulw	a5,a4,a5
   1cf0c:	0067833b          	addw	t1,a5,t1
   1cf10:	fb0e9ae3          	bne	t4,a6,1cec4 <matrix_mul_matrix_bitextract+0x40>
   1cf14:	006e2023          	sw	t1,0(t3)
   1cf18:	001f0f1b          	addiw	t5,t5,1
   1cf1c:	f9e516e3          	bne	a0,t5,1cea8 <matrix_mul_matrix_bitextract+0x24>
   1cf20:	0012829b          	addiw	t0,t0,1
   1cf24:	00740ebb          	addw	t4,s0,t2
   1cf28:	f6a29ae3          	bne	t0,a0,1ce9c <matrix_mul_matrix_bitextract+0x18>
   1cf2c:	00813403          	ld	s0,8(sp)
   1cf30:	01010113          	addi	sp,sp,16
   1cf34:	00008067          	ret
   1cf38:	00008067          	ret

000000000001cf3c <matrix_test>:
   1cf3c:	fb010113          	addi	sp,sp,-80
   1cf40:	04813023          	sd	s0,64(sp)
   1cf44:	03213823          	sd	s2,48(sp)
   1cf48:	03413023          	sd	s4,32(sp)
   1cf4c:	01513c23          	sd	s5,24(sp)
   1cf50:	04113423          	sd	ra,72(sp)
   1cf54:	fffffab7          	lui	s5,0xfffff
   1cf58:	02913c23          	sd	s1,56(sp)
   1cf5c:	03313423          	sd	s3,40(sp)
   1cf60:	01613823          	sd	s6,16(sp)
   1cf64:	01713423          	sd	s7,8(sp)
   1cf68:	00058a13          	mv	s4,a1
   1cf6c:	00060913          	mv	s2,a2
   1cf70:	00068413          	mv	s0,a3
   1cf74:	01576ab3          	or	s5,a4,s5
   1cf78:	3e050663          	beqz	a0,1d364 <matrix_test+0x428>
   1cf7c:	03071993          	slli	s3,a4,0x30
   1cf80:	00070b13          	mv	s6,a4
   1cf84:	0309d993          	srli	s3,s3,0x30
   1cf88:	00000693          	li	a3,0
   1cf8c:	00000493          	li	s1,0
   1cf90:	00d505bb          	addw	a1,a0,a3
   1cf94:	02069793          	slli	a5,a3,0x20
   1cf98:	01f7d793          	srli	a5,a5,0x1f
   1cf9c:	00f907b3          	add	a5,s2,a5
   1cfa0:	0007d603          	lhu	a2,0(a5)
   1cfa4:	0016869b          	addiw	a3,a3,1
   1cfa8:	0136063b          	addw	a2,a2,s3
   1cfac:	00c79023          	sh	a2,0(a5)
   1cfb0:	fed592e3          	bne	a1,a3,1cf94 <matrix_test+0x58>
   1cfb4:	0014849b          	addiw	s1,s1,1
   1cfb8:	00058693          	mv	a3,a1
   1cfbc:	fc951ae3          	bne	a0,s1,1cf90 <matrix_test+0x54>
   1cfc0:	0001f637          	lui	a2,0x1f
   1cfc4:	00048593          	mv	a1,s1
   1cfc8:	00090513          	mv	a0,s2
   1cfcc:	21860613          	addi	a2,a2,536 # 1f218 <errpat+0xbc0>
   1cfd0:	965ff0ef          	jal	ra,1c934 <printmat>
   1cfd4:	000b059b          	sext.w	a1,s6
   1cfd8:	00000713          	li	a4,0
   1cfdc:	00000513          	li	a0,0
   1cfe0:	00e4863b          	addw	a2,s1,a4
   1cfe4:	02071793          	slli	a5,a4,0x20
   1cfe8:	0207d793          	srli	a5,a5,0x20
   1cfec:	00179693          	slli	a3,a5,0x1
   1cff0:	00d906b3          	add	a3,s2,a3
   1cff4:	00069683          	lh	a3,0(a3)
   1cff8:	00279793          	slli	a5,a5,0x2
   1cffc:	00fa07b3          	add	a5,s4,a5
   1d000:	02b686bb          	mulw	a3,a3,a1
   1d004:	0017071b          	addiw	a4,a4,1
   1d008:	00d7a023          	sw	a3,0(a5)
   1d00c:	fce61ce3          	bne	a2,a4,1cfe4 <matrix_test+0xa8>
   1d010:	0015051b          	addiw	a0,a0,1
   1d014:	00060713          	mv	a4,a2
   1d018:	fc9514e3          	bne	a0,s1,1cfe0 <matrix_test+0xa4>
   1d01c:	00149b1b          	slliw	s6,s1,0x1
   1d020:	000b0e13          	mv	t3,s6
   1d024:	000a8a9b          	sext.w	s5,s5
   1d028:	00048813          	mv	a6,s1
   1d02c:	00000513          	li	a0,0
   1d030:	00000713          	li	a4,0
   1d034:	00000613          	li	a2,0
   1d038:	00000893          	li	a7,0
   1d03c:	409806bb          	subw	a3,a6,s1
   1d040:	00068313          	mv	t1,a3
   1d044:	01c0006f          	j	1d060 <matrix_test+0x124>
   1d048:	0105951b          	slliw	a0,a1,0x10
   1d04c:	0016869b          	addiw	a3,a3,1
   1d050:	4105551b          	sraiw	a0,a0,0x10
   1d054:	00000613          	li	a2,0
   1d058:	00078713          	mv	a4,a5
   1d05c:	04d80263          	beq	a6,a3,1d0a0 <matrix_test+0x164>
   1d060:	02069793          	slli	a5,a3,0x20
   1d064:	01e7d793          	srli	a5,a5,0x1e
   1d068:	00fa07b3          	add	a5,s4,a5
   1d06c:	0007a783          	lw	a5,0(a5)
   1d070:	03051513          	slli	a0,a0,0x30
   1d074:	03055513          	srli	a0,a0,0x30
   1d078:	00f72733          	slt	a4,a4,a5
   1d07c:	00c7863b          	addw	a2,a5,a2
   1d080:	00a5059b          	addiw	a1,a0,10
   1d084:	00a7073b          	addw	a4,a4,a0
   1d088:	fccac0e3          	blt	s5,a2,1d048 <matrix_test+0x10c>
   1d08c:	0107151b          	slliw	a0,a4,0x10
   1d090:	0016869b          	addiw	a3,a3,1
   1d094:	4105551b          	sraiw	a0,a0,0x10
   1d098:	00078713          	mv	a4,a5
   1d09c:	fcd812e3          	bne	a6,a3,1d060 <matrix_test+0x124>
   1d0a0:	0018889b          	addiw	a7,a7,1
   1d0a4:	006e083b          	addw	a6,t3,t1
   1d0a8:	f8989ae3          	bne	a7,s1,1d03c <matrix_test+0x100>
   1d0ac:	00000593          	li	a1,0
   1d0b0:	52d000ef          	jal	ra,1dddc <crc16>
   1d0b4:	0001f637          	lui	a2,0x1f
   1d0b8:	23060613          	addi	a2,a2,560 # 1f230 <errpat+0xbd8>
   1d0bc:	00048593          	mv	a1,s1
   1d0c0:	00050b93          	mv	s7,a0
   1d0c4:	000a0513          	mv	a0,s4
   1d0c8:	941ff0ef          	jal	ra,1ca08 <printmatC>
   1d0cc:	00090613          	mv	a2,s2
   1d0d0:	00048513          	mv	a0,s1
   1d0d4:	00040693          	mv	a3,s0
   1d0d8:	000a0593          	mv	a1,s4
   1d0dc:	ca1ff0ef          	jal	ra,1cd7c <matrix_mul_vect>
   1d0e0:	00048813          	mv	a6,s1
   1d0e4:	00000513          	li	a0,0
   1d0e8:	00000713          	li	a4,0
   1d0ec:	00000613          	li	a2,0
   1d0f0:	00000893          	li	a7,0
   1d0f4:	409806bb          	subw	a3,a6,s1
   1d0f8:	00068313          	mv	t1,a3
   1d0fc:	01c0006f          	j	1d118 <matrix_test+0x1dc>
   1d100:	0105951b          	slliw	a0,a1,0x10
   1d104:	0016869b          	addiw	a3,a3,1
   1d108:	4105551b          	sraiw	a0,a0,0x10
   1d10c:	00000613          	li	a2,0
   1d110:	00078713          	mv	a4,a5
   1d114:	04d80263          	beq	a6,a3,1d158 <matrix_test+0x21c>
   1d118:	02069793          	slli	a5,a3,0x20
   1d11c:	01e7d793          	srli	a5,a5,0x1e
   1d120:	00fa07b3          	add	a5,s4,a5
   1d124:	0007a783          	lw	a5,0(a5)
   1d128:	03051513          	slli	a0,a0,0x30
   1d12c:	03055513          	srli	a0,a0,0x30
   1d130:	00f72733          	slt	a4,a4,a5
   1d134:	00c7863b          	addw	a2,a5,a2
   1d138:	00a5059b          	addiw	a1,a0,10
   1d13c:	00a7073b          	addw	a4,a4,a0
   1d140:	fccac0e3          	blt	s5,a2,1d100 <matrix_test+0x1c4>
   1d144:	0107151b          	slliw	a0,a4,0x10
   1d148:	0016869b          	addiw	a3,a3,1
   1d14c:	4105551b          	sraiw	a0,a0,0x10
   1d150:	00078713          	mv	a4,a5
   1d154:	fcd812e3          	bne	a6,a3,1d118 <matrix_test+0x1dc>
   1d158:	0018889b          	addiw	a7,a7,1
   1d15c:	0163083b          	addw	a6,t1,s6
   1d160:	f8989ae3          	bne	a7,s1,1d0f4 <matrix_test+0x1b8>
   1d164:	000b8593          	mv	a1,s7
   1d168:	475000ef          	jal	ra,1dddc <crc16>
   1d16c:	0001f637          	lui	a2,0x1f
   1d170:	24860613          	addi	a2,a2,584 # 1f248 <errpat+0xbf0>
   1d174:	00048593          	mv	a1,s1
   1d178:	00050b13          	mv	s6,a0
   1d17c:	000a0513          	mv	a0,s4
   1d180:	889ff0ef          	jal	ra,1ca08 <printmatC>
   1d184:	00090613          	mv	a2,s2
   1d188:	00048513          	mv	a0,s1
   1d18c:	00040693          	mv	a3,s0
   1d190:	000a0593          	mv	a1,s4
   1d194:	c4dff0ef          	jal	ra,1cde0 <matrix_mul_matrix>
   1d198:	00000813          	li	a6,0
   1d19c:	00000513          	li	a0,0
   1d1a0:	00000713          	li	a4,0
   1d1a4:	00000613          	li	a2,0
   1d1a8:	00000893          	li	a7,0
   1d1ac:	00000693          	li	a3,0
   1d1b0:	01c0006f          	j	1d1cc <matrix_test+0x290>
   1d1b4:	0105951b          	slliw	a0,a1,0x10
   1d1b8:	0016869b          	addiw	a3,a3,1
   1d1bc:	4105551b          	sraiw	a0,a0,0x10
   1d1c0:	00000613          	li	a2,0
   1d1c4:	00078713          	mv	a4,a5
   1d1c8:	0496f463          	bleu	s1,a3,1d210 <matrix_test+0x2d4>
   1d1cc:	010687bb          	addw	a5,a3,a6
   1d1d0:	02079793          	slli	a5,a5,0x20
   1d1d4:	01e7d793          	srli	a5,a5,0x1e
   1d1d8:	00fa07b3          	add	a5,s4,a5
   1d1dc:	0007a783          	lw	a5,0(a5)
   1d1e0:	03051513          	slli	a0,a0,0x30
   1d1e4:	03055513          	srli	a0,a0,0x30
   1d1e8:	00f72733          	slt	a4,a4,a5
   1d1ec:	00c7863b          	addw	a2,a5,a2
   1d1f0:	00a5059b          	addiw	a1,a0,10
   1d1f4:	00a7073b          	addw	a4,a4,a0
   1d1f8:	facacee3          	blt	s5,a2,1d1b4 <matrix_test+0x278>
   1d1fc:	0107151b          	slliw	a0,a4,0x10
   1d200:	0016869b          	addiw	a3,a3,1
   1d204:	4105551b          	sraiw	a0,a0,0x10
   1d208:	00078713          	mv	a4,a5
   1d20c:	fc96e0e3          	bltu	a3,s1,1d1cc <matrix_test+0x290>
   1d210:	0018889b          	addiw	a7,a7,1
   1d214:	0104883b          	addw	a6,s1,a6
   1d218:	f898eae3          	bltu	a7,s1,1d1ac <matrix_test+0x270>
   1d21c:	000b0593          	mv	a1,s6
   1d220:	3bd000ef          	jal	ra,1dddc <crc16>
   1d224:	0001f637          	lui	a2,0x1f
   1d228:	25860613          	addi	a2,a2,600 # 1f258 <errpat+0xc00>
   1d22c:	00048593          	mv	a1,s1
   1d230:	00050b13          	mv	s6,a0
   1d234:	000a0513          	mv	a0,s4
   1d238:	fd0ff0ef          	jal	ra,1ca08 <printmatC>
   1d23c:	00090613          	mv	a2,s2
   1d240:	00048513          	mv	a0,s1
   1d244:	00040693          	mv	a3,s0
   1d248:	000a0593          	mv	a1,s4
   1d24c:	c39ff0ef          	jal	ra,1ce84 <matrix_mul_matrix_bitextract>
   1d250:	00000813          	li	a6,0
   1d254:	00000513          	li	a0,0
   1d258:	00000713          	li	a4,0
   1d25c:	00000613          	li	a2,0
   1d260:	00000893          	li	a7,0
   1d264:	00000693          	li	a3,0
   1d268:	01c0006f          	j	1d284 <matrix_test+0x348>
   1d26c:	0105951b          	slliw	a0,a1,0x10
   1d270:	0016869b          	addiw	a3,a3,1
   1d274:	4105551b          	sraiw	a0,a0,0x10
   1d278:	00000613          	li	a2,0
   1d27c:	00078713          	mv	a4,a5
   1d280:	0496f463          	bleu	s1,a3,1d2c8 <matrix_test+0x38c>
   1d284:	010687bb          	addw	a5,a3,a6
   1d288:	02079793          	slli	a5,a5,0x20
   1d28c:	01e7d793          	srli	a5,a5,0x1e
   1d290:	00fa07b3          	add	a5,s4,a5
   1d294:	0007a783          	lw	a5,0(a5)
   1d298:	03051513          	slli	a0,a0,0x30
   1d29c:	03055513          	srli	a0,a0,0x30
   1d2a0:	00f72733          	slt	a4,a4,a5
   1d2a4:	00c7863b          	addw	a2,a5,a2
   1d2a8:	00a5059b          	addiw	a1,a0,10
   1d2ac:	00a7073b          	addw	a4,a4,a0
   1d2b0:	facacee3          	blt	s5,a2,1d26c <matrix_test+0x330>
   1d2b4:	0107151b          	slliw	a0,a4,0x10
   1d2b8:	0016869b          	addiw	a3,a3,1
   1d2bc:	4105551b          	sraiw	a0,a0,0x10
   1d2c0:	00078713          	mv	a4,a5
   1d2c4:	fc96e0e3          	bltu	a3,s1,1d284 <matrix_test+0x348>
   1d2c8:	0018889b          	addiw	a7,a7,1
   1d2cc:	0104883b          	addw	a6,s1,a6
   1d2d0:	f898eae3          	bltu	a7,s1,1d264 <matrix_test+0x328>
   1d2d4:	000b0593          	mv	a1,s6
   1d2d8:	305000ef          	jal	ra,1dddc <crc16>
   1d2dc:	0001f637          	lui	a2,0x1f
   1d2e0:	27060613          	addi	a2,a2,624 # 1f270 <errpat+0xc18>
   1d2e4:	00048593          	mv	a1,s1
   1d2e8:	00050413          	mv	s0,a0
   1d2ec:	000a0513          	mv	a0,s4
   1d2f0:	f18ff0ef          	jal	ra,1ca08 <printmatC>
   1d2f4:	00000613          	li	a2,0
   1d2f8:	00000593          	li	a1,0
   1d2fc:	00000713          	li	a4,0
   1d300:	00c707bb          	addw	a5,a4,a2
   1d304:	02079793          	slli	a5,a5,0x20
   1d308:	01f7d793          	srli	a5,a5,0x1f
   1d30c:	00f907b3          	add	a5,s2,a5
   1d310:	0007d683          	lhu	a3,0(a5)
   1d314:	0017071b          	addiw	a4,a4,1
   1d318:	413686bb          	subw	a3,a3,s3
   1d31c:	00d79023          	sh	a3,0(a5)
   1d320:	fe9760e3          	bltu	a4,s1,1d300 <matrix_test+0x3c4>
   1d324:	0015859b          	addiw	a1,a1,1
   1d328:	00c4863b          	addw	a2,s1,a2
   1d32c:	fc95e8e3          	bltu	a1,s1,1d2fc <matrix_test+0x3c0>
   1d330:	0104151b          	slliw	a0,s0,0x10
   1d334:	04813083          	ld	ra,72(sp)
   1d338:	04013403          	ld	s0,64(sp)
   1d33c:	03813483          	ld	s1,56(sp)
   1d340:	03013903          	ld	s2,48(sp)
   1d344:	02813983          	ld	s3,40(sp)
   1d348:	02013a03          	ld	s4,32(sp)
   1d34c:	01813a83          	ld	s5,24(sp)
   1d350:	01013b03          	ld	s6,16(sp)
   1d354:	00813b83          	ld	s7,8(sp)
   1d358:	4105551b          	sraiw	a0,a0,0x10
   1d35c:	05010113          	addi	sp,sp,80
   1d360:	00008067          	ret
   1d364:	0001f637          	lui	a2,0x1f
   1d368:	21860613          	addi	a2,a2,536 # 1f218 <errpat+0xbc0>
   1d36c:	00090513          	mv	a0,s2
   1d370:	00000593          	li	a1,0
   1d374:	dc0ff0ef          	jal	ra,1c934 <printmat>
   1d378:	00000593          	li	a1,0
   1d37c:	00000513          	li	a0,0
   1d380:	25d000ef          	jal	ra,1dddc <crc16>
   1d384:	0001f637          	lui	a2,0x1f
   1d388:	00050493          	mv	s1,a0
   1d38c:	23060613          	addi	a2,a2,560 # 1f230 <errpat+0xbd8>
   1d390:	000a0513          	mv	a0,s4
   1d394:	00000593          	li	a1,0
   1d398:	e70ff0ef          	jal	ra,1ca08 <printmatC>
   1d39c:	00040693          	mv	a3,s0
   1d3a0:	00090613          	mv	a2,s2
   1d3a4:	000a0593          	mv	a1,s4
   1d3a8:	00000513          	li	a0,0
   1d3ac:	9d1ff0ef          	jal	ra,1cd7c <matrix_mul_vect>
   1d3b0:	00048593          	mv	a1,s1
   1d3b4:	00000513          	li	a0,0
   1d3b8:	225000ef          	jal	ra,1dddc <crc16>
   1d3bc:	0001f637          	lui	a2,0x1f
   1d3c0:	00050493          	mv	s1,a0
   1d3c4:	24860613          	addi	a2,a2,584 # 1f248 <errpat+0xbf0>
   1d3c8:	000a0513          	mv	a0,s4
   1d3cc:	00000593          	li	a1,0
   1d3d0:	e38ff0ef          	jal	ra,1ca08 <printmatC>
   1d3d4:	00040693          	mv	a3,s0
   1d3d8:	00090613          	mv	a2,s2
   1d3dc:	000a0593          	mv	a1,s4
   1d3e0:	00000513          	li	a0,0
   1d3e4:	9fdff0ef          	jal	ra,1cde0 <matrix_mul_matrix>
   1d3e8:	00048593          	mv	a1,s1
   1d3ec:	00000513          	li	a0,0
   1d3f0:	1ed000ef          	jal	ra,1dddc <crc16>
   1d3f4:	0001f637          	lui	a2,0x1f
   1d3f8:	00050493          	mv	s1,a0
   1d3fc:	25860613          	addi	a2,a2,600 # 1f258 <errpat+0xc00>
   1d400:	000a0513          	mv	a0,s4
   1d404:	00000593          	li	a1,0
   1d408:	e00ff0ef          	jal	ra,1ca08 <printmatC>
   1d40c:	00040693          	mv	a3,s0
   1d410:	00090613          	mv	a2,s2
   1d414:	000a0593          	mv	a1,s4
   1d418:	00000513          	li	a0,0
   1d41c:	a69ff0ef          	jal	ra,1ce84 <matrix_mul_matrix_bitextract>
   1d420:	00048593          	mv	a1,s1
   1d424:	00000513          	li	a0,0
   1d428:	1b5000ef          	jal	ra,1dddc <crc16>
   1d42c:	0001f637          	lui	a2,0x1f
   1d430:	00050413          	mv	s0,a0
   1d434:	27060613          	addi	a2,a2,624 # 1f270 <errpat+0xc18>
   1d438:	00000593          	li	a1,0
   1d43c:	000a0513          	mv	a0,s4
   1d440:	dc8ff0ef          	jal	ra,1ca08 <printmatC>
   1d444:	eedff06f          	j	1d330 <matrix_test+0x3f4>

000000000001d448 <core_bench_matrix>:
   1d448:	ff010113          	addi	sp,sp,-16
   1d44c:	00813023          	sd	s0,0(sp)
   1d450:	00058713          	mv	a4,a1
   1d454:	00060413          	mv	s0,a2
   1d458:	01853583          	ld	a1,24(a0)
   1d45c:	01053683          	ld	a3,16(a0)
   1d460:	00853603          	ld	a2,8(a0)
   1d464:	00052503          	lw	a0,0(a0)
   1d468:	00113423          	sd	ra,8(sp)
   1d46c:	ad1ff0ef          	jal	ra,1cf3c <matrix_test>
   1d470:	00040593          	mv	a1,s0
   1d474:	00013403          	ld	s0,0(sp)
   1d478:	00813083          	ld	ra,8(sp)
   1d47c:	01010113          	addi	sp,sp,16
   1d480:	15d0006f          	j	1dddc <crc16>

000000000001d484 <start_time>:
   1d484:	ff010113          	addi	sp,sp,-16
   1d488:	00113423          	sd	ra,8(sp)
   1d48c:	1cd000ef          	jal	ra,1de58 <time>
   1d490:	00813083          	ld	ra,8(sp)
   1d494:	000227b7          	lui	a5,0x22
   1d498:	2aa7b023          	sd	a0,672(a5) # 222a0 <start_time_val>
   1d49c:	01010113          	addi	sp,sp,16
   1d4a0:	00008067          	ret

000000000001d4a4 <stop_time>:
   1d4a4:	ff010113          	addi	sp,sp,-16
   1d4a8:	00113423          	sd	ra,8(sp)
   1d4ac:	1ad000ef          	jal	ra,1de58 <time>
   1d4b0:	00813083          	ld	ra,8(sp)
   1d4b4:	000227b7          	lui	a5,0x22
   1d4b8:	28a7bc23          	sd	a0,664(a5) # 22298 <stop_time_val>
   1d4bc:	01010113          	addi	sp,sp,16
   1d4c0:	00008067          	ret

000000000001d4c4 <get_time>:
   1d4c4:	000227b7          	lui	a5,0x22
   1d4c8:	2987b503          	ld	a0,664(a5) # 22298 <stop_time_val>
   1d4cc:	000227b7          	lui	a5,0x22
   1d4d0:	2a07b783          	ld	a5,672(a5) # 222a0 <start_time_val>
   1d4d4:	40f50533          	sub	a0,a0,a5
   1d4d8:	00008067          	ret

000000000001d4dc <time_in_secs>:
   1d4dc:	000317b7          	lui	a5,0x31
   1d4e0:	d407879b          	addiw	a5,a5,-704
   1d4e4:	02f5553b          	divuw	a0,a0,a5
   1d4e8:	00008067          	ret

000000000001d4ec <portable_init>:
   1d4ec:	ff010113          	addi	sp,sp,-16
   1d4f0:	00813023          	sd	s0,0(sp)
   1d4f4:	00050413          	mv	s0,a0
   1d4f8:	0001f537          	lui	a0,0x1f
   1d4fc:	29050513          	addi	a0,a0,656 # 1f290 <errpat+0xc38>
   1d500:	00113423          	sd	ra,8(sp)
   1d504:	371000ef          	jal	ra,1e074 <printf>
   1d508:	00100793          	li	a5,1
   1d50c:	00f40023          	sb	a5,0(s0)
   1d510:	00813083          	ld	ra,8(sp)
   1d514:	00013403          	ld	s0,0(sp)
   1d518:	01010113          	addi	sp,sp,16
   1d51c:	00008067          	ret

000000000001d520 <portable_fini>:
   1d520:	00050023          	sb	zero,0(a0)
   1d524:	00008067          	ret

000000000001d528 <core_init_state>:
   1d528:	fe010113          	addi	sp,sp,-32
   1d52c:	00913423          	sd	s1,8(sp)
   1d530:	01213023          	sd	s2,0(sp)
   1d534:	00050493          	mv	s1,a0
   1d538:	00058913          	mv	s2,a1
   1d53c:	00050593          	mv	a1,a0
   1d540:	0001f537          	lui	a0,0x1f
   1d544:	00813823          	sd	s0,16(sp)
   1d548:	2d850513          	addi	a0,a0,728 # 1f2d8 <errpat+0xc80>
   1d54c:	00060413          	mv	s0,a2
   1d550:	00090613          	mv	a2,s2
   1d554:	00113c23          	sd	ra,24(sp)
   1d558:	31d000ef          	jal	ra,1e074 <printf>
   1d55c:	00000f93          	li	t6,0
   1d560:	00000e13          	li	t3,0
   1d564:	0019069b          	addiw	a3,s2,1
   1d568:	01fe0ebb          	addw	t4,t3,t6
   1d56c:	fff4851b          	addiw	a0,s1,-1
   1d570:	03069693          	slli	a3,a3,0x30
   1d574:	0001e637          	lui	a2,0x1e
   1d578:	0001e5b7          	lui	a1,0x1e
   1d57c:	001e8e9b          	addiw	t4,t4,1
   1d580:	00050893          	mv	a7,a0
   1d584:	0306d693          	srli	a3,a3,0x30
   1d588:	00000793          	li	a5,0
   1d58c:	02c00313          	li	t1,44
   1d590:	00400813          	li	a6,4
   1d594:	5f860613          	addi	a2,a2,1528 # 1e5f8 <intpat>
   1d598:	5e058593          	addi	a1,a1,1504 # 1e5e0 <state_known_crc+0x10>
   1d59c:	04aefe63          	bleu	a0,t4,1d5f8 <core_init_state+0xd0>
   1d5a0:	0a0f9e63          	bnez	t6,1d65c <core_init_state+0x134>
   1d5a4:	0076f793          	andi	a5,a3,7
   1d5a8:	ffd7879b          	addiw	a5,a5,-3
   1d5ac:	03079e93          	slli	t4,a5,0x30
   1d5b0:	0036d713          	srli	a4,a3,0x3
   1d5b4:	030ede93          	srli	t4,t4,0x30
   1d5b8:	00377713          	andi	a4,a4,3
   1d5bc:	11d86063          	bltu	a6,t4,1d6bc <core_init_state+0x194>
   1d5c0:	002e9793          	slli	a5,t4,0x2
   1d5c4:	00b787b3          	add	a5,a5,a1
   1d5c8:	0007a783          	lw	a5,0(a5) # 31000 <heap_memory_used+0xed48>
   1d5cc:	00371713          	slli	a4,a4,0x3
   1d5d0:	00e60733          	add	a4,a2,a4
   1d5d4:	00078067          	jr	a5
   1d5d8:	02073783          	ld	a5,32(a4)
   1d5dc:	00800f93          	li	t6,8
   1d5e0:	0016869b          	addiw	a3,a3,1
   1d5e4:	01fe0ebb          	addw	t4,t3,t6
   1d5e8:	03069693          	slli	a3,a3,0x30
   1d5ec:	001e8e9b          	addiw	t4,t4,1
   1d5f0:	0306d693          	srli	a3,a3,0x30
   1d5f4:	faaee6e3          	bltu	t4,a0,1d5a0 <core_init_state+0x78>
   1d5f8:	029e7a63          	bleu	s1,t3,1d62c <core_init_state+0x104>
   1d5fc:	020e1793          	slli	a5,t3,0x20
   1d600:	41c888bb          	subw	a7,a7,t3
   1d604:	0207d793          	srli	a5,a5,0x20
   1d608:	00140713          	addi	a4,s0,1
   1d60c:	02089893          	slli	a7,a7,0x20
   1d610:	00f70733          	add	a4,a4,a5
   1d614:	0208d893          	srli	a7,a7,0x20
   1d618:	00f407b3          	add	a5,s0,a5
   1d61c:	011708b3          	add	a7,a4,a7
   1d620:	00078023          	sb	zero,0(a5)
   1d624:	00178793          	addi	a5,a5,1
   1d628:	ff179ce3          	bne	a5,a7,1d620 <core_init_state+0xf8>
   1d62c:	00040593          	mv	a1,s0
   1d630:	01013403          	ld	s0,16(sp)
   1d634:	01813083          	ld	ra,24(sp)
   1d638:	00813483          	ld	s1,8(sp)
   1d63c:	00013903          	ld	s2,0(sp)
   1d640:	0001f537          	lui	a0,0x1f
   1d644:	2e850513          	addi	a0,a0,744 # 1f2e8 <errpat+0xc90>
   1d648:	02010113          	addi	sp,sp,32
   1d64c:	2290006f          	j	1e074 <printf>
   1d650:	04073783          	ld	a5,64(a4)
   1d654:	00800f93          	li	t6,8
   1d658:	f89ff06f          	j	1d5e0 <core_init_state+0xb8>
   1d65c:	020e1e13          	slli	t3,t3,0x20
   1d660:	ffff829b          	addiw	t0,t6,-1
   1d664:	020e5e13          	srli	t3,t3,0x20
   1d668:	02029293          	slli	t0,t0,0x20
   1d66c:	01c40e33          	add	t3,s0,t3
   1d670:	00178f13          	addi	t5,a5,1
   1d674:	0202d293          	srli	t0,t0,0x20
   1d678:	000e0713          	mv	a4,t3
   1d67c:	005f02b3          	add	t0,t5,t0
   1d680:	0007cf03          	lbu	t5,0(a5)
   1d684:	00170713          	addi	a4,a4,1
   1d688:	00178793          	addi	a5,a5,1
   1d68c:	ffe70fa3          	sb	t5,-1(a4)
   1d690:	fe5798e3          	bne	a5,t0,1d680 <core_init_state+0x158>
   1d694:	0076f793          	andi	a5,a3,7
   1d698:	01fe0e33          	add	t3,t3,t6
   1d69c:	ffd7879b          	addiw	a5,a5,-3
   1d6a0:	006e0023          	sb	t1,0(t3)
   1d6a4:	000e8e13          	mv	t3,t4
   1d6a8:	03079e93          	slli	t4,a5,0x30
   1d6ac:	0036d713          	srli	a4,a3,0x3
   1d6b0:	030ede93          	srli	t4,t4,0x30
   1d6b4:	00377713          	andi	a4,a4,3
   1d6b8:	f1d874e3          	bleu	t4,a6,1d5c0 <core_init_state+0x98>
   1d6bc:	00371713          	slli	a4,a4,0x3
   1d6c0:	00e60733          	add	a4,a2,a4
   1d6c4:	00073783          	ld	a5,0(a4)
   1d6c8:	00400f93          	li	t6,4
   1d6cc:	f15ff06f          	j	1d5e0 <core_init_state+0xb8>
   1d6d0:	06073783          	ld	a5,96(a4)
   1d6d4:	00800f93          	li	t6,8
   1d6d8:	f09ff06f          	j	1d5e0 <core_init_state+0xb8>

000000000001d6dc <core_state_transition>:
   1d6dc:	00053783          	ld	a5,0(a0)
   1d6e0:	0007c703          	lbu	a4,0(a5)
   1d6e4:	06070463          	beqz	a4,1d74c <core_state_transition+0x70>
   1d6e8:	02c00693          	li	a3,44
   1d6ec:	00178613          	addi	a2,a5,1
   1d6f0:	2ad70463          	beq	a4,a3,1d998 <core_state_transition+0x2bc>
   1d6f4:	0005a803          	lw	a6,0(a1)
   1d6f8:	fd07089b          	addiw	a7,a4,-48
   1d6fc:	0ff8f893          	andi	a7,a7,255
   1d700:	00900313          	li	t1,9
   1d704:	0018081b          	addiw	a6,a6,1
   1d708:	05136863          	bltu	t1,a7,1d758 <core_state_transition+0x7c>
   1d70c:	0105a023          	sw	a6,0(a1)
   1d710:	0017c703          	lbu	a4,1(a5)
   1d714:	2c070463          	beqz	a4,1d9dc <core_state_transition+0x300>
   1d718:	00278793          	addi	a5,a5,2
   1d71c:	0cd70e63          	beq	a4,a3,1d7f8 <core_state_transition+0x11c>
   1d720:	02e00813          	li	a6,46
   1d724:	00900893          	li	a7,9
   1d728:	02c00313          	li	t1,44
   1d72c:	fd07069b          	addiw	a3,a4,-48
   1d730:	0ff6f693          	andi	a3,a3,255
   1d734:	0d070663          	beq	a4,a6,1d800 <core_state_transition+0x124>
   1d738:	20d8f463          	bleu	a3,a7,1d940 <core_state_transition+0x264>
   1d73c:	0105a683          	lw	a3,16(a1)
   1d740:	00100713          	li	a4,1
   1d744:	0016869b          	addiw	a3,a3,1
   1d748:	00d5a823          	sw	a3,16(a1)
   1d74c:	00f53023          	sd	a5,0(a0)
   1d750:	00070513          	mv	a0,a4
   1d754:	00008067          	ret
   1d758:	02b00893          	li	a7,43
   1d75c:	03170c63          	beq	a4,a7,1d794 <core_state_transition+0xb8>
   1d760:	02d00893          	li	a7,45
   1d764:	03170863          	beq	a4,a7,1d794 <core_state_transition+0xb8>
   1d768:	02e00893          	li	a7,46
   1d76c:	23170c63          	beq	a4,a7,1d9a4 <core_state_transition+0x2c8>
   1d770:	0045a703          	lw	a4,4(a1)
   1d774:	0105a023          	sw	a6,0(a1)
   1d778:	00060793          	mv	a5,a2
   1d77c:	0017071b          	addiw	a4,a4,1
   1d780:	00e5a223          	sw	a4,4(a1)
   1d784:	00100713          	li	a4,1
   1d788:	00f53023          	sd	a5,0(a0)
   1d78c:	00070513          	mv	a0,a4
   1d790:	00008067          	ret
   1d794:	0105a023          	sw	a6,0(a1)
   1d798:	0017c803          	lbu	a6,1(a5)
   1d79c:	22080463          	beqz	a6,1d9c4 <core_state_transition+0x2e8>
   1d7a0:	00278613          	addi	a2,a5,2
   1d7a4:	22d80063          	beq	a6,a3,1d9c4 <core_state_transition+0x2e8>
   1d7a8:	0085a683          	lw	a3,8(a1)
   1d7ac:	fd08071b          	addiw	a4,a6,-48
   1d7b0:	0ff77713          	andi	a4,a4,255
   1d7b4:	00900893          	li	a7,9
   1d7b8:	0016869b          	addiw	a3,a3,1
   1d7bc:	02e8f263          	bleu	a4,a7,1d7e0 <core_state_transition+0x104>
   1d7c0:	02e00713          	li	a4,46
   1d7c4:	1ae80a63          	beq	a6,a4,1d978 <core_state_transition+0x29c>
   1d7c8:	00d5a423          	sw	a3,8(a1)
   1d7cc:	00060793          	mv	a5,a2
   1d7d0:	00100713          	li	a4,1
   1d7d4:	00f53023          	sd	a5,0(a0)
   1d7d8:	00070513          	mv	a0,a4
   1d7dc:	00008067          	ret
   1d7e0:	00d5a423          	sw	a3,8(a1)
   1d7e4:	0027c703          	lbu	a4,2(a5)
   1d7e8:	1e070a63          	beqz	a4,1d9dc <core_state_transition+0x300>
   1d7ec:	02c00693          	li	a3,44
   1d7f0:	00160793          	addi	a5,a2,1
   1d7f4:	f2d716e3          	bne	a4,a3,1d720 <core_state_transition+0x44>
   1d7f8:	00400713          	li	a4,4
   1d7fc:	f51ff06f          	j	1d74c <core_state_transition+0x70>
   1d800:	0105a703          	lw	a4,16(a1)
   1d804:	0017071b          	addiw	a4,a4,1
   1d808:	00e5a823          	sw	a4,16(a1)
   1d80c:	00164703          	lbu	a4,1(a2)
   1d810:	1c070e63          	beqz	a4,1d9ec <core_state_transition+0x310>
   1d814:	02c00693          	li	a3,44
   1d818:	00178813          	addi	a6,a5,1
   1d81c:	18d70e63          	beq	a4,a3,1d9b8 <core_state_transition+0x2dc>
   1d820:	fd07069b          	addiw	a3,a4,-48
   1d824:	04500613          	li	a2,69
   1d828:	0df77713          	andi	a4,a4,223
   1d82c:	00900893          	li	a7,9
   1d830:	02c00313          	li	t1,44
   1d834:	0ff6f693          	andi	a3,a3,255
   1d838:	02c70863          	beq	a4,a2,1d868 <core_state_transition+0x18c>
   1d83c:	12d8e263          	bltu	a7,a3,1d960 <core_state_transition+0x284>
   1d840:	0017c703          	lbu	a4,1(a5)
   1d844:	00180693          	addi	a3,a6,1
   1d848:	00080793          	mv	a5,a6
   1d84c:	16070663          	beqz	a4,1d9b8 <core_state_transition+0x2dc>
   1d850:	1c670263          	beq	a4,t1,1da14 <core_state_transition+0x338>
   1d854:	00068813          	mv	a6,a3
   1d858:	fd07069b          	addiw	a3,a4,-48
   1d85c:	0df77713          	andi	a4,a4,223
   1d860:	0ff6f693          	andi	a3,a3,255
   1d864:	fcc71ce3          	bne	a4,a2,1d83c <core_state_transition+0x160>
   1d868:	0145a703          	lw	a4,20(a1)
   1d86c:	0017071b          	addiw	a4,a4,1
   1d870:	00e5aa23          	sw	a4,20(a1)
   1d874:	0017c703          	lbu	a4,1(a5)
   1d878:	14070c63          	beqz	a4,1d9d0 <core_state_transition+0x2f4>
   1d87c:	02c00613          	li	a2,44
   1d880:	00180793          	addi	a5,a6,1
   1d884:	14c70863          	beq	a4,a2,1d9d4 <core_state_transition+0x2f8>
   1d888:	00c5a683          	lw	a3,12(a1)
   1d88c:	fd57071b          	addiw	a4,a4,-43
   1d890:	0fd77713          	andi	a4,a4,253
   1d894:	0016869b          	addiw	a3,a3,1
   1d898:	00d5a623          	sw	a3,12(a1)
   1d89c:	00070a63          	beqz	a4,1d8b0 <core_state_transition+0x1d4>
   1d8a0:	00100713          	li	a4,1
   1d8a4:	00f53023          	sd	a5,0(a0)
   1d8a8:	00070513          	mv	a0,a4
   1d8ac:	00008067          	ret
   1d8b0:	00184703          	lbu	a4,1(a6)
   1d8b4:	14070063          	beqz	a4,1d9f4 <core_state_transition+0x318>
   1d8b8:	00280693          	addi	a3,a6,2
   1d8bc:	14c70063          	beq	a4,a2,1d9fc <core_state_transition+0x320>
   1d8c0:	0185a783          	lw	a5,24(a1)
   1d8c4:	fd07071b          	addiw	a4,a4,-48
   1d8c8:	0ff77713          	andi	a4,a4,255
   1d8cc:	0017879b          	addiw	a5,a5,1
   1d8d0:	00900893          	li	a7,9
   1d8d4:	00f5ac23          	sw	a5,24(a1)
   1d8d8:	00e8f863          	bleu	a4,a7,1d8e8 <core_state_transition+0x20c>
   1d8dc:	00068793          	mv	a5,a3
   1d8e0:	00100713          	li	a4,1
   1d8e4:	fc1ff06f          	j	1d8a4 <core_state_transition+0x1c8>
   1d8e8:	00284703          	lbu	a4,2(a6)
   1d8ec:	10070e63          	beqz	a4,1da08 <core_state_transition+0x32c>
   1d8f0:	00380793          	addi	a5,a6,3
   1d8f4:	04c70263          	beq	a4,a2,1d938 <core_state_transition+0x25c>
   1d8f8:	00900613          	li	a2,9
   1d8fc:	02c00893          	li	a7,44
   1d900:	fd07071b          	addiw	a4,a4,-48
   1d904:	0ff77713          	andi	a4,a4,255
   1d908:	00e67c63          	bleu	a4,a2,1d920 <core_state_transition+0x244>
   1d90c:	0045a683          	lw	a3,4(a1)
   1d910:	00100713          	li	a4,1
   1d914:	0016869b          	addiw	a3,a3,1
   1d918:	00d5a223          	sw	a3,4(a1)
   1d91c:	e31ff06f          	j	1d74c <core_state_transition+0x70>
   1d920:	0016c703          	lbu	a4,1(a3)
   1d924:	00178813          	addi	a6,a5,1
   1d928:	00078693          	mv	a3,a5
   1d92c:	00070663          	beqz	a4,1d938 <core_state_transition+0x25c>
   1d930:	00080793          	mv	a5,a6
   1d934:	fd1716e3          	bne	a4,a7,1d900 <core_state_transition+0x224>
   1d938:	00700713          	li	a4,7
   1d93c:	e11ff06f          	j	1d74c <core_state_transition+0x70>
   1d940:	00164703          	lbu	a4,1(a2)
   1d944:	00178693          	addi	a3,a5,1
   1d948:	00078613          	mv	a2,a5
   1d94c:	ea0706e3          	beqz	a4,1d7f8 <core_state_transition+0x11c>
   1d950:	00068793          	mv	a5,a3
   1d954:	dc671ce3          	bne	a4,t1,1d72c <core_state_transition+0x50>
   1d958:	00400713          	li	a4,4
   1d95c:	df1ff06f          	j	1d74c <core_state_transition+0x70>
   1d960:	0145a683          	lw	a3,20(a1)
   1d964:	00080793          	mv	a5,a6
   1d968:	00100713          	li	a4,1
   1d96c:	0016869b          	addiw	a3,a3,1
   1d970:	00d5aa23          	sw	a3,20(a1)
   1d974:	dd9ff06f          	j	1d74c <core_state_transition+0x70>
   1d978:	00d5a423          	sw	a3,8(a1)
   1d97c:	0027c703          	lbu	a4,2(a5)
   1d980:	06070463          	beqz	a4,1d9e8 <core_state_transition+0x30c>
   1d984:	02c00793          	li	a5,44
   1d988:	00160813          	addi	a6,a2,1
   1d98c:	02f70663          	beq	a4,a5,1d9b8 <core_state_transition+0x2dc>
   1d990:	00060793          	mv	a5,a2
   1d994:	e8dff06f          	j	1d820 <core_state_transition+0x144>
   1d998:	00060793          	mv	a5,a2
   1d99c:	00000713          	li	a4,0
   1d9a0:	dadff06f          	j	1d74c <core_state_transition+0x70>
   1d9a4:	0105a023          	sw	a6,0(a1)
   1d9a8:	0017c703          	lbu	a4,1(a5)
   1d9ac:	02070e63          	beqz	a4,1d9e8 <core_state_transition+0x30c>
   1d9b0:	00278813          	addi	a6,a5,2
   1d9b4:	fcd71ee3          	bne	a4,a3,1d990 <core_state_transition+0x2b4>
   1d9b8:	00080793          	mv	a5,a6
   1d9bc:	00500713          	li	a4,5
   1d9c0:	d8dff06f          	j	1d74c <core_state_transition+0x70>
   1d9c4:	00060793          	mv	a5,a2
   1d9c8:	00200713          	li	a4,2
   1d9cc:	d81ff06f          	j	1d74c <core_state_transition+0x70>
   1d9d0:	00080793          	mv	a5,a6
   1d9d4:	00300713          	li	a4,3
   1d9d8:	d75ff06f          	j	1d74c <core_state_transition+0x70>
   1d9dc:	00060793          	mv	a5,a2
   1d9e0:	00400713          	li	a4,4
   1d9e4:	d69ff06f          	j	1d74c <core_state_transition+0x70>
   1d9e8:	00060793          	mv	a5,a2
   1d9ec:	00500713          	li	a4,5
   1d9f0:	d5dff06f          	j	1d74c <core_state_transition+0x70>
   1d9f4:	00600713          	li	a4,6
   1d9f8:	d55ff06f          	j	1d74c <core_state_transition+0x70>
   1d9fc:	00068793          	mv	a5,a3
   1da00:	00600713          	li	a4,6
   1da04:	d49ff06f          	j	1d74c <core_state_transition+0x70>
   1da08:	00068793          	mv	a5,a3
   1da0c:	00700713          	li	a4,7
   1da10:	d3dff06f          	j	1d74c <core_state_transition+0x70>
   1da14:	00068793          	mv	a5,a3
   1da18:	00500713          	li	a4,5
   1da1c:	d31ff06f          	j	1d74c <core_state_transition+0x70>

000000000001da20 <core_bench_state>:
   1da20:	f5010113          	addi	sp,sp,-176
   1da24:	09413023          	sd	s4,128(sp)
   1da28:	07713423          	sd	s7,104(sp)
   1da2c:	05913c23          	sd	s9,88(sp)
   1da30:	05a13823          	sd	s10,80(sp)
   1da34:	00068b93          	mv	s7,a3
   1da38:	00060d13          	mv	s10,a2
   1da3c:	00070a13          	mv	s4,a4
   1da40:	00050c93          	mv	s9,a0
   1da44:	0001f537          	lui	a0,0x1f
   1da48:	00078713          	mv	a4,a5
   1da4c:	0a813023          	sd	s0,160(sp)
   1da50:	000a0693          	mv	a3,s4
   1da54:	00058413          	mv	s0,a1
   1da58:	000b8613          	mv	a2,s7
   1da5c:	000d0593          	mv	a1,s10
   1da60:	30050513          	addi	a0,a0,768 # 1f300 <errpat+0xca8>
   1da64:	08913c23          	sd	s1,152(sp)
   1da68:	09213823          	sd	s2,144(sp)
   1da6c:	09313423          	sd	s3,136(sp)
   1da70:	0a113423          	sd	ra,168(sp)
   1da74:	00078993          	mv	s3,a5
   1da78:	07513c23          	sd	s5,120(sp)
   1da7c:	07613823          	sd	s6,112(sp)
   1da80:	07813023          	sd	s8,96(sp)
   1da84:	01010493          	addi	s1,sp,16
   1da88:	00813423          	sd	s0,8(sp)
   1da8c:	5e8000ef          	jal	ra,1e074 <printf>
   1da90:	03010913          	addi	s2,sp,48
   1da94:	05010693          	addi	a3,sp,80
   1da98:	00048713          	mv	a4,s1
   1da9c:	03010793          	addi	a5,sp,48
   1daa0:	0007a023          	sw	zero,0(a5)
   1daa4:	00072023          	sw	zero,0(a4)
   1daa8:	00478793          	addi	a5,a5,4
   1daac:	00470713          	addi	a4,a4,4
   1dab0:	fed798e3          	bne	a5,a3,1daa0 <core_bench_state+0x80>
   1dab4:	00813783          	ld	a5,8(sp)
   1dab8:	0007c783          	lbu	a5,0(a5)
   1dabc:	04078663          	beqz	a5,1db08 <core_bench_state+0xe8>
   1dac0:	00810b13          	addi	s6,sp,8
   1dac4:	0001fab7          	lui	s5,0x1f
   1dac8:	03010593          	addi	a1,sp,48
   1dacc:	000b0513          	mv	a0,s6
   1dad0:	c0dff0ef          	jal	ra,1d6dc <core_state_transition>
   1dad4:	0005059b          	sext.w	a1,a0
   1dad8:	02059793          	slli	a5,a1,0x20
   1dadc:	05010713          	addi	a4,sp,80
   1dae0:	01e7d793          	srli	a5,a5,0x1e
   1dae4:	00f707b3          	add	a5,a4,a5
   1dae8:	fc07a703          	lw	a4,-64(a5)
   1daec:	320a8513          	addi	a0,s5,800 # 1f320 <errpat+0xcc8>
   1daf0:	0017071b          	addiw	a4,a4,1
   1daf4:	fce7a023          	sw	a4,-64(a5)
   1daf8:	57c000ef          	jal	ra,1e074 <printf>
   1dafc:	00813783          	ld	a5,8(sp)
   1db00:	0007c783          	lbu	a5,0(a5)
   1db04:	fc0792e3          	bnez	a5,1dac8 <core_bench_state+0xa8>
   1db08:	0001fc37          	lui	s8,0x1f
   1db0c:	020c9c93          	slli	s9,s9,0x20
   1db10:	110c0513          	addi	a0,s8,272 # 1f110 <errpat+0xab8>
   1db14:	020cdc93          	srli	s9,s9,0x20
   1db18:	55c000ef          	jal	ra,1e074 <printf>
   1db1c:	01940cb3          	add	s9,s0,s9
   1db20:	00813423          	sd	s0,8(sp)
   1db24:	11947c63          	bleu	s9,s0,1dc3c <core_bench_state+0x21c>
   1db28:	00040793          	mv	a5,s0
   1db2c:	02c00613          	li	a2,44
   1db30:	0007c703          	lbu	a4,0(a5)
   1db34:	01a746b3          	xor	a3,a4,s10
   1db38:	00c70463          	beq	a4,a2,1db40 <core_bench_state+0x120>
   1db3c:	00d78023          	sb	a3,0(a5)
   1db40:	00813783          	ld	a5,8(sp)
   1db44:	014787b3          	add	a5,a5,s4
   1db48:	00f13423          	sd	a5,8(sp)
   1db4c:	ff97e2e3          	bltu	a5,s9,1db30 <core_bench_state+0x110>
   1db50:	00044783          	lbu	a5,0(s0)
   1db54:	00813423          	sd	s0,8(sp)
   1db58:	0e078e63          	beqz	a5,1dc54 <core_bench_state+0x234>
   1db5c:	00810b13          	addi	s6,sp,8
   1db60:	0001fab7          	lui	s5,0x1f
   1db64:	03010593          	addi	a1,sp,48
   1db68:	000b0513          	mv	a0,s6
   1db6c:	b71ff0ef          	jal	ra,1d6dc <core_state_transition>
   1db70:	0005059b          	sext.w	a1,a0
   1db74:	02059793          	slli	a5,a1,0x20
   1db78:	05010713          	addi	a4,sp,80
   1db7c:	01e7d793          	srli	a5,a5,0x1e
   1db80:	00f707b3          	add	a5,a4,a5
   1db84:	fc07a703          	lw	a4,-64(a5)
   1db88:	320a8513          	addi	a0,s5,800 # 1f320 <errpat+0xcc8>
   1db8c:	0017071b          	addiw	a4,a4,1
   1db90:	fce7a023          	sw	a4,-64(a5)
   1db94:	4e0000ef          	jal	ra,1e074 <printf>
   1db98:	00813783          	ld	a5,8(sp)
   1db9c:	0007c783          	lbu	a5,0(a5)
   1dba0:	fc0792e3          	bnez	a5,1db64 <core_bench_state+0x144>
   1dba4:	110c0513          	addi	a0,s8,272
   1dba8:	4cc000ef          	jal	ra,1e074 <printf>
   1dbac:	00813423          	sd	s0,8(sp)
   1dbb0:	03947463          	bleu	s9,s0,1dbd8 <core_bench_state+0x1b8>
   1dbb4:	02c00693          	li	a3,44
   1dbb8:	00044783          	lbu	a5,0(s0)
   1dbbc:	0177c733          	xor	a4,a5,s7
   1dbc0:	00d78463          	beq	a5,a3,1dbc8 <core_bench_state+0x1a8>
   1dbc4:	00e40023          	sb	a4,0(s0)
   1dbc8:	00813403          	ld	s0,8(sp)
   1dbcc:	01440433          	add	s0,s0,s4
   1dbd0:	00813423          	sd	s0,8(sp)
   1dbd4:	ff9462e3          	bltu	s0,s9,1dbb8 <core_bench_state+0x198>
   1dbd8:	02048413          	addi	s0,s1,32
   1dbdc:	0004a503          	lw	a0,0(s1)
   1dbe0:	00098593          	mv	a1,s3
   1dbe4:	00448493          	addi	s1,s1,4
   1dbe8:	1b8000ef          	jal	ra,1dda0 <crcu32>
   1dbec:	00050593          	mv	a1,a0
   1dbf0:	00092503          	lw	a0,0(s2) # 1000 <coremarkBenchmark+0xf58>
   1dbf4:	00490913          	addi	s2,s2,4
   1dbf8:	1a8000ef          	jal	ra,1dda0 <crcu32>
   1dbfc:	00050993          	mv	s3,a0
   1dc00:	fc849ee3          	bne	s1,s0,1dbdc <core_bench_state+0x1bc>
   1dc04:	0a813083          	ld	ra,168(sp)
   1dc08:	0a013403          	ld	s0,160(sp)
   1dc0c:	09813483          	ld	s1,152(sp)
   1dc10:	09013903          	ld	s2,144(sp)
   1dc14:	08813983          	ld	s3,136(sp)
   1dc18:	08013a03          	ld	s4,128(sp)
   1dc1c:	07813a83          	ld	s5,120(sp)
   1dc20:	07013b03          	ld	s6,112(sp)
   1dc24:	06813b83          	ld	s7,104(sp)
   1dc28:	06013c03          	ld	s8,96(sp)
   1dc2c:	05813c83          	ld	s9,88(sp)
   1dc30:	05013d03          	ld	s10,80(sp)
   1dc34:	0b010113          	addi	sp,sp,176
   1dc38:	00008067          	ret
   1dc3c:	00044783          	lbu	a5,0(s0)
   1dc40:	f0079ee3          	bnez	a5,1db5c <core_bench_state+0x13c>
   1dc44:	110c0513          	addi	a0,s8,272
   1dc48:	42c000ef          	jal	ra,1e074 <printf>
   1dc4c:	00813423          	sd	s0,8(sp)
   1dc50:	f89ff06f          	j	1dbd8 <core_bench_state+0x1b8>
   1dc54:	110c0513          	addi	a0,s8,272
   1dc58:	41c000ef          	jal	ra,1e074 <printf>
   1dc5c:	00813423          	sd	s0,8(sp)
   1dc60:	f55ff06f          	j	1dbb4 <core_bench_state+0x194>

000000000001dc64 <get_seed_32>:
   1dc64:	00500793          	li	a5,5
   1dc68:	06a7e863          	bltu	a5,a0,1dcd8 <get_seed_32+0x74>
   1dc6c:	02051513          	slli	a0,a0,0x20
   1dc70:	0001e7b7          	lui	a5,0x1e
   1dc74:	67878793          	addi	a5,a5,1656 # 1e678 <errpat+0x20>
   1dc78:	01e55513          	srli	a0,a0,0x1e
   1dc7c:	00f50533          	add	a0,a0,a5
   1dc80:	00052783          	lw	a5,0(a0)
   1dc84:	00078067          	jr	a5
   1dc88:	000227b7          	lui	a5,0x22
   1dc8c:	2a87a503          	lw	a0,680(a5) # 222a8 <seed5_volatile>
   1dc90:	0005051b          	sext.w	a0,a0
   1dc94:	00008067          	ret
   1dc98:	000227b7          	lui	a5,0x22
   1dc9c:	2b47a503          	lw	a0,692(a5) # 222b4 <seed1_volatile>
   1dca0:	0005051b          	sext.w	a0,a0
   1dca4:	00008067          	ret
   1dca8:	000227b7          	lui	a5,0x22
   1dcac:	2b07a503          	lw	a0,688(a5) # 222b0 <seed2_volatile>
   1dcb0:	0005051b          	sext.w	a0,a0
   1dcb4:	00008067          	ret
   1dcb8:	0001f7b7          	lui	a5,0x1f
   1dcbc:	65c7a503          	lw	a0,1628(a5) # 1f65c <seed3_volatile>
   1dcc0:	0005051b          	sext.w	a0,a0
   1dcc4:	00008067          	ret
   1dcc8:	000227b7          	lui	a5,0x22
   1dccc:	2ac7a503          	lw	a0,684(a5) # 222ac <seed4_volatile>
   1dcd0:	0005051b          	sext.w	a0,a0
   1dcd4:	00008067          	ret
   1dcd8:	00000513          	li	a0,0
   1dcdc:	00008067          	ret

000000000001dce0 <crcu8>:
   1dce0:	ffffa637          	lui	a2,0xffffa
   1dce4:	00800793          	li	a5,8
   1dce8:	00160613          	addi	a2,a2,1 # ffffffffffffa001 <heap_memory_used+0xfffffffffffd7d49>
   1dcec:	00a5c733          	xor	a4,a1,a0
   1dcf0:	fff7879b          	addiw	a5,a5,-1
   1dcf4:	0015d593          	srli	a1,a1,0x1
   1dcf8:	00177713          	andi	a4,a4,1
   1dcfc:	0ff7f793          	andi	a5,a5,255
   1dd00:	00c5c6b3          	xor	a3,a1,a2
   1dd04:	00155513          	srli	a0,a0,0x1
   1dd08:	00070663          	beqz	a4,1dd14 <crcu8+0x34>
   1dd0c:	03069593          	slli	a1,a3,0x30
   1dd10:	0305d593          	srli	a1,a1,0x30
   1dd14:	fc079ce3          	bnez	a5,1dcec <crcu8+0xc>
   1dd18:	00058513          	mv	a0,a1
   1dd1c:	00008067          	ret

000000000001dd20 <crcu16>:
   1dd20:	ffffa837          	lui	a6,0xffffa
   1dd24:	0ff57693          	andi	a3,a0,255
   1dd28:	00800793          	li	a5,8
   1dd2c:	00180813          	addi	a6,a6,1 # ffffffffffffa001 <heap_memory_used+0xfffffffffffd7d49>
   1dd30:	00d5c733          	xor	a4,a1,a3
   1dd34:	fff7879b          	addiw	a5,a5,-1
   1dd38:	0015d593          	srli	a1,a1,0x1
   1dd3c:	00177713          	andi	a4,a4,1
   1dd40:	0ff7f793          	andi	a5,a5,255
   1dd44:	0105c633          	xor	a2,a1,a6
   1dd48:	0016d693          	srli	a3,a3,0x1
   1dd4c:	00070663          	beqz	a4,1dd58 <crcu16+0x38>
   1dd50:	03061593          	slli	a1,a2,0x30
   1dd54:	0305d593          	srli	a1,a1,0x30
   1dd58:	fc079ce3          	bnez	a5,1dd30 <crcu16+0x10>
   1dd5c:	ffffa637          	lui	a2,0xffffa
   1dd60:	00855513          	srli	a0,a0,0x8
   1dd64:	00800793          	li	a5,8
   1dd68:	00160613          	addi	a2,a2,1 # ffffffffffffa001 <heap_memory_used+0xfffffffffffd7d49>
   1dd6c:	00a5c733          	xor	a4,a1,a0
   1dd70:	fff7879b          	addiw	a5,a5,-1
   1dd74:	0015d593          	srli	a1,a1,0x1
   1dd78:	00177713          	andi	a4,a4,1
   1dd7c:	0ff7f793          	andi	a5,a5,255
   1dd80:	00c5c6b3          	xor	a3,a1,a2
   1dd84:	00155513          	srli	a0,a0,0x1
   1dd88:	00070663          	beqz	a4,1dd94 <crcu16+0x74>
   1dd8c:	03069593          	slli	a1,a3,0x30
   1dd90:	0305d593          	srli	a1,a1,0x30
   1dd94:	fc079ce3          	bnez	a5,1dd6c <crcu16+0x4c>
   1dd98:	00058513          	mv	a0,a1
   1dd9c:	00008067          	ret

000000000001dda0 <crcu32>:
   1dda0:	ff010113          	addi	sp,sp,-16
   1dda4:	00813023          	sd	s0,0(sp)
   1dda8:	00050413          	mv	s0,a0
   1ddac:	03051513          	slli	a0,a0,0x30
   1ddb0:	03055513          	srli	a0,a0,0x30
   1ddb4:	00113423          	sd	ra,8(sp)
   1ddb8:	0104541b          	srliw	s0,s0,0x10
   1ddbc:	f65ff0ef          	jal	ra,1dd20 <crcu16>
   1ddc0:	00050593          	mv	a1,a0
   1ddc4:	03041513          	slli	a0,s0,0x30
   1ddc8:	00013403          	ld	s0,0(sp)
   1ddcc:	00813083          	ld	ra,8(sp)
   1ddd0:	03055513          	srli	a0,a0,0x30
   1ddd4:	01010113          	addi	sp,sp,16
   1ddd8:	f49ff06f          	j	1dd20 <crcu16>

000000000001dddc <crc16>:
   1dddc:	03051513          	slli	a0,a0,0x30
   1dde0:	03055513          	srli	a0,a0,0x30
   1dde4:	f3dff06f          	j	1dd20 <crcu16>

000000000001dde8 <check_data_types>:
   1dde8:	0001f537          	lui	a0,0x1f
   1ddec:	ff010113          	addi	sp,sp,-16
   1ddf0:	40850513          	addi	a0,a0,1032 # 1f408 <errpat+0xdb0>
   1ddf4:	00113423          	sd	ra,8(sp)
   1ddf8:	27c000ef          	jal	ra,1e074 <printf>
   1ddfc:	0001f537          	lui	a0,0x1f
   1de00:	44850513          	addi	a0,a0,1096 # 1f448 <errpat+0xdf0>
   1de04:	270000ef          	jal	ra,1e074 <printf>
   1de08:	00813083          	ld	ra,8(sp)
   1de0c:	00100513          	li	a0,1
   1de10:	01010113          	addi	sp,sp,16
   1de14:	00008067          	ret

000000000001de18 <risvISATestStartMsg>:
   1de18:	0001f537          	lui	a0,0x1f
   1de1c:	48050513          	addi	a0,a0,1152 # 1f480 <errpat+0xe28>
   1de20:	2540006f          	j	1e074 <printf>

000000000001de24 <risvDhrystoneStartMsg>:
   1de24:	0001f537          	lui	a0,0x1f
   1de28:	4d050513          	addi	a0,a0,1232 # 1f4d0 <errpat+0xe78>
   1de2c:	2480006f          	j	1e074 <printf>

000000000001de30 <risvCoremarkStartMsg>:
   1de30:	0001f537          	lui	a0,0x1f
   1de34:	52050513          	addi	a0,a0,1312 # 1f520 <errpat+0xec8>
   1de38:	23c0006f          	j	1e074 <printf>

000000000001de3c <pgr_exit>:
   1de3c:	0001f537          	lui	a0,0x1f
   1de40:	ff010113          	addi	sp,sp,-16
   1de44:	57050513          	addi	a0,a0,1392 # 1f570 <errpat+0xf18>
   1de48:	00113423          	sd	ra,8(sp)
   1de4c:	228000ef          	jal	ra,1e074 <printf>
   1de50:	0000006f          	j	1de50 <pgr_exit+0x14>

000000000001de54 <init>:
   1de54:	a30e206f          	j	84 <isaTest>

000000000001de58 <time>:
   1de58:	c0002573          	rdcycle	a0
   1de5c:	00008067          	ret

000000000001de60 <insn>:
   1de60:	c0202573          	rdinstret	a0
   1de64:	00008067          	ret

000000000001de68 <enableIntr>:
   1de68:	300467f3          	csrrsi	a5,mstatus,8
   1de6c:	00008067          	ret

000000000001de70 <enableExternalIntr>:
   1de70:	000017b7          	lui	a5,0x1
   1de74:	8007879b          	addiw	a5,a5,-2048
   1de78:	3047a7f3          	csrrs	a5,mie,a5
   1de7c:	300467f3          	csrrsi	a5,mstatus,8
   1de80:	00008067          	ret

000000000001de84 <enableTimerIntr>:
   1de84:	08000793          	li	a5,128
   1de88:	3047a7f3          	csrrs	a5,mie,a5
   1de8c:	300467f3          	csrrsi	a5,mstatus,8
   1de90:	00008067          	ret

000000000001de94 <disableIntr>:
   1de94:	300477f3          	csrrci	a5,mstatus,8
   1de98:	00008067          	ret

000000000001de9c <disableExternalIntr>:
   1de9c:	000017b7          	lui	a5,0x1
   1dea0:	8007879b          	addiw	a5,a5,-2048
   1dea4:	3047b7f3          	csrrc	a5,mie,a5
   1dea8:	00008067          	ret

000000000001deac <disableTimerIntr>:
   1deac:	08000793          	li	a5,128
   1deb0:	3047b7f3          	csrrc	a5,mie,a5
   1deb4:	00008067          	ret

000000000001deb8 <readMtime>:
   1deb8:	100007b7          	lui	a5,0x10000
   1debc:	0047a503          	lw	a0,4(a5) # 10000004 <heap_memory_used+0xffddd4c>
   1dec0:	00008067          	ret

000000000001dec4 <readMtimeCmp>:
   1dec4:	100007b7          	lui	a5,0x10000
   1dec8:	00c7a503          	lw	a0,12(a5) # 1000000c <heap_memory_used+0xffddd54>
   1decc:	00008067          	ret

000000000001ded0 <writeMtimeCmp>:
   1ded0:	100007b7          	lui	a5,0x10000
   1ded4:	00a7a623          	sw	a0,12(a5) # 1000000c <heap_memory_used+0xffddd54>
   1ded8:	00008067          	ret

000000000001dedc <malloc>:
   1dedc:	00022737          	lui	a4,0x22
   1dee0:	2b872783          	lw	a5,696(a4) # 222b8 <heap_memory_used>
   1dee4:	00f506bb          	addw	a3,a0,a5
   1dee8:	00022537          	lui	a0,0x22
   1deec:	2ad72c23          	sw	a3,696(a4)
   1def0:	e9050513          	addi	a0,a0,-368 # 21e90 <heap_memory>
   1def4:	40000713          	li	a4,1024
   1def8:	00a78533          	add	a0,a5,a0
   1defc:	00d75463          	ble	a3,a4,1df04 <malloc+0x28>
   1df00:	00100073          	ebreak
   1df04:	00008067          	ret

000000000001df08 <printf_c>:
   1df08:	38000737          	lui	a4,0x38000
   1df0c:	40b70713          	addi	a4,a4,1035 # 3800040b <heap_memory_used+0x37fde153>
   1df10:	00271713          	slli	a4,a4,0x2
   1df14:	00072783          	lw	a5,0(a4)
   1df18:	0107f793          	andi	a5,a5,16
   1df1c:	fe079ce3          	bnez	a5,1df14 <printf_c+0xc>
   1df20:	0e0007b7          	lui	a5,0xe000
   1df24:	10378793          	addi	a5,a5,259 # e000103 <heap_memory_used+0xdfdde4b>
   1df28:	00479793          	slli	a5,a5,0x4
   1df2c:	00a7a023          	sw	a0,0(a5)
   1df30:	00008067          	ret

000000000001df34 <printf_s>:
   1df34:	00054783          	lbu	a5,0(a0)
   1df38:	02078e63          	beqz	a5,1df74 <printf_s+0x40>
   1df3c:	38000737          	lui	a4,0x38000
   1df40:	0e000637          	lui	a2,0xe000
   1df44:	40b70713          	addi	a4,a4,1035 # 3800040b <heap_memory_used+0x37fde153>
   1df48:	10360613          	addi	a2,a2,259 # e000103 <heap_memory_used+0xdfdde4b>
   1df4c:	00271713          	slli	a4,a4,0x2
   1df50:	00461613          	slli	a2,a2,0x4
   1df54:	00150513          	addi	a0,a0,1
   1df58:	0007869b          	sext.w	a3,a5
   1df5c:	00072783          	lw	a5,0(a4)
   1df60:	0107f793          	andi	a5,a5,16
   1df64:	fe079ce3          	bnez	a5,1df5c <printf_s+0x28>
   1df68:	00d62023          	sw	a3,0(a2)
   1df6c:	00054783          	lbu	a5,0(a0)
   1df70:	fe0792e3          	bnez	a5,1df54 <printf_s+0x20>
   1df74:	00008067          	ret

000000000001df78 <printf_d>:
   1df78:	fe010113          	addi	sp,sp,-32
   1df7c:	06054663          	bltz	a0,1dfe8 <printf_d+0x70>
   1df80:	00010613          	mv	a2,sp
   1df84:	00060713          	mv	a4,a2
   1df88:	00a00693          	li	a3,10
   1df8c:	00051463          	bnez	a0,1df94 <printf_d+0x1c>
   1df90:	00c71e63          	bne	a4,a2,1dfac <printf_d+0x34>
   1df94:	02d567bb          	remw	a5,a0,a3
   1df98:	00170713          	addi	a4,a4,1
   1df9c:	0307879b          	addiw	a5,a5,48
   1dfa0:	02d5453b          	divw	a0,a0,a3
   1dfa4:	fef70fa3          	sb	a5,-1(a4)
   1dfa8:	fe5ff06f          	j	1df8c <printf_d+0x14>
   1dfac:	380006b7          	lui	a3,0x38000
   1dfb0:	0e000537          	lui	a0,0xe000
   1dfb4:	40b68693          	addi	a3,a3,1035 # 3800040b <heap_memory_used+0x37fde153>
   1dfb8:	10350513          	addi	a0,a0,259 # e000103 <heap_memory_used+0xdfdde4b>
   1dfbc:	00269693          	slli	a3,a3,0x2
   1dfc0:	00451513          	slli	a0,a0,0x4
   1dfc4:	fff70713          	addi	a4,a4,-1
   1dfc8:	00074583          	lbu	a1,0(a4)
   1dfcc:	0006a783          	lw	a5,0(a3)
   1dfd0:	0107f793          	andi	a5,a5,16
   1dfd4:	fe079ce3          	bnez	a5,1dfcc <printf_d+0x54>
   1dfd8:	00b52023          	sw	a1,0(a0)
   1dfdc:	fec714e3          	bne	a4,a2,1dfc4 <printf_d+0x4c>
   1dfe0:	02010113          	addi	sp,sp,32
   1dfe4:	00008067          	ret
   1dfe8:	38000737          	lui	a4,0x38000
   1dfec:	40b70713          	addi	a4,a4,1035 # 3800040b <heap_memory_used+0x37fde153>
   1dff0:	00271713          	slli	a4,a4,0x2
   1dff4:	00072783          	lw	a5,0(a4)
   1dff8:	0107f793          	andi	a5,a5,16
   1dffc:	fe079ce3          	bnez	a5,1dff4 <printf_d+0x7c>
   1e000:	0e0007b7          	lui	a5,0xe000
   1e004:	10378793          	addi	a5,a5,259 # e000103 <heap_memory_used+0xdfdde4b>
   1e008:	00479793          	slli	a5,a5,0x4
   1e00c:	02d00713          	li	a4,45
   1e010:	40a0053b          	negw	a0,a0
   1e014:	00e7a023          	sw	a4,0(a5)
   1e018:	f69ff06f          	j	1df80 <printf_d+0x8>

000000000001e01c <printf_h>:
   1e01c:	fff5859b          	addiw	a1,a1,-1
   1e020:	0025959b          	slliw	a1,a1,0x2
   1e024:	0405c663          	bltz	a1,1e070 <printf_h+0x54>
   1e028:	38000737          	lui	a4,0x38000
   1e02c:	0e000637          	lui	a2,0xe000
   1e030:	0001f837          	lui	a6,0x1f
   1e034:	40b70713          	addi	a4,a4,1035 # 3800040b <heap_memory_used+0x37fde153>
   1e038:	10360613          	addi	a2,a2,259 # e000103 <heap_memory_used+0xdfdde4b>
   1e03c:	5b880813          	addi	a6,a6,1464 # 1f5b8 <errpat+0xf60>
   1e040:	00271713          	slli	a4,a4,0x2
   1e044:	00461613          	slli	a2,a2,0x4
   1e048:	00b557bb          	srlw	a5,a0,a1
   1e04c:	00f7f793          	andi	a5,a5,15
   1e050:	00f807b3          	add	a5,a6,a5
   1e054:	0007c683          	lbu	a3,0(a5)
   1e058:	00072783          	lw	a5,0(a4)
   1e05c:	0107f793          	andi	a5,a5,16
   1e060:	fe079ce3          	bnez	a5,1e058 <printf_h+0x3c>
   1e064:	00d62023          	sw	a3,0(a2)
   1e068:	ffc5859b          	addiw	a1,a1,-4
   1e06c:	fc05dee3          	bgez	a1,1e048 <printf_h+0x2c>
   1e070:	00008067          	ret

000000000001e074 <printf>:
   1e074:	f8010113          	addi	sp,sp,-128
   1e078:	02113c23          	sd	ra,56(sp)
   1e07c:	02813823          	sd	s0,48(sp)
   1e080:	02913423          	sd	s1,40(sp)
   1e084:	03213023          	sd	s2,32(sp)
   1e088:	01313c23          	sd	s3,24(sp)
   1e08c:	01413823          	sd	s4,16(sp)
   1e090:	00054303          	lbu	t1,0(a0)
   1e094:	06f13423          	sd	a5,104(sp)
   1e098:	04810793          	addi	a5,sp,72
   1e09c:	04b13423          	sd	a1,72(sp)
   1e0a0:	04c13823          	sd	a2,80(sp)
   1e0a4:	04d13c23          	sd	a3,88(sp)
   1e0a8:	06e13023          	sd	a4,96(sp)
   1e0ac:	07013823          	sd	a6,112(sp)
   1e0b0:	07113c23          	sd	a7,120(sp)
   1e0b4:	00f13423          	sd	a5,8(sp)
   1e0b8:	04030c63          	beqz	t1,1e110 <printf+0x9c>
   1e0bc:	380004b7          	lui	s1,0x38000
   1e0c0:	0e0009b7          	lui	s3,0xe000
   1e0c4:	40b48493          	addi	s1,s1,1035 # 3800040b <heap_memory_used+0x37fde153>
   1e0c8:	10398993          	addi	s3,s3,259 # e000103 <heap_memory_used+0xdfdde4b>
   1e0cc:	0001fa37          	lui	s4,0x1f
   1e0d0:	00050913          	mv	s2,a0
   1e0d4:	00000413          	li	s0,0
   1e0d8:	00249493          	slli	s1,s1,0x2
   1e0dc:	00499993          	slli	s3,s3,0x4
   1e0e0:	5b8a0a13          	addi	s4,s4,1464 # 1f5b8 <errpat+0xf60>
   1e0e4:	02500793          	li	a5,37
   1e0e8:	04f30463          	beq	t1,a5,1e130 <printf+0xbc>
   1e0ec:	0003031b          	sext.w	t1,t1
   1e0f0:	0004a783          	lw	a5,0(s1)
   1e0f4:	0107f793          	andi	a5,a5,16
   1e0f8:	fe079ce3          	bnez	a5,1e0f0 <printf+0x7c>
   1e0fc:	0069a023          	sw	t1,0(s3)
   1e100:	0014041b          	addiw	s0,s0,1
   1e104:	008907b3          	add	a5,s2,s0
   1e108:	0007c303          	lbu	t1,0(a5)
   1e10c:	fc031ce3          	bnez	t1,1e0e4 <printf+0x70>
   1e110:	03813083          	ld	ra,56(sp)
   1e114:	03013403          	ld	s0,48(sp)
   1e118:	02813483          	ld	s1,40(sp)
   1e11c:	02013903          	ld	s2,32(sp)
   1e120:	01813983          	ld	s3,24(sp)
   1e124:	01013a03          	ld	s4,16(sp)
   1e128:	08010113          	addi	sp,sp,128
   1e12c:	00008067          	ret
   1e130:	00140713          	addi	a4,s0,1
   1e134:	00e90733          	add	a4,s2,a4
   1e138:	00040313          	mv	t1,s0
   1e13c:	06300693          	li	a3,99
   1e140:	07300593          	li	a1,115
   1e144:	06400513          	li	a0,100
   1e148:	07500813          	li	a6,117
   1e14c:	06c00893          	li	a7,108
   1e150:	03000e13          	li	t3,48
   1e154:	0200006f          	j	1e174 <printf+0x100>
   1e158:	06b78663          	beq	a5,a1,1e1c4 <printf+0x150>
   1e15c:	04a78863          	beq	a5,a0,1e1ac <printf+0x138>
   1e160:	05078663          	beq	a5,a6,1e1ac <printf+0x138>
   1e164:	09178e63          	beq	a5,a7,1e200 <printf+0x18c>
   1e168:	00170713          	addi	a4,a4,1
   1e16c:	0bc78e63          	beq	a5,t3,1e228 <printf+0x1b4>
   1e170:	00040313          	mv	t1,s0
   1e174:	00074783          	lbu	a5,0(a4)
   1e178:	0014041b          	addiw	s0,s0,1
   1e17c:	41270633          	sub	a2,a4,s2
   1e180:	f80780e3          	beqz	a5,1e100 <printf+0x8c>
   1e184:	fcd79ae3          	bne	a5,a3,1e158 <printf+0xe4>
   1e188:	00813783          	ld	a5,8(sp)
   1e18c:	0007a703          	lw	a4,0(a5)
   1e190:	00878793          	addi	a5,a5,8
   1e194:	00f13423          	sd	a5,8(sp)
   1e198:	0004a783          	lw	a5,0(s1)
   1e19c:	0107f793          	andi	a5,a5,16
   1e1a0:	fe079ce3          	bnez	a5,1e198 <printf+0x124>
   1e1a4:	00e9a023          	sw	a4,0(s3)
   1e1a8:	f59ff06f          	j	1e100 <printf+0x8c>
   1e1ac:	00813783          	ld	a5,8(sp)
   1e1b0:	0007a503          	lw	a0,0(a5)
   1e1b4:	00878793          	addi	a5,a5,8
   1e1b8:	00f13423          	sd	a5,8(sp)
   1e1bc:	dbdff0ef          	jal	ra,1df78 <printf_d>
   1e1c0:	f41ff06f          	j	1e100 <printf+0x8c>
   1e1c4:	00813783          	ld	a5,8(sp)
   1e1c8:	0007b683          	ld	a3,0(a5)
   1e1cc:	00878793          	addi	a5,a5,8
   1e1d0:	00f13423          	sd	a5,8(sp)
   1e1d4:	0006c783          	lbu	a5,0(a3)
   1e1d8:	f20784e3          	beqz	a5,1e100 <printf+0x8c>
   1e1dc:	00168693          	addi	a3,a3,1
   1e1e0:	0007871b          	sext.w	a4,a5
   1e1e4:	0004a783          	lw	a5,0(s1)
   1e1e8:	0107f793          	andi	a5,a5,16
   1e1ec:	fe079ce3          	bnez	a5,1e1e4 <printf+0x170>
   1e1f0:	00e9a023          	sw	a4,0(s3)
   1e1f4:	0006c783          	lbu	a5,0(a3)
   1e1f8:	fe0792e3          	bnez	a5,1e1dc <printf+0x168>
   1e1fc:	f05ff06f          	j	1e100 <printf+0x8c>
   1e200:	00813783          	ld	a5,8(sp)
   1e204:	00c90633          	add	a2,s2,a2
   1e208:	00164683          	lbu	a3,1(a2)
   1e20c:	0007b503          	ld	a0,0(a5)
   1e210:	00878713          	addi	a4,a5,8
   1e214:	0005051b          	sext.w	a0,a0
   1e218:	07068263          	beq	a3,a6,1e27c <printf+0x208>
   1e21c:	00e13423          	sd	a4,8(sp)
   1e220:	d59ff0ef          	jal	ra,1df78 <printf_d>
   1e224:	eddff06f          	j	1e100 <printf+0x8c>
   1e228:	00c90633          	add	a2,s2,a2
   1e22c:	00813783          	ld	a5,8(sp)
   1e230:	00164703          	lbu	a4,1(a2)
   1e234:	00878693          	addi	a3,a5,8
   1e238:	fcf7071b          	addiw	a4,a4,-49
   1e23c:	00d13423          	sd	a3,8(sp)
   1e240:	0027171b          	slliw	a4,a4,0x2
   1e244:	0007a603          	lw	a2,0(a5)
   1e248:	02074663          	bltz	a4,1e274 <printf+0x200>
   1e24c:	00e657bb          	srlw	a5,a2,a4
   1e250:	00f7f793          	andi	a5,a5,15
   1e254:	00fa07b3          	add	a5,s4,a5
   1e258:	0007c683          	lbu	a3,0(a5)
   1e25c:	0004a783          	lw	a5,0(s1)
   1e260:	0107f793          	andi	a5,a5,16
   1e264:	fe079ce3          	bnez	a5,1e25c <printf+0x1e8>
   1e268:	00d9a023          	sw	a3,0(s3)
   1e26c:	ffc7071b          	addiw	a4,a4,-4
   1e270:	fc075ee3          	bgez	a4,1e24c <printf+0x1d8>
   1e274:	0033041b          	addiw	s0,t1,3
   1e278:	e89ff06f          	j	1e100 <printf+0x8c>
   1e27c:	0023041b          	addiw	s0,t1,2
   1e280:	00e13423          	sd	a4,8(sp)
   1e284:	cf5ff0ef          	jal	ra,1df78 <printf_d>
   1e288:	e79ff06f          	j	1e100 <printf+0x8c>

000000000001e28c <scanf_c>:
   1e28c:	38000737          	lui	a4,0x38000
   1e290:	40b70713          	addi	a4,a4,1035 # 3800040b <heap_memory_used+0x37fde153>
   1e294:	ff010113          	addi	sp,sp,-16
   1e298:	00271713          	slli	a4,a4,0x2
   1e29c:	00072783          	lw	a5,0(a4)
   1e2a0:	0027f793          	andi	a5,a5,2
   1e2a4:	fe079ce3          	bnez	a5,1e29c <scanf_c+0x10>
   1e2a8:	0e0007b7          	lui	a5,0xe000
   1e2ac:	10378793          	addi	a5,a5,259 # e000103 <heap_memory_used+0xdfdde4b>
   1e2b0:	00479793          	slli	a5,a5,0x4
   1e2b4:	0007c783          	lbu	a5,0(a5)
   1e2b8:	38000737          	lui	a4,0x38000
   1e2bc:	40b70713          	addi	a4,a4,1035 # 3800040b <heap_memory_used+0x37fde153>
   1e2c0:	00f107a3          	sb	a5,15(sp)
   1e2c4:	00f14683          	lbu	a3,15(sp)
   1e2c8:	00271713          	slli	a4,a4,0x2
   1e2cc:	00072783          	lw	a5,0(a4)
   1e2d0:	0107f793          	andi	a5,a5,16
   1e2d4:	fe079ce3          	bnez	a5,1e2cc <scanf_c+0x40>
   1e2d8:	0e0007b7          	lui	a5,0xe000
   1e2dc:	10378793          	addi	a5,a5,259 # e000103 <heap_memory_used+0xdfdde4b>
   1e2e0:	00479793          	slli	a5,a5,0x4
   1e2e4:	00d7a023          	sw	a3,0(a5)
   1e2e8:	00f14503          	lbu	a0,15(sp)
   1e2ec:	01010113          	addi	sp,sp,16
   1e2f0:	00008067          	ret

000000000001e2f4 <scanf>:
   1e2f4:	38000737          	lui	a4,0x38000
   1e2f8:	40b70713          	addi	a4,a4,1035 # 3800040b <heap_memory_used+0x37fde153>
   1e2fc:	ff010113          	addi	sp,sp,-16
   1e300:	00271713          	slli	a4,a4,0x2
   1e304:	00072783          	lw	a5,0(a4)
   1e308:	0027f793          	andi	a5,a5,2
   1e30c:	fe079ce3          	bnez	a5,1e304 <scanf+0x10>
   1e310:	0e0007b7          	lui	a5,0xe000
   1e314:	10378793          	addi	a5,a5,259 # e000103 <heap_memory_used+0xdfdde4b>
   1e318:	00479793          	slli	a5,a5,0x4
   1e31c:	0007c783          	lbu	a5,0(a5)
   1e320:	38000737          	lui	a4,0x38000
   1e324:	40b70713          	addi	a4,a4,1035 # 3800040b <heap_memory_used+0x37fde153>
   1e328:	00f107a3          	sb	a5,15(sp)
   1e32c:	00f14683          	lbu	a3,15(sp)
   1e330:	00271713          	slli	a4,a4,0x2
   1e334:	00072783          	lw	a5,0(a4)
   1e338:	0107f793          	andi	a5,a5,16
   1e33c:	fe079ce3          	bnez	a5,1e334 <scanf+0x40>
   1e340:	0e0007b7          	lui	a5,0xe000
   1e344:	10378793          	addi	a5,a5,259 # e000103 <heap_memory_used+0xdfdde4b>
   1e348:	00479793          	slli	a5,a5,0x4
   1e34c:	00d7a023          	sw	a3,0(a5)
   1e350:	00f14783          	lbu	a5,15(sp)
   1e354:	06e00713          	li	a4,110
   1e358:	0ff7f793          	andi	a5,a5,255
   1e35c:	00f10723          	sb	a5,14(sp)
   1e360:	00e14783          	lbu	a5,14(sp)
   1e364:	00f70863          	beq	a4,a5,1e374 <scanf+0x80>
   1e368:	00e14783          	lbu	a5,14(sp)
   1e36c:	00e14783          	lbu	a5,14(sp)
   1e370:	fef71ce3          	bne	a4,a5,1e368 <scanf+0x74>
   1e374:	0001f537          	lui	a0,0x1f
   1e378:	2d050513          	addi	a0,a0,720 # 1f2d0 <errpat+0xc78>
   1e37c:	01010113          	addi	sp,sp,16
   1e380:	00008067          	ret

000000000001e384 <memcpy>:
   1e384:	02060063          	beqz	a2,1e3a4 <memcpy+0x20>
   1e388:	00c50633          	add	a2,a0,a2
   1e38c:	00050793          	mv	a5,a0
   1e390:	00158593          	addi	a1,a1,1
   1e394:	fff5c703          	lbu	a4,-1(a1)
   1e398:	00178793          	addi	a5,a5,1
   1e39c:	fee78fa3          	sb	a4,-1(a5)
   1e3a0:	fef618e3          	bne	a2,a5,1e390 <memcpy+0xc>
   1e3a4:	00008067          	ret

000000000001e3a8 <strcpy>:
   1e3a8:	00050793          	mv	a5,a0
   1e3ac:	0180006f          	j	1e3c4 <strcpy+0x1c>
   1e3b0:	00158593          	addi	a1,a1,1
   1e3b4:	fff5c703          	lbu	a4,-1(a1)
   1e3b8:	00178793          	addi	a5,a5,1
   1e3bc:	fee78fa3          	sb	a4,-1(a5)
   1e3c0:	0a070c63          	beqz	a4,1e478 <strcpy+0xd0>
   1e3c4:	00b7e733          	or	a4,a5,a1
   1e3c8:	00377713          	andi	a4,a4,3
   1e3cc:	fe0712e3          	bnez	a4,1e3b0 <strcpy+0x8>
   1e3d0:	0005a683          	lw	a3,0(a1)
   1e3d4:	feff08b7          	lui	a7,0xfeff0
   1e3d8:	eff88893          	addi	a7,a7,-257 # fffffffffefefeff <heap_memory_used+0xfffffffffefcdc47>
   1e3dc:	fff6c713          	not	a4,a3
   1e3e0:	02069613          	slli	a2,a3,0x20
   1e3e4:	02065613          	srli	a2,a2,0x20
   1e3e8:	02071713          	slli	a4,a4,0x20
   1e3ec:	10101837          	lui	a6,0x10101
   1e3f0:	02075713          	srli	a4,a4,0x20
   1e3f4:	01160633          	add	a2,a2,a7
   1e3f8:	00381813          	slli	a6,a6,0x3
   1e3fc:	08080813          	addi	a6,a6,128 # 10101080 <heap_memory_used+0x100dedc8>
   1e400:	00c77733          	and	a4,a4,a2
   1e404:	01077733          	and	a4,a4,a6
   1e408:	02071c63          	bnez	a4,1e440 <strcpy+0x98>
   1e40c:	00d7a023          	sw	a3,0(a5)
   1e410:	00458593          	addi	a1,a1,4
   1e414:	0005a683          	lw	a3,0(a1)
   1e418:	00478793          	addi	a5,a5,4
   1e41c:	02069713          	slli	a4,a3,0x20
   1e420:	fff6c613          	not	a2,a3
   1e424:	02075713          	srli	a4,a4,0x20
   1e428:	02061613          	slli	a2,a2,0x20
   1e42c:	01170733          	add	a4,a4,a7
   1e430:	02065613          	srli	a2,a2,0x20
   1e434:	00c77733          	and	a4,a4,a2
   1e438:	01077733          	and	a4,a4,a6
   1e43c:	fc0708e3          	beqz	a4,1e40c <strcpy+0x64>
   1e440:	00d78023          	sb	a3,0(a5)
   1e444:	0ff6f713          	andi	a4,a3,255
   1e448:	02070863          	beqz	a4,1e478 <strcpy+0xd0>
   1e44c:	0086d71b          	srliw	a4,a3,0x8
   1e450:	00e780a3          	sb	a4,1(a5)
   1e454:	0ff77713          	andi	a4,a4,255
   1e458:	02070063          	beqz	a4,1e478 <strcpy+0xd0>
   1e45c:	0106d71b          	srliw	a4,a3,0x10
   1e460:	00e78123          	sb	a4,2(a5)
   1e464:	0ff77713          	andi	a4,a4,255
   1e468:	00070863          	beqz	a4,1e478 <strcpy+0xd0>
   1e46c:	0186d69b          	srliw	a3,a3,0x18
   1e470:	00d781a3          	sb	a3,3(a5)
   1e474:	00008067          	ret
   1e478:	00008067          	ret

000000000001e47c <strcmp>:
   1e47c:	01c0006f          	j	1e498 <strcmp+0x1c>
   1e480:	00150513          	addi	a0,a0,1
   1e484:	00158593          	addi	a1,a1,1
   1e488:	fff54783          	lbu	a5,-1(a0)
   1e48c:	fff5c703          	lbu	a4,-1(a1)
   1e490:	0ae79a63          	bne	a5,a4,1e544 <strcmp+0xc8>
   1e494:	0a078463          	beqz	a5,1e53c <strcmp+0xc0>
   1e498:	00b567b3          	or	a5,a0,a1
   1e49c:	0037f793          	andi	a5,a5,3
   1e4a0:	fe0790e3          	bnez	a5,1e480 <strcmp+0x4>
   1e4a4:	00052703          	lw	a4,0(a0)
   1e4a8:	0005a603          	lw	a2,0(a1)
   1e4ac:	06c71c63          	bne	a4,a2,1e524 <strcmp+0xa8>
   1e4b0:	fff74793          	not	a5,a4
   1e4b4:	feff08b7          	lui	a7,0xfeff0
   1e4b8:	02071713          	slli	a4,a4,0x20
   1e4bc:	02075713          	srli	a4,a4,0x20
   1e4c0:	eff88893          	addi	a7,a7,-257 # fffffffffefefeff <heap_memory_used+0xfffffffffefcdc47>
   1e4c4:	02079793          	slli	a5,a5,0x20
   1e4c8:	10101837          	lui	a6,0x10101
   1e4cc:	0207d793          	srli	a5,a5,0x20
   1e4d0:	01170733          	add	a4,a4,a7
   1e4d4:	00381813          	slli	a6,a6,0x3
   1e4d8:	00e7f7b3          	and	a5,a5,a4
   1e4dc:	08080813          	addi	a6,a6,128 # 10101080 <heap_memory_used+0x100dedc8>
   1e4e0:	0107f7b3          	and	a5,a5,a6
   1e4e4:	00078663          	beqz	a5,1e4f0 <strcmp+0x74>
   1e4e8:	0540006f          	j	1e53c <strcmp+0xc0>
   1e4ec:	04079863          	bnez	a5,1e53c <strcmp+0xc0>
   1e4f0:	00450513          	addi	a0,a0,4
   1e4f4:	00052703          	lw	a4,0(a0)
   1e4f8:	00458593          	addi	a1,a1,4
   1e4fc:	0005a603          	lw	a2,0(a1)
   1e500:	02071793          	slli	a5,a4,0x20
   1e504:	fff74693          	not	a3,a4
   1e508:	0207d793          	srli	a5,a5,0x20
   1e50c:	02069693          	slli	a3,a3,0x20
   1e510:	011787b3          	add	a5,a5,a7
   1e514:	0206d693          	srli	a3,a3,0x20
   1e518:	00d7f7b3          	and	a5,a5,a3
   1e51c:	0107f7b3          	and	a5,a5,a6
   1e520:	fcc706e3          	beq	a4,a2,1e4ec <strcmp+0x70>
   1e524:	0ff77793          	andi	a5,a4,255
   1e528:	0ff67693          	andi	a3,a2,255
   1e52c:	02d78263          	beq	a5,a3,1e550 <strcmp+0xd4>
   1e530:	00100513          	li	a0,1
   1e534:	06d7e863          	bltu	a5,a3,1e5a4 <strcmp+0x128>
   1e538:	00008067          	ret
   1e53c:	00000513          	li	a0,0
   1e540:	00008067          	ret
   1e544:	06e7e063          	bltu	a5,a4,1e5a4 <strcmp+0x128>
   1e548:	00100513          	li	a0,1
   1e54c:	00008067          	ret
   1e550:	00000513          	li	a0,0
   1e554:	fe0782e3          	beqz	a5,1e538 <strcmp+0xbc>
   1e558:	0087579b          	srliw	a5,a4,0x8
   1e55c:	0086569b          	srliw	a3,a2,0x8
   1e560:	0ff7f793          	andi	a5,a5,255
   1e564:	0ff6f693          	andi	a3,a3,255
   1e568:	fcd794e3          	bne	a5,a3,1e530 <strcmp+0xb4>
   1e56c:	fc0786e3          	beqz	a5,1e538 <strcmp+0xbc>
   1e570:	0107579b          	srliw	a5,a4,0x10
   1e574:	0106569b          	srliw	a3,a2,0x10
   1e578:	0ff7f793          	andi	a5,a5,255
   1e57c:	0ff6f693          	andi	a3,a3,255
   1e580:	fad798e3          	bne	a5,a3,1e530 <strcmp+0xb4>
   1e584:	fa078ae3          	beqz	a5,1e538 <strcmp+0xbc>
   1e588:	0187571b          	srliw	a4,a4,0x18
   1e58c:	0186579b          	srliw	a5,a2,0x18
   1e590:	0ff77713          	andi	a4,a4,255
   1e594:	0ff7f793          	andi	a5,a5,255
   1e598:	faf700e3          	beq	a4,a5,1e538 <strcmp+0xbc>
   1e59c:	00100513          	li	a0,1
   1e5a0:	f8f77ce3          	bleu	a5,a4,1e538 <strcmp+0xbc>
   1e5a4:	fff00513          	li	a0,-1
   1e5a8:	00008067          	ret

Disassembly of section .rodata:

000000000001e5b0 <list_known_crc>:
   1e5b0:	d4b0                	sw	a2,104(s1)
   1e5b2:	3340                	fld	fs0,160(a4)
   1e5b4:	6a79                	lui	s4,0x1e
   1e5b6:	e714                	sd	a3,8(a4)
   1e5b8:	e3c1                	bnez	a5,1e638 <scipat>
   1e5ba:	0000                	unimp
   1e5bc:	0000                	unimp
	...

000000000001e5c0 <matrix_known_crc>:
   1e5c0:	be52                	fsd	fs4,312(sp)
   1e5c2:	1199                	addi	gp,gp,-26
   1e5c4:	5608                	lw	a0,40(a2)
   1e5c6:	07471fd7          	0x7471fd7
   1e5ca:	0000                	unimp
   1e5cc:	0000                	unimp
	...

000000000001e5d0 <state_known_crc>:
   1e5d0:	39bf5e47          	fmsub.s	ft8,ft10,fs11,ft7,unknown
   1e5d4:	e5a4                	sd	s1,72(a1)
   1e5d6:	8e3a                	mv	t3,a4
   1e5d8:	8d84                	0x8d84
   1e5da:	0000                	unimp
   1e5dc:	0000                	unimp
   1e5de:	0000                	unimp
   1e5e0:	d5d8                	sw	a4,44(a1)
   1e5e2:	0001                	nop
   1e5e4:	d5d8                	sw	a4,44(a1)
   1e5e6:	0001                	nop
   1e5e8:	d650                	sw	a2,44(a2)
   1e5ea:	0001                	nop
   1e5ec:	d650                	sw	a2,44(a2)
   1e5ee:	0001                	nop
   1e5f0:	d6d0                	sw	a2,44(a3)
   1e5f2:	0001                	nop
   1e5f4:	0000                	unimp
	...

000000000001e5f8 <intpat>:
   1e5f8:	f3e8                	sd	a0,224(a5)
   1e5fa:	0001                	nop
   1e5fc:	0000                	unimp
   1e5fe:	0000                	unimp
   1e600:	f3f0                	sd	a2,224(a5)
   1e602:	0001                	nop
   1e604:	0000                	unimp
   1e606:	0000                	unimp
   1e608:	f3f8                	sd	a4,224(a5)
   1e60a:	0001                	nop
   1e60c:	0000                	unimp
   1e60e:	0000                	unimp
   1e610:	f400                	sd	s0,40(s0)
   1e612:	0001                	nop
   1e614:	0000                	unimp
	...

000000000001e618 <floatpat>:
   1e618:	f3a8                	sd	a0,96(a5)
   1e61a:	0001                	nop
   1e61c:	0000                	unimp
   1e61e:	0000                	unimp
   1e620:	f3b8                	sd	a4,96(a5)
   1e622:	0001                	nop
   1e624:	0000                	unimp
   1e626:	0000                	unimp
   1e628:	f3c8                	sd	a0,160(a5)
   1e62a:	0001                	nop
   1e62c:	0000                	unimp
   1e62e:	0000                	unimp
   1e630:	f3d8                	sd	a4,160(a5)
   1e632:	0001                	nop
   1e634:	0000                	unimp
	...

000000000001e638 <scipat>:
   1e638:	f368                	sd	a0,224(a4)
   1e63a:	0001                	nop
   1e63c:	0000                	unimp
   1e63e:	0000                	unimp
   1e640:	f378                	sd	a4,224(a4)
   1e642:	0001                	nop
   1e644:	0000                	unimp
   1e646:	0000                	unimp
   1e648:	f388                	sd	a0,32(a5)
   1e64a:	0001                	nop
   1e64c:	0000                	unimp
   1e64e:	0000                	unimp
   1e650:	f398                	sd	a4,32(a5)
   1e652:	0001                	nop
   1e654:	0000                	unimp
	...

000000000001e658 <errpat>:
   1e658:	f328                	sd	a0,96(a4)
   1e65a:	0001                	nop
   1e65c:	0000                	unimp
   1e65e:	0000                	unimp
   1e660:	f338                	sd	a4,96(a4)
   1e662:	0001                	nop
   1e664:	0000                	unimp
   1e666:	0000                	unimp
   1e668:	f348                	sd	a0,160(a4)
   1e66a:	0001                	nop
   1e66c:	0000                	unimp
   1e66e:	0000                	unimp
   1e670:	f358                	sd	a4,160(a4)
   1e672:	0001                	nop
   1e674:	0000                	unimp
   1e676:	0000                	unimp
   1e678:	dcd8                	sw	a4,60(s1)
   1e67a:	0001                	nop
   1e67c:	dc98                	sw	a4,56(s1)
   1e67e:	0001                	nop
   1e680:	dca8                	sw	a0,120(s1)
   1e682:	0001                	nop
   1e684:	dcb8                	sw	a4,120(s1)
   1e686:	0001                	nop
   1e688:	dcc8                	sw	a0,60(s1)
   1e68a:	0001                	nop
   1e68c:	dc88                	sw	a0,56(s1)
   1e68e:	0001                	nop

Disassembly of section .rodata.str1.8:

000000000001e690 <.rodata.str1.8>:
   1e690:	4844                	lw	s1,20(s0)
   1e692:	5952                	lw	s2,52(sp)
   1e694:	4e4f5453          	0x4e4f5453
   1e698:	2045                	0x2045
   1e69a:	5250                	lw	a2,36(a2)
   1e69c:	4152474f          	fnmadd.s	fa4,ft4,fs5,fs0,rmm
   1e6a0:	2c4d                	addiw	s8,s8,19
   1e6a2:	5320                	lw	s0,96(a4)
   1e6a4:	20454d4f          	fnmadd.s	fs10,fa0,ft4,ft4,rmm
   1e6a8:	49525453          	0x49525453
   1e6ac:	474e                	lw	a4,208(sp)
   1e6ae:	0000                	unimp
   1e6b0:	4844                	lw	s1,20(s0)
   1e6b2:	5952                	lw	s2,52(sp)
   1e6b4:	4e4f5453          	0x4e4f5453
   1e6b8:	2045                	0x2045
   1e6ba:	5250                	lw	a2,36(a2)
   1e6bc:	4152474f          	fnmadd.s	fa4,ft4,fs5,fs0,rmm
   1e6c0:	2c4d                	addiw	s8,s8,19
   1e6c2:	3120                	fld	fs0,96(a0)
   1e6c4:	20545327          	0x20545327
   1e6c8:	49525453          	0x49525453
   1e6cc:	474e                	lw	a4,208(sp)
   1e6ce:	0000                	unimp
   1e6d0:	6844                	ld	s1,144(s0)
   1e6d2:	7972                	ld	s2,312(sp)
   1e6d4:	6e6f7473          	csrrci	s0,0x6e6,30
   1e6d8:	2065                	0x2065
   1e6da:	6542                	ld	a0,16(sp)
   1e6dc:	636e                	ld	t1,216(sp)
   1e6de:	6d68                	ld	a0,216(a0)
   1e6e0:	7261                	lui	tp,0xffff8
   1e6e2:	56202c6b          	0x56202c6b
   1e6e6:	7265                	lui	tp,0xffff9
   1e6e8:	6e6f6973          	csrrsi	s2,0x6e6,30
   1e6ec:	3220                	fld	fs0,96(a2)
   1e6ee:	312e                	fld	ft2,232(sp)
   1e6f0:	2820                	fld	fs0,80(s0)
   1e6f2:	614c                	ld	a1,128(a0)
   1e6f4:	676e                	ld	a4,216(sp)
   1e6f6:	6175                	addi	sp,sp,368
   1e6f8:	203a6567          	0x203a6567
   1e6fc:	000a2943          	fmadd.s	fs2,fs4,ft0,ft0,rdn
   1e700:	7250                	ld	a2,160(a2)
   1e702:	6172676f          	jal	a4,45518 <heap_memory_used+0x23260>
   1e706:	206d                	0x206d
   1e708:	706d6f63          	bltu	s10,t1,1ee26 <errpat+0x7ce>
   1e70c:	6c69                	lui	s8,0x1a
   1e70e:	6465                	lui	s0,0x19
   1e710:	7720                	ld	s0,104(a4)
   1e712:	7469                	lui	s0,0xffffa
   1e714:	2068                	fld	fa0,192(s0)
   1e716:	67657227          	0x67657227
   1e71a:	7369                	lui	t1,0xffffa
   1e71c:	6574                	ld	a3,200(a0)
   1e71e:	2772                	fld	fa4,280(sp)
   1e720:	6120                	ld	s0,64(a0)
   1e722:	7474                	ld	a3,232(s0)
   1e724:	6972                	ld	s2,280(sp)
   1e726:	7562                	ld	a0,56(sp)
   1e728:	6574                	ld	a3,200(a0)
   1e72a:	000a                	0xa
   1e72c:	0000                	unimp
   1e72e:	0000                	unimp
   1e730:	7250                	ld	a2,160(a2)
   1e732:	6172676f          	jal	a4,45548 <heap_memory_used+0x23290>
   1e736:	206d                	0x206d
   1e738:	706d6f63          	bltu	s10,t1,1ee56 <errpat+0x7fe>
   1e73c:	6c69                	lui	s8,0x1a
   1e73e:	6465                	lui	s0,0x19
   1e740:	7720                	ld	s0,104(a4)
   1e742:	7469                	lui	s0,0xffffa
   1e744:	6f68                	ld	a0,216(a4)
   1e746:	7475                	lui	s0,0xffffd
   1e748:	2720                	fld	fs0,72(a4)
   1e74a:	6572                	ld	a0,280(sp)
   1e74c:	74736967          	0x74736967
   1e750:	7265                	lui	tp,0xffff9
   1e752:	74612027          	fsw	ft6,1856(sp)
   1e756:	7274                	ld	a3,224(a2)
   1e758:	6269                	lui	tp,0x1a
   1e75a:	7475                	lui	s0,0xffffd
   1e75c:	0a65                	addi	s4,s4,25
   1e75e:	0000                	unimp
   1e760:	6c50                	ld	a2,152(s0)
   1e762:	6165                	addi	sp,sp,112
   1e764:	67206573          	csrrsi	a0,0x672,0
   1e768:	7669                	lui	a2,0xffffa
   1e76a:	2065                	0x2065
   1e76c:	6874                	ld	a3,208(s0)
   1e76e:	2065                	0x2065
   1e770:	756e                	ld	a0,248(sp)
   1e772:	626d                	lui	tp,0x1b
   1e774:	7265                	lui	tp,0xffff9
   1e776:	6f20                	ld	s0,88(a4)
   1e778:	2066                	fld	ft0,88(sp)
   1e77a:	7572                	ld	a0,312(sp)
   1e77c:	736e                	ld	t1,248(sp)
   1e77e:	7420                	ld	s0,104(s0)
   1e780:	7268                	ld	a0,224(a2)
   1e782:	6867756f          	jal	a0,95e08 <heap_memory_used+0x73b50>
   1e786:	7420                	ld	s0,104(s0)
   1e788:	6568                	ld	a0,200(a0)
   1e78a:	6220                	ld	s0,64(a2)
   1e78c:	6e65                	lui	t3,0x19
   1e78e:	616d6863          	bltu	s10,s6,1ed9e <errpat+0x746>
   1e792:	6b72                	ld	s6,280(sp)
   1e794:	203a                	fld	ft0,392(sp)
   1e796:	0000                	unimp
   1e798:	7845                	lui	a6,0xffff1
   1e79a:	6365                	lui	t1,0x19
   1e79c:	7475                	lui	s0,0xffffd
   1e79e:	6f69                	lui	t5,0x1a
   1e7a0:	206e                	fld	ft0,216(sp)
   1e7a2:	72617473          	csrrci	s0,0x726,2
   1e7a6:	7374                	ld	a3,224(a4)
   1e7a8:	202c                	fld	fa1,64(s0)
   1e7aa:	6425                	lui	s0,0x9
   1e7ac:	7220                	ld	s0,96(a2)
   1e7ae:	6e75                	lui	t3,0x1d
   1e7b0:	68742073          	csrs	0x687,s0
   1e7b4:	6f72                	ld	t5,280(sp)
   1e7b6:	6775                	lui	a4,0x1d
   1e7b8:	2068                	fld	fa0,192(s0)
   1e7ba:	6844                	ld	s1,144(s0)
   1e7bc:	7972                	ld	s2,312(sp)
   1e7be:	6e6f7473          	csrrci	s0,0x6e6,30
   1e7c2:	0a65                	addi	s4,s4,25
   1e7c4:	0000                	unimp
   1e7c6:	0000                	unimp
   1e7c8:	4844                	lw	s1,20(s0)
   1e7ca:	5952                	lw	s2,52(sp)
   1e7cc:	4e4f5453          	0x4e4f5453
   1e7d0:	2045                	0x2045
   1e7d2:	5250                	lw	a2,36(a2)
   1e7d4:	4152474f          	fnmadd.s	fa4,ft4,fs5,fs0,rmm
   1e7d8:	2c4d                	addiw	s8,s8,19
   1e7da:	3220                	fld	fs0,96(a2)
   1e7dc:	20444e27          	0x20444e27
   1e7e0:	49525453          	0x49525453
   1e7e4:	474e                	lw	a4,208(sp)
   1e7e6:	0000                	unimp
   1e7e8:	4844                	lw	s1,20(s0)
   1e7ea:	5952                	lw	s2,52(sp)
   1e7ec:	4e4f5453          	0x4e4f5453
   1e7f0:	2045                	0x2045
   1e7f2:	5250                	lw	a2,36(a2)
   1e7f4:	4152474f          	fnmadd.s	fa4,ft4,fs5,fs0,rmm
   1e7f8:	2c4d                	addiw	s8,s8,19
   1e7fa:	3320                	fld	fs0,96(a4)
   1e7fc:	20445227          	0x20445227
   1e800:	49525453          	0x49525453
   1e804:	474e                	lw	a4,208(sp)
   1e806:	0000                	unimp
   1e808:	7845                	lui	a6,0xffff1
   1e80a:	6365                	lui	t1,0x19
   1e80c:	7475                	lui	s0,0xffffd
   1e80e:	6f69                	lui	t5,0x1a
   1e810:	206e                	fld	ft0,216(sp)
   1e812:	6e65                	lui	t3,0x19
   1e814:	7364                	ld	s1,224(a4)
   1e816:	000a                	0xa
   1e818:	6946                	ld	s2,80(sp)
   1e81a:	616e                	ld	sp,216(sp)
   1e81c:	206c                	fld	fa1,192(s0)
   1e81e:	6176                	ld	sp,344(sp)
   1e820:	756c                	ld	a1,232(a0)
   1e822:	7365                	lui	t1,0xffff9
   1e824:	6f20                	ld	s0,88(a4)
   1e826:	2066                	fld	ft0,88(sp)
   1e828:	6874                	ld	a3,208(s0)
   1e82a:	2065                	0x2065
   1e82c:	6176                	ld	sp,344(sp)
   1e82e:	6972                	ld	s2,280(sp)
   1e830:	6261                	lui	tp,0x18
   1e832:	656c                	ld	a1,200(a0)
   1e834:	73752073          	csrs	0x737,a0
   1e838:	6465                	lui	s0,0x19
   1e83a:	6920                	ld	s0,80(a0)
   1e83c:	206e                	fld	ft0,216(sp)
   1e83e:	6874                	ld	a3,208(s0)
   1e840:	2065                	0x2065
   1e842:	6562                	ld	a0,24(sp)
   1e844:	636e                	ld	t1,216(sp)
   1e846:	6d68                	ld	a0,216(a0)
   1e848:	7261                	lui	tp,0xffff8
   1e84a:	000a3a6b          	0xa3a6b
   1e84e:	0000                	unimp
   1e850:	6e49                	lui	t3,0x12
   1e852:	5f74                	lw	a3,124(a4)
   1e854:	626f6c47          	fmsub.d	fs8,ft10,ft6,fa2,unknown
   1e858:	203a                	fld	ft0,392(sp)
   1e85a:	2020                	fld	fs0,64(s0)
   1e85c:	2020                	fld	fs0,64(s0)
   1e85e:	2020                	fld	fs0,64(s0)
   1e860:	2020                	fld	fs0,64(s0)
   1e862:	2020                	fld	fs0,64(s0)
   1e864:	2520                	fld	fs0,72(a0)
   1e866:	0a64                	addi	s1,sp,284
	...
   1e870:	2020                	fld	fs0,64(s0)
   1e872:	2020                	fld	fs0,64(s0)
   1e874:	2020                	fld	fs0,64(s0)
   1e876:	2020                	fld	fs0,64(s0)
   1e878:	756f6873          	csrrsi	a6,0x756,30
   1e87c:	646c                	ld	a1,200(s0)
   1e87e:	6220                	ld	s0,64(a2)
   1e880:	3a65                	addiw	s4,s4,-7
   1e882:	2020                	fld	fs0,64(s0)
   1e884:	2520                	fld	fs0,72(a0)
   1e886:	0a64                	addi	s1,sp,284
	...
   1e890:	6f42                	ld	t5,16(sp)
   1e892:	475f6c6f          	jal	s8,115506 <heap_memory_used+0xf324e>
   1e896:	6f6c                	ld	a1,216(a4)
   1e898:	3a62                	fld	fs4,56(sp)
   1e89a:	2020                	fld	fs0,64(s0)
   1e89c:	2020                	fld	fs0,64(s0)
   1e89e:	2020                	fld	fs0,64(s0)
   1e8a0:	2020                	fld	fs0,64(s0)
   1e8a2:	2020                	fld	fs0,64(s0)
   1e8a4:	2520                	fld	fs0,72(a0)
   1e8a6:	0a64                	addi	s1,sp,284
	...
   1e8b0:	315f6843          	fmadd.s	fa6,ft10,fs5,ft6,unknown
   1e8b4:	475f 6f6c 3a62      	0x3a626f6c475f
   1e8ba:	2020                	fld	fs0,64(s0)
   1e8bc:	2020                	fld	fs0,64(s0)
   1e8be:	2020                	fld	fs0,64(s0)
   1e8c0:	2020                	fld	fs0,64(s0)
   1e8c2:	2020                	fld	fs0,64(s0)
   1e8c4:	2520                	fld	fs0,72(a0)
   1e8c6:	00000a63          	beqz	zero,1e8da <errpat+0x282>
   1e8ca:	0000                	unimp
   1e8cc:	0000                	unimp
   1e8ce:	0000                	unimp
   1e8d0:	2020                	fld	fs0,64(s0)
   1e8d2:	2020                	fld	fs0,64(s0)
   1e8d4:	2020                	fld	fs0,64(s0)
   1e8d6:	2020                	fld	fs0,64(s0)
   1e8d8:	756f6873          	csrrsi	a6,0x756,30
   1e8dc:	646c                	ld	a1,200(s0)
   1e8de:	6220                	ld	s0,64(a2)
   1e8e0:	3a65                	addiw	s4,s4,-7
   1e8e2:	2020                	fld	fs0,64(s0)
   1e8e4:	2520                	fld	fs0,72(a0)
   1e8e6:	00000a63          	beqz	zero,1e8fa <errpat+0x2a2>
   1e8ea:	0000                	unimp
   1e8ec:	0000                	unimp
   1e8ee:	0000                	unimp
   1e8f0:	325f6843          	fmadd.d	fa6,ft10,ft5,ft6,unknown
   1e8f4:	475f 6f6c 3a62      	0x3a626f6c475f
   1e8fa:	2020                	fld	fs0,64(s0)
   1e8fc:	2020                	fld	fs0,64(s0)
   1e8fe:	2020                	fld	fs0,64(s0)
   1e900:	2020                	fld	fs0,64(s0)
   1e902:	2020                	fld	fs0,64(s0)
   1e904:	2520                	fld	fs0,72(a0)
   1e906:	00000a63          	beqz	zero,1e91a <errpat+0x2c2>
   1e90a:	0000                	unimp
   1e90c:	0000                	unimp
   1e90e:	0000                	unimp
   1e910:	7241                	lui	tp,0xffff0
   1e912:	5f72                	lw	t5,60(sp)
   1e914:	5f31                	li	t5,-20
   1e916:	626f6c47          	fmsub.d	fs8,ft10,ft6,fa2,unknown
   1e91a:	3a5d385b          	0x3a5d385b
   1e91e:	2020                	fld	fs0,64(s0)
   1e920:	2020                	fld	fs0,64(s0)
   1e922:	2020                	fld	fs0,64(s0)
   1e924:	2520                	fld	fs0,72(a0)
   1e926:	0a64                	addi	s1,sp,284
	...
   1e930:	7241                	lui	tp,0xffff0
   1e932:	5f72                	lw	t5,60(sp)
   1e934:	5f32                	lw	t5,44(sp)
   1e936:	626f6c47          	fmsub.d	fs8,ft10,ft6,fa2,unknown
   1e93a:	5b5d385b          	0x5b5d385b
   1e93e:	203a5d37          	lui	s10,0x203a5
   1e942:	2020                	fld	fs0,64(s0)
   1e944:	2520                	fld	fs0,72(a0)
   1e946:	0a64                	addi	s1,sp,284
	...
   1e950:	2020                	fld	fs0,64(s0)
   1e952:	2020                	fld	fs0,64(s0)
   1e954:	2020                	fld	fs0,64(s0)
   1e956:	2020                	fld	fs0,64(s0)
   1e958:	756f6873          	csrrsi	a6,0x756,30
   1e95c:	646c                	ld	a1,200(s0)
   1e95e:	6220                	ld	s0,64(a2)
   1e960:	3a65                	addiw	s4,s4,-7
   1e962:	2020                	fld	fs0,64(s0)
   1e964:	4e20                	lw	s0,88(a2)
   1e966:	6d75                	lui	s10,0x1d
   1e968:	6562                	ld	a0,24(sp)
   1e96a:	5f72                	lw	t5,60(sp)
   1e96c:	525f664f          	fnmadd.d	fa2,ft10,ft5,fa0,unknown
   1e970:	6e75                	lui	t3,0x1d
   1e972:	202b2073          	csrs	0x202,s6
   1e976:	3031                	0x3031
   1e978:	000a                	0xa
   1e97a:	0000                	unimp
   1e97c:	0000                	unimp
   1e97e:	0000                	unimp
   1e980:	7450                	ld	a2,168(s0)
   1e982:	5f72                	lw	t5,60(sp)
   1e984:	626f6c47          	fmsub.d	fs8,ft10,ft6,fa2,unknown
   1e988:	3e2d                	addiw	t3,t3,-21
   1e98a:	000a                	0xa
   1e98c:	0000                	unimp
   1e98e:	0000                	unimp
   1e990:	2020                	fld	fs0,64(s0)
   1e992:	7450                	ld	a2,168(s0)
   1e994:	5f72                	lw	t5,60(sp)
   1e996:	706d6f43          	fmadd.s	ft10,fs10,ft6,fa4,unknown
   1e99a:	203a                	fld	ft0,392(sp)
   1e99c:	2020                	fld	fs0,64(s0)
   1e99e:	2020                	fld	fs0,64(s0)
   1e9a0:	2020                	fld	fs0,64(s0)
   1e9a2:	2020                	fld	fs0,64(s0)
   1e9a4:	2520                	fld	fs0,72(a0)
   1e9a6:	0a64                	addi	s1,sp,284
	...
   1e9b0:	2020                	fld	fs0,64(s0)
   1e9b2:	2020                	fld	fs0,64(s0)
   1e9b4:	2020                	fld	fs0,64(s0)
   1e9b6:	2020                	fld	fs0,64(s0)
   1e9b8:	756f6873          	csrrsi	a6,0x756,30
   1e9bc:	646c                	ld	a1,200(s0)
   1e9be:	6220                	ld	s0,64(a2)
   1e9c0:	3a65                	addiw	s4,s4,-7
   1e9c2:	2020                	fld	fs0,64(s0)
   1e9c4:	2820                	fld	fs0,80(s0)
   1e9c6:	6d69                	lui	s10,0x1a
   1e9c8:	6c70                	ld	a2,216(s0)
   1e9ca:	6d65                	lui	s10,0x19
   1e9cc:	6e65                	lui	t3,0x19
   1e9ce:	6174                	ld	a3,192(a0)
   1e9d0:	6974                	ld	a3,208(a0)
   1e9d2:	642d6e6f          	jal	t3,f5014 <heap_memory_used+0xd2d5c>
   1e9d6:	7065                	0x7065
   1e9d8:	6e65                	lui	t3,0x19
   1e9da:	6564                	ld	s1,200(a0)
   1e9dc:	746e                	ld	s0,248(sp)
   1e9de:	0a29                	addi	s4,s4,10
	...
   1e9e8:	2020                	fld	fs0,64(s0)
   1e9ea:	6944                	ld	s1,144(a0)
   1e9ec:	3a726373          	csrrsi	t1,0x3a7,4
   1e9f0:	2020                	fld	fs0,64(s0)
   1e9f2:	2020                	fld	fs0,64(s0)
   1e9f4:	2020                	fld	fs0,64(s0)
   1e9f6:	2020                	fld	fs0,64(s0)
   1e9f8:	2020                	fld	fs0,64(s0)
   1e9fa:	2020                	fld	fs0,64(s0)
   1e9fc:	2520                	fld	fs0,72(a0)
   1e9fe:	0a64                	addi	s1,sp,284
	...
   1ea08:	2020                	fld	fs0,64(s0)
   1ea0a:	6e45                	lui	t3,0x11
   1ea0c:	6d75                	lui	s10,0x1d
   1ea0e:	435f 6d6f 3a70      	0x3a706d6f435f
   1ea14:	2020                	fld	fs0,64(s0)
   1ea16:	2020                	fld	fs0,64(s0)
   1ea18:	2020                	fld	fs0,64(s0)
   1ea1a:	2020                	fld	fs0,64(s0)
   1ea1c:	2520                	fld	fs0,72(a0)
   1ea1e:	0a64                	addi	s1,sp,284
	...
   1ea28:	2020                	fld	fs0,64(s0)
   1ea2a:	6e49                	lui	t3,0x12
   1ea2c:	5f74                	lw	a3,124(a4)
   1ea2e:	706d6f43          	fmadd.s	ft10,fs10,ft6,fa4,unknown
   1ea32:	203a                	fld	ft0,392(sp)
   1ea34:	2020                	fld	fs0,64(s0)
   1ea36:	2020                	fld	fs0,64(s0)
   1ea38:	2020                	fld	fs0,64(s0)
   1ea3a:	2020                	fld	fs0,64(s0)
   1ea3c:	2520                	fld	fs0,72(a0)
   1ea3e:	0a64                	addi	s1,sp,284
	...
   1ea48:	2020                	fld	fs0,64(s0)
   1ea4a:	5f727453          	0x5f727453
   1ea4e:	706d6f43          	fmadd.s	ft10,fs10,ft6,fa4,unknown
   1ea52:	203a                	fld	ft0,392(sp)
   1ea54:	2020                	fld	fs0,64(s0)
   1ea56:	2020                	fld	fs0,64(s0)
   1ea58:	2020                	fld	fs0,64(s0)
   1ea5a:	2020                	fld	fs0,64(s0)
   1ea5c:	2520                	fld	fs0,72(a0)
   1ea5e:	00000a73          	0xa73
   1ea62:	0000                	unimp
   1ea64:	0000                	unimp
   1ea66:	0000                	unimp
   1ea68:	2020                	fld	fs0,64(s0)
   1ea6a:	2020                	fld	fs0,64(s0)
   1ea6c:	2020                	fld	fs0,64(s0)
   1ea6e:	2020                	fld	fs0,64(s0)
   1ea70:	756f6873          	csrrsi	a6,0x756,30
   1ea74:	646c                	ld	a1,200(s0)
   1ea76:	6220                	ld	s0,64(a2)
   1ea78:	3a65                	addiw	s4,s4,-7
   1ea7a:	2020                	fld	fs0,64(s0)
   1ea7c:	4420                	lw	s0,72(s0)
   1ea7e:	5248                	lw	a0,36(a2)
   1ea80:	5359                	li	t1,-10
   1ea82:	4f54                	lw	a3,28(a4)
   1ea84:	454e                	lw	a0,208(sp)
   1ea86:	5020                	lw	s0,96(s0)
   1ea88:	4f52                	lw	t5,20(sp)
   1ea8a:	4d415247          	0x4d415247
   1ea8e:	202c                	fld	fa1,64(s0)
   1ea90:	454d4f53          	0x454d4f53
   1ea94:	5320                	lw	s0,96(a4)
   1ea96:	5254                	lw	a3,36(a2)
   1ea98:	4e49                	li	t3,18
   1ea9a:	00000a47          	fmsub.s	fs4,ft0,ft0,ft0,rne
   1ea9e:	0000                	unimp
   1eaa0:	654e                	ld	a0,208(sp)
   1eaa2:	7478                	ld	a4,232(s0)
   1eaa4:	505f 7274 475f      	0x475f7274505f
   1eaaa:	6f6c                	ld	a1,216(a4)
   1eaac:	2d62                	fld	fs10,24(sp)
   1eaae:	0a3e                	slli	s4,s4,0xf
	...
   1eab8:	2020                	fld	fs0,64(s0)
   1eaba:	2020                	fld	fs0,64(s0)
   1eabc:	2020                	fld	fs0,64(s0)
   1eabe:	2020                	fld	fs0,64(s0)
   1eac0:	756f6873          	csrrsi	a6,0x756,30
   1eac4:	646c                	ld	a1,200(s0)
   1eac6:	6220                	ld	s0,64(a2)
   1eac8:	3a65                	addiw	s4,s4,-7
   1eaca:	2020                	fld	fs0,64(s0)
   1eacc:	2820                	fld	fs0,80(s0)
   1eace:	6d69                	lui	s10,0x1a
   1ead0:	6c70                	ld	a2,216(s0)
   1ead2:	6d65                	lui	s10,0x19
   1ead4:	6e65                	lui	t3,0x19
   1ead6:	6174                	ld	a3,192(a0)
   1ead8:	6974                	ld	a3,208(a0)
   1eada:	642d6e6f          	jal	t3,f511c <heap_memory_used+0xd2e64>
   1eade:	7065                	0x7065
   1eae0:	6e65                	lui	t3,0x19
   1eae2:	6564                	ld	s1,200(a0)
   1eae4:	746e                	ld	s0,248(sp)
   1eae6:	2c29                	addiw	s8,s8,10
   1eae8:	7320                	ld	s0,96(a4)
   1eaea:	6d61                	lui	s10,0x18
   1eaec:	2065                	0x2065
   1eaee:	7361                	lui	t1,0xffff8
   1eaf0:	6120                	ld	s0,64(a0)
   1eaf2:	6f62                	ld	t5,24(sp)
   1eaf4:	6576                	ld	a0,344(sp)
   1eaf6:	000a                	0xa
   1eaf8:	6e49                	lui	t3,0x12
   1eafa:	5f74                	lw	a3,124(a4)
   1eafc:	5f31                	li	t5,-20
   1eafe:	6f4c                	ld	a1,152(a4)
   1eb00:	20203a63          	0x20203a63
   1eb04:	2020                	fld	fs0,64(s0)
   1eb06:	2020                	fld	fs0,64(s0)
   1eb08:	2020                	fld	fs0,64(s0)
   1eb0a:	2020                	fld	fs0,64(s0)
   1eb0c:	2520                	fld	fs0,72(a0)
   1eb0e:	0a64                	addi	s1,sp,284
	...
   1eb18:	6e49                	lui	t3,0x12
   1eb1a:	5f74                	lw	a3,124(a4)
   1eb1c:	5f32                	lw	t5,44(sp)
   1eb1e:	6f4c                	ld	a1,152(a4)
   1eb20:	20203a63          	0x20203a63
   1eb24:	2020                	fld	fs0,64(s0)
   1eb26:	2020                	fld	fs0,64(s0)
   1eb28:	2020                	fld	fs0,64(s0)
   1eb2a:	2020                	fld	fs0,64(s0)
   1eb2c:	2520                	fld	fs0,72(a0)
   1eb2e:	0a64                	addi	s1,sp,284
	...
   1eb38:	6e49                	lui	t3,0x12
   1eb3a:	5f74                	lw	a3,124(a4)
   1eb3c:	6f4c5f33          	0x6f4c5f33
   1eb40:	20203a63          	0x20203a63
   1eb44:	2020                	fld	fs0,64(s0)
   1eb46:	2020                	fld	fs0,64(s0)
   1eb48:	2020                	fld	fs0,64(s0)
   1eb4a:	2020                	fld	fs0,64(s0)
   1eb4c:	2520                	fld	fs0,72(a0)
   1eb4e:	0a64                	addi	s1,sp,284
	...
   1eb58:	6e45                	lui	t3,0x11
   1eb5a:	6d75                	lui	s10,0x1d
   1eb5c:	4c5f 636f 203a      	0x203a636f4c5f
   1eb62:	2020                	fld	fs0,64(s0)
   1eb64:	2020                	fld	fs0,64(s0)
   1eb66:	2020                	fld	fs0,64(s0)
   1eb68:	2020                	fld	fs0,64(s0)
   1eb6a:	2020                	fld	fs0,64(s0)
   1eb6c:	2520                	fld	fs0,72(a0)
   1eb6e:	0a64                	addi	s1,sp,284
	...
   1eb78:	5f727453          	0x5f727453
   1eb7c:	5f31                	li	t5,-20
   1eb7e:	6f4c                	ld	a1,152(a4)
   1eb80:	20203a63          	0x20203a63
   1eb84:	2020                	fld	fs0,64(s0)
   1eb86:	2020                	fld	fs0,64(s0)
   1eb88:	2020                	fld	fs0,64(s0)
   1eb8a:	2020                	fld	fs0,64(s0)
   1eb8c:	2520                	fld	fs0,72(a0)
   1eb8e:	00000a73          	0xa73
   1eb92:	0000                	unimp
   1eb94:	0000                	unimp
   1eb96:	0000                	unimp
   1eb98:	2020                	fld	fs0,64(s0)
   1eb9a:	2020                	fld	fs0,64(s0)
   1eb9c:	2020                	fld	fs0,64(s0)
   1eb9e:	2020                	fld	fs0,64(s0)
   1eba0:	756f6873          	csrrsi	a6,0x756,30
   1eba4:	646c                	ld	a1,200(s0)
   1eba6:	6220                	ld	s0,64(a2)
   1eba8:	3a65                	addiw	s4,s4,-7
   1ebaa:	2020                	fld	fs0,64(s0)
   1ebac:	4420                	lw	s0,72(s0)
   1ebae:	5248                	lw	a0,36(a2)
   1ebb0:	5359                	li	t1,-10
   1ebb2:	4f54                	lw	a3,28(a4)
   1ebb4:	454e                	lw	a0,208(sp)
   1ebb6:	5020                	lw	s0,96(s0)
   1ebb8:	4f52                	lw	t5,20(sp)
   1ebba:	4d415247          	0x4d415247
   1ebbe:	202c                	fld	fa1,64(s0)
   1ebc0:	2731                	addiw	a4,a4,12
   1ebc2:	53205453          	0x53205453
   1ebc6:	5254                	lw	a3,36(a2)
   1ebc8:	4e49                	li	t3,18
   1ebca:	00000a47          	fmsub.s	fs4,ft0,ft0,ft0,rne
   1ebce:	0000                	unimp
   1ebd0:	5f727453          	0x5f727453
   1ebd4:	5f32                	lw	t5,44(sp)
   1ebd6:	6f4c                	ld	a1,152(a4)
   1ebd8:	20203a63          	0x20203a63
   1ebdc:	2020                	fld	fs0,64(s0)
   1ebde:	2020                	fld	fs0,64(s0)
   1ebe0:	2020                	fld	fs0,64(s0)
   1ebe2:	2020                	fld	fs0,64(s0)
   1ebe4:	2520                	fld	fs0,72(a0)
   1ebe6:	00000a73          	0xa73
   1ebea:	0000                	unimp
   1ebec:	0000                	unimp
   1ebee:	0000                	unimp
   1ebf0:	2020                	fld	fs0,64(s0)
   1ebf2:	2020                	fld	fs0,64(s0)
   1ebf4:	2020                	fld	fs0,64(s0)
   1ebf6:	2020                	fld	fs0,64(s0)
   1ebf8:	756f6873          	csrrsi	a6,0x756,30
   1ebfc:	646c                	ld	a1,200(s0)
   1ebfe:	6220                	ld	s0,64(a2)
   1ec00:	3a65                	addiw	s4,s4,-7
   1ec02:	2020                	fld	fs0,64(s0)
   1ec04:	4420                	lw	s0,72(s0)
   1ec06:	5248                	lw	a0,36(a2)
   1ec08:	5359                	li	t1,-10
   1ec0a:	4f54                	lw	a3,28(a4)
   1ec0c:	454e                	lw	a0,208(sp)
   1ec0e:	5020                	lw	s0,96(s0)
   1ec10:	4f52                	lw	t5,20(sp)
   1ec12:	4d415247          	0x4d415247
   1ec16:	202c                	fld	fa1,64(s0)
   1ec18:	2732                	fld	fa4,264(sp)
   1ec1a:	444e                	lw	s0,208(sp)
   1ec1c:	5320                	lw	s0,96(a4)
   1ec1e:	5254                	lw	a3,36(a2)
   1ec20:	4e49                	li	t3,18
   1ec22:	00000a47          	fmsub.s	fs4,ft0,ft0,ft0,rne
   1ec26:	0000                	unimp
   1ec28:	754e                	ld	a0,240(sp)
   1ec2a:	626d                	lui	tp,0x1b
   1ec2c:	7265                	lui	tp,0xffff9
   1ec2e:	4f5f 5f66 7552      	0x75525f664f5f
   1ec34:	736e                	ld	t1,248(sp)
   1ec36:	203a                	fld	ft0,392(sp)
   1ec38:	6425                	lui	s0,0x9
   1ec3a:	000a                	0xa
   1ec3c:	0000                	unimp
   1ec3e:	0000                	unimp
   1ec40:	7355                	lui	t1,0xffff5
   1ec42:	7265                	lui	tp,0xffff9
   1ec44:	545f 6d69 3a65      	0x3a656d69545f
   1ec4a:	2520                	fld	fs0,72(a0)
   1ec4c:	2064                	fld	fs1,192(s0)
   1ec4e:	6c637963          	bleu	t1,t1,1f320 <errpat+0xcc8>
   1ec52:	7365                	lui	t1,0xffff9
   1ec54:	202c                	fld	fa1,64(s0)
   1ec56:	6425                	lui	s0,0x9
   1ec58:	6920                	ld	s0,80(a0)
   1ec5a:	736e                	ld	t1,248(sp)
   1ec5c:	7274                	ld	a3,224(a2)
   1ec5e:	6375                	lui	t1,0x1d
   1ec60:	6974                	ld	a3,208(a0)
   1ec62:	0a736e6f          	jal	t3,55508 <heap_memory_used+0x33250>
   1ec66:	0000                	unimp
   1ec68:	6c637943          	0x6c637943
   1ec6c:	7365                	lui	t1,0xffff9
   1ec6e:	505f 7265 495f      	0x495f7265505f
   1ec74:	736e                	ld	t1,248(sp)
   1ec76:	7274                	ld	a3,224(a2)
   1ec78:	6375                	lui	t1,0x1d
   1ec7a:	6974                	ld	a3,208(a0)
   1ec7c:	203a6e6f          	jal	t3,c567e <heap_memory_used+0xa33c6>
   1ec80:	6425                	lui	s0,0x9
   1ec82:	252e                	fld	fa0,200(sp)
   1ec84:	2564                	fld	fs1,200(a0)
   1ec86:	2564                	fld	fs1,200(a0)
   1ec88:	0a64                	addi	s1,sp,284
   1ec8a:	0000                	unimp
   1ec8c:	0000                	unimp
   1ec8e:	0000                	unimp
   1ec90:	6844                	ld	s1,144(s0)
   1ec92:	7972                	ld	s2,312(sp)
   1ec94:	6e6f7473          	csrrci	s0,0x6e6,30
   1ec98:	7365                	lui	t1,0xffff9
   1ec9a:	505f 7265 535f      	0x535f7265505f
   1eca0:	6365                	lui	t1,0x19
   1eca2:	5f646e6f          	jal	t3,65298 <heap_memory_used+0x42fe0>
   1eca6:	6550                	ld	a2,136(a0)
   1eca8:	5f72                	lw	t5,60(sp)
   1ecaa:	484d                	li	a6,19
   1ecac:	3a7a                	fld	fs4,440(sp)
   1ecae:	2520                	fld	fs0,72(a0)
   1ecb0:	0a64                	addi	s1,sp,284
   1ecb2:	0000                	unimp
   1ecb4:	0000                	unimp
   1ecb6:	0000                	unimp
   1ecb8:	4d44                	lw	s1,28(a0)
   1ecba:	5049                	0x5049
   1ecbc:	65505f53          	0x65505f53
   1ecc0:	5f72                	lw	t5,60(sp)
   1ecc2:	484d                	li	a6,19
   1ecc4:	3a7a                	fld	fs4,440(sp)
   1ecc6:	2520                	fld	fs0,72(a0)
   1ecc8:	2e64                	fld	fs1,216(a2)
   1ecca:	6425                	lui	s0,0x9
   1eccc:	6425                	lui	s0,0x9
   1ecce:	6425                	lui	s0,0x9
   1ecd0:	000a                	0xa
   1ecd2:	0000                	unimp
   1ecd4:	0000                	unimp
   1ecd6:	0000                	unimp
   1ecd8:	694c                	ld	a1,144(a0)
   1ecda:	66207473          	csrrci	s0,0x662,0
   1ecde:	6e69                	lui	t3,0x1a
   1ece0:	2064                	fld	fs1,192(s0)
   1ece2:	6425                	lui	s0,0x9
   1ece4:	203a                	fld	ft0,392(sp)
   1ece6:	2c64255b          	0x2c64255b
   1ecea:	6425                	lui	s0,0x9
   1ecec:	252c                	fld	fa1,72(a0)
   1ecee:	5d64                	lw	s1,124(a0)
   1ecf0:	000a                	0xa
   1ecf2:	0000                	unimp
   1ecf4:	0000                	unimp
   1ecf6:	0000                	unimp
   1ecf8:	694c                	ld	a1,144(a0)
   1ecfa:	73207473          	csrrci	s0,0x732,0
   1ecfe:	2074726f          	jal	tp,66704 <heap_memory_used+0x4444c>
   1ed02:	3a31                	addiw	s4,s4,-20
   1ed04:	2520                	fld	fs0,72(a0)
   1ed06:	3430                	fld	fa2,104(s0)
   1ed08:	0a78                	addi	a4,sp,284
   1ed0a:	0000                	unimp
   1ed0c:	0000                	unimp
   1ed0e:	0000                	unimp
   1ed10:	694c                	ld	a1,144(a0)
   1ed12:	73207473          	csrrci	s0,0x732,0
   1ed16:	2074726f          	jal	tp,6671c <heap_memory_used+0x44464>
   1ed1a:	3a32                	fld	fs4,296(sp)
   1ed1c:	2520                	fld	fs0,72(a0)
   1ed1e:	3430                	fld	fa2,104(s0)
   1ed20:	0a78                	addi	a4,sp,284
   1ed22:	0000                	unimp
   1ed24:	0000                	unimp
   1ed26:	0000                	unimp
   1ed28:	6e49                	lui	t3,0x12
   1ed2a:	7469                	lui	s0,0xffffa
   1ed2c:	6169                	addi	sp,sp,208
   1ed2e:	696c                	ld	a1,208(a0)
   1ed30:	657a                	ld	a0,408(sp)
   1ed32:	2064                	fld	fs1,192(s0)
   1ed34:	696c                	ld	a1,208(a0)
   1ed36:	0a3a7473          	csrrci	s0,0xa3,20
   1ed3a:	0000                	unimp
   1ed3c:	0000                	unimp
   1ed3e:	0000                	unimp
   1ed40:	3430255b          	0x3430255b
   1ed44:	2c78                	fld	fa4,216(s0)
   1ed46:	3025                	0x3025
   1ed48:	7834                	ld	a3,112(s0)
   1ed4a:	005d                	c.addi	zero,23
   1ed4c:	0000                	unimp
   1ed4e:	0000                	unimp
   1ed50:	6b36                	ld	s6,328(sp)
   1ed52:	7020                	ld	s0,96(s0)
   1ed54:	7265                	lui	tp,0xffff9
   1ed56:	6f66                	ld	t5,88(sp)
   1ed58:	6d72                	ld	s10,280(sp)
   1ed5a:	6e61                	lui	t3,0x18
   1ed5c:	72206563          	bltu	zero,sp,1f486 <errpat+0xe2e>
   1ed60:	6e75                	lui	t3,0x1d
   1ed62:	7020                	ld	s0,96(s0)
   1ed64:	7261                	lui	tp,0xffff8
   1ed66:	6d61                	lui	s10,0x18
   1ed68:	7465                	lui	s0,0xffff9
   1ed6a:	7265                	lui	tp,0xffff9
   1ed6c:	6f662073          	csrs	0x6f6,a2
   1ed70:	2072                	fld	ft0,280(sp)
   1ed72:	65726f63          	bltu	tp,s7,1f3d0 <errpat+0xd78>
   1ed76:	616d                	addi	sp,sp,240
   1ed78:	6b72                	ld	s6,280(sp)
   1ed7a:	0a2e                	slli	s4,s4,0xb
   1ed7c:	0000                	unimp
   1ed7e:	0000                	unimp
   1ed80:	6b36                	ld	s6,328(sp)
   1ed82:	7620                	ld	s0,104(a2)
   1ed84:	6c61                	lui	s8,0x18
   1ed86:	6469                	lui	s0,0x1a
   1ed88:	7461                	lui	s0,0xffff8
   1ed8a:	6f69                	lui	t5,0x1a
   1ed8c:	206e                	fld	ft0,216(sp)
   1ed8e:	7572                	ld	a0,312(sp)
   1ed90:	206e                	fld	ft0,216(sp)
   1ed92:	6170                	ld	a2,192(a0)
   1ed94:	6172                	ld	sp,280(sp)
   1ed96:	656d                	lui	a0,0x1b
   1ed98:	6574                	ld	a3,200(a0)
   1ed9a:	7372                	ld	t1,312(sp)
   1ed9c:	6620                	ld	s0,72(a2)
   1ed9e:	6320726f          	jal	tp,263d0 <heap_memory_used+0x4118>
   1eda2:	6d65726f          	jal	tp,76478 <heap_memory_used+0x541c0>
   1eda6:	7261                	lui	tp,0xffff8
   1eda8:	000a2e6b          	0xa2e6b
   1edac:	0000                	unimp
   1edae:	0000                	unimp
   1edb0:	7250                	ld	a2,160(a2)
   1edb2:	6c69666f          	jal	a2,b5478 <heap_memory_used+0x931c0>
   1edb6:	2065                	0x2065
   1edb8:	656e6567          	0x656e6567
   1edbc:	6172                	ld	sp,280(sp)
   1edbe:	6974                	ld	a3,208(a0)
   1edc0:	72206e6f          	jal	t3,254e2 <heap_memory_used+0x322a>
   1edc4:	6e75                	lui	t3,0x1d
   1edc6:	7020                	ld	s0,96(s0)
   1edc8:	7261                	lui	tp,0xffff8
   1edca:	6d61                	lui	s10,0x18
   1edcc:	7465                	lui	s0,0xffff9
   1edce:	7265                	lui	tp,0xffff9
   1edd0:	6f662073          	csrs	0x6f6,a2
   1edd4:	2072                	fld	ft0,280(sp)
   1edd6:	65726f63          	bltu	tp,s7,1f434 <errpat+0xddc>
   1edda:	616d                	addi	sp,sp,240
   1eddc:	6b72                	ld	s6,280(sp)
   1edde:	0a2e                	slli	s4,s4,0xb
	...
   1ede8:	4b32                	lw	s6,12(sp)
   1edea:	7020                	ld	s0,96(s0)
   1edec:	7265                	lui	tp,0xffff9
   1edee:	6f66                	ld	t5,88(sp)
   1edf0:	6d72                	ld	s10,280(sp)
   1edf2:	6e61                	lui	t3,0x18
   1edf4:	72206563          	bltu	zero,sp,1f51e <errpat+0xec6>
   1edf8:	6e75                	lui	t3,0x1d
   1edfa:	7020                	ld	s0,96(s0)
   1edfc:	7261                	lui	tp,0xffff8
   1edfe:	6d61                	lui	s10,0x18
   1ee00:	7465                	lui	s0,0xffff9
   1ee02:	7265                	lui	tp,0xffff9
   1ee04:	6f662073          	csrs	0x6f6,a2
   1ee08:	2072                	fld	ft0,280(sp)
   1ee0a:	65726f63          	bltu	tp,s7,1f468 <errpat+0xe10>
   1ee0e:	616d                	addi	sp,sp,240
   1ee10:	6b72                	ld	s6,280(sp)
   1ee12:	0a2e                	slli	s4,s4,0xb
   1ee14:	0000                	unimp
   1ee16:	0000                	unimp
   1ee18:	4b32                	lw	s6,12(sp)
   1ee1a:	7620                	ld	s0,104(a2)
   1ee1c:	6c61                	lui	s8,0x18
   1ee1e:	6469                	lui	s0,0x1a
   1ee20:	7461                	lui	s0,0xffff8
   1ee22:	6f69                	lui	t5,0x1a
   1ee24:	206e                	fld	ft0,216(sp)
   1ee26:	7572                	ld	a0,312(sp)
   1ee28:	206e                	fld	ft0,216(sp)
   1ee2a:	6170                	ld	a2,192(a0)
   1ee2c:	6172                	ld	sp,280(sp)
   1ee2e:	656d                	lui	a0,0x1b
   1ee30:	6574                	ld	a3,200(a0)
   1ee32:	7372                	ld	t1,312(sp)
   1ee34:	6620                	ld	s0,72(a2)
   1ee36:	6320726f          	jal	tp,26468 <heap_memory_used+0x41b0>
   1ee3a:	6d65726f          	jal	tp,76510 <heap_memory_used+0x54258>
   1ee3e:	7261                	lui	tp,0xffff8
   1ee40:	000a2e6b          	0xa2e6b
   1ee44:	0000                	unimp
   1ee46:	0000                	unimp
   1ee48:	5d75255b          	0x5d75255b
   1ee4c:	5245                	li	tp,-15
   1ee4e:	4f52                	lw	t5,20(sp)
   1ee50:	2152                	fld	ft2,272(sp)
   1ee52:	6c20                	ld	s0,88(s0)
   1ee54:	7369                	lui	t1,0xffffa
   1ee56:	2074                	fld	fa3,192(s0)
   1ee58:	20637263          	bleu	t1,t1,1f05c <errpat+0xa04>
   1ee5c:	7830                	ld	a2,112(s0)
   1ee5e:	3025                	0x3025
   1ee60:	7834                	ld	a3,112(s0)
   1ee62:	2d20                	fld	fs0,88(a0)
   1ee64:	7320                	ld	s0,96(a4)
   1ee66:	6f68                	ld	a0,216(a4)
   1ee68:	6c75                	lui	s8,0x1d
   1ee6a:	2064                	fld	fs1,192(s0)
   1ee6c:	6562                	ld	a0,24(sp)
   1ee6e:	3020                	fld	fs0,96(s0)
   1ee70:	2578                	fld	fa4,200(a0)
   1ee72:	3430                	fld	fa2,104(s0)
   1ee74:	0a78                	addi	a4,sp,284
   1ee76:	0000                	unimp
   1ee78:	5d75255b          	0x5d75255b
   1ee7c:	5245                	li	tp,-15
   1ee7e:	4f52                	lw	t5,20(sp)
   1ee80:	2152                	fld	ft2,272(sp)
   1ee82:	6d20                	ld	s0,88(a0)
   1ee84:	7461                	lui	s0,0xffff8
   1ee86:	6972                	ld	s2,280(sp)
   1ee88:	2078                	fld	fa4,192(s0)
   1ee8a:	20637263          	bleu	t1,t1,1f08e <errpat+0xa36>
   1ee8e:	7830                	ld	a2,112(s0)
   1ee90:	3025                	0x3025
   1ee92:	7834                	ld	a3,112(s0)
   1ee94:	2d20                	fld	fs0,88(a0)
   1ee96:	7320                	ld	s0,96(a4)
   1ee98:	6f68                	ld	a0,216(a4)
   1ee9a:	6c75                	lui	s8,0x1d
   1ee9c:	2064                	fld	fs1,192(s0)
   1ee9e:	6562                	ld	a0,24(sp)
   1eea0:	3020                	fld	fs0,96(s0)
   1eea2:	2578                	fld	fa4,200(a0)
   1eea4:	3430                	fld	fa2,104(s0)
   1eea6:	0a78                	addi	a4,sp,284
	...
   1eeb0:	5d75255b          	0x5d75255b
   1eeb4:	5245                	li	tp,-15
   1eeb6:	4f52                	lw	t5,20(sp)
   1eeb8:	2152                	fld	ft2,272(sp)
   1eeba:	7320                	ld	s0,96(a4)
   1eebc:	6174                	ld	a3,192(a0)
   1eebe:	6574                	ld	a3,200(a0)
   1eec0:	6320                	ld	s0,64(a4)
   1eec2:	6372                	ld	t1,280(sp)
   1eec4:	3020                	fld	fs0,96(s0)
   1eec6:	2578                	fld	fa4,200(a0)
   1eec8:	3430                	fld	fa2,104(s0)
   1eeca:	2078                	fld	fa4,192(s0)
   1eecc:	202d                	0x202d
   1eece:	756f6873          	csrrsi	a6,0x756,30
   1eed2:	646c                	ld	a1,200(s0)
   1eed4:	6220                	ld	s0,64(a2)
   1eed6:	2065                	0x2065
   1eed8:	7830                	ld	a2,112(s0)
   1eeda:	3025                	0x3025
   1eedc:	7834                	ld	a3,112(s0)
   1eede:	000a                	0xa
   1eee0:	65726f43          	0x65726f43
   1eee4:	614d                	addi	sp,sp,176
   1eee6:	6b72                	ld	s6,280(sp)
   1eee8:	5320                	lw	s0,96(a4)
   1eeea:	7a69                	lui	s4,0xffffa
   1eeec:	2065                	0x2065
   1eeee:	2020                	fld	fs0,64(s0)
   1eef0:	3a20                	fld	fs0,112(a2)
   1eef2:	2520                	fld	fs0,72(a0)
   1eef4:	756c                	ld	a1,232(a0)
   1eef6:	000a                	0xa
   1eef8:	6f54                	ld	a3,152(a4)
   1eefa:	6174                	ld	a3,192(a0)
   1eefc:	206c                	fld	fa1,192(s0)
   1eefe:	6974                	ld	a3,208(a0)
   1ef00:	20736b63          	bltu	t1,t2,1f116 <errpat+0xabe>
   1ef04:	2020                	fld	fs0,64(s0)
   1ef06:	2020                	fld	fs0,64(s0)
   1ef08:	3a20                	fld	fs0,112(a2)
   1ef0a:	2520                	fld	fs0,72(a0)
   1ef0c:	756c                	ld	a1,232(a0)
   1ef0e:	000a                	0xa
   1ef10:	6f54                	ld	a3,152(a4)
   1ef12:	6174                	ld	a3,192(a0)
   1ef14:	206c                	fld	fa1,192(s0)
   1ef16:	6974                	ld	a3,208(a0)
   1ef18:	656d                	lui	a0,0x1b
   1ef1a:	2820                	fld	fs0,80(s0)
   1ef1c:	73636573          	csrrsi	a0,0x736,6
   1ef20:	3a29                	addiw	s4,s4,-22
   1ef22:	2520                	fld	fs0,72(a0)
   1ef24:	2e64                	fld	fs1,216(a2)
   1ef26:	6425                	lui	s0,0x9
   1ef28:	6425                	lui	s0,0x9
   1ef2a:	6425                	lui	s0,0x9
   1ef2c:	000a                	0xa
   1ef2e:	0000                	unimp
   1ef30:	7449                	lui	s0,0xffff2
   1ef32:	7265                	lui	tp,0xffff9
   1ef34:	7461                	lui	s0,0xffff8
   1ef36:	6f69                	lui	t5,0x1a
   1ef38:	736e                	ld	t1,248(sp)
   1ef3a:	6365532f          	0x6365532f
   1ef3e:	2020                	fld	fs0,64(s0)
   1ef40:	3a20                	fld	fs0,112(a2)
   1ef42:	2520                	fld	fs0,72(a0)
   1ef44:	2e64                	fld	fs1,216(a2)
   1ef46:	6425                	lui	s0,0x9
   1ef48:	6425                	lui	s0,0x9
   1ef4a:	6425                	lui	s0,0x9
   1ef4c:	000a                	0xa
   1ef4e:	0000                	unimp
   1ef50:	5245                	li	tp,-15
   1ef52:	4f52                	lw	t5,20(sp)
   1ef54:	2152                	fld	ft2,272(sp)
   1ef56:	4d20                	lw	s0,88(a0)
   1ef58:	7375                	lui	t1,0xffffd
   1ef5a:	2074                	fld	fa3,192(s0)
   1ef5c:	7865                	lui	a6,0xffff9
   1ef5e:	6365                	lui	t1,0x19
   1ef60:	7475                	lui	s0,0xffffd
   1ef62:	2065                	0x2065
   1ef64:	6f66                	ld	t5,88(sp)
   1ef66:	2072                	fld	ft0,280(sp)
   1ef68:	7461                	lui	s0,0xffff8
   1ef6a:	6c20                	ld	s0,88(s0)
   1ef6c:	6165                	addi	sp,sp,112
   1ef6e:	31207473          	csrrci	s0,0x312,0
   1ef72:	2030                	fld	fa2,64(s0)
   1ef74:	73636573          	csrrsi	a0,0x736,6
   1ef78:	6620                	ld	s0,72(a2)
   1ef7a:	6120726f          	jal	tp,2658c <heap_memory_used+0x42d4>
   1ef7e:	7620                	ld	s0,104(a2)
   1ef80:	6c61                	lui	s8,0x18
   1ef82:	6469                	lui	s0,0x1a
   1ef84:	7220                	ld	s0,96(a2)
   1ef86:	7365                	lui	t1,0xffff9
   1ef88:	6c75                	lui	s8,0x1d
   1ef8a:	2174                	fld	fa3,192(a0)
   1ef8c:	000a                	0xa
   1ef8e:	0000                	unimp
   1ef90:	7449                	lui	s0,0xffff2
   1ef92:	7265                	lui	tp,0xffff9
   1ef94:	7461                	lui	s0,0xffff8
   1ef96:	6f69                	lui	t5,0x1a
   1ef98:	736e                	ld	t1,248(sp)
   1ef9a:	2020                	fld	fs0,64(s0)
   1ef9c:	2020                	fld	fs0,64(s0)
   1ef9e:	2020                	fld	fs0,64(s0)
   1efa0:	3a20                	fld	fs0,112(a2)
   1efa2:	2520                	fld	fs0,72(a0)
   1efa4:	756c                	ld	a1,232(a0)
   1efa6:	000a                	0xa
   1efa8:	6972                	ld	s2,280(sp)
   1efaa:	36766373          	csrrsi	t1,0x367,12
   1efae:	2d34                	fld	fa3,88(a0)
   1efb0:	6e75                	lui	t3,0x1d
   1efb2:	776f6e6b          	0x776f6e6b
   1efb6:	2d6e                	fld	fs10,216(sp)
   1efb8:	6c65                	lui	s8,0x19
   1efba:	2d66                	fld	fs10,88(sp)
   1efbc:	20636367          	0x20636367
   1efc0:	2e312e37          	lui	t3,0x2e312
   1efc4:	2031                	0x2031
   1efc6:	3032                	fld	ft0,296(sp)
   1efc8:	3731                	addiw	a4,a4,-20
   1efca:	3530                	fld	fa2,104(a0)
   1efcc:	3930                	fld	fa2,112(a0)
   1efce:	0000                	unimp
   1efd0:	706d6f43          	fmadd.s	ft10,fs10,ft6,fa4,unknown
   1efd4:	6c69                	lui	s8,0x1a
   1efd6:	7265                	lui	tp,0xffff9
   1efd8:	7620                	ld	s0,104(a2)
   1efda:	7265                	lui	tp,0xffff9
   1efdc:	6e6f6973          	csrrsi	s2,0x6e6,30
   1efe0:	3a20                	fld	fs0,112(a2)
   1efe2:	2520                	fld	fs0,72(a0)
   1efe4:	00000a73          	0xa73
   1efe8:	4f2d                	li	t5,11
   1efea:	0032                	0x32
   1efec:	0000                	unimp
   1efee:	0000                	unimp
   1eff0:	706d6f43          	fmadd.s	ft10,fs10,ft6,fa4,unknown
   1eff4:	6c69                	lui	s8,0x1a
   1eff6:	7265                	lui	tp,0xffff9
   1eff8:	6620                	ld	s0,72(a2)
   1effa:	616c                	ld	a1,192(a0)
   1effc:	20207367          	0x20207367
   1f000:	3a20                	fld	fs0,112(a2)
   1f002:	2520                	fld	fs0,72(a0)
   1f004:	00000a73          	0xa73
   1f008:	43415453          	0x43415453
   1f00c:	0000004b          	fnmsub.s	ft0,ft0,ft0,ft0,rne
   1f010:	654d                	lui	a0,0x13
   1f012:	6f6d                	lui	t5,0x1b
   1f014:	7972                	ld	s2,312(sp)
   1f016:	6c20                	ld	s0,88(s0)
   1f018:	7461636f          	jal	t1,3575e <heap_memory_used+0x134a6>
   1f01c:	6f69                	lui	t5,0x1a
   1f01e:	206e                	fld	ft0,216(sp)
   1f020:	3a20                	fld	fs0,112(a2)
   1f022:	2520                	fld	fs0,72(a0)
   1f024:	00000a73          	0xa73
   1f028:	64656573          	csrrsi	a0,0x646,10
   1f02c:	20637263          	bleu	t1,t1,1f230 <errpat+0xbd8>
   1f030:	2020                	fld	fs0,64(s0)
   1f032:	2020                	fld	fs0,64(s0)
   1f034:	2020                	fld	fs0,64(s0)
   1f036:	2020                	fld	fs0,64(s0)
   1f038:	3a20                	fld	fs0,112(a2)
   1f03a:	3020                	fld	fs0,96(s0)
   1f03c:	2578                	fld	fa4,200(a0)
   1f03e:	3430                	fld	fa2,104(s0)
   1f040:	0a78                	addi	a4,sp,284
   1f042:	0000                	unimp
   1f044:	0000                	unimp
   1f046:	0000                	unimp
   1f048:	5d64255b          	0x5d64255b
   1f04c:	6c637263          	bleu	t1,t1,1f710 <Arr_2_Glob+0x90>
   1f050:	7369                	lui	t1,0xffffa
   1f052:	2074                	fld	fa3,192(s0)
   1f054:	2020                	fld	fs0,64(s0)
   1f056:	2020                	fld	fs0,64(s0)
   1f058:	2020                	fld	fs0,64(s0)
   1f05a:	203a                	fld	ft0,392(sp)
   1f05c:	7830                	ld	a2,112(s0)
   1f05e:	3025                	0x3025
   1f060:	7834                	ld	a3,112(s0)
   1f062:	000a                	0xa
   1f064:	0000                	unimp
   1f066:	0000                	unimp
   1f068:	5d64255b          	0x5d64255b
   1f06c:	6d637263          	bleu	s6,t1,1f730 <Arr_2_Glob+0xb0>
   1f070:	7461                	lui	s0,0xffff8
   1f072:	6972                	ld	s2,280(sp)
   1f074:	2078                	fld	fa4,192(s0)
   1f076:	2020                	fld	fs0,64(s0)
   1f078:	2020                	fld	fs0,64(s0)
   1f07a:	203a                	fld	ft0,392(sp)
   1f07c:	7830                	ld	a2,112(s0)
   1f07e:	3025                	0x3025
   1f080:	7834                	ld	a3,112(s0)
   1f082:	000a                	0xa
   1f084:	0000                	unimp
   1f086:	0000                	unimp
   1f088:	5d64255b          	0x5d64255b
   1f08c:	73637263          	bleu	s6,t1,1f7b0 <Arr_2_Glob+0x130>
   1f090:	6174                	ld	a3,192(a0)
   1f092:	6574                	ld	a3,200(a0)
   1f094:	2020                	fld	fs0,64(s0)
   1f096:	2020                	fld	fs0,64(s0)
   1f098:	2020                	fld	fs0,64(s0)
   1f09a:	203a                	fld	ft0,392(sp)
   1f09c:	7830                	ld	a2,112(s0)
   1f09e:	3025                	0x3025
   1f0a0:	7834                	ld	a3,112(s0)
   1f0a2:	000a                	0xa
   1f0a4:	0000                	unimp
   1f0a6:	0000                	unimp
   1f0a8:	5d64255b          	0x5d64255b
   1f0ac:	66637263          	bleu	t1,t1,1f710 <Arr_2_Glob+0x90>
   1f0b0:	6e69                	lui	t3,0x1a
   1f0b2:	6c61                	lui	s8,0x18
   1f0b4:	2020                	fld	fs0,64(s0)
   1f0b6:	2020                	fld	fs0,64(s0)
   1f0b8:	2020                	fld	fs0,64(s0)
   1f0ba:	203a                	fld	ft0,392(sp)
   1f0bc:	7830                	ld	a2,112(s0)
   1f0be:	3025                	0x3025
   1f0c0:	7834                	ld	a3,112(s0)
   1f0c2:	000a                	0xa
   1f0c4:	0000                	unimp
   1f0c6:	0000                	unimp
   1f0c8:	72726f43          	fmadd.d	ft10,ft4,ft7,fa4,unknown
   1f0cc:	6365                	lui	t1,0x19
   1f0ce:	2074                	fld	fa3,192(s0)
   1f0d0:	7265706f          	j	767f6 <heap_memory_used+0x5453e>
   1f0d4:	7461                	lui	s0,0xffff8
   1f0d6:	6f69                	lui	t5,0x1a
   1f0d8:	206e                	fld	ft0,216(sp)
   1f0da:	6176                	ld	sp,344(sp)
   1f0dc:	696c                	ld	a1,208(a0)
   1f0de:	6164                	ld	s1,192(a0)
   1f0e0:	6574                	ld	a3,200(a0)
   1f0e2:	2e64                	fld	fs1,216(a2)
   1f0e4:	5320                	lw	s0,96(a4)
   1f0e6:	6565                	lui	a0,0x19
   1f0e8:	7220                	ld	s0,96(a2)
   1f0ea:	6165                	addi	sp,sp,112
   1f0ec:	6d64                	ld	s1,216(a0)
   1f0ee:	2e65                	addiw	t3,t3,25
   1f0f0:	7874                	ld	a3,240(s0)
   1f0f2:	2074                	fld	fa3,192(s0)
   1f0f4:	6f66                	ld	t5,88(sp)
   1f0f6:	2072                	fld	ft0,280(sp)
   1f0f8:	7572                	ld	a0,312(sp)
   1f0fa:	206e                	fld	ft0,216(sp)
   1f0fc:	6e61                	lui	t3,0x18
   1f0fe:	2064                	fld	fs1,192(s0)
   1f100:	6572                	ld	a0,280(sp)
   1f102:	6f70                	ld	a2,216(a4)
   1f104:	7472                	ld	s0,312(sp)
   1f106:	6e69                	lui	t3,0x1a
   1f108:	75722067          	0x75722067
   1f10c:	656c                	ld	a1,200(a0)
   1f10e:	000a2e73          	csrrs	t3,0x0,s4
   1f112:	0000                	unimp
   1f114:	0000                	unimp
   1f116:	0000                	unimp
   1f118:	65726f43          	0x65726f43
   1f11c:	614d                	addi	sp,sp,176
   1f11e:	6b72                	ld	s6,280(sp)
   1f120:	3120                	fld	fs0,96(a0)
   1f122:	302e                	fld	ft0,232(sp)
   1f124:	3a20                	fld	fs0,112(a2)
   1f126:	2520                	fld	fs0,72(a0)
   1f128:	2e64                	fld	fs1,216(a2)
   1f12a:	6425                	lui	s0,0x9
   1f12c:	6425                	lui	s0,0x9
   1f12e:	6425                	lui	s0,0x9
   1f130:	2020                	fld	fs0,64(s0)
   1f132:	7325202f          	0x7325202f
   1f136:	2520                	fld	fs0,72(a0)
   1f138:	00000073          	ecall
   1f13c:	0000                	unimp
   1f13e:	0000                	unimp
   1f140:	2f20                	fld	fs0,88(a4)
   1f142:	2520                	fld	fs0,72(a0)
   1f144:	00000073          	ecall
   1f148:	7245                	lui	tp,0xffff1
   1f14a:	6f72                	ld	t5,280(sp)
   1f14c:	7372                	ld	t1,312(sp)
   1f14e:	6420                	ld	s0,72(s0)
   1f150:	7465                	lui	s0,0xffff9
   1f152:	6365                	lui	t1,0x19
   1f154:	6574                	ld	a3,200(a0)
   1f156:	0a64                	addi	s1,sp,284
	...
   1f160:	6e6e6143          	0x6e6e6143
   1f164:	7620746f          	jal	s0,268c6 <heap_memory_used+0x460e>
   1f168:	6c61                	lui	s8,0x18
   1f16a:	6469                	lui	s0,0x1a
   1f16c:	7461                	lui	s0,0xffff8
   1f16e:	2065                	0x2065
   1f170:	7265706f          	j	76896 <heap_memory_used+0x545de>
   1f174:	7461                	lui	s0,0xffff8
   1f176:	6f69                	lui	t5,0x1a
   1f178:	206e                	fld	ft0,216(sp)
   1f17a:	6f66                	ld	t5,88(sp)
   1f17c:	2072                	fld	ft0,280(sp)
   1f17e:	6874                	ld	a3,208(s0)
   1f180:	7365                	lui	t1,0xffff9
   1f182:	2065                	0x2065
   1f184:	64656573          	csrrsi	a0,0x646,10
   1f188:	7620                	ld	s0,104(a2)
   1f18a:	6c61                	lui	s8,0x18
   1f18c:	6575                	lui	a0,0x1d
   1f18e:	70202c73          	csrr	s8,0x702
   1f192:	656c                	ld	a1,200(a0)
   1f194:	7361                	lui	t1,0xffff8
   1f196:	2065                	0x2065
   1f198:	706d6f63          	bltu	s10,t1,1f8b6 <Arr_2_Glob+0x236>
   1f19c:	7261                	lui	tp,0xffff8
   1f19e:	2065                	0x2065
   1f1a0:	68746977          	0x68746977
   1f1a4:	7220                	ld	s0,96(a2)
   1f1a6:	7365                	lui	t1,0xffff9
   1f1a8:	6c75                	lui	s8,0x1d
   1f1aa:	7374                	ld	a3,224(a4)
   1f1ac:	6f20                	ld	s0,88(a4)
   1f1ae:	206e                	fld	ft0,216(sp)
   1f1b0:	2061                	0x2061
   1f1b2:	776f6e6b          	0x776f6e6b
   1f1b6:	206e                	fld	ft0,216(sp)
   1f1b8:	6c70                	ld	a2,216(s0)
   1f1ba:	7461                	lui	s0,0xffff8
   1f1bc:	6f66                	ld	t5,88(sp)
   1f1be:	6d72                	ld	s10,280(sp)
   1f1c0:	0a2e                	slli	s4,s4,0xb
   1f1c2:	0000                	unimp
   1f1c4:	0000                	unimp
   1f1c6:	0000                	unimp
   1f1c8:	74617453          	0x74617453
   1f1cc:	6369                	lui	t1,0x1a
   1f1ce:	0000                	unimp
   1f1d0:	6548                	ld	a0,136(a0)
   1f1d2:	7061                	0x7061
   1f1d4:	0000                	unimp
   1f1d6:	0000                	unimp
   1f1d8:	63617453          	0x63617453
   1f1dc:	0000006b          	0x6b
   1f1e0:	614d                	addi	sp,sp,176
   1f1e2:	7274                	ld	a3,224(a2)
   1f1e4:	7869                	lui	a6,0xffffa
   1f1e6:	2520                	fld	fs0,72(a0)
   1f1e8:	255b2073          	csrs	0x255,s6
   1f1ec:	7864                	ld	s1,240(s0)
   1f1ee:	6425                	lui	s0,0x9
   1f1f0:	3a5d                	addiw	s4,s4,-9
   1f1f2:	000a                	0xa
   1f1f4:	0000                	unimp
   1f1f6:	0000                	unimp
   1f1f8:	002c                	addi	a1,sp,8
   1f1fa:	0000                	unimp
   1f1fc:	0000                	unimp
   1f1fe:	0000                	unimp
   1f200:	6425                	lui	s0,0x9
   1f202:	0000                	unimp
   1f204:	0000                	unimp
   1f206:	0000                	unimp
   1f208:	0041                	c.addi	zero,16
   1f20a:	0000                	unimp
   1f20c:	0000                	unimp
   1f20e:	0000                	unimp
   1f210:	0042                	0x42
   1f212:	0000                	unimp
   1f214:	0000                	unimp
   1f216:	0000                	unimp
   1f218:	616d                	addi	sp,sp,240
   1f21a:	7274                	ld	a3,224(a2)
   1f21c:	7869                	lui	a6,0xffffa
   1f21e:	615f 6464 635f      	0x635f6464615f
   1f224:	74736e6f          	jal	t3,5616a <heap_memory_used+0x33eb2>
	...
   1f230:	616d                	addi	sp,sp,240
   1f232:	7274                	ld	a3,224(a2)
   1f234:	7869                	lui	a6,0xffffa
   1f236:	6d5f 6c75 635f      	0x635f6c756d5f
   1f23c:	74736e6f          	jal	t3,56182 <heap_memory_used+0x33eca>
	...
   1f248:	616d                	addi	sp,sp,240
   1f24a:	7274                	ld	a3,224(a2)
   1f24c:	7869                	lui	a6,0xffffa
   1f24e:	6d5f 6c75 765f      	0x765f6c756d5f
   1f254:	6365                	lui	t1,0x19
   1f256:	0074                	addi	a3,sp,12
   1f258:	616d                	addi	sp,sp,240
   1f25a:	7274                	ld	a3,224(a2)
   1f25c:	7869                	lui	a6,0xffffa
   1f25e:	6d5f 6c75 6d5f      	0x6d5f6c756d5f
   1f264:	7461                	lui	s0,0xffff8
   1f266:	6972                	ld	s2,280(sp)
   1f268:	0078                	addi	a4,sp,12
   1f26a:	0000                	unimp
   1f26c:	0000                	unimp
   1f26e:	0000                	unimp
   1f270:	616d                	addi	sp,sp,240
   1f272:	7274                	ld	a3,224(a2)
   1f274:	7869                	lui	a6,0xffffa
   1f276:	6d5f 6c75 6d5f      	0x6d5f6c756d5f
   1f27c:	7461                	lui	s0,0xffff8
   1f27e:	6972                	ld	s2,280(sp)
   1f280:	5f78                	lw	a4,124(a4)
   1f282:	6962                	ld	s2,24(sp)
   1f284:	6574                	ld	a3,200(a0)
   1f286:	7478                	ld	a4,232(s0)
   1f288:	6172                	ld	sp,280(sp)
   1f28a:	00007463          	bleu	zero,zero,1f292 <errpat+0xc3a>
   1f28e:	0000                	unimp
   1f290:	5245                	li	tp,-15
   1f292:	4f52                	lw	t5,20(sp)
   1f294:	2152                	fld	ft2,272(sp)
   1f296:	5020                	lw	s0,96(s0)
   1f298:	656c                	ld	a1,200(a0)
   1f29a:	7361                	lui	t1,0xffff8
   1f29c:	2065                	0x2065
   1f29e:	6564                	ld	s1,200(a0)
   1f2a0:	6966                	ld	s2,88(sp)
   1f2a2:	656e                	ld	a0,216(sp)
   1f2a4:	6520                	ld	s0,72(a0)
   1f2a6:	5f65                	li	t5,-7
   1f2a8:	7470                	ld	a2,232(s0)
   1f2aa:	5f72                	lw	t5,60(sp)
   1f2ac:	6e69                	lui	t3,0x1a
   1f2ae:	2074                	fld	fa3,192(s0)
   1f2b0:	6f74                	ld	a3,216(a4)
   1f2b2:	6120                	ld	s0,64(a0)
   1f2b4:	7420                	ld	s0,104(s0)
   1f2b6:	7079                	0x7079
   1f2b8:	2065                	0x2065
   1f2ba:	6874                	ld	a3,208(s0)
   1f2bc:	7461                	lui	s0,0xffff8
   1f2be:	6820                	ld	s0,80(s0)
   1f2c0:	73646c6f          	jal	s8,659f6 <heap_memory_used+0x4373e>
   1f2c4:	6120                	ld	s0,64(a0)
   1f2c6:	7020                	ld	s0,96(s0)
   1f2c8:	746e696f          	jal	s2,105a0e <heap_memory_used+0xe3756>
   1f2cc:	7265                	lui	tp,0xffff9
   1f2ce:	0a21                	addi	s4,s4,8
	...
   1f2d8:	74617453          	0x74617453
   1f2dc:	3a65                	addiw	s4,s4,-7
   1f2de:	2520                	fld	fs0,72(a0)
   1f2e0:	2c64                	fld	fs1,216(s0)
   1f2e2:	6425                	lui	s0,0x9
   1f2e4:	000a                	0xa
   1f2e6:	0000                	unimp
   1f2e8:	74617453          	0x74617453
   1f2ec:	2065                	0x2065
   1f2ee:	6e49                	lui	t3,0x12
   1f2f0:	7570                	ld	a2,232(a0)
   1f2f2:	3a74                	fld	fa3,240(a2)
   1f2f4:	2520                	fld	fs0,72(a0)
   1f2f6:	00000a73          	0xa73
   1f2fa:	0000                	unimp
   1f2fc:	0000                	unimp
   1f2fe:	0000                	unimp
   1f300:	74617453          	0x74617453
   1f304:	2065                	0x2065
   1f306:	6542                	ld	a0,16(sp)
   1f308:	636e                	ld	t1,216(sp)
   1f30a:	3a68                	fld	fa0,240(a2)
   1f30c:	2520                	fld	fs0,72(a0)
   1f30e:	2c64                	fld	fs1,216(s0)
   1f310:	6425                	lui	s0,0x9
   1f312:	252c                	fld	fa1,72(a0)
   1f314:	2c64                	fld	fs1,216(s0)
   1f316:	3025                	0x3025
   1f318:	7834                	ld	a3,112(s0)
   1f31a:	000a                	0xa
   1f31c:	0000                	unimp
   1f31e:	0000                	unimp
   1f320:	6425                	lui	s0,0x9
   1f322:	002c                	addi	a1,sp,8
   1f324:	0000                	unimp
   1f326:	0000                	unimp
   1f328:	3054                	fld	fa3,160(s0)
   1f32a:	332e                	fld	ft6,232(sp)
   1f32c:	2d65                	addiw	s10,s10,25
   1f32e:	4631                	li	a2,12
	...
   1f338:	542d                	li	s0,-21
   1f33a:	542e                	lw	s0,232(sp)
   1f33c:	71542b2b          	0x71542b2b
	...
   1f348:	5431                	li	s0,-20
   1f34a:	65342e33          	0x65342e33
   1f34e:	7a34                	ld	a3,112(a2)
	...
   1f358:	302e3433          	0x302e3433
   1f35c:	2d65                	addiw	s10,s10,25
   1f35e:	5e54                	lw	a3,60(a2)
	...
   1f368:	2e35                	addiw	t3,t3,13
   1f36a:	3035                	0x3035
   1f36c:	6530                	ld	a2,72(a0)
   1f36e:	0000332b          	0x332b
   1f372:	0000                	unimp
   1f374:	0000                	unimp
   1f376:	0000                	unimp
   1f378:	2e2d                	addiw	t3,t3,11
   1f37a:	3231                	addiw	tp,tp,-20
   1f37c:	322d6533          	0x322d6533
	...
   1f388:	382d                	addiw	a6,a6,-21
   1f38a:	382b6537          	lui	a0,0x382b6
   1f38e:	00003233          	snez	tp,zero
   1f392:	0000                	unimp
   1f394:	0000                	unimp
   1f396:	0000                	unimp
   1f398:	362e302b          	0x362e302b
   1f39c:	2d65                	addiw	s10,s10,25
   1f39e:	3231                	addiw	tp,tp,-20
	...
   1f3a8:	352e3533          	0x352e3533
   1f3ac:	3434                	fld	fa3,104(s0)
   1f3ae:	3030                	fld	fa2,96(s0)
	...
   1f3b8:	312e                	fld	ft2,232(sp)
   1f3ba:	3332                	fld	ft6,296(sp)
   1f3bc:	3534                	fld	fa3,104(a0)
   1f3be:	3030                	fld	fa2,96(s0)
	...
   1f3c8:	312d                	addiw	sp,sp,-21
   1f3ca:	3031                	0x3031
   1f3cc:	372e                	fld	fa4,232(sp)
   1f3ce:	3030                	fld	fa2,96(s0)
	...
   1f3d8:	362e302b          	0x362e302b
   1f3dc:	3434                	fld	fa3,104(s0)
   1f3de:	3030                	fld	fa2,96(s0)
	...
   1f3e8:	3035                	0x3035
   1f3ea:	3231                	addiw	tp,tp,-20
   1f3ec:	0000                	unimp
   1f3ee:	0000                	unimp
   1f3f0:	3231                	addiw	tp,tp,-20
   1f3f2:	00003433          	snez	s0,zero
   1f3f6:	0000                	unimp
   1f3f8:	382d                	addiw	a6,a6,-21
   1f3fa:	00003437          	lui	s0,0x3
   1f3fe:	0000                	unimp
   1f400:	3232312b          	0x3232312b
   1f404:	0000                	unimp
   1f406:	0000                	unimp
   1f408:	5245                	li	tp,-15
   1f40a:	4f52                	lw	t5,20(sp)
   1f40c:	3a52                	fld	fs4,304(sp)
   1f40e:	6520                	ld	s0,72(a0)
   1f410:	5f65                	li	t5,-7
   1f412:	7470                	ld	a2,232(s0)
   1f414:	5f72                	lw	t5,60(sp)
   1f416:	6e69                	lui	t3,0x1a
   1f418:	2074                	fld	fa3,192(s0)
   1f41a:	7369                	lui	t1,0xffffa
   1f41c:	6e20                	ld	s0,88(a2)
   1f41e:	6120746f          	jal	s0,26a30 <heap_memory_used+0x4778>
   1f422:	6420                	ld	s0,72(s0)
   1f424:	7461                	lui	s0,0xffff8
   1f426:	7461                	lui	s0,0xffff8
   1f428:	7079                	0x7079
   1f42a:	2065                	0x2065
   1f42c:	6874                	ld	a3,208(s0)
   1f42e:	7461                	lui	s0,0xffff8
   1f430:	6820                	ld	s0,80(s0)
   1f432:	73646c6f          	jal	s8,65b68 <heap_memory_used+0x438b0>
   1f436:	6120                	ld	s0,64(a0)
   1f438:	206e                	fld	ft0,216(sp)
   1f43a:	6e69                	lui	t3,0x1a
   1f43c:	2074                	fld	fa3,192(s0)
   1f43e:	6f70                	ld	a2,216(a4)
   1f440:	6e69                	lui	t3,0x1a
   1f442:	6574                	ld	a3,200(a0)
   1f444:	2172                	fld	ft2,280(sp)
   1f446:	000a                	0xa
   1f448:	5245                	li	tp,-15
   1f44a:	4f52                	lw	t5,20(sp)
   1f44c:	3a52                	fld	fs4,304(sp)
   1f44e:	5020                	lw	s0,96(s0)
   1f450:	656c                	ld	a1,200(a0)
   1f452:	7361                	lui	t1,0xffff8
   1f454:	2065                	0x2065
   1f456:	6f6d                	lui	t5,0x1b
   1f458:	6964                	ld	s1,208(a0)
   1f45a:	7966                	ld	s2,120(sp)
   1f45c:	7420                	ld	s0,104(s0)
   1f45e:	6568                	ld	a0,200(a0)
   1f460:	6420                	ld	s0,72(s0)
   1f462:	7461                	lui	s0,0xffff8
   1f464:	7461                	lui	s0,0xffff8
   1f466:	7079                	0x7079
   1f468:	7365                	lui	t1,0xffff9
   1f46a:	6920                	ld	s0,80(a0)
   1f46c:	206e                	fld	ft0,216(sp)
   1f46e:	65726f63          	bltu	tp,s7,1facc <Arr_2_Glob+0x44c>
   1f472:	705f 726f 6d74      	0x6d74726f705f
   1f478:	2e65                	addiw	t3,t3,25
   1f47a:	2168                	fld	fa0,192(a0)
   1f47c:	000a                	0xa
   1f47e:	0000                	unimp
   1f480:	0a0a                	slli	s4,s4,0x2
   1f482:	2d2d                	addiw	s10,s10,11
   1f484:	2d2d                	addiw	s10,s10,11
   1f486:	2d2d                	addiw	s10,s10,11
   1f488:	2d2d                	addiw	s10,s10,11
   1f48a:	2d2d                	addiw	s10,s10,11
   1f48c:	2d2d                	addiw	s10,s10,11
   1f48e:	2d2d                	addiw	s10,s10,11
   1f490:	2d2d                	addiw	s10,s10,11
   1f492:	2d2d                	addiw	s10,s10,11
   1f494:	2d2d                	addiw	s10,s10,11
   1f496:	2d2d                	addiw	s10,s10,11
   1f498:	2d2d                	addiw	s10,s10,11
   1f49a:	5220                	lw	s0,96(a2)
   1f49c:	5349                	li	t1,-14
   1f49e:	20562d43          	fmadd.s	fs10,fa2,ft5,ft4,rdn
   1f4a2:	5349                	li	t1,-14
   1f4a4:	2041                	0x2041
   1f4a6:	6554                	ld	a3,136(a0)
   1f4a8:	73277473          	csrrci	s0,0x732,14
   1f4ac:	4220                	lw	s0,64(a2)
   1f4ae:	6765                	lui	a4,0x19
   1f4b0:	6e69                	lui	t3,0x1a
   1f4b2:	2d2d2073          	csrs	0x2d2,s10
   1f4b6:	2d2d                	addiw	s10,s10,11
   1f4b8:	2d2d                	addiw	s10,s10,11
   1f4ba:	2d2d                	addiw	s10,s10,11
   1f4bc:	2d2d                	addiw	s10,s10,11
   1f4be:	2d2d                	addiw	s10,s10,11
   1f4c0:	2d2d                	addiw	s10,s10,11
   1f4c2:	2d2d                	addiw	s10,s10,11
   1f4c4:	2d2d                	addiw	s10,s10,11
   1f4c6:	2d2d                	addiw	s10,s10,11
   1f4c8:	2d2d                	addiw	s10,s10,11
   1f4ca:	2d2d                	addiw	s10,s10,11
   1f4cc:	000a                	0xa
   1f4ce:	0000                	unimp
   1f4d0:	0a0a                	slli	s4,s4,0x2
   1f4d2:	2d2d                	addiw	s10,s10,11
   1f4d4:	2d2d                	addiw	s10,s10,11
   1f4d6:	2d2d                	addiw	s10,s10,11
   1f4d8:	2d2d                	addiw	s10,s10,11
   1f4da:	2d2d                	addiw	s10,s10,11
   1f4dc:	2d2d                	addiw	s10,s10,11
   1f4de:	2d2d                	addiw	s10,s10,11
   1f4e0:	2d2d                	addiw	s10,s10,11
   1f4e2:	2d2d                	addiw	s10,s10,11
   1f4e4:	2d2d                	addiw	s10,s10,11
   1f4e6:	2d2d                	addiw	s10,s10,11
   1f4e8:	2d2d                	addiw	s10,s10,11
   1f4ea:	4420                	lw	s0,72(s0)
   1f4ec:	7268                	ld	a0,224(a2)
   1f4ee:	7379                	lui	t1,0xffffe
   1f4f0:	6f74                	ld	a3,216(a4)
   1f4f2:	656e                	ld	a0,216(sp)
   1f4f4:	4220                	lw	s0,64(a2)
   1f4f6:	6e65                	lui	t3,0x19
   1f4f8:	616d6863          	bltu	s10,s6,1fb08 <Arr_2_Glob+0x488>
   1f4fc:	6b72                	ld	s6,280(sp)
   1f4fe:	4220                	lw	s0,64(a2)
   1f500:	6765                	lui	a4,0x19
   1f502:	6e69                	lui	t3,0x1a
   1f504:	2d2d2073          	csrs	0x2d2,s10
   1f508:	2d2d                	addiw	s10,s10,11
   1f50a:	2d2d                	addiw	s10,s10,11
   1f50c:	2d2d                	addiw	s10,s10,11
   1f50e:	2d2d                	addiw	s10,s10,11
   1f510:	2d2d                	addiw	s10,s10,11
   1f512:	2d2d                	addiw	s10,s10,11
   1f514:	2d2d                	addiw	s10,s10,11
   1f516:	2d2d                	addiw	s10,s10,11
   1f518:	2d2d                	addiw	s10,s10,11
   1f51a:	2d2d                	addiw	s10,s10,11
   1f51c:	2d2d                	addiw	s10,s10,11
   1f51e:	000a                	0xa
   1f520:	0a0a                	slli	s4,s4,0x2
   1f522:	2d2d                	addiw	s10,s10,11
   1f524:	2d2d                	addiw	s10,s10,11
   1f526:	2d2d                	addiw	s10,s10,11
   1f528:	2d2d                	addiw	s10,s10,11
   1f52a:	2d2d                	addiw	s10,s10,11
   1f52c:	2d2d                	addiw	s10,s10,11
   1f52e:	2d2d                	addiw	s10,s10,11
   1f530:	2d2d                	addiw	s10,s10,11
   1f532:	2d2d                	addiw	s10,s10,11
   1f534:	2d2d                	addiw	s10,s10,11
   1f536:	2d2d                	addiw	s10,s10,11
   1f538:	2d2d                	addiw	s10,s10,11
   1f53a:	4320                	lw	s0,64(a4)
   1f53c:	6d65726f          	jal	tp,76c12 <heap_memory_used+0x5495a>
   1f540:	7261                	lui	tp,0xffff8
   1f542:	6542206b          	0x6542206b
   1f546:	636e                	ld	t1,216(sp)
   1f548:	6d68                	ld	a0,216(a0)
   1f54a:	7261                	lui	tp,0xffff8
   1f54c:	6542206b          	0x6542206b
   1f550:	736e6967          	0x736e6967
   1f554:	2d20                	fld	fs0,88(a0)
   1f556:	2d2d                	addiw	s10,s10,11
   1f558:	2d2d                	addiw	s10,s10,11
   1f55a:	2d2d                	addiw	s10,s10,11
   1f55c:	2d2d                	addiw	s10,s10,11
   1f55e:	2d2d                	addiw	s10,s10,11
   1f560:	2d2d                	addiw	s10,s10,11
   1f562:	2d2d                	addiw	s10,s10,11
   1f564:	2d2d                	addiw	s10,s10,11
   1f566:	2d2d                	addiw	s10,s10,11
   1f568:	2d2d                	addiw	s10,s10,11
   1f56a:	2d2d                	addiw	s10,s10,11
   1f56c:	0a2d                	addi	s4,s4,11
   1f56e:	0000                	unimp
   1f570:	0a0a                	slli	s4,s4,0x2
   1f572:	2d2d                	addiw	s10,s10,11
   1f574:	2d2d                	addiw	s10,s10,11
   1f576:	2d2d                	addiw	s10,s10,11
   1f578:	2d2d                	addiw	s10,s10,11
   1f57a:	2d2d                	addiw	s10,s10,11
   1f57c:	2d2d                	addiw	s10,s10,11
   1f57e:	2d2d                	addiw	s10,s10,11
   1f580:	2d2d                	addiw	s10,s10,11
   1f582:	2d2d                	addiw	s10,s10,11
   1f584:	2d2d                	addiw	s10,s10,11
   1f586:	2d2d                	addiw	s10,s10,11
   1f588:	2d2d                	addiw	s10,s10,11
   1f58a:	4520                	lw	s0,72(a0)
   1f58c:	6978                	ld	a4,208(a0)
   1f58e:	6974                	ld	a3,208(a0)
   1f590:	676e                	ld	a4,216(sp)
   1f592:	5020                	lw	s0,96(s0)
   1f594:	6f72                	ld	t5,280(sp)
   1f596:	6d617267          	0x6d617267
   1f59a:	2d20                	fld	fs0,88(a0)
   1f59c:	2d2d                	addiw	s10,s10,11
   1f59e:	2d2d                	addiw	s10,s10,11
   1f5a0:	2d2d                	addiw	s10,s10,11
   1f5a2:	2d2d                	addiw	s10,s10,11
   1f5a4:	2d2d                	addiw	s10,s10,11
   1f5a6:	2d2d                	addiw	s10,s10,11
   1f5a8:	2d2d                	addiw	s10,s10,11
   1f5aa:	2d2d                	addiw	s10,s10,11
   1f5ac:	2d2d                	addiw	s10,s10,11
   1f5ae:	2d2d                	addiw	s10,s10,11
   1f5b0:	2d2d                	addiw	s10,s10,11
   1f5b2:	0a2d                	addi	s4,s4,11
   1f5b4:	0000                	unimp
   1f5b6:	0000                	unimp
   1f5b8:	3130                	fld	fa2,96(a0)
   1f5ba:	3332                	fld	ft6,296(sp)
   1f5bc:	3534                	fld	fa3,104(a0)
   1f5be:	3736                	fld	fa4,360(sp)
   1f5c0:	3938                	fld	fa4,112(a0)
   1f5c2:	4241                	li	tp,16
   1f5c4:	46454443          	0x46454443
	...

Disassembly of section .data:

000000000001f5d0 <tdat>:
   1f5d0:	00ff                	0xff

000000000001f5d1 <tdat2>:
	...

000000000001f5d2 <tdat3>:
   1f5d2:	0ff0                	addi	a2,sp,988

000000000001f5d3 <tdat4>:
   1f5d3:	f000ff0f          	0xf000ff0f

000000000001f5d4 <tdat>:
   1f5d4:	00ff                	0xff

000000000001f5d5 <tdat2>:
	...

000000000001f5d6 <tdat3>:
   1f5d6:	0ff0                	addi	a2,sp,988

000000000001f5d7 <tdat4>:
   1f5d7:	0000ff0f          	0xff0f

000000000001f5d8 <tdat>:
   1f5d8:	00ff                	0xff

000000000001f5da <tdat2>:
   1f5da:	ff00                	sd	s0,56(a4)

000000000001f5dc <tdat3>:
   1f5dc:	0ff0                	addi	a2,sp,988

000000000001f5de <tdat4>:
   1f5de:	00fff00f          	0xfff00f

000000000001f5e0 <tdat>:
   1f5e0:	00ff                	0xff

000000000001f5e2 <tdat2>:
   1f5e2:	ff00                	sd	s0,56(a4)

000000000001f5e4 <tdat3>:
   1f5e4:	0ff0                	addi	a2,sp,988

000000000001f5e6 <tdat4>:
   1f5e6:	00fff00f          	0xfff00f

000000000001f5e8 <tdat>:
   1f5e8:	00ff                	0xff
   1f5ea:	00ff                	0xff

000000000001f5ec <tdat2>:
   1f5ec:	ff00                	sd	s0,56(a4)
   1f5ee:	ff00                	sd	s0,56(a4)

000000000001f5f0 <tdat3>:
   1f5f0:	0ff0                	addi	a2,sp,988
   1f5f2:	0ff0                	addi	a2,sp,988

000000000001f5f4 <tdat4>:
   1f5f4:	f00ff00f          	0xf00ff00f

000000000001f5f8 <tdat>:
   1f5f8:	efefefef          	jal	t6,1dcf6 <crcu8+0x16>

000000000001f5f9 <tdat2>:
   1f5f9:	efefefef          	jal	t6,1dcf7 <crcu8+0x17>

000000000001f5fa <tdat3>:
   1f5fa:	efefefef          	jal	t6,1dcf8 <crcu8+0x18>

000000000001f5fb <tdat4>:
   1f5fb:	efefefef          	jal	t6,1dcf9 <crcu8+0x19>

000000000001f5fc <tdat5>:
   1f5fc:	efefefef          	jal	t6,1dcfa <crcu8+0x1a>

000000000001f5fd <tdat6>:
   1f5fd:	efefefef          	jal	t6,1dcfb <crcu8+0x1b>

000000000001f5fe <tdat7>:
   1f5fe:	efefefef          	jal	t6,1dcfc <crcu8+0x1c>

000000000001f5ff <tdat8>:
   1f5ff:	00efefef          	jal	t6,11d60d <heap_memory_used+0xfb355>

000000000001f600 <tdat9>:
   1f600:	0000efef          	jal	t6,2d600 <heap_memory_used+0xb348>

000000000001f601 <tdat10>:
   1f601:	ef0000ef          	jal	ra,fffffffffff1fcf1 <heap_memory_used+0xffffffffffefda39>

000000000001f604 <tdat>:
   1f604:	beefbeef          	jal	t4,1a9f2 <test_9+0x42>

000000000001f606 <tdat2>:
   1f606:	beefbeef          	jal	t4,1a9f4 <test_9+0x44>

000000000001f608 <tdat3>:
   1f608:	beefbeef          	jal	t4,1a9f6 <test_9+0x46>

000000000001f60a <tdat4>:
   1f60a:	beefbeef          	jal	t4,1a9f8 <test_10>

000000000001f60c <tdat5>:
   1f60c:	beefbeef          	jal	t4,1a9fa <test_10+0x2>

000000000001f60e <tdat6>:
   1f60e:	beefbeef          	jal	t4,1a9fc <test_10+0x4>

000000000001f610 <tdat7>:
   1f610:	beefbeef          	jal	t4,1a9fe <test_10+0x6>

000000000001f612 <tdat8>:
   1f612:	beefbeef          	jal	t4,1aa00 <test_10+0x8>

000000000001f614 <tdat9>:
   1f614:	beefbeef          	jal	t4,1aa02 <test_10+0xa>

000000000001f616 <tdat10>:
   1f616:	beefbeef          	jal	t4,1aa04 <test_10+0xc>

000000000001f618 <tdat>:
   1f618:	deadbeef          	jal	t4,ffffffffffffac02 <heap_memory_used+0xfffffffffffd894a>

000000000001f61c <tdat2>:
   1f61c:	deadbeef          	jal	t4,ffffffffffffac06 <heap_memory_used+0xfffffffffffd894e>

000000000001f620 <tdat3>:
   1f620:	deadbeef          	jal	t4,ffffffffffffac0a <heap_memory_used+0xfffffffffffd8952>

000000000001f624 <tdat4>:
   1f624:	deadbeef          	jal	t4,ffffffffffffac0e <heap_memory_used+0xfffffffffffd8956>

000000000001f628 <tdat5>:
   1f628:	deadbeef          	jal	t4,ffffffffffffac12 <heap_memory_used+0xfffffffffffd895a>

000000000001f62c <tdat6>:
   1f62c:	deadbeef          	jal	t4,ffffffffffffac16 <heap_memory_used+0xfffffffffffd895e>

000000000001f630 <tdat7>:
   1f630:	deadbeef          	jal	t4,ffffffffffffac1a <heap_memory_used+0xfffffffffffd8962>

000000000001f634 <tdat8>:
   1f634:	deadbeef          	jal	t4,ffffffffffffac1e <heap_memory_used+0xfffffffffffd8966>

000000000001f638 <tdat9>:
   1f638:	deadbeef          	jal	t4,ffffffffffffac22 <heap_memory_used+0xfffffffffffd896a>

000000000001f63c <tdat10>:
   1f63c:	deadbeef          	jal	t4,ffffffffffffac26 <heap_memory_used+0xfffffffffffd896e>

000000000001f640 <mem_name>:
   1f640:	f1c8                	sd	a0,160(a1)
   1f642:	0001                	nop
   1f644:	0000                	unimp
   1f646:	0000                	unimp
   1f648:	f1d0                	sd	a2,160(a1)
   1f64a:	0001                	nop
   1f64c:	0000                	unimp
   1f64e:	0000                	unimp
   1f650:	f1d8                	sd	a4,160(a1)
   1f652:	0001                	nop
   1f654:	0000                	unimp
	...

Disassembly of section .sdata:

000000000001f658 <default_num_contexts>:
   1f658:	0001                	nop
	...

000000000001f65c <seed3_volatile>:
   1f65c:	0066                	0x66
	...

Disassembly of section .bss:

000000000001f660 <Microseconds>:
   1f660:	0000                	unimp
	...

000000000001f664 <Dhrystones_Per_Second>:
   1f664:	0000                	unimp
	...

000000000001f668 <User_Insn>:
	...

000000000001f670 <User_Time>:
	...

000000000001f678 <Begin_Time>:
	...

000000000001f680 <Arr_2_Glob>:
	...

0000000000021d90 <End_Time>:
	...

0000000000021d98 <Next_Ptr_Glob>:
	...

0000000000021da0 <Int_Glob>:
   21da0:	0000                	unimp
	...

0000000000021da4 <Ch_1_Glob>:
	...

0000000000021da5 <Ch_2_Glob>:
   21da5:	0000                	unimp
	...

0000000000021da8 <Ptr_Glob>:
	...

0000000000021db0 <Begin_Insn>:
	...

0000000000021db8 <Arr_1_Glob>:
	...

0000000000021e80 <Bool_Glob>:
	...

0000000000021e88 <End_Insn>:
	...

0000000000021e90 <heap_memory>:
	...

Disassembly of section .sbss:

0000000000022290 <Reg>:
	...

0000000000022298 <stop_time_val>:
	...

00000000000222a0 <start_time_val>:
	...

00000000000222a8 <seed5_volatile>:
   222a8:	0000                	unimp
	...

00000000000222ac <seed4_volatile>:
   222ac:	0000                	unimp
	...

00000000000222b0 <seed2_volatile>:
   222b0:	0000                	unimp
	...

00000000000222b4 <seed1_volatile>:
   222b4:	0000                	unimp
	...

00000000000222b8 <heap_memory_used>:
   222b8:	0000                	unimp
	...

Disassembly of section .comment:

0000000000000000 <.comment>:
   0:	3a434347          	fmsub.d	ft6,ft6,ft4,ft7,rmm
   4:	2820                	fld	fs0,80(s0)
   6:	29554e47          	fmsub.s	ft8,fa0,fs5,ft5,rmm
   a:	3720                	fld	fs0,104(a4)
   c:	312e                	fld	ft2,232(sp)
   e:	312e                	fld	ft2,232(sp)
  10:	3220                	fld	fs0,96(a2)
  12:	3130                	fld	fa2,96(a0)
  14:	30353037          	lui	zero,0x30353
  18:	0039                	c.addi	zero,14
